 aectest

 Timestamp is 4c52ac97 (Fri Jul 30 16:12:31 2010)

 Preferred load address is 00400000

 Start         Length     Name                   Class
 0001:00000000 00057820H .textbss                DATA
 0002:00000000 000b4270H .text                   CODE
 0002:000b4270 0000111bH .text$x                 CODE
 0003:00000000 00000104H .CRT$XCA                DATA
 0003:00000104 00000104H .CRT$XCZ                DATA
 0003:00000208 00000104H .CRT$XIA                DATA
 0003:0000030c 0000011cH .CRT$XIC                DATA
 0003:00000428 00000104H .CRT$XIY                DATA
 0003:0000052c 00000104H .CRT$XIZ                DATA
 0003:00000630 00000104H .CRT$XPA                DATA
 0003:00000734 00000109H .CRT$XPX                DATA
 0003:00000840 00000104H .CRT$XPXA               DATA
 0003:00000944 00000104H .CRT$XPZ                DATA
 0003:00000a48 00000104H .CRT$XTA                DATA
 0003:00000b4c 00000104H .CRT$XTZ                DATA
 0003:00000c50 0002f02dH .rdata                  DATA
 0003:0002fc80 0000017bH .rdata$debug            DATA
 0003:0002fdfc 00000504H .rdata$r                DATA
 0003:00030300 00000104H .rtc$IAA                DATA
 0003:00030404 00000104H .rtc$IZZ                DATA
 0003:00030508 00000104H .rtc$TAA                DATA
 0003:0003060c 00000104H .rtc$TZZ                DATA
 0003:00030710 000010fdH .xdata$x                DATA
 0003:0003180d 00000000H .edata                  DATA
 0004:00000000 000069faH .data                   DATA
 0004:00006a00 00003984H .bss                    DATA
 0005:00000000 00000050H .idata$2                DATA
 0005:00000050 00000014H .idata$3                DATA
 0005:00000064 00000400H .idata$4                DATA
 0005:00000464 00000400H .idata$5                DATA
 0005:00000864 00000d1bH .idata$6                DATA

  Address         Publics by Value              Rva+Base       Lib:Object

 0000:00000000       __except_list              00000000     <absolute>
 0000:00000000       ___safe_se_handler_count   00000000     <absolute>
 0000:00000000       ___safe_se_handler_table   00000000     <absolute>
 0000:00000000       ___ImageBase               00400000     <linker-defined>
 0001:00000000       __enc$textbss$begin        00401000     <linker-defined>
 0001:00057820       __enc$textbss$end          00458820     <linker-defined>
 0002:00004be0       _main                      0045dbe0 f   aectest.obj
 0002:00005700       _pjmedia_endpt_create      0045e700 f   pjmedia-i386-win32-vc8-debug:endpoint.obj
 0002:00005aa0       _pjmedia_endpt_get_codec_mgr 0045eaa0 f   pjmedia-i386-win32-vc8-debug:endpoint.obj
 0002:00005ac0       _pjmedia_endpt_destroy     0045eac0 f   pjmedia-i386-win32-vc8-debug:endpoint.obj
 0002:00005c30       _pjmedia_endpt_get_ioqueue 0045ec30 f   pjmedia-i386-win32-vc8-debug:endpoint.obj
 0002:00005c90       _pjmedia_endpt_get_thread_count 0045ec90 f   pjmedia-i386-win32-vc8-debug:endpoint.obj
 0002:00005cf0       _pjmedia_endpt_get_thread  0045ecf0 f   pjmedia-i386-win32-vc8-debug:endpoint.obj
 0002:00005e00       _pjmedia_endpt_create_pool 0045ee00 f   pjmedia-i386-win32-vc8-debug:endpoint.obj
 0002:00005e70       _pjmedia_endpt_create_sdp  0045ee70 f   pjmedia-i386-win32-vc8-debug:endpoint.obj
 0002:00006990       _pjmedia_endpt_dump        0045f990 f   pjmedia-i386-win32-vc8-debug:endpoint.obj
 0002:00006e30       _pjmedia_echo_create       0045fe30 f   pjmedia-i386-win32-vc8-debug:echo_common.obj
 0002:00006e80       _pjmedia_echo_create2      0045fe80 f   pjmedia-i386-win32-vc8-debug:echo_common.obj
 0002:00007210       _pjmedia_echo_destroy      00460210 f   pjmedia-i386-win32-vc8-debug:echo_common.obj
 0002:00007280       _pjmedia_echo_reset        00460280 f   pjmedia-i386-win32-vc8-debug:echo_common.obj
 0002:00007350       _pjmedia_echo_playback     00460350 f   pjmedia-i386-win32-vc8-debug:echo_common.obj
 0002:000074e0       _pjmedia_echo_capture      004604e0 f   pjmedia-i386-win32-vc8-debug:echo_common.obj
 0002:00007660       _pjmedia_echo_cancel       00460660 f   pjmedia-i386-win32-vc8-debug:echo_common.obj
 0002:000076b0       _pjmedia_port_info_init    004606b0 f   pjmedia-i386-win32-vc8-debug:port.obj
 0002:000077c0       _pjmedia_port_get_frame    004607c0 f   pjmedia-i386-win32-vc8-debug:port.obj
 0002:00007860       _pjmedia_port_put_frame    00460860 f   pjmedia-i386-win32-vc8-debug:port.obj
 0002:000078f0       _pjmedia_port_destroy      004608f0 f   pjmedia-i386-win32-vc8-debug:port.obj
 0002:00007980       _pjmedia_wav_writer_port_create 00460980 f   pjmedia-i386-win32-vc8-debug:wav_writer.obj
 0002:00007f70       _pjmedia_wav_writer_port_get_pos 00460f70 f   pjmedia-i386-win32-vc8-debug:wav_writer.obj
 0002:00008020       _pjmedia_wav_writer_port_set_cb 00461020 f   pjmedia-i386-win32-vc8-debug:wav_writer.obj
 0002:000087f0       _pjmedia_wav_player_port_create 004617f0 f   pjmedia-i386-win32-vc8-debug:wav_player.obj
 0002:00009250       _pjmedia_wav_player_get_len 00462250 f   pjmedia-i386-win32-vc8-debug:wav_player.obj
 0002:00009320       _pjmedia_wav_player_port_set_pos 00462320 f   pjmedia-i386-win32-vc8-debug:wav_player.obj
 0002:00009510       _pjmedia_wav_player_port_get_pos 00462510 f   pjmedia-i386-win32-vc8-debug:wav_player.obj
 0002:00009630       _pjmedia_wav_player_set_eof_cb 00462630 f   pjmedia-i386-win32-vc8-debug:wav_player.obj
 0002:00009cc0       _pjmedia_codec_mgr_init    00462cc0 f   pjmedia-i386-win32-vc8-debug:codec.obj
 0002:00009e30       _pjmedia_codec_mgr_destroy 00462e30 f   pjmedia-i386-win32-vc8-debug:codec.obj
 0002:00009f70       _pjmedia_codec_mgr_register_factory 00462f70 f   pjmedia-i386-win32-vc8-debug:codec.obj
 0002:0000a230       _pjmedia_codec_mgr_unregister_factory 00463230 f   pjmedia-i386-win32-vc8-debug:codec.obj
 0002:0000a400       _pjmedia_codec_mgr_enum_codecs 00463400 f   pjmedia-i386-win32-vc8-debug:codec.obj
 0002:0000a560       _pjmedia_codec_mgr_get_codec_info 00463560 f   pjmedia-i386-win32-vc8-debug:codec.obj
 0002:0000a680       _pjmedia_codec_info_to_id  00463680 f   pjmedia-i386-win32-vc8-debug:codec.obj
 0002:0000a750       _pjmedia_codec_mgr_find_codecs_by_id 00463750 f   pjmedia-i386-win32-vc8-debug:codec.obj
 0002:0000aac0       _pjmedia_codec_mgr_set_codec_priority 00463ac0 f   pjmedia-i386-win32-vc8-debug:codec.obj
 0002:0000ac10       _pjmedia_codec_mgr_alloc_codec 00463c10 f   pjmedia-i386-win32-vc8-debug:codec.obj
 0002:0000ad50       _pjmedia_codec_mgr_get_default_param 00463d50 f   pjmedia-i386-win32-vc8-debug:codec.obj
 0002:0000afd0       _pjmedia_codec_mgr_set_default_param 00463fd0 f   pjmedia-i386-win32-vc8-debug:codec.obj
 0002:0000b3c0       _pjmedia_codec_mgr_dealloc_codec 004643c0 f   pjmedia-i386-win32-vc8-debug:codec.obj
 0002:0000b450       _pjmedia_strerror          00464450 f   pjmedia-i386-win32-vc8-debug:errno.obj
 0002:0000b640       _pjmedia_sdp_attr_create   00464640 f   pjmedia-i386-win32-vc8-debug:sdp.obj
 0002:0000b710       _pjmedia_sdp_attr_clone    00464710 f   pjmedia-i386-win32-vc8-debug:sdp.obj
 0002:0000b7c0       _pjmedia_sdp_attr_find     004647c0 f   pjmedia-i386-win32-vc8-debug:sdp.obj
 0002:0000b890       _pjmedia_sdp_attr_find2    00464890 f   pjmedia-i386-win32-vc8-debug:sdp.obj
 0002:0000b8e0       _pjmedia_sdp_attr_add      004648e0 f   pjmedia-i386-win32-vc8-debug:sdp.obj
 0002:0000b9c0       _pjmedia_sdp_attr_remove_all 004649c0 f   pjmedia-i386-win32-vc8-debug:sdp.obj
 0002:0000bae0       _pjmedia_sdp_attr_remove   00464ae0 f   pjmedia-i386-win32-vc8-debug:sdp.obj
 0002:0000bbe0       _pjmedia_sdp_attr_get_rtpmap 00464be0 f   pjmedia-i386-win32-vc8-debug:sdp.obj
 0002:0000c010       _pjmedia_sdp_attr_get_fmtp 00465010 f   pjmedia-i386-win32-vc8-debug:sdp.obj
 0002:0000c180       _pjmedia_sdp_attr_get_rtcp 00465180 f   pjmedia-i386-win32-vc8-debug:sdp.obj
 0002:0000c3b0       _pjmedia_sdp_attr_create_rtcp 004653b0 f   pjmedia-i386-win32-vc8-debug:sdp.obj
 0002:0000c530       _pjmedia_sdp_attr_to_rtpmap 00465530 f   pjmedia-i386-win32-vc8-debug:sdp.obj
 0002:0000c620       _pjmedia_sdp_rtpmap_to_attr 00465620 f   pjmedia-i386-win32-vc8-debug:sdp.obj
 0002:0000c8d0       _pjmedia_sdp_conn_clone    004658d0 f   pjmedia-i386-win32-vc8-debug:sdp.obj
 0002:0000c990       _pjmedia_sdp_media_clone   00465990 f   pjmedia-i386-win32-vc8-debug:sdp.obj
 0002:0000cc20       _pjmedia_sdp_media_find_attr 00465c20 f   pjmedia-i386-win32-vc8-debug:sdp.obj
 0002:0000ccb0       _pjmedia_sdp_media_find_attr2 00465cb0 f   pjmedia-i386-win32-vc8-debug:sdp.obj
 0002:0000cd40       _pjmedia_sdp_media_add_attr 00465d40 f   pjmedia-i386-win32-vc8-debug:sdp.obj
 0002:0000cd80       _pjmedia_sdp_session_add_attr 00465d80 f   pjmedia-i386-win32-vc8-debug:sdp.obj
 0002:0000cdc0       _pjmedia_sdp_media_remove_all_attr 00465dc0 f   pjmedia-i386-win32-vc8-debug:sdp.obj
 0002:0000ce00       _pjmedia_sdp_media_remove_attr 00465e00 f   pjmedia-i386-win32-vc8-debug:sdp.obj
 0002:0000ce60       _pjmedia_sdp_parse         00465e60 f   pjmedia-i386-win32-vc8-debug:sdp.obj
 0002:0000ded0       _pjmedia_sdp_print         00466ed0 f   pjmedia-i386-win32-vc8-debug:sdp.obj
 0002:0000e820       _pjmedia_sdp_session_clone 00467820 f   pjmedia-i386-win32-vc8-debug:sdp.obj
 0002:0000eb00       _pjmedia_sdp_validate      00467b00 f   pjmedia-i386-win32-vc8-debug:sdp.obj
 0002:0000eef0       _pjmedia_sdp_transport_cmp 00467ef0 f   pjmedia-i386-win32-vc8-debug:sdp.obj
 0002:0000efa0       _pjmedia_sdp_media_deactivate 00467fa0 f   pjmedia-i386-win32-vc8-debug:sdp.obj
 0002:0000f010       _pjmedia_sdp_media_clone_deactivate 00468010 f   pjmedia-i386-win32-vc8-debug:sdp.obj
 0002:0000f1d0       _speex_aec_create          004681d0 f   pjmedia-i386-win32-vc8-debug:echo_speex.obj
 0002:0000f400       _speex_aec_destroy         00468400 f   pjmedia-i386-win32-vc8-debug:echo_speex.obj
 0002:0000f4d0       _speex_aec_reset           004684d0 f   pjmedia-i386-win32-vc8-debug:echo_speex.obj
 0002:0000f500       _speex_aec_cancel_echo     00468500 f   pjmedia-i386-win32-vc8-debug:echo_speex.obj
 0002:0000f660       _echo_supp_create          00468660 f   pjmedia-i386-win32-vc8-debug:echo_suppress.obj
 0002:0000f8f0       _echo_supp_destroy         004688f0 f   pjmedia-i386-win32-vc8-debug:echo_suppress.obj
 0002:0000f910       _echo_supp_reset           00468910 f   pjmedia-i386-win32-vc8-debug:echo_suppress.obj
 0002:0000faa0       _echo_supp_soft_reset      00468aa0 f   pjmedia-i386-win32-vc8-debug:echo_suppress.obj
 0002:0000fba0       _echo_supp_cancel_echo     00468ba0 f   pjmedia-i386-win32-vc8-debug:echo_suppress.obj
 0002:00010da0       _pjmedia_delay_buf_create  00469da0 f   pjmedia-i386-win32-vc8-debug:delaybuf.obj
 0002:000110b0       _pjmedia_delay_buf_destroy 0046a0b0 f   pjmedia-i386-win32-vc8-debug:delaybuf.obj
 0002:00011180       _pjmedia_delay_buf_put     0046a180 f   pjmedia-i386-win32-vc8-debug:delaybuf.obj
 0002:00011b20       _pjmedia_delay_buf_get     0046ab20 f   pjmedia-i386-win32-vc8-debug:delaybuf.obj
 0002:00011ea0       _pjmedia_delay_buf_reset   0046aea0 f   pjmedia-i386-win32-vc8-debug:delaybuf.obj
 0002:00011f80       _pjmedia_wave_hdr_file_to_host 0046af80 f   pjmedia-i386-win32-vc8-debug:wave.obj
 0002:00011fd0       _pjmedia_wave_hdr_host_to_file 0046afd0 f   pjmedia-i386-win32-vc8-debug:wave.obj
 0002:00012000       _get_libsrtp_errstr        0046b000 f   pjmedia-i386-win32-vc8-debug:transport_srtp.obj
 0002:00012060       _pjmedia_srtp_init_lib     0046b060 f   pjmedia-i386-win32-vc8-debug:transport_srtp.obj
 0002:000121a0       _pjmedia_srtp_setting_default 0046b1a0 f   pjmedia-i386-win32-vc8-debug:transport_srtp.obj
 0002:000122a0       _pjmedia_transport_srtp_create 0046b2a0 f   pjmedia-i386-win32-vc8-debug:transport_srtp.obj
 0002:00012770       _pjmedia_transport_srtp_start 0046b770 f   pjmedia-i386-win32-vc8-debug:transport_srtp.obj
 0002:000130f0       _pjmedia_transport_srtp_stop 0046c0f0 f   pjmedia-i386-win32-vc8-debug:transport_srtp.obj
 0002:00013240       _pjmedia_transport_srtp_get_member 0046c240 f   pjmedia-i386-win32-vc8-debug:transport_srtp.obj
 0002:00015af0       _pjmedia_transport_srtp_decrypt_pkt 0046eaf0 f   pjmedia-i386-win32-vc8-debug:transport_srtp.obj
 0002:00015d10       _pjmedia_silence_det_create 0046ed10 f   pjmedia-i386-win32-vc8-debug:silencedet.obj
 0002:00015e30       _pjmedia_silence_det_set_name 0046ee30 f   pjmedia-i386-win32-vc8-debug:silencedet.obj
 0002:00015ec0       _pjmedia_silence_det_set_adaptive 0046eec0 f   pjmedia-i386-win32-vc8-debug:silencedet.obj
 0002:00015f40       _pjmedia_silence_det_set_fixed 0046ef40 f   pjmedia-i386-win32-vc8-debug:silencedet.obj
 0002:00015fc0       _pjmedia_silence_det_set_params 0046efc0 f   pjmedia-i386-win32-vc8-debug:silencedet.obj
 0002:00016070       _pjmedia_silence_det_disable 0046f070 f   pjmedia-i386-win32-vc8-debug:silencedet.obj
 0002:000160e0       _pjmedia_calc_avg_signal   0046f0e0 f   pjmedia-i386-win32-vc8-debug:silencedet.obj
 0002:00016180       _pjmedia_silence_det_apply 0046f180 f   pjmedia-i386-win32-vc8-debug:silencedet.obj
 0002:00016520       _pjmedia_silence_det_detect 0046f520 f   pjmedia-i386-win32-vc8-debug:silencedet.obj
 0002:00016580       _pjmedia_wsola_create      0046f580 f   pjmedia-i386-win32-vc8-debug:wsola.obj
 0002:00016bb0       _pjmedia_wsola_destroy     0046fbb0 f   pjmedia-i386-win32-vc8-debug:wsola.obj
 0002:00016bd0       _pjmedia_wsola_set_max_expand 0046fbd0 f   pjmedia-i386-win32-vc8-debug:wsola.obj
 0002:00016c50       _pjmedia_wsola_reset       0046fc50 f   pjmedia-i386-win32-vc8-debug:wsola.obj
 0002:00016db0       _pjmedia_wsola_save        0046fdb0 f   pjmedia-i386-win32-vc8-debug:wsola.obj
 0002:00017b30       _pjmedia_wsola_generate    00470b30 f   pjmedia-i386-win32-vc8-debug:wsola.obj
 0002:000183b0       _pjmedia_wsola_discard     004713b0 f   pjmedia-i386-win32-vc8-debug:wsola.obj
 0002:00018aa0       _pj_getopt_long            00471aa0 f   pjlib-util-i386-win32-vc8-debug:getopt.obj
 0002:00018ae0       _pj_getopt                 00471ae0 f   pjlib-util-i386-win32-vc8-debug:getopt.obj
 0002:00019a20       _pj_cis_buf_init           00472a20 f   pjlib-util-i386-win32-vc8-debug:scanner.obj
 0002:00019a90       _pj_cis_init               00472a90 f   pjlib-util-i386-win32-vc8-debug:scanner.obj
 0002:00019b30       _pj_cis_dup                00472b30 f   pjlib-util-i386-win32-vc8-debug:scanner.obj
 0002:00019c20       _pj_cis_add_range          00472c20 f   pjlib-util-i386-win32-vc8-debug:scanner.obj
 0002:00019ca0       _pj_cis_add_alpha          00472ca0 f   pjlib-util-i386-win32-vc8-debug:scanner.obj
 0002:00019ce0       _pj_cis_add_num            00472ce0 f   pjlib-util-i386-win32-vc8-debug:scanner.obj
 0002:00019d10       _pj_cis_add_str            00472d10 f   pjlib-util-i386-win32-vc8-debug:scanner.obj
 0002:00019d80       _pj_cis_add_cis            00472d80 f   pjlib-util-i386-win32-vc8-debug:scanner.obj
 0002:00019e10       _pj_cis_del_range          00472e10 f   pjlib-util-i386-win32-vc8-debug:scanner.obj
 0002:00019e70       _pj_cis_del_str            00472e70 f   pjlib-util-i386-win32-vc8-debug:scanner.obj
 0002:00019ee0       _pj_cis_invert             00472ee0 f   pjlib-util-i386-win32-vc8-debug:scanner.obj
 0002:00019fa0       _pj_scan_init              00472fa0 f   pjlib-util-i386-win32-vc8-debug:scanner.obj
 0002:0001a040       _pj_scan_fini              00473040 f   pjlib-util-i386-win32-vc8-debug:scanner.obj
 0002:0001a070       _pj_scan_skip_whitespace   00473070 f   pjlib-util-i386-win32-vc8-debug:scanner.obj
 0002:0001a2d0       _pj_scan_skip_line         004732d0 f   pjlib-util-i386-win32-vc8-debug:scanner.obj
 0002:0001a350       _pj_scan_peek              00473350 f   pjlib-util-i386-win32-vc8-debug:scanner.obj
 0002:0001a480       _pj_scan_peek_n            00473480 f   pjlib-util-i386-win32-vc8-debug:scanner.obj
 0002:0001a520       _pj_scan_peek_until        00473520 f   pjlib-util-i386-win32-vc8-debug:scanner.obj
 0002:0001a5c0       _pj_scan_get               004735c0 f   pjlib-util-i386-win32-vc8-debug:scanner.obj
 0002:0001a6c0       _pj_scan_get_unescape      004736c0 f   pjlib-util-i386-win32-vc8-debug:scanner.obj
 0002:0001aa30       _pj_scan_get_quote         00473a30 f   pjlib-util-i386-win32-vc8-debug:scanner.obj
 0002:0001aa80       _pj_scan_get_quotes        00473a80 f   pjlib-util-i386-win32-vc8-debug:scanner.obj
 0002:0001acc0       _pj_scan_get_n             00473cc0 f   pjlib-util-i386-win32-vc8-debug:scanner.obj
 0002:0001ad60       _pj_scan_get_char          00473d60 f   pjlib-util-i386-win32-vc8-debug:scanner.obj
 0002:0001ade0       _pj_scan_get_newline       00473de0 f   pjlib-util-i386-win32-vc8-debug:scanner.obj
 0002:0001aea0       _pj_scan_get_until         00473ea0 f   pjlib-util-i386-win32-vc8-debug:scanner.obj
 0002:0001af70       _pj_scan_get_until_ch      00473f70 f   pjlib-util-i386-win32-vc8-debug:scanner.obj
 0002:0001b030       _pj_scan_get_until_chr     00474030 f   pjlib-util-i386-win32-vc8-debug:scanner.obj
 0002:0001b120       _pj_scan_advance_n         00474120 f   pjlib-util-i386-win32-vc8-debug:scanner.obj
 0002:0001b1a0       _pj_scan_strcmp            004741a0 f   pjlib-util-i386-win32-vc8-debug:scanner.obj
 0002:0001b200       _pj_scan_stricmp           00474200 f   pjlib-util-i386-win32-vc8-debug:scanner.obj
 0002:0001b260       _pj_scan_stricmp_alnum     00474260 f   pjlib-util-i386-win32-vc8-debug:scanner.obj
 0002:0001b2c0       _pj_scan_save_state        004742c0 f   pjlib-util-i386-win32-vc8-debug:scanner.obj
 0002:0001b300       _pj_scan_restore_state     00474300 f   pjlib-util-i386-win32-vc8-debug:scanner.obj
 0002:0001b340       _pj_base64_encode          00474340 f   pjlib-util-i386-win32-vc8-debug:base64.obj
 0002:0001b6a0       _pj_base64_decode          004746a0 f   pjlib-util-i386-win32-vc8-debug:base64.obj
 0002:0001bb40       _pj_init                   00474b40 f   pjlib-i386-win32-vc8-debug:os_core_win32.obj
 0002:0001bd40       _pj_atexit                 00474d40 f   pjlib-i386-win32-vc8-debug:os_core_win32.obj
 0002:0001bd90       _pj_shutdown               00474d90 f   pjlib-i386-win32-vc8-debug:os_core_win32.obj
 0002:0001bea0       _pj_getpid                 00474ea0 f   pjlib-i386-win32-vc8-debug:os_core_win32.obj
 0002:0001bee0       _pj_thread_is_registered   00474ee0 f   pjlib-i386-win32-vc8-debug:os_core_win32.obj
 0002:0001bf10       _pj_thread_get_prio        00474f10 f   pjlib-i386-win32-vc8-debug:os_core_win32.obj
 0002:0001bf40       _pj_thread_set_prio        00474f40 f   pjlib-i386-win32-vc8-debug:os_core_win32.obj
 0002:0001c050       _pj_thread_get_prio_min    00475050 f   pjlib-i386-win32-vc8-debug:os_core_win32.obj
 0002:0001c070       _pj_thread_get_prio_max    00475070 f   pjlib-i386-win32-vc8-debug:os_core_win32.obj
 0002:0001c090       _pj_thread_get_os_handle   00475090 f   pjlib-i386-win32-vc8-debug:os_core_win32.obj
 0002:0001c0f0       _pj_thread_register        004750f0 f   pjlib-i386-win32-vc8-debug:os_core_win32.obj
 0002:0001c2b0       _pj_thread_init            004752b0 f   pjlib-i386-win32-vc8-debug:os_core_win32.obj
 0002:0001c310       _pj_thread_create          00475310 f   pjlib-i386-win32-vc8-debug:os_core_win32.obj
 0002:0001c630       _pj_thread_get_name        00475630 f   pjlib-i386-win32-vc8-debug:os_core_win32.obj
 0002:0001c6b0       _pj_thread_resume          004756b0 f   pjlib-i386-win32-vc8-debug:os_core_win32.obj
 0002:0001c790       _pj_thread_this            00475790 f   pjlib-i386-win32-vc8-debug:os_core_win32.obj
 0002:0001c800       _pj_thread_join            00475800 f   pjlib-i386-win32-vc8-debug:os_core_win32.obj
 0002:0001c910       _pj_thread_destroy         00475910 f   pjlib-i386-win32-vc8-debug:os_core_win32.obj
 0002:0001c9f0       _pj_thread_sleep           004759f0 f   pjlib-i386-win32-vc8-debug:os_core_win32.obj
 0002:0001ca30       _pj_thread_check_stack     00475a30 f   pjlib-i386-win32-vc8-debug:os_core_win32.obj
 0002:0001cb30       _pj_thread_get_stack_max_usage 00475b30 f   pjlib-i386-win32-vc8-debug:os_core_win32.obj
 0002:0001cb50       _pj_thread_get_stack_info  00475b50 f   pjlib-i386-win32-vc8-debug:os_core_win32.obj
 0002:0001cbb0       _pj_atomic_create          00475bb0 f   pjlib-i386-win32-vc8-debug:os_core_win32.obj
 0002:0001cc00       _pj_atomic_destroy         00475c00 f   pjlib-i386-win32-vc8-debug:os_core_win32.obj
 0002:0001cc60       _pj_atomic_set             00475c60 f   pjlib-i386-win32-vc8-debug:os_core_win32.obj
 0002:0001ccb0       _pj_atomic_get             00475cb0 f   pjlib-i386-win32-vc8-debug:os_core_win32.obj
 0002:0001cd20       _pj_atomic_inc_and_get     00475d20 f   pjlib-i386-win32-vc8-debug:os_core_win32.obj
 0002:0001cd60       _pj_atomic_inc             00475d60 f   pjlib-i386-win32-vc8-debug:os_core_win32.obj
 0002:0001cd90       _pj_atomic_dec_and_get     00475d90 f   pjlib-i386-win32-vc8-debug:os_core_win32.obj
 0002:0001cdd0       _pj_atomic_dec             00475dd0 f   pjlib-i386-win32-vc8-debug:os_core_win32.obj
 0002:0001ce00       _pj_atomic_add             00475e00 f   pjlib-i386-win32-vc8-debug:os_core_win32.obj
 0002:0001ce30       _pj_atomic_add_and_get     00475e30 f   pjlib-i386-win32-vc8-debug:os_core_win32.obj
 0002:0001ce60       _pj_thread_local_alloc     00475e60 f   pjlib-i386-win32-vc8-debug:os_core_win32.obj
 0002:0001cf20       _pj_thread_local_free      00475f20 f   pjlib-i386-win32-vc8-debug:os_core_win32.obj
 0002:0001cf60       _pj_thread_local_set       00475f60 f   pjlib-i386-win32-vc8-debug:os_core_win32.obj
 0002:0001cff0       _pj_thread_local_get       00475ff0 f   pjlib-i386-win32-vc8-debug:os_core_win32.obj
 0002:0001d0e0       _pj_mutex_create           004760e0 f   pjlib-i386-win32-vc8-debug:os_core_win32.obj
 0002:0001d1a0       _pj_mutex_create_simple    004761a0 f   pjlib-i386-win32-vc8-debug:os_core_win32.obj
 0002:0001d1d0       _pj_mutex_create_recursive 004761d0 f   pjlib-i386-win32-vc8-debug:os_core_win32.obj
 0002:0001d200       _pj_mutex_lock             00476200 f   pjlib-i386-win32-vc8-debug:os_core_win32.obj
 0002:0001d2d0       _pj_mutex_unlock           004762d0 f   pjlib-i386-win32-vc8-debug:os_core_win32.obj
 0002:0001d3c0       _pj_mutex_trylock          004763c0 f   pjlib-i386-win32-vc8-debug:os_core_win32.obj
 0002:0001d4a0       _pj_mutex_destroy          004764a0 f   pjlib-i386-win32-vc8-debug:os_core_win32.obj
 0002:0001d530       _pj_mutex_is_locked        00476530 f   pjlib-i386-win32-vc8-debug:os_core_win32.obj
 0002:0001d560       _pj_rwmutex_create         00476560 f   pjlib-i386-win32-vc8-debug:os_core_win32.obj
 0002:0001d670       _pj_rwmutex_lock_read      00476670 f   pjlib-i386-win32-vc8-debug:os_core_win32.obj
 0002:0001d7a0       _pj_rwmutex_lock_write     004767a0 f   pjlib-i386-win32-vc8-debug:os_core_win32.obj
 0002:0001d810       _pj_rwmutex_unlock_read    00476810 f   pjlib-i386-win32-vc8-debug:os_core_win32.obj
 0002:0001d930       _pj_rwmutex_unlock_write   00476930 f   pjlib-i386-win32-vc8-debug:os_core_win32.obj
 0002:0001d9d0       _pj_rwmutex_destroy        004769d0 f   pjlib-i386-win32-vc8-debug:os_core_win32.obj
 0002:0001da50       _pj_enter_critical_section 00476a50 f   pjlib-i386-win32-vc8-debug:os_core_win32.obj
 0002:0001da80       _pj_leave_critical_section 00476a80 f   pjlib-i386-win32-vc8-debug:os_core_win32.obj
 0002:0001dab0       _pj_sem_create             00476ab0 f   pjlib-i386-win32-vc8-debug:os_core_win32.obj
 0002:0001dc40       _pj_sem_wait               00476c40 f   pjlib-i386-win32-vc8-debug:os_core_win32.obj
 0002:0001ddf0       _pj_sem_trywait            00476df0 f   pjlib-i386-win32-vc8-debug:os_core_win32.obj
 0002:0001de70       _pj_sem_post               00476e70 f   pjlib-i386-win32-vc8-debug:os_core_win32.obj
 0002:0001df60       _pj_sem_destroy            00476f60 f   pjlib-i386-win32-vc8-debug:os_core_win32.obj
 0002:0001e050       _pj_event_create           00477050 f   pjlib-i386-win32-vc8-debug:os_core_win32.obj
 0002:0001e210       _pj_event_wait             00477210 f   pjlib-i386-win32-vc8-debug:os_core_win32.obj
 0002:0001e3b0       _pj_event_trywait          004773b0 f   pjlib-i386-win32-vc8-debug:os_core_win32.obj
 0002:0001e420       _pj_event_set              00477420 f   pjlib-i386-win32-vc8-debug:os_core_win32.obj
 0002:0001e510       _pj_event_pulse            00477510 f   pjlib-i386-win32-vc8-debug:os_core_win32.obj
 0002:0001e600       _pj_event_reset            00477600 f   pjlib-i386-win32-vc8-debug:os_core_win32.obj
 0002:0001e6f0       _pj_event_destroy          004776f0 f   pjlib-i386-win32-vc8-debug:os_core_win32.obj
 0002:0001e7e0       _pj_term_set_color         004777e0 f   pjlib-i386-win32-vc8-debug:os_core_win32.obj
 0002:0001e930       _pj_term_get_color         00477930 f   pjlib-i386-win32-vc8-debug:os_core_win32.obj
 0002:0001ea10       _pj_caching_pool_init      00477a10 f   pjlib-i386-win32-vc8-debug:pool_caching.obj
 0002:0001ebf0       _pj_caching_pool_destroy   00477bf0 f   pjlib-i386-win32-vc8-debug:pool_caching.obj
 0002:0001f470       _pj_pool_get_capacity      00478470 f   pjlib-i386-win32-vc8-debug:pool.obj
 0002:0001f490       _pj_pool_get_used_size     00478490 f   pjlib-i386-win32-vc8-debug:pool.obj
 0002:0001f500       _pj_pool_alloc_from_block  00478500 f   pjlib-i386-win32-vc8-debug:pool.obj
 0002:0001f570       _pj_pool_alloc             00478570 f   pjlib-i386-win32-vc8-debug:pool.obj
 0002:0001f5d0       _pj_pool_calloc            004785d0 f   pjlib-i386-win32-vc8-debug:pool.obj
 0002:0001f660       _pj_pool_getobjname        00478660 f   pjlib-i386-win32-vc8-debug:pool.obj
 0002:0001f680       _pj_pool_create            00478680 f   pjlib-i386-win32-vc8-debug:pool.obj
 0002:0001f6c0       _pj_pool_release           004786c0 f   pjlib-i386-win32-vc8-debug:pool.obj
 0002:0001f710       _pj_NO_MEMORY_EXCEPTION    00478710 f   pjlib-i386-win32-vc8-debug:pool.obj
 0002:0001f730       _pj_pool_allocate_find     00478730 f   pjlib-i386-win32-vc8-debug:pool.obj
 0002:0001f9e0       _pj_pool_init_int          004789e0 f   pjlib-i386-win32-vc8-debug:pool.obj
 0002:0001faa0       _pj_pool_create_int        00478aa0 f   pjlib-i386-win32-vc8-debug:pool.obj
 0002:0001fc50       _pj_pool_reset             00478c50 f   pjlib-i386-win32-vc8-debug:pool.obj
 0002:0001fd70       _pj_pool_destroy_int       00478d70 f   pjlib-i386-win32-vc8-debug:pool.obj
 0002:0001fdf0       _pj_elapsed_nanosec        00478df0 f   pjlib-i386-win32-vc8-debug:os_timestamp_common.obj
 0002:0001fee0       _pj_elapsed_usec           00478ee0 f   pjlib-i386-win32-vc8-debug:os_timestamp_common.obj
 0002:0001ffb0       _pj_elapsed_msec           00478fb0 f   pjlib-i386-win32-vc8-debug:os_timestamp_common.obj
 0002:00020080       _pj_elapsed_msec64         00479080 f   pjlib-i386-win32-vc8-debug:os_timestamp_common.obj
 0002:000200b0       _pj_elapsed_time           004790b0 f   pjlib-i386-win32-vc8-debug:os_timestamp_common.obj
 0002:00020170       _pj_elapsed_cycle          00479170 f   pjlib-i386-win32-vc8-debug:os_timestamp_common.obj
 0002:00020190       _pj_log_init               00479190 f   pjlib-i386-win32-vc8-debug:log.obj
 0002:00020220       _pj_log_set_decor          00479220 f   pjlib-i386-win32-vc8-debug:log.obj
 0002:00020240       _pj_log_get_decor          00479240 f   pjlib-i386-win32-vc8-debug:log.obj
 0002:00020260       _pj_log_set_color          00479260 f   pjlib-i386-win32-vc8-debug:log.obj
 0002:00020390       _pj_log_get_color          00479390 f   pjlib-i386-win32-vc8-debug:log.obj
 0002:00020430       _pj_log_set_level          00479430 f   pjlib-i386-win32-vc8-debug:log.obj
 0002:00020450       _pj_log_get_level          00479450 f   pjlib-i386-win32-vc8-debug:log.obj
 0002:00020470       _pj_log_set_log_func       00479470 f   pjlib-i386-win32-vc8-debug:log.obj
 0002:00020490       _pj_log_get_log_func       00479490 f   pjlib-i386-win32-vc8-debug:log.obj
 0002:000204b0       _pj_log                    004794b0 f   pjlib-i386-win32-vc8-debug:log.obj
 0002:00020cb0       _pj_log_1                  00479cb0 f   pjlib-i386-win32-vc8-debug:log.obj
 0002:00020cf0       _pj_log_2                  00479cf0 f   pjlib-i386-win32-vc8-debug:log.obj
 0002:00020d30       _pj_log_3                  00479d30 f   pjlib-i386-win32-vc8-debug:log.obj
 0002:00020d70       _pj_log_4                  00479d70 f   pjlib-i386-win32-vc8-debug:log.obj
 0002:00020db0       _pj_log_5                  00479db0 f   pjlib-i386-win32-vc8-debug:log.obj
 0002:00020df0       _pj_get_timestamp          00479df0 f   pjlib-i386-win32-vc8-debug:os_timestamp_win32.obj
 0002:00020e80       _pj_get_timestamp_freq     00479e80 f   pjlib-i386-win32-vc8-debug:os_timestamp_win32.obj
 0002:00021070       _pj_pool_factory_get_default_policy 0047a070 f   pjlib-i386-win32-vc8-debug:pool_policy_malloc.obj
 0002:00021090       _pj_register_strerror      0047a090 f   pjlib-i386-win32-vc8-debug:errno.obj
 0002:00021290       _pj_errno_clear_handlers   0047a290 f   pjlib-i386-win32-vc8-debug:errno.obj
 0002:00021300       _pj_strerror               0047a300 f   pjlib-i386-win32-vc8-debug:errno.obj
 0002:000215f0       _pj_perror                 0047a5f0 f   pjlib-i386-win32-vc8-debug:errno.obj
 0002:00021760       _pj_perror_1               0047a760 f   pjlib-i386-win32-vc8-debug:errno.obj
 0002:000217b0       _pj_perror_2               0047a7b0 f   pjlib-i386-win32-vc8-debug:errno.obj
 0002:00021800       _pj_perror_3               0047a800 f   pjlib-i386-win32-vc8-debug:errno.obj
 0002:00021850       _pj_perror_4               0047a850 f   pjlib-i386-win32-vc8-debug:errno.obj
 0002:000218a0       _pj_perror_5               0047a8a0 f   pjlib-i386-win32-vc8-debug:errno.obj
 0002:000218f0       _pj_ioqueue_set_lock       0047a8f0 f   pjlib-i386-win32-vc8-debug:ioqueue_select.obj
 0002:00021990       _pj_ioqueue_get_user_data  0047a990 f   pjlib-i386-win32-vc8-debug:ioqueue_select.obj
 0002:000219f0       _pj_ioqueue_set_user_data  0047a9f0 f   pjlib-i386-win32-vc8-debug:ioqueue_select.obj
 0002:00021a70       _ioqueue_dispatch_write_event 0047aa70 f   pjlib-i386-win32-vc8-debug:ioqueue_select.obj
 0002:00021f60       _ioqueue_dispatch_read_event 0047af60 f   pjlib-i386-win32-vc8-debug:ioqueue_select.obj
 0002:00022380       _ioqueue_dispatch_exception_event 0047b380 f   pjlib-i386-win32-vc8-debug:ioqueue_select.obj
 0002:00022540       _pj_ioqueue_recv           0047b540 f   pjlib-i386-win32-vc8-debug:ioqueue_select.obj
 0002:00022750       _pj_ioqueue_recvfrom       0047b750 f   pjlib-i386-win32-vc8-debug:ioqueue_select.obj
 0002:00022980       _pj_ioqueue_send           0047b980 f   pjlib-i386-win32-vc8-debug:ioqueue_select.obj
 0002:00022be0       _pj_ioqueue_sendto         0047bbe0 f   pjlib-i386-win32-vc8-debug:ioqueue_select.obj
 0002:00022ef0       _pj_ioqueue_accept         0047bef0 f   pjlib-i386-win32-vc8-debug:ioqueue_select.obj
 0002:00023130       _pj_ioqueue_connect        0047c130 f   pjlib-i386-win32-vc8-debug:ioqueue_select.obj
 0002:000232c0       _pj_ioqueue_op_key_init    0047c2c0 f   pjlib-i386-win32-vc8-debug:ioqueue_select.obj
 0002:00023320       _pj_ioqueue_is_pending     0047c320 f   pjlib-i386-win32-vc8-debug:ioqueue_select.obj
 0002:00023350       _pj_ioqueue_post_completion 0047c350 f   pjlib-i386-win32-vc8-debug:ioqueue_select.obj
 0002:00023530       _pj_ioqueue_set_default_concurrency 0047c530 f   pjlib-i386-win32-vc8-debug:ioqueue_select.obj
 0002:00023590       _pj_ioqueue_set_concurrency 0047c590 f   pjlib-i386-win32-vc8-debug:ioqueue_select.obj
 0002:00023650       _pj_ioqueue_lock_key       0047c650 f   pjlib-i386-win32-vc8-debug:ioqueue_select.obj
 0002:00023680       _pj_ioqueue_unlock_key     0047c680 f   pjlib-i386-win32-vc8-debug:ioqueue_select.obj
 0002:000236b0       _pj_ioqueue_name           0047c6b0 f   pjlib-i386-win32-vc8-debug:ioqueue_select.obj
 0002:000236d0       _pj_ioqueue_create         0047c6d0 f   pjlib-i386-win32-vc8-debug:ioqueue_select.obj
 0002:00023ab0       _pj_ioqueue_destroy        0047cab0 f   pjlib-i386-win32-vc8-debug:ioqueue_select.obj
 0002:00023c60       _pj_ioqueue_register_sock  0047cc60 f   pjlib-i386-win32-vc8-debug:ioqueue_select.obj
 0002:00024020       _pj_ioqueue_unregister     0047d020 f   pjlib-i386-win32-vc8-debug:ioqueue_select.obj
 0002:00024610       _pj_ioqueue_poll           0047d610 f   pjlib-i386-win32-vc8-debug:ioqueue_select.obj
 0002:00024d10       _pj_str                    0047dd10 f   pjlib-i386-win32-vc8-debug:string.obj
 0002:00024d60       _pj_strdup                 0047dd60 f   pjlib-i386-win32-vc8-debug:string.obj
 0002:00024e20       _pj_strdup_with_null       0047de20 f   pjlib-i386-win32-vc8-debug:string.obj
 0002:00024eb0       _pj_strdup2                0047deb0 f   pjlib-i386-win32-vc8-debug:string.obj
 0002:00024f50       _pj_strdup2_with_null      0047df50 f   pjlib-i386-win32-vc8-debug:string.obj
 0002:00025000       _pj_strdup3                0047e000 f   pjlib-i386-win32-vc8-debug:string.obj
 0002:00025040       _pj_strassign              0047e040 f   pjlib-i386-win32-vc8-debug:string.obj
 0002:00025080       _pj_strcpy                 0047e080 f   pjlib-i386-win32-vc8-debug:string.obj
 0002:000250e0       _pj_strcpy2                0047e0e0 f   pjlib-i386-win32-vc8-debug:string.obj
 0002:00025160       _pj_strncpy                0047e160 f   pjlib-i386-win32-vc8-debug:string.obj
 0002:000251c0       _pj_strncpy_with_null      0047e1c0 f   pjlib-i386-win32-vc8-debug:string.obj
 0002:00025240       _pj_strcmp                 0047e240 f   pjlib-i386-win32-vc8-debug:string.obj
 0002:00025360       _pj_strncmp                0047e360 f   pjlib-i386-win32-vc8-debug:string.obj
 0002:000253e0       _pj_strncmp2               0047e3e0 f   pjlib-i386-win32-vc8-debug:string.obj
 0002:00025440       _pj_strcmp2                0047e440 f   pjlib-i386-win32-vc8-debug:string.obj
 0002:000254a0       _pj_stricmp                0047e4a0 f   pjlib-i386-win32-vc8-debug:string.obj
 0002:00025590       _pj_stricmp2               0047e590 f   pjlib-i386-win32-vc8-debug:string.obj
 0002:000255f0       _pj_strnicmp               0047e5f0 f   pjlib-i386-win32-vc8-debug:string.obj
 0002:00025670       _pj_strnicmp2              0047e670 f   pjlib-i386-win32-vc8-debug:string.obj
 0002:000256d0       _pj_strcat                 0047e6d0 f   pjlib-i386-win32-vc8-debug:string.obj
 0002:00025730       _pj_strcat2                0047e730 f   pjlib-i386-win32-vc8-debug:string.obj
 0002:000257b0       _pj_strtrim                0047e7b0 f   pjlib-i386-win32-vc8-debug:string.obj
 0002:000257f0       _pj_strstr                 0047e7f0 f   pjlib-i386-win32-vc8-debug:string.obj
 0002:00025890       _pj_stristr                0047e890 f   pjlib-i386-win32-vc8-debug:string.obj
 0002:00025930       _pj_strltrim               0047e930 f   pjlib-i386-win32-vc8-debug:string.obj
 0002:000259f0       _pj_strrtrim               0047e9f0 f   pjlib-i386-win32-vc8-debug:string.obj
 0002:00025a80       _pj_create_random_string   0047ea80 f   pjlib-i386-win32-vc8-debug:string.obj
 0002:00025c20       _pj_strtoul                0047ec20 f   pjlib-i386-win32-vc8-debug:string.obj
 0002:00025d00       _pj_strtoul2               0047ed00 f   pjlib-i386-win32-vc8-debug:string.obj
 0002:00025f20       _pj_utoa                   0047ef20 f   pjlib-i386-win32-vc8-debug:string.obj
 0002:00025f50       _pj_utoa_pad               0047ef50 f   pjlib-i386-win32-vc8-debug:string.obj
 0002:00026060       _pj_inet_addr              0047f060 f   pjlib-i386-win32-vc8-debug:sock_common.obj
 0002:00026090       _pj_inet_addr2             0047f090 f   pjlib-i386-win32-vc8-debug:sock_common.obj
 0002:000260d0       _pj_inet_ntop2             0047f0d0 f   pjlib-i386-win32-vc8-debug:sock_common.obj
 0002:00026120       _pj_sockaddr_print         0047f120 f   pjlib-i386-win32-vc8-debug:sock_common.obj
 0002:00026250       _pj_sockaddr_in_set_str_addr 0047f250 f   pjlib-i386-win32-vc8-debug:sock_common.obj
 0002:000263d0       _pj_sockaddr_set_str_addr  0047f3d0 f   pjlib-i386-win32-vc8-debug:sock_common.obj
 0002:00026570       _pj_sockaddr_in_init       0047f570 f   pjlib-i386-win32-vc8-debug:sock_common.obj
 0002:00026620       _pj_sockaddr_init          0047f620 f   pjlib-i386-win32-vc8-debug:sock_common.obj
 0002:00026720       _pj_sockaddr_cmp           0047f720 f   pjlib-i386-win32-vc8-debug:sock_common.obj
 0002:00026860       _pj_gethostaddr            0047f860 f   pjlib-i386-win32-vc8-debug:sock_common.obj
 0002:000268b0       _pj_sockaddr_in_get_port   0047f8b0 f   pjlib-i386-win32-vc8-debug:sock_common.obj
 0002:000268e0       _pj_sockaddr_get_addr      0047f8e0 f   pjlib-i386-win32-vc8-debug:sock_common.obj
 0002:000269b0       _pj_sockaddr_has_addr      0047f9b0 f   pjlib-i386-win32-vc8-debug:sock_common.obj
 0002:00026a80       _pj_sockaddr_get_port      0047fa80 f   pjlib-i386-win32-vc8-debug:sock_common.obj
 0002:00026b60       _pj_sockaddr_get_addr_len  0047fb60 f   pjlib-i386-win32-vc8-debug:sock_common.obj
 0002:00026c20       _pj_sockaddr_get_len       0047fc20 f   pjlib-i386-win32-vc8-debug:sock_common.obj
 0002:00026ce0       _pj_sockaddr_copy_addr     0047fce0 f   pjlib-i386-win32-vc8-debug:sock_common.obj
 0002:00026d40       _pj_sockaddr_cp            0047fd40 f   pjlib-i386-win32-vc8-debug:sock_common.obj
 0002:00026d80       _pj_sockaddr_in_set_port   0047fd80 f   pjlib-i386-win32-vc8-debug:sock_common.obj
 0002:00026db0       _pj_sockaddr_set_port      0047fdb0 f   pjlib-i386-win32-vc8-debug:sock_common.obj
 0002:00026e90       _pj_sockaddr_in_get_addr   0047fe90 f   pjlib-i386-win32-vc8-debug:sock_common.obj
 0002:00026ec0       _pj_sockaddr_in_set_addr   0047fec0 f   pjlib-i386-win32-vc8-debug:sock_common.obj
 0002:00026ef0       _pj_sockaddr_parse2        0047fef0 f   pjlib-i386-win32-vc8-debug:sock_common.obj
 0002:00027400       _pj_sockaddr_parse         00480400 f   pjlib-i386-win32-vc8-debug:sock_common.obj
 0002:000275a0       _pj_gethostip              004805a0 f   pjlib-i386-win32-vc8-debug:sock_common.obj
 0002:000282b0       _pj_getdefaultipinterface  004812b0 f   pjlib-i386-win32-vc8-debug:sock_common.obj
 0002:000284b0       _pj_ntohs                  004814b0 f   pjlib-i386-win32-vc8-debug:sock_bsd.obj
 0002:000284e0       _pj_htons                  004814e0 f   pjlib-i386-win32-vc8-debug:sock_bsd.obj
 0002:00028510       _pj_ntohl                  00481510 f   pjlib-i386-win32-vc8-debug:sock_bsd.obj
 0002:00028530       _pj_htonl                  00481530 f   pjlib-i386-win32-vc8-debug:sock_bsd.obj
 0002:00028550       _pj_inet_ntoa              00481550 f   pjlib-i386-win32-vc8-debug:sock_bsd.obj
 0002:00028570       _pj_inet_aton              00481570 f   pjlib-i386-win32-vc8-debug:sock_bsd.obj
 0002:000286a0       _pj_inet_pton              004816a0 f   pjlib-i386-win32-vc8-debug:sock_bsd.obj
 0002:00028900       _pj_inet_ntop              00481900 f   pjlib-i386-win32-vc8-debug:sock_bsd.obj
 0002:00028b70       _pj_gethostname            00481b70 f   pjlib-i386-win32-vc8-debug:sock_bsd.obj
 0002:00028c10       _pj_sock_socket            00481c10 f   pjlib-i386-win32-vc8-debug:sock_bsd.obj
 0002:00028d30       _pj_sock_bind              00481d30 f   pjlib-i386-win32-vc8-debug:sock_bsd.obj
 0002:00028e20       _pj_sock_bind_in           00481e20 f   pjlib-i386-win32-vc8-debug:sock_bsd.obj
 0002:00028ed0       _pj_sock_close             00481ed0 f   pjlib-i386-win32-vc8-debug:sock_bsd.obj
 0002:00028f70       _pj_sock_getpeername       00481f70 f   pjlib-i386-win32-vc8-debug:sock_bsd.obj
 0002:00029010       _pj_sock_getsockname       00482010 f   pjlib-i386-win32-vc8-debug:sock_bsd.obj
 0002:000290b0       _pj_sock_send              004820b0 f   pjlib-i386-win32-vc8-debug:sock_bsd.obj
 0002:000291a0       _pj_sock_sendto            004821a0 f   pjlib-i386-win32-vc8-debug:sock_bsd.obj
 0002:000292a0       _pj_sock_recv              004822a0 f   pjlib-i386-win32-vc8-debug:sock_bsd.obj
 0002:000293a0       _pj_sock_recvfrom          004823a0 f   pjlib-i386-win32-vc8-debug:sock_bsd.obj
 0002:00029510       _pj_sock_getsockopt        00482510 f   pjlib-i386-win32-vc8-debug:sock_bsd.obj
 0002:00029610       _pj_sock_setsockopt        00482610 f   pjlib-i386-win32-vc8-debug:sock_bsd.obj
 0002:000296c0       _pj_sock_connect           004826c0 f   pjlib-i386-win32-vc8-debug:sock_bsd.obj
 0002:00029760       _pj_sock_shutdown          00482760 f   pjlib-i386-win32-vc8-debug:sock_bsd.obj
 0002:00029800       _pj_sock_listen            00482800 f   pjlib-i386-win32-vc8-debug:sock_bsd.obj
 0002:000298a0       _pj_sock_accept            004828a0 f   pjlib-i386-win32-vc8-debug:sock_bsd.obj
 0002:00029990       _pj_gettimeofday           00482990 f   pjlib-i386-win32-vc8-debug:os_time_win32.obj
 0002:00029af0       _pj_time_decode            00482af0 f   pjlib-i386-win32-vc8-debug:os_time_win32.obj
 0002:00029be0       _pj_time_encode            00482be0 f   pjlib-i386-win32-vc8-debug:os_time_win32.obj
 0002:00029d10       _pj_list_insert_after      00482d10 f   pjlib-i386-win32-vc8-debug:list.obj
 0002:00029d60       _pj_list_insert_before     00482d60 f   pjlib-i386-win32-vc8-debug:list.obj
 0002:00029d90       _pj_list_insert_nodes_after 00482d90 f   pjlib-i386-win32-vc8-debug:list.obj
 0002:00029e20       _pj_list_insert_nodes_before 00482e20 f   pjlib-i386-win32-vc8-debug:list.obj
 0002:00029e50       _pj_list_merge_last        00482e50 f   pjlib-i386-win32-vc8-debug:list.obj
 0002:00029f20       _pj_list_merge_first       00482f20 f   pjlib-i386-win32-vc8-debug:list.obj
 0002:00029f90       _pj_list_erase             00482f90 f   pjlib-i386-win32-vc8-debug:list.obj
 0002:00029fd0       _pj_list_find_node         00482fd0 f   pjlib-i386-win32-vc8-debug:list.obj
 0002:0002a030       _pj_list_search            00483030 f   pjlib-i386-win32-vc8-debug:list.obj
 0002:0002a090       _pj_list_size              00483090 f   pjlib-i386-win32-vc8-debug:list.obj
 0002:0002a0e0       _pj_file_open              004830e0 f   pjlib-i386-win32-vc8-debug:file_io_win32.obj
 0002:0002a330       _pj_file_close             00483330 f   pjlib-i386-win32-vc8-debug:file_io_win32.obj
 0002:0002a3b0       _pj_file_write             004833b0 f   pjlib-i386-win32-vc8-debug:file_io_win32.obj
 0002:0002a460       _pj_file_read              00483460 f   pjlib-i386-win32-vc8-debug:file_io_win32.obj
 0002:0002a510       _pj_file_setpos            00483510 f   pjlib-i386-win32-vc8-debug:file_io_win32.obj
 0002:0002a630       _pj_file_getpos            00483630 f   pjlib-i386-win32-vc8-debug:file_io_win32.obj
 0002:0002a700       _pj_file_flush             00483700 f   pjlib-i386-win32-vc8-debug:file_io_win32.obj
 0002:0002a790       _pj_file_exists            00483790 f   pjlib-i386-win32-vc8-debug:file_access_win32.obj
 0002:0002a830       _pj_file_size              00483830 f   pjlib-i386-win32-vc8-debug:file_access_win32.obj
 0002:0002a950       _pj_file_delete            00483950 f   pjlib-i386-win32-vc8-debug:file_access_win32.obj
 0002:0002aa10       _pj_file_move              00483a10 f   pjlib-i386-win32-vc8-debug:file_access_win32.obj
 0002:0002aaf0       _pj_file_getstat           00483af0 f   pjlib-i386-win32-vc8-debug:file_access_win32.obj
 0002:0002af50       _pj_array_insert           00483f50 f   pjlib-i386-win32-vc8-debug:array.obj
 0002:0002b000       _pj_array_erase            00484000 f   pjlib-i386-win32-vc8-debug:array.obj
 0002:0002b090       _pj_array_find             00484090 f   pjlib-i386-win32-vc8-debug:array.obj
 0002:0002b110       _pj_throw_exception_       00484110 f   pjlib-i386-win32-vc8-debug:except.obj
 0002:0002b1d0       _pj_push_exception_handler_ 004841d0 f   pjlib-i386-win32-vc8-debug:except.obj
 0002:0002b2f0       _pj_pop_exception_handler_ 004842f0 f   pjlib-i386-win32-vc8-debug:except.obj
 0002:0002b350       _pj_exception_id_alloc     00484350 f   pjlib-i386-win32-vc8-debug:except.obj
 0002:0002b3d0       _pj_exception_id_free      004843d0 f   pjlib-i386-win32-vc8-debug:except.obj
 0002:0002b460       _pj_exception_id_name      00484460 f   pjlib-i386-win32-vc8-debug:except.obj
 0002:0002b510       _pj_lock_create_simple_mutex 00484510 f   pjlib-i386-win32-vc8-debug:lock.obj
 0002:0002b660       _pj_lock_create_recursive_mutex 00484660 f   pjlib-i386-win32-vc8-debug:lock.obj
 0002:0002b6b0       _pj_lock_create_null_mutex 004846b0 f   pjlib-i386-win32-vc8-debug:lock.obj
 0002:0002b710       _pj_lock_create_semaphore  00484710 f   pjlib-i386-win32-vc8-debug:lock.obj
 0002:0002b800       _pj_lock_acquire           00484800 f   pjlib-i386-win32-vc8-debug:lock.obj
 0002:0002b870       _pj_lock_tryacquire        00484870 f   pjlib-i386-win32-vc8-debug:lock.obj
 0002:0002b8e0       _pj_lock_release           004848e0 f   pjlib-i386-win32-vc8-debug:lock.obj
 0002:0002b950       _pj_lock_destroy           00484950 f   pjlib-i386-win32-vc8-debug:lock.obj
 0002:0002b9c0       _pj_get_version            004849c0 f   pjlib-i386-win32-vc8-debug:config.obj
 0002:0002b9e0       _pj_dump_config            004849e0 f   pjlib-i386-win32-vc8-debug:config.obj
 0002:0002bfc0       _pj_GUID_STRING_LENGTH     00484fc0 f   pjlib-i386-win32-vc8-debug:guid_win32.obj
 0002:0002bfe0       _pj_generate_unique_string 00484fe0 f   pjlib-i386-win32-vc8-debug:guid_win32.obj
 0002:0002c190       _pj_pool_create_on_buf     00485190 f   pjlib-i386-win32-vc8-debug:pool_buf.obj
 0002:0002c400       _pj_log_write              00485400 f   pjlib-i386-win32-vc8-debug:log_writer_stdout.obj
 0002:0002c4e0       _pj_get_os_error           004854e0 f   pjlib-i386-win32-vc8-debug:os_error_win32.obj
 0002:0002c530       _pj_set_os_error           00485530 f   pjlib-i386-win32-vc8-debug:os_error_win32.obj
 0002:0002c580       _pj_get_netos_error        00485580 f   pjlib-i386-win32-vc8-debug:os_error_win32.obj
 0002:0002c5d0       _pj_set_netos_error        004855d0 f   pjlib-i386-win32-vc8-debug:os_error_win32.obj
 0002:0002c620       _platform_strerror         00485620 f   pjlib-i386-win32-vc8-debug:os_error_win32.obj
 0002:0002c850       _PJ_FD_ZERO                00485850 f   pjlib-i386-win32-vc8-debug:sock_select.obj
 0002:0002c8a0       _PJ_FD_SET                 004858a0 f   pjlib-i386-win32-vc8-debug:sock_select.obj
 0002:0002c980       _PJ_FD_CLR                 00485980 f   pjlib-i386-win32-vc8-debug:sock_select.obj
 0002:0002ca70       _PJ_FD_ISSET               00485a70 f   pjlib-i386-win32-vc8-debug:sock_select.obj
 0002:0002cad0       _PJ_FD_COUNT               00485ad0 f   pjlib-i386-win32-vc8-debug:sock_select.obj
 0002:0002caf0       _pj_sock_select            00485af0 f   pjlib-i386-win32-vc8-debug:sock_select.obj
 0002:0002cbf0       _pj_time_val_normalize     00485bf0 f   pjlib-i386-win32-vc8-debug:types.obj
 0002:0002cd30       _pj_srand                  00485d30 f   pjlib-i386-win32-vc8-debug:rand.obj
 0002:0002cd70       _pj_rand                   00485d70 f   pjlib-i386-win32-vc8-debug:rand.obj
 0002:0002cdf0       _pj_gethostbyname          00485df0 f   pjlib-i386-win32-vc8-debug:addr_resolv_sock.obj
 0002:0002cf50       _pj_getaddrinfo            00485f50 f   pjlib-i386-win32-vc8-debug:addr_resolv_sock.obj
 0002:0002d2b0       _pj_enum_ip_interface      004862b0 f   pjlib-i386-win32-vc8-debug:ip_helper_win32.obj
 0002:0002de10       _pj_enum_ip_route          00486e10 f   pjlib-i386-win32-vc8-debug:ip_helper_win32.obj
 0002:0002e230       _speex_preprocess_state_init 00487230 f   libspeex-i386-win32-vc8-debug:preprocess.obj
 0002:0002ebf0       _speex_preprocess_state_destroy 00487bf0 f   libspeex-i386-win32-vc8-debug:preprocess.obj
 0002:0002ee30       _speex_preprocess          00487e30 f   libspeex-i386-win32-vc8-debug:preprocess.obj
 0002:0002ee60       _speex_preprocess_run      00487e60 f   libspeex-i386-win32-vc8-debug:preprocess.obj
 0002:00030eb0       _speex_preprocess_estimate_update 00489eb0 f   libspeex-i386-win32-vc8-debug:preprocess.obj
 0002:000310d0       _speex_preprocess_ctl      0048a0d0 f   libspeex-i386-win32-vc8-debug:preprocess.obj
 0002:000319e0       _speex_echo_state_init     0048a9e0 f   libspeex-i386-win32-vc8-debug:mdf.obj
 0002:000320f0       _speex_echo_state_reset    0048b0f0 f   libspeex-i386-win32-vc8-debug:mdf.obj
 0002:000323f0       _speex_echo_state_destroy  0048b3f0 f   libspeex-i386-win32-vc8-debug:mdf.obj
 0002:00032610       _speex_echo_capture        0048b610 f   libspeex-i386-win32-vc8-debug:mdf.obj
 0002:000327b0       _speex_echo_playback       0048b7b0 f   libspeex-i386-win32-vc8-debug:mdf.obj
 0002:00032980       _speex_echo_cancel         0048b980 f   libspeex-i386-win32-vc8-debug:mdf.obj
 0002:000329c0       _speex_echo_cancellation   0048b9c0 f   libspeex-i386-win32-vc8-debug:mdf.obj
 0002:000349f0       _speex_echo_get_residual   0048d9f0 f   libspeex-i386-win32-vc8-debug:mdf.obj
 0002:00034b30       _speex_echo_ctl            0048db30 f   libspeex-i386-win32-vc8-debug:mdf.obj
 0002:00034c90       _spx_fft_init              0048dc90 f   libspeex-i386-win32-vc8-debug:fftwrap.obj
 0002:00034d00       _spx_fft_destroy           0048dd00 f   libspeex-i386-win32-vc8-debug:fftwrap.obj
 0002:00034d70       _spx_fft                   0048dd70 f   libspeex-i386-win32-vc8-debug:fftwrap.obj
 0002:00034e70       _spx_ifft                  0048de70 f   libspeex-i386-win32-vc8-debug:fftwrap.obj
 0002:00034f10       _spx_fft_float             0048df10 f   libspeex-i386-win32-vc8-debug:fftwrap.obj
 0002:00034f40       _spx_ifft_float            0048df40 f   libspeex-i386-win32-vc8-debug:fftwrap.obj
 0002:00034f70       _filterbank_new            0048df70 f   libspeex-i386-win32-vc8-debug:filterbank.obj
 0002:000353a0       _filterbank_destroy        0048e3a0 f   libspeex-i386-win32-vc8-debug:filterbank.obj
 0002:00035450       _filterbank_compute_bank32 0048e450 f   libspeex-i386-win32-vc8-debug:filterbank.obj
 0002:00035550       _filterbank_compute_psd16  0048e550 f   libspeex-i386-win32-vc8-debug:filterbank.obj
 0002:00035600       _filterbank_compute_bank   0048e600 f   libspeex-i386-win32-vc8-debug:filterbank.obj
 0002:00035750       _filterbank_compute_psd    0048e750 f   libspeex-i386-win32-vc8-debug:filterbank.obj
 0002:00035810       _filterbank_psy_smooth     0048e810 f   libspeex-i386-win32-vc8-debug:filterbank.obj
 0002:00035960       _spx_drft_forward          0048e960 f   libspeex-i386-win32-vc8-debug:smallft.obj
 0002:00037860       _spx_drft_backward         00490860 f   libspeex-i386-win32-vc8-debug:smallft.obj
 0002:00039c80       _spx_drft_init             00492c80 f   libspeex-i386-win32-vc8-debug:smallft.obj
 0002:0003a050       _spx_drft_clear            00493050 f   libspeex-i386-win32-vc8-debug:smallft.obj
 0002:0003a0e0       _srtp_stream_alloc         004930e0 f   libsrtp-i386-win32-vc8-debug:srtp.obj
 0002:0003a3a0       _srtp_stream_dealloc       004933a0 f   libsrtp-i386-win32-vc8-debug:srtp.obj
 0002:0003a550       _srtp_stream_clone         00493550 f   libsrtp-i386-win32-vc8-debug:srtp.obj
 0002:0003a6a0       _srtp_kdf_init             004936a0 f   libsrtp-i386-win32-vc8-debug:srtp.obj
 0002:0003a6d0       _srtp_kdf_generate         004936d0 f   libsrtp-i386-win32-vc8-debug:srtp.obj
 0002:0003a760       _srtp_kdf_clear            00493760 f   libsrtp-i386-win32-vc8-debug:srtp.obj
 0002:0003a790       _srtp_stream_init_keys     00493790 f   libsrtp-i386-win32-vc8-debug:srtp.obj
 0002:0003acc0       _srtp_stream_init          00493cc0 f   libsrtp-i386-win32-vc8-debug:srtp.obj
 0002:0003adc0       _srtp_event_reporter       00493dc0 f   libsrtp-i386-win32-vc8-debug:srtp.obj
 0002:0003ae90       _srtp_install_event_handler 00493e90 f   libsrtp-i386-win32-vc8-debug:srtp.obj
 0002:0003aeb0       _srtp_protect              00493eb0 f   libsrtp-i386-win32-vc8-debug:srtp.obj
 0002:0003b650       _srtp_unprotect            00494650 f   libsrtp-i386-win32-vc8-debug:srtp.obj
 0002:0003bdf0       _srtp_init                 00494df0 f   libsrtp-i386-win32-vc8-debug:srtp.obj
 0002:0003be40       _srtp_deinit               00494e40 f   libsrtp-i386-win32-vc8-debug:srtp.obj
 0002:0003be70       _srtp_get_stream           00494e70 f   libsrtp-i386-win32-vc8-debug:srtp.obj
 0002:0003bec0       _srtp_dealloc              00494ec0 f   libsrtp-i386-win32-vc8-debug:srtp.obj
 0002:0003c050       _srtp_add_stream           00495050 f   libsrtp-i386-win32-vc8-debug:srtp.obj
 0002:0003c1b0       _srtp_create               004951b0 f   libsrtp-i386-win32-vc8-debug:srtp.obj
 0002:0003c270       _srtp_remove_stream        00495270 f   libsrtp-i386-win32-vc8-debug:srtp.obj
 0002:0003c320       _crypto_policy_set_rtp_default 00495320 f   libsrtp-i386-win32-vc8-debug:srtp.obj
 0002:0003c380       _crypto_policy_set_rtcp_default 00495380 f   libsrtp-i386-win32-vc8-debug:srtp.obj
 0002:0003c3e0       _crypto_policy_set_aes_cm_128_hmac_sha1_32 004953e0 f   libsrtp-i386-win32-vc8-debug:srtp.obj
 0002:0003c440       _crypto_policy_set_aes_cm_128_null_auth 00495440 f   libsrtp-i386-win32-vc8-debug:srtp.obj
 0002:0003c4a0       _crypto_policy_set_null_cipher_hmac_sha1_80 004954a0 f   libsrtp-i386-win32-vc8-debug:srtp.obj
 0002:0003c500       _srtp_protect_rtcp         00495500 f   libsrtp-i386-win32-vc8-debug:srtp.obj
 0002:0003ca00       _srtp_unprotect_rtcp       00495a00 f   libsrtp-i386-win32-vc8-debug:srtp.obj
 0002:0003cfa0       _crypto_policy_set_from_profile_for_rtp 00495fa0 f   libsrtp-i386-win32-vc8-debug:srtp.obj
 0002:0003d020       _crypto_policy_set_from_profile_for_rtcp 00496020 f   libsrtp-i386-win32-vc8-debug:srtp.obj
 0002:0003d0a0       _append_salt_to_key        004960a0 f   libsrtp-i386-win32-vc8-debug:srtp.obj
 0002:0003d0d0       _srtp_profile_get_master_key_length 004960d0 f   libsrtp-i386-win32-vc8-debug:srtp.obj
 0002:0003d130       _srtp_profile_get_master_salt_length 00496130 f   libsrtp-i386-win32-vc8-debug:srtp.obj
 0002:0003d190       _octet_get_weight          00496190 f   libsrtp-i386-win32-vc8-debug:datatypes.obj
 0002:0003d1c0       _nibble_to_hex_char        004961c0 f   libsrtp-i386-win32-vc8-debug:datatypes.obj
 0002:0003d250       _octet_string_hex_string   00496250 f   libsrtp-i386-win32-vc8-debug:datatypes.obj
 0002:0003d320       _is_hex_string             00496320 f   libsrtp-i386-win32-vc8-debug:datatypes.obj
 0002:0003d380       _hex_char_to_nibble        00496380 f i libsrtp-i386-win32-vc8-debug:datatypes.obj
 0002:0003d560       _hex_string_to_octet_string 00496560 f   libsrtp-i386-win32-vc8-debug:datatypes.obj
 0002:0003d640       _v128_hex_string           00496640 f   libsrtp-i386-win32-vc8-debug:datatypes.obj
 0002:0003d6f0       _v128_bit_string           004966f0 f   libsrtp-i386-win32-vc8-debug:datatypes.obj
 0002:0003d7a0       _v128_copy_octet_string    004967a0 f   libsrtp-i386-win32-vc8-debug:datatypes.obj
 0002:0003d8b0       _v128_right_shift          004968b0 f   libsrtp-i386-win32-vc8-debug:datatypes.obj
 0002:0003da40       _v128_left_shift           00496a40 f   libsrtp-i386-win32-vc8-debug:datatypes.obj
 0002:0003dbc0       _octet_string_is_eq        00496bc0 f   libsrtp-i386-win32-vc8-debug:datatypes.obj
 0002:0003dc30       _octet_string_set_to_zero  00496c30 f   libsrtp-i386-win32-vc8-debug:datatypes.obj
 0002:0003dc70       _base64_char_to_sextet     00496c70 f   libsrtp-i386-win32-vc8-debug:datatypes.obj
 0002:0003e130       _base64_string_to_octet_string 00497130 f   libsrtp-i386-win32-vc8-debug:datatypes.obj
 0002:0003e210       _crypto_kernel_init        00497210 f   libsrtp-i386-win32-vc8-debug:crypto_kernel.obj
 0002:0003e480       _crypto_kernel_status      00497480 f   libsrtp-i386-win32-vc8-debug:crypto_kernel.obj
 0002:0003e700       _crypto_kernel_list_debug_modules 00497700 f   libsrtp-i386-win32-vc8-debug:crypto_kernel.obj
 0002:0003e7a0       _crypto_kernel_shutdown    004977a0 f   libsrtp-i386-win32-vc8-debug:crypto_kernel.obj
 0002:0003e910       _crypto_kernel_load_cipher_type 00497910 f   libsrtp-i386-win32-vc8-debug:crypto_kernel.obj
 0002:0003ea10       _crypto_kernel_load_auth_type 00497a10 f   libsrtp-i386-win32-vc8-debug:crypto_kernel.obj
 0002:0003eb10       _crypto_kernel_get_cipher_type 00497b10 f   libsrtp-i386-win32-vc8-debug:crypto_kernel.obj
 0002:0003eb60       _crypto_kernel_alloc_cipher 00497b60 f   libsrtp-i386-win32-vc8-debug:crypto_kernel.obj
 0002:0003ebd0       _crypto_kernel_get_auth_type 00497bd0 f   libsrtp-i386-win32-vc8-debug:crypto_kernel.obj
 0002:0003ec20       _crypto_kernel_alloc_auth  00497c20 f   libsrtp-i386-win32-vc8-debug:crypto_kernel.obj
 0002:0003ec90       _crypto_kernel_load_debug_module 00497c90 f   libsrtp-i386-win32-vc8-debug:crypto_kernel.obj
 0002:0003ed50       _crypto_kernel_set_debug_module 00497d50 f   libsrtp-i386-win32-vc8-debug:crypto_kernel.obj
 0002:0003edc0       _crypto_get_random         00497dc0 f   libsrtp-i386-win32-vc8-debug:crypto_kernel.obj
 0002:0003ee00       _crypto_alloc              00497e00 f   libsrtp-i386-win32-vc8-debug:alloc.obj
 0002:0003ee90       _crypto_free               00497e90 f   libsrtp-i386-win32-vc8-debug:alloc.obj
 0002:0003eee0       _rdb_init                  00497ee0 f   libsrtp-i386-win32-vc8-debug:rdb.obj
 0002:0003ef40       _rdb_check                 00497f40 f   libsrtp-i386-win32-vc8-debug:rdb.obj
 0002:0003efc0       _rdb_add_index             00497fc0 f   libsrtp-i386-win32-vc8-debug:rdb.obj
 0002:0003f0a0       _rdb_increment             004980a0 f   libsrtp-i386-win32-vc8-debug:rdb.obj
 0002:0003f0e0       _rdb_get_value             004980e0 f   libsrtp-i386-win32-vc8-debug:rdb.obj
 0002:0003f100       _index_init                00498100 f   libsrtp-i386-win32-vc8-debug:rdbx.obj
 0002:0003f130       _index_advance             00498130 f   libsrtp-i386-win32-vc8-debug:rdbx.obj
 0002:0003f160       _index_guess               00498160 f   libsrtp-i386-win32-vc8-debug:rdbx.obj
 0002:0003f2b0       _rdbx_init                 004982b0 f   libsrtp-i386-win32-vc8-debug:rdbx.obj
 0002:0003f310       _rdbx_check                00498310 f   libsrtp-i386-win32-vc8-debug:rdbx.obj
 0002:0003f380       _rdbx_add_index            00498380 f   libsrtp-i386-win32-vc8-debug:rdbx.obj
 0002:0003f420       _rdbx_estimate_index       00498420 f   libsrtp-i386-win32-vc8-debug:rdbx.obj
 0002:0003f490       _key_limit_set             00498490 f   libsrtp-i386-win32-vc8-debug:key.obj
 0002:0003f4f0       _key_limit_clone           004984f0 f   libsrtp-i386-win32-vc8-debug:key.obj
 0002:0003f520       _key_limit_check           00498520 f   libsrtp-i386-win32-vc8-debug:key.obj
 0002:0003f550       _key_limit_update          00498550 f   libsrtp-i386-win32-vc8-debug:key.obj
 0002:0003f600       _err_reporting_init        00498600 f   libsrtp-i386-win32-vc8-debug:srtp_err.obj
 0002:0003f620       _err_report                00498620 f   libsrtp-i386-win32-vc8-debug:srtp_err.obj
 0002:0003f680       _err_reporting_set_level   00498680 f   libsrtp-i386-win32-vc8-debug:srtp_err.obj
 0002:0003f6a0       _aes_icm_alloc_ismacryp    004986a0 f   libsrtp-i386-win32-vc8-debug:aes_icm.obj
 0002:0003f770       _aes_icm_alloc             00498770 f   libsrtp-i386-win32-vc8-debug:aes_icm.obj
 0002:0003f7a0       _aes_icm_dealloc           004987a0 f   libsrtp-i386-win32-vc8-debug:aes_icm.obj
 0002:0003f7f0       _aes_icm_context_init      004987f0 f   libsrtp-i386-win32-vc8-debug:aes_icm.obj
 0002:0003f930       _aes_icm_set_octet         00498930 f   libsrtp-i386-win32-vc8-debug:aes_icm.obj
 0002:0003fb00       _aes_icm_set_iv            00498b00 f   libsrtp-i386-win32-vc8-debug:aes_icm.obj
 0002:0003fc00       _aes_icm_encrypt_ismacryp  00498c00 f   libsrtp-i386-win32-vc8-debug:aes_icm.obj
 0002:00040170       _aes_icm_advance_ismacryp  00499170 f i libsrtp-i386-win32-vc8-debug:aes_icm.obj
 0002:000402d0       _aes_icm_encrypt           004992d0 f   libsrtp-i386-win32-vc8-debug:aes_icm.obj
 0002:00040300       _aes_icm_output            00499300 f   libsrtp-i386-win32-vc8-debug:aes_icm.obj
 0002:00040350       _auth_get_key_length       00499350 f   libsrtp-i386-win32-vc8-debug:auth.obj
 0002:00040370       _auth_get_tag_length       00499370 f   libsrtp-i386-win32-vc8-debug:auth.obj
 0002:00040390       _auth_get_prefix_length    00499390 f   libsrtp-i386-win32-vc8-debug:auth.obj
 0002:000403b0       _auth_type_get_ref_count   004993b0 f   libsrtp-i386-win32-vc8-debug:auth.obj
 0002:000403d0       _auth_type_self_test       004993d0 f   libsrtp-i386-win32-vc8-debug:auth.obj
 0002:000407b0       _cipher_output             004997b0 f   libsrtp-i386-win32-vc8-debug:cipher.obj
 0002:00040800       _cipher_get_key_length     00499800 f   libsrtp-i386-win32-vc8-debug:cipher.obj
 0002:00040820       _cipher_type_self_test     00499820 f   libsrtp-i386-win32-vc8-debug:cipher.obj
 0002:00041740       _cipher_bits_per_second    0049a740 f   libsrtp-i386-win32-vc8-debug:cipher.obj
 0002:000418d0       _hmac_alloc                0049a8d0 f   libsrtp-i386-win32-vc8-debug:hmac.obj
 0002:000419f0       _hmac_dealloc              0049a9f0 f   libsrtp-i386-win32-vc8-debug:hmac.obj
 0002:00041a40       _hmac_init                 0049aa40 f   libsrtp-i386-win32-vc8-debug:hmac.obj
 0002:00041ba0       _hmac_start                0049aba0 f   libsrtp-i386-win32-vc8-debug:hmac.obj
 0002:00041be0       _hmac_update               0049abe0 f   libsrtp-i386-win32-vc8-debug:hmac.obj
 0002:00041c50       _hmac_compute              0049ac50 f   libsrtp-i386-win32-vc8-debug:hmac.obj
 0002:00041dc0       _null_auth_alloc           0049adc0 f   libsrtp-i386-win32-vc8-debug:null_auth.obj
 0002:00041ec0       _null_auth_dealloc         0049aec0 f   libsrtp-i386-win32-vc8-debug:null_auth.obj
 0002:00041f10       _null_auth_init            0049af10 f   libsrtp-i386-win32-vc8-debug:null_auth.obj
 0002:00041f30       _null_auth_compute         0049af30 f   libsrtp-i386-win32-vc8-debug:null_auth.obj
 0002:00041f50       _null_auth_update          0049af50 f   libsrtp-i386-win32-vc8-debug:null_auth.obj
 0002:00041f70       _null_auth_start           0049af70 f   libsrtp-i386-win32-vc8-debug:null_auth.obj
 0002:00041f90       _aes_cbc_alloc             0049af90 f   libsrtp-i386-win32-vc8-debug:aes_cbc.obj
 0002:00042060       _aes_cbc_dealloc           0049b060 f   libsrtp-i386-win32-vc8-debug:aes_cbc.obj
 0002:000420b0       _aes_cbc_context_init      0049b0b0 f   libsrtp-i386-win32-vc8-debug:aes_cbc.obj
 0002:00042180       _aes_cbc_set_iv            0049b180 f   libsrtp-i386-win32-vc8-debug:aes_cbc.obj
 0002:00042220       _aes_cbc_encrypt           0049b220 f   libsrtp-i386-win32-vc8-debug:aes_cbc.obj
 0002:000423d0       _aes_cbc_decrypt           0049b3d0 f   libsrtp-i386-win32-vc8-debug:aes_cbc.obj
 0002:000425e0       _aes_cbc_nist_encrypt      0049b5e0 f   libsrtp-i386-win32-vc8-debug:aes_cbc.obj
 0002:000426b0       _aes_cbc_nist_decrypt      0049b6b0 f   libsrtp-i386-win32-vc8-debug:aes_cbc.obj
 0002:00042750       _null_cipher_alloc         0049b750 f   libsrtp-i386-win32-vc8-debug:null_cipher.obj
 0002:00042800       _null_cipher_dealloc       0049b800 f   libsrtp-i386-win32-vc8-debug:null_cipher.obj
 0002:00042850       _null_cipher_init          0049b850 f   libsrtp-i386-win32-vc8-debug:null_cipher.obj
 0002:00042890       _null_cipher_set_iv        0049b890 f   libsrtp-i386-win32-vc8-debug:null_cipher.obj
 0002:000428b0       _null_cipher_encrypt       0049b8b0 f   libsrtp-i386-win32-vc8-debug:null_cipher.obj
 0002:000428d0       _ctr_prng_init             0049b8d0 f   libsrtp-i386-win32-vc8-debug:ctr_prng.obj
 0002:00042960       _ctr_prng_get_octet_string 0049b960 f   libsrtp-i386-win32-vc8-debug:ctr_prng.obj
 0002:000429f0       _ctr_prng_deinit           0049b9f0 f   libsrtp-i386-win32-vc8-debug:ctr_prng.obj
 0002:00042a10       _stat_test_monobit         0049ba10 f   libsrtp-i386-win32-vc8-debug:stat.obj
 0002:00042ad0       _stat_test_poker           0049bad0 f   libsrtp-i386-win32-vc8-debug:stat.obj
 0002:00042cc0       _stat_test_runs            0049bcc0 f   libsrtp-i386-win32-vc8-debug:stat.obj
 0002:00043150       _stat_test_rand_source     0049c150 f   libsrtp-i386-win32-vc8-debug:stat.obj
 0002:00043940       _stat_test_rand_source_with_repetition 0049c940 f   libsrtp-i386-win32-vc8-debug:stat.obj
 0002:000439d0       _rand_source_init          0049c9d0 f   libsrtp-i386-win32-vc8-debug:rand_source.obj
 0002:00043a10       _rand_source_get_octet_string 0049ca10 f   libsrtp-i386-win32-vc8-debug:rand_source.obj
 0002:00043a70       _rand_source_deinit        0049ca70 f   libsrtp-i386-win32-vc8-debug:rand_source.obj
 0002:00043aa0       _aes_expand_encryption_key 0049caa0 f   libsrtp-i386-win32-vc8-debug:aes.obj
 0002:00043ce0       _aes_expand_decryption_key 0049cce0 f   libsrtp-i386-win32-vc8-debug:aes.obj
 0002:00044150       _aes_encrypt               0049d150 f   libsrtp-i386-win32-vc8-debug:aes.obj
 0002:00044620       _aes_decrypt               0049d620 f   libsrtp-i386-win32-vc8-debug:aes.obj
 0002:00044af0       _sha1                      0049daf0 f   libsrtp-i386-win32-vc8-debug:sha1.obj
 0002:00044b50       _sha1_core                 0049db50 f   libsrtp-i386-win32-vc8-debug:sha1.obj
 0002:00045660       _sha1_init                 0049e660 f   libsrtp-i386-win32-vc8-debug:sha1.obj
 0002:000456d0       _sha1_update               0049e6d0 f   libsrtp-i386-win32-vc8-debug:sha1.obj
 0002:00045860       _sha1_final                0049e860 f   libsrtp-i386-win32-vc8-debug:sha1.obj
 0002:00046346       _CoCreateGuid@4            0049f346 f   ole32:ole32.dll
 0002:0004634c       _WSAGetLastError@0         0049f34c f   ws2_32:WS2_32.dll
 0002:00046352       _WSAStartup@8              0049f352 f   ws2_32:WS2_32.dll
 0002:00046358       _WSACleanup@0              0049f358 f   ws2_32:WS2_32.dll
 0002:0004635e       _ioctlsocket@12            0049f35e f   ws2_32:WS2_32.dll
 0002:00046364       _ntohs@4                   0049f364 f   ws2_32:WS2_32.dll
 0002:0004636a       _htons@4                   0049f36a f   ws2_32:WS2_32.dll
 0002:00046370       _ntohl@4                   0049f370 f   ws2_32:WS2_32.dll
 0002:00046376       _htonl@4                   0049f376 f   ws2_32:WS2_32.dll
 0002:0004637c       _inet_ntoa@4               0049f37c f   ws2_32:WS2_32.dll
 0002:00046382       _inet_addr@4               0049f382 f   ws2_32:WS2_32.dll
 0002:00046388       _WSAStringToAddressA@20    0049f388 f   ws2_32:WS2_32.dll
 0002:0004638e       _WSAAddressToStringA@20    0049f38e f   ws2_32:WS2_32.dll
 0002:00046394       _gethostname@8             0049f394 f   ws2_32:WS2_32.dll
 0002:0004639a       _WSASocketA@24             0049f39a f   ws2_32:WS2_32.dll
 0002:000463a0       _bind@12                   0049f3a0 f   ws2_32:WS2_32.dll
 0002:000463a6       _closesocket@4             0049f3a6 f   ws2_32:WS2_32.dll
 0002:000463ac       _getpeername@12            0049f3ac f   ws2_32:WS2_32.dll
 0002:000463b2       _getsockname@12            0049f3b2 f   ws2_32:WS2_32.dll
 0002:000463b8       _send@16                   0049f3b8 f   ws2_32:WS2_32.dll
 0002:000463be       _sendto@24                 0049f3be f   ws2_32:WS2_32.dll
 0002:000463c4       _recv@16                   0049f3c4 f   ws2_32:WS2_32.dll
 0002:000463ca       _recvfrom@24               0049f3ca f   ws2_32:WS2_32.dll
 0002:000463d0       _getsockopt@20             0049f3d0 f   ws2_32:WS2_32.dll
 0002:000463d6       _setsockopt@20             0049f3d6 f   ws2_32:WS2_32.dll
 0002:000463dc       _connect@12                0049f3dc f   ws2_32:WS2_32.dll
 0002:000463e2       _shutdown@8                0049f3e2 f   ws2_32:WS2_32.dll
 0002:000463e8       _listen@8                  0049f3e8 f   ws2_32:WS2_32.dll
 0002:000463ee       _accept@12                 0049f3ee f   ws2_32:WS2_32.dll
 0002:000463f4       _WSASetLastError@4         0049f3f4 f   ws2_32:WS2_32.dll
 0002:000463fa       ___WSAFDIsSet@8            0049f3fa f   ws2_32:WS2_32.dll
 0002:00046400       _select@20                 0049f400 f   ws2_32:WS2_32.dll
 0002:00046406       _gethostbyname@4           0049f406 f   ws2_32:WS2_32.dll
 0002:00046410       _fgets                     0049f410 f   LIBCMTD:fgets.obj
 0002:000468d0       ___iob_func                0049f8d0 f   LIBCMTD:_file.obj
 0002:000468e0       ___initstdio               0049f8e0 f   LIBCMTD:_file.obj
 0002:00046a80       ___endstdio                0049fa80 f   LIBCMTD:_file.obj
 0002:00046ac0       __lock_file                0049fac0 f   LIBCMTD:_file.obj
 0002:00046b30       __lock_file2               0049fb30 f   LIBCMTD:_file.obj
 0002:00046b80       __unlock_file              0049fb80 f   LIBCMTD:_file.obj
 0002:00046bf0       __unlock_file2             0049fbf0 f   LIBCMTD:_file.obj
 0002:00046c40       __wassert                  0049fc40 f   LIBCMTD:wassert.obj
 0002:00047d50       __invoke_watson_if_error   004a0d50 f i LIBCMTD:wassert.obj
 0002:00047d90       __invoke_watson_if_oneof   004a0d90 f i LIBCMTD:wassert.obj
 0002:00047e30       _puts                      004a0e30 f   LIBCMTD:puts.obj
 0002:00048210       _atol                      004a1210 f   LIBCMTD:atox.obj
 0002:00048230       __atol_l                   004a1230 f   LIBCMTD:atox.obj
 0002:00048250       _atoi                      004a1250 f   LIBCMTD:atox.obj
 0002:00048270       __atoi_l                   004a1270 f   LIBCMTD:atox.obj
 0002:00048290       __atoi64                   004a1290 f   LIBCMTD:atox.obj
 0002:000482b0       __atoi64_l                 004a12b0 f   LIBCMTD:atox.obj
 0002:000482d0       @__security_check_cookie@4 004a12d0 f   LIBCMTD:secchk.obj
 0002:000482f0       _mainCRTStartup            004a12f0 f   LIBCMTD:crt0.obj
 0002:00048670       __set_osplatform           004a1670 f i LIBCMTD:crt0.obj
 0002:00048680       __set_osver                004a1680 f i LIBCMTD:crt0.obj
 0002:00048690       __set_winver               004a1690 f i LIBCMTD:crt0.obj
 0002:000486a0       __set_winmajor             004a16a0 f i LIBCMTD:crt0.obj
 0002:000486b0       __set_winminor             004a16b0 f i LIBCMTD:crt0.obj
 0002:00048790       __snprintf                 004a1790 f   LIBCMTD:snprintf.obj
 0002:000489a0       __snprintf_l               004a19a0 f   LIBCMTD:snprintf.obj
 0002:000489e0       _memset                    004a19e0 f   LIBCMTD:memset.obj
 0002:00048a80       _sprintf                   004a1a80 f   LIBCMTD:sprintf.obj
 0002:00048c60       __sprintf_l                004a1c60 f   LIBCMTD:sprintf.obj
 0002:00048c90       _sprintf_s                 004a1c90 f   LIBCMTD:sprintf.obj
 0002:00048cd0       __sprintf_s_l              004a1cd0 f   LIBCMTD:sprintf.obj
 0002:00048d10       __snprintf_s               004a1d10 f   LIBCMTD:sprintf.obj
 0002:00048d50       __snprintf_s_l             004a1d50 f   LIBCMTD:sprintf.obj
 0002:00048d90       __sprintf_p                004a1d90 f   LIBCMTD:sprintf.obj
 0002:00048dd0       __sprintf_p_l              004a1dd0 f   LIBCMTD:sprintf.obj
 0002:00048e10       __scprintf                 004a1e10 f   LIBCMTD:sprintf.obj
 0002:00048e40       __scprintf_p               004a1e40 f   LIBCMTD:sprintf.obj
 0002:00048e70       __scprintf_l               004a1e70 f   LIBCMTD:sprintf.obj
 0002:00048ea0       __scprintf_p_l             004a1ea0 f   LIBCMTD:sprintf.obj
 0002:00048ed0       _memcpy                    004a1ed0 f   LIBCMTD:memcpy.obj
 0002:00049310       __alldiv                   004a2310 f   LIBCMTD:lldiv.obj
 0002:000493f0       __stricmp_l                004a23f0 f   LIBCMTD:stricmp.obj
 0002:00049600       ??0_LocaleUpdate@@QAE@PAUlocaleinfo_struct@@@Z 004a2600 f i LIBCMTD:stricmp.obj
 0002:00049710       ??1_LocaleUpdate@@QAE@XZ   004a2710 f i LIBCMTD:stricmp.obj
 0002:00049750       ?GetLocaleT@_LocaleUpdate@@QAEPAUlocaleinfo_struct@@XZ 004a2750 f i LIBCMTD:stricmp.obj
 0002:00049770       ___ascii_stricmp           004a2770 f   LIBCMTD:stricmp.obj
 0002:00049800       __stricmp                  004a2800 f   LIBCMTD:stricmp.obj
 0002:00049950       _strlen                    004a2950 f   LIBCMTD:strlen.obj
 0002:00049a00       __setjmp3                  004a2a00 f   LIBCMTD:setjmp3.obj
 0002:00049aa0       __isalpha_l                004a2aa0 f i LIBCMTD:_ctype.obj
 0002:00049b50       _isalpha                   004a2b50 f i LIBCMTD:_ctype.obj
 0002:00049b90       __isupper_l                004a2b90 f i LIBCMTD:_ctype.obj
 0002:00049c30       _isupper                   004a2c30 f i LIBCMTD:_ctype.obj
 0002:00049c70       __islower_l                004a2c70 f i LIBCMTD:_ctype.obj
 0002:00049d10       _islower                   004a2d10 f i LIBCMTD:_ctype.obj
 0002:00049d50       __isdigit_l                004a2d50 f i LIBCMTD:_ctype.obj
 0002:00049df0       _isdigit                   004a2df0 f i LIBCMTD:_ctype.obj
 0002:00049e30       __isxdigit_l               004a2e30 f i LIBCMTD:_ctype.obj
 0002:00049ee0       _isxdigit                  004a2ee0 f i LIBCMTD:_ctype.obj
 0002:00049f20       __isspace_l                004a2f20 f i LIBCMTD:_ctype.obj
 0002:00049fc0       _isspace                   004a2fc0 f i LIBCMTD:_ctype.obj
 0002:0004a000       __ispunct_l                004a3000 f i LIBCMTD:_ctype.obj
 0002:0004a0a0       _ispunct                   004a30a0 f i LIBCMTD:_ctype.obj
 0002:0004a0e0       __isalnum_l                004a30e0 f i LIBCMTD:_ctype.obj
 0002:0004a190       _isalnum                   004a3190 f i LIBCMTD:_ctype.obj
 0002:0004a1d0       __isprint_l                004a31d0 f i LIBCMTD:_ctype.obj
 0002:0004a280       _isprint                   004a3280 f i LIBCMTD:_ctype.obj
 0002:0004a2c0       __isgraph_l                004a32c0 f i LIBCMTD:_ctype.obj
 0002:0004a370       _isgraph                   004a3370 f i LIBCMTD:_ctype.obj
 0002:0004a3b0       __iscntrl_l                004a33b0 f i LIBCMTD:_ctype.obj
 0002:0004a450       _iscntrl                   004a3450 f i LIBCMTD:_ctype.obj
 0002:0004a490       ___isascii                 004a3490 f i LIBCMTD:_ctype.obj
 0002:0004a4b0       ___toascii                 004a34b0 f i LIBCMTD:_ctype.obj
 0002:0004a4c0       __iscsymf_l                004a34c0 f i LIBCMTD:_ctype.obj
 0002:0004a510       ___iscsymf                 004a3510 f i LIBCMTD:_ctype.obj
 0002:0004a550       __iscsym_l                 004a3550 f i LIBCMTD:_ctype.obj
 0002:0004a5a0       ___iscsym                  004a35a0 f i LIBCMTD:_ctype.obj
 0002:0004a5f0       __fpmath                   004a35f0 f   LIBCMTD:fpinit.obj
 0002:0004a620       __fpclear                  004a3620 f   LIBCMTD:fpinit.obj
 0002:0004a630       __cfltcvt_init             004a3630 f   LIBCMTD:fpinit.obj
 0002:0004a6c0       ___setfflag                004a36c0 f   LIBCMTD:fpinit.obj
 0002:0004a6f0       __ftol2_sse                004a36f0 f   LIBCMTD:ftol2.obj
 0002:0004a6f9       __ftol2_pentium4           004a36f9 f   LIBCMTD:ftol2.obj
 0002:0004a70c       __ftol2_sse_excpt          004a370c f   LIBCMTD:ftol2.obj
 0002:0004a726       __ftol2                    004a3726 f   LIBCMTD:ftol2.obj
 0002:0004a7d0       _strncpy                   004a37d0 f   LIBCMTD:strncpy.obj
 0002:0004a940       _memmove                   004a3940 f   LIBCMTD:memmove.obj
 0002:0004ad80       _strtok                    004a3d80 f   LIBCMTD:strtok.obj
 0002:0004af20       _cos                       004a3f20 f   LIBCMTD:cos.obj
 0002:0004af60       __CIcos                    004a3f60 f   LIBCMTD:cos.obj
 0002:0004af9b       __CIcos_default            004a3f9b f   LIBCMTD:cos.obj
 0002:0004afaf       __cos_default              004a3faf     LIBCMTD:cos.obj
 0002:0004b0a0       _strncmp                   004a40a0 f   LIBCMTD:strncmp.obj
 0002:0004b270       _strcmp                    004a4270 f   LIBCMTD:strcmp.obj
 0002:0004b330       _strchr                    004a4330 f   LIBCMTD:strchr.obj
 0002:0004b336       ___from_strstr_to_strchr   004a4336     LIBCMTD:strchr.obj
 0002:0004b430       _memchr                    004a4430 f   LIBCMTD:memchr.obj
 0002:0004b510       __strnicmp_l               004a4510 f   LIBCMTD:strnicmp.obj
 0002:0004b7e0       __strnicmp                 004a47e0 f   LIBCMTD:strnicmp.obj
 0002:0004b9d0       _fmod                      004a49d0 f   LIBCMTD:87fmod.obj
 0002:0004b9da       __CIfmod                   004a49da f   LIBCMTD:87fmod.obj
 0002:0004ba10       __vsnprintf_l              004a4a10 f   LIBCMTD:vsnprint.obj
 0002:0004bc20       __vsnprintf                004a4c20 f   LIBCMTD:vsnprint.obj
 0002:0004bc50       _strcpy                    004a4c50 f   LIBCMTD:strcat.obj
 0002:0004bc60       _strcat                    004a4c60 f   LIBCMTD:strcat.obj
 0002:0004bd90       __chkstk                   004a4d90 f   LIBCMTD:chkstk.obj
 0002:0004bd90       __alloca_probe             004a4d90     LIBCMTD:chkstk.obj
 0002:0004bdd0       _malloc                    004a4dd0 f   LIBCMTD:dbgheap.obj
 0002:0004be00       __malloc_dbg               004a4e00 f   LIBCMTD:dbgheap.obj
 0002:0004be40       __nh_malloc                004a4e40 f   LIBCMTD:dbgheap.obj
 0002:0004be70       __nh_malloc_dbg            004a4e70 f   LIBCMTD:dbgheap.obj
 0002:0004bef0       __heap_alloc               004a4ef0 f   LIBCMTD:dbgheap.obj
 0002:0004bf10       __heap_alloc_dbg           004a4f10 f   LIBCMTD:dbgheap.obj
 0002:0004c390       _calloc                    004a5390 f   LIBCMTD:dbgheap.obj
 0002:0004c3c0       __calloc_dbg               004a53c0 f   LIBCMTD:dbgheap.obj
 0002:0004c4b0       _realloc                   004a54b0 f   LIBCMTD:dbgheap.obj
 0002:0004c4e0       __recalloc                 004a54e0 f   LIBCMTD:dbgheap.obj
 0002:0004c520       __realloc_dbg              004a5520 f   LIBCMTD:dbgheap.obj
 0002:0004cce0       __recalloc_dbg             004a5ce0 f   LIBCMTD:dbgheap.obj
 0002:0004ce20       __expand                   004a5e20 f   LIBCMTD:dbgheap.obj
 0002:0004ce50       __expand_dbg               004a5e50 f   LIBCMTD:dbgheap.obj
 0002:0004cfa0       _free                      004a5fa0 f   LIBCMTD:dbgheap.obj
 0002:0004cfc0       __free_nolock              004a5fc0 f   LIBCMTD:dbgheap.obj
 0002:0004cfe0       __free_dbg                 004a5fe0 f   LIBCMTD:dbgheap.obj
 0002:0004d080       __free_dbg_nolock          004a6080 f   LIBCMTD:dbgheap.obj
 0002:0004d690       __msize                    004a6690 f   LIBCMTD:dbgheap.obj
 0002:0004d6b0       __msize_dbg                004a66b0 f   LIBCMTD:dbgheap.obj
 0002:0004d910       __CrtSetBreakAlloc         004a6910 f   LIBCMTD:dbgheap.obj
 0002:0004d940       __CrtSetDbgBlockType       004a6940 f   LIBCMTD:dbgheap.obj
 0002:0004da60       __CrtSetAllocHook          004a6a60 f   LIBCMTD:dbgheap.obj
 0002:0004da90       __CrtGetAllocHook          004a6a90 f   LIBCMTD:dbgheap.obj
 0002:0004db00       __CrtCheckMemory           004a6b00 f   LIBCMTD:dbgheap.obj
 0002:0004e070       __CrtSetDbgFlag            004a7070 f   LIBCMTD:dbgheap.obj
 0002:0004e210       __CrtDoForAllClientObjects 004a7210 f   LIBCMTD:dbgheap.obj
 0002:0004e370       __CrtIsValidPointer        004a7370 f   LIBCMTD:dbgheap.obj
 0002:0004e390       __CrtIsValidHeapPointer    004a7390 f   LIBCMTD:dbgheap.obj
 0002:0004e4b0       __CrtIsMemoryBlock         004a74b0 f   LIBCMTD:dbgheap.obj
 0002:0004e680       __CrtReportBlockType       004a7680 f   LIBCMTD:dbgheap.obj
 0002:0004e6c0       __CrtSetDumpClient         004a76c0 f   LIBCMTD:dbgheap.obj
 0002:0004e6f0       __CrtGetDumpClient         004a76f0 f   LIBCMTD:dbgheap.obj
 0002:0004e700       __CrtMemCheckpoint         004a7700 f   LIBCMTD:dbgheap.obj
 0002:0004e9a0       __CrtMemDifference         004a79a0 f   LIBCMTD:dbgheap.obj
 0002:0004ec40       __CrtMemDumpAllObjectsSince 004a7c40 f   LIBCMTD:dbgheap.obj
 0002:0004f270       __CrtDumpMemoryLeaks       004a8270 f   LIBCMTD:dbgheap.obj
 0002:0004f2f0       __CrtMemDumpStatistics     004a82f0 f   LIBCMTD:dbgheap.obj
 0002:0004f440       __aligned_malloc           004a8440 f   LIBCMTD:dbgheap.obj
 0002:0004f470       __aligned_malloc_dbg       004a8470 f   LIBCMTD:dbgheap.obj
 0002:0004f4a0       __aligned_realloc          004a84a0 f   LIBCMTD:dbgheap.obj
 0002:0004f4d0       __aligned_recalloc         004a84d0 f   LIBCMTD:dbgheap.obj
 0002:0004f500       __aligned_realloc_dbg      004a8500 f   LIBCMTD:dbgheap.obj
 0002:0004f530       __aligned_recalloc_dbg     004a8530 f   LIBCMTD:dbgheap.obj
 0002:0004f560       __aligned_offset_malloc    004a8560 f   LIBCMTD:dbgheap.obj
 0002:0004f590       __aligned_offset_malloc_dbg 004a8590 f   LIBCMTD:dbgheap.obj
 0002:0004f790       __aligned_offset_realloc   004a8790 f   LIBCMTD:dbgheap.obj
 0002:0004f7c0       __aligned_offset_recalloc  004a87c0 f   LIBCMTD:dbgheap.obj
 0002:0004f7f0       __aligned_offset_realloc_dbg 004a87f0 f   LIBCMTD:dbgheap.obj
 0002:0004fb70       __aligned_offset_recalloc_dbg 004a8b70 f   LIBCMTD:dbgheap.obj
 0002:0004fcc0       __aligned_free             004a8cc0 f   LIBCMTD:dbgheap.obj
 0002:0004fce0       __aligned_free_dbg         004a8ce0 f   LIBCMTD:dbgheap.obj
 0002:0004fdb0       __CrtSetDebugFillThreshold 004a8db0 f   LIBCMTD:dbgheap.obj
 0002:0004fde0       __CrtSetCheckCount         004a8de0 f   LIBCMTD:dbgheap.obj
 0002:0004fe00       __CrtGetCheckCount         004a8e00 f   LIBCMTD:dbgheap.obj
 0002:0004fe10       __aligned_msize            004a8e10 f   LIBCMTD:dbgheap.obj
 0002:0004fe30       __aligned_msize_dbg        004a8e30 f   LIBCMTD:dbgheap.obj
 0002:0004ff80       _memcmp                    004a8f80 f   LIBCMTD:memcmp.obj
 0002:00050c80       __allmul                   004a9c80 f   LIBCMTD:llmul.obj
 0002:00050cd0       __allshr                   004a9cd0 f   LIBCMTD:llshr.obj
 0002:00050d00       __allshl                   004a9d00 f   LIBCMTD:llshl.obj
 0002:00050d28       _longjmp                   004a9d28 f   LIBCMTD:longjmp.obj
 0002:00050e10       _printf                    004a9e10 f   LIBCMTD:printf.obj
 0002:00050f90       __printf_l                 004a9f90 f   LIBCMTD:printf.obj
 0002:00050fc0       __printf_s_l               004a9fc0 f   LIBCMTD:printf.obj
 0002:00050ff0       _printf_s                  004a9ff0 f   LIBCMTD:printf.obj
 0002:00051020       __printf_p_l               004aa020 f   LIBCMTD:printf.obj
 0002:00051050       __printf_p                 004aa050 f   LIBCMTD:printf.obj
 0002:00051080       __set_printf_count_output  004aa080 f   LIBCMTD:printf.obj
 0002:000510e0       __get_printf_count_output  004aa0e0 f   LIBCMTD:printf.obj
 0002:00051100       _srand                     004aa100 f   LIBCMTD:rand.obj
 0002:00051120       _rand                      004aa120 f   LIBCMTD:rand.obj
 0002:00051170       _exp                       004aa170 f   LIBCMTD:87ctran.obj
 0002:000511ac       __CIexp                    004aa1ac f   LIBCMTD:87ctran.obj
 0002:000511e7       __exp_default              004aa1e7 f   LIBCMTD:87ctran.obj
 0002:000511f1       __CIexp_default            004aa1f1 f   LIBCMTD:87ctran.obj
 0002:00051220       __CIsqrt                   004aa220 f   LIBCMTD:sqrt.obj
 0002:00051234       _sqrt                      004aa234     LIBCMTD:sqrt.obj
 0002:00051310       _fabs                      004aa310 f   LIBCMTD:fabs.obj
 0002:00051450       _floor                     004aa450 f   LIBCMTD:floor_pentium4.obj
 0002:00051490       __floor_pentium4           004aa490 f   LIBCMTD:floor_pentium4.obj
 0002:000515c0       _pow                       004aa5c0 f   LIBCMTD:pow.obj
 0002:00051600       __CIpow                    004aa600 f   LIBCMTD:pow.obj
 0002:0005163b       __CIpow_default            004aa63b f   LIBCMTD:pow.obj
 0002:00051654       __pow_default              004aa654     LIBCMTD:pow.obj
 0002:000518f0       _log                       004aa8f0 f   LIBCMTD:log.obj
 0002:00051930       __CIlog                    004aa930 f   LIBCMTD:log.obj
 0002:0005196b       __CIlog_default            004aa96b f   LIBCMTD:log.obj
 0002:0005197f       __log_default              004aa97f     LIBCMTD:log.obj
 0002:00051aa0       _atan                      004aaaa0 f   LIBCMTD:atan.obj
 0002:00051ae0       __CIatan                   004aaae0 f   LIBCMTD:atan.obj
 0002:00051b1b       __CIatan_default           004aab1b f   LIBCMTD:atan.obj
 0002:00051b2f       __atan_default             004aab2f     LIBCMTD:atan.obj
 0002:00051c00       _sin                       004aac00 f   LIBCMTD:sin.obj
 0002:00051c40       __CIsin                    004aac40 f   LIBCMTD:sin.obj
 0002:00051c7b       __CIsin_default            004aac7b f   LIBCMTD:sin.obj
 0002:00051c8f       __sin_default              004aac8f     LIBCMTD:sin.obj
 0002:00051d80       __aullshr                  004aad80 f   LIBCMTD:ullshr.obj
 0002:00051db0       __cinit                    004aadb0 f   LIBCMTD:crt0dat.obj
 0002:00051e80       _exit                      004aae80 f   LIBCMTD:crt0dat.obj
 0002:00051ea0       __exit                     004aaea0 f   LIBCMTD:crt0dat.obj
 0002:00051ec0       __cexit                    004aaec0 f   LIBCMTD:crt0dat.obj
 0002:00051ee0       __c_exit                   004aaee0 f   LIBCMTD:crt0dat.obj
 0002:00051f00       __amsg_exit                004aaf00 f   LIBCMTD:crt0dat.obj
 0002:00051f50       ___freeCrtMemory           004aaf50 f   LIBCMTD:crt0dat.obj
 0002:000522b0       ___crtCorExitProcess       004ab2b0 f   LIBCMTD:crt0dat.obj
 0002:00052300       ___crtExitProcess          004ab300 f   LIBCMTD:crt0dat.obj
 0002:00052330       __lockexit                 004ab330 f   LIBCMTD:crt0dat.obj
 0002:00052350       __unlockexit               004ab350 f   LIBCMTD:crt0dat.obj
 0002:00052370       __init_pointers            004ab370 f   LIBCMTD:crt0dat.obj
 0002:00052450       __initterm_e               004ab450 f   LIBCMTD:crt0dat.obj
 0002:000524a0       __get_osplatform           004ab4a0 f   LIBCMTD:crt0dat.obj
 0002:000525d0       __get_osver                004ab5d0 f   LIBCMTD:crt0dat.obj
 0002:00052700       __get_winver               004ab700 f   LIBCMTD:crt0dat.obj
 0002:00052830       __get_winmajor             004ab830 f   LIBCMTD:crt0dat.obj
 0002:00052960       __get_winminor             004ab960 f   LIBCMTD:crt0dat.obj
 0002:00052a90       __get_wpgmptr              004aba90 f   LIBCMTD:crt0dat.obj
 0002:00052bc0       __get_pgmptr               004abbc0 f   LIBCMTD:crt0dat.obj
 0002:00052cf0       __aulldiv                  004abcf0 f   LIBCMTD:ulldiv.obj
 0002:00052d80       __aullrem                  004abd80 f   LIBCMTD:ullrem.obj
 0002:00052e20       _clock                     004abe20 f   LIBCMTD:clock.obj
 0002:00052ea0       ___inittime                004abea0 f   LIBCMTD:clock.obj
 0002:00052ef0       __filbuf                   004abef0 f   LIBCMTD:_filbuf.obj
 0002:000531d0       __ioinit                   004ac1d0 f   LIBCMTD:ioinit.obj
 0002:00053770       __ioterm                   004ac770 f   LIBCMTD:ioinit.obj
 0002:00053840       __fileno                   004ac840 f   LIBCMTD:fileno.obj
 0002:000538d0       __initp_misc_invarg        004ac8d0 f   LIBCMTD:invarg.obj
 0002:000538e0       __invalid_parameter        004ac8e0 f   LIBCMTD:invarg.obj
 0002:00053960       __invoke_watson            004ac960 f   LIBCMTD:invarg.obj
 0002:00053ae0       __set_invalid_parameter_handler 004acae0 f   LIBCMTD:invarg.obj
 0002:00053b30       __get_invalid_parameter_handler 004acb30 f   LIBCMTD:invarg.obj
 0002:00053b70       ?_invalid_parameter@@YAXPBG00II@Z 004acb70 f   LIBCMTD:invarg.obj
 0002:00053ba0       ?_invoke_watson@@YAXPBG00II@Z 004acba0 f   LIBCMTD:invarg.obj
 0002:00053bd0       __dosmaperr                004acbd0 f   LIBCMTD:dosmap.obj
 0002:00053c00       __get_errno_from_oserr     004acc00 f   LIBCMTD:dosmap.obj
 0002:00053c90       __set_errno                004acc90 f   LIBCMTD:dosmap.obj
 0002:00053cd0       __get_errno                004accd0 f   LIBCMTD:dosmap.obj
 0002:00053d70       __set_doserrno             004acd70 f   LIBCMTD:dosmap.obj
 0002:00053db0       __get_doserrno             004acdb0 f   LIBCMTD:dosmap.obj
 0002:00053e50       __errno                    004ace50 f   LIBCMTD:dosmap.obj
 0002:00053e80       ___doserrno                004ace80 f   LIBCMTD:dosmap.obj
 0002:00053eb0       __CrtSetReportHookW2       004aceb0 f   LIBCMTD:dbgrptw.obj
 0002:000542a0       __CrtDbgReportW            004ad2a0 f   LIBCMTD:dbgrptw.obj
 0002:000542f0       __CrtDbgReportWV           004ad2f0 f i LIBCMTD:dbgrptw.obj
 0002:00054700       ___crtMessageWindowW       004ad700 f   LIBCMTD:dbgrptw.obj
 0002:00054c00       ?_CrtDbgReportW@@YAHHPBGH00ZZ 004adc00 f   LIBCMTD:dbgrptw.obj
 0002:00054c50       __except_handler4          004adc50 f   LIBCMTD:chandler4.obj
 0002:00054ef0       __fcloseall                004adef0 f   LIBCMTD:closeall.obj
 0002:00055060       _fflush                    004ae060 f   LIBCMTD:fflush.obj
 0002:00055120       __fflush_nolock            004ae120 f   LIBCMTD:fflush.obj
 0002:00055190       __flush                    004ae190 f   LIBCMTD:fflush.obj
 0002:00055280       __flushall                 004ae280 f   LIBCMTD:fflush.obj
 0002:000554b0       __mtinitlocks              004ae4b0 f   LIBCMTD:mlock.obj
 0002:00055560       __mtdeletelocks            004ae560 f   LIBCMTD:mlock.obj
 0002:00055650       __mtinitlocknum            004ae650 f   LIBCMTD:mlock.obj
 0002:000557f0       __lock                     004ae7f0 f   LIBCMTD:mlock.obj
 0002:00055840       __unlock                   004ae840 f   LIBCMTD:mlock.obj
 0002:00055860       __lockerr_exit             004ae860 f   LIBCMTD:mlock.obj
 0002:00055890       __initp_misc_winsig        004ae890 f   LIBCMTD:winsig.obj
 0002:000558c0       _signal                    004ae8c0 f   LIBCMTD:winsig.obj
 0002:00055e90       _raise                     004aee90 f   LIBCMTD:winsig.obj
 0002:000562d0       ___get_sigabrt             004af2d0 f   LIBCMTD:winsig.obj
 0002:000562f0       ___fpecode                 004af2f0 f   LIBCMTD:winsig.obj
 0002:00056300       ___pxcptinfoptrs           004af300 f   LIBCMTD:winsig.obj
 0002:00056310       ___crtMessageBoxW          004af310 f   LIBCMTD:crtmboxw.obj
 0002:00056650       __itow_s                   004af650 f   LIBCMTD:xtows.obj
 0002:00056b10       __ltow_s                   004afb10 f   LIBCMTD:xtows.obj
 0002:00056b60       __ultow_s                  004afb60 f   LIBCMTD:xtows.obj
 0002:00056b90       __i64tow_s                 004afb90 f   LIBCMTD:xtows.obj
 0002:000570a0       __ui64tow_s                004b00a0 f   LIBCMTD:xtows.obj
 0002:000570d0       _wcsncat_s                 004b00d0 f   LIBCMTD:wcsncat_s.obj
 0002:000576b0       _wcsncpy_s                 004b06b0 f   LIBCMTD:wcsncpy_s.obj
 0002:00057bb0       _wcscat_s                  004b0bb0 f   LIBCMTD:wcscat_s.obj
 0002:00058090       _wcscpy_s                  004b1090 f   LIBCMTD:wcscpy_s.obj
 0002:00058430       _fwprintf                  004b1430 f   LIBCMTD:fwprintf.obj
 0002:00058610       __fwprintf_l               004b1610 f   LIBCMTD:fwprintf.obj
 0002:00058640       __fwprintf_s_l             004b1640 f   LIBCMTD:fwprintf.obj
 0002:00058670       _fwprintf_s                004b1670 f   LIBCMTD:fwprintf.obj
 0002:000586a0       __fwprintf_p_l             004b16a0 f   LIBCMTD:fwprintf.obj
 0002:000586d0       __fwprintf_p               004b16d0 f   LIBCMTD:fwprintf.obj
 0002:00058700       _setvbuf                   004b1700 f   LIBCMTD:setvbuf.obj
 0002:00058a90       _abort                     004b1a90 f   LIBCMTD:abort.obj
 0002:00058c10       __set_abort_behavior       004b1c10 f   LIBCMTD:abort.obj
 0002:00058c50       _wcslen                    004b1c50 f   LIBCMTD:wcslen.obj
 0002:00058c90       __set_error_mode           004b1c90 f   LIBCMTD:errmode.obj
 0002:00058d80       ___set_app_type            004b1d80 f   LIBCMTD:errmode.obj
 0002:00058d90       ___get_app_type            004b1d90 f   LIBCMTD:errmode.obj
 0002:00058da0       __assert                   004b1da0 f   LIBCMTD:assert.obj
 0002:00059b30       _strcpy_s                  004b2b30 f   LIBCMTD:strcpy_s.obj
 0002:00059ec0       _strcat_s                  004b2ec0 f   LIBCMTD:strcat_s.obj
 0002:0005a390       __wcstombs_l_helper        004b3390 f   LIBCMTD:wcstombs.obj
 0002:0005aa30       __wcstombs_l               004b3a30 f   LIBCMTD:wcstombs.obj
 0002:0005aa60       _wcstombs                  004b3a60 f   LIBCMTD:wcstombs.obj
 0002:0005aa90       __wcstombs_s_l             004b3a90 f   LIBCMTD:wcstombs.obj
 0002:0005adf0       _wcstombs_s                004b3df0 f   LIBCMTD:wcstombs.obj
 0002:0005ae20       __vswprintf_helper         004b3e20 f   LIBCMTD:vswprnc.obj
 0002:0005b0e0       __vswprintf_c              004b40e0 f   LIBCMTD:vswprnc.obj
 0002:0005b140       __vswprintf_c_l            004b4140 f   LIBCMTD:vswprnc.obj
 0002:0005b1a0       __vswprintf_s_l            004b41a0 f   LIBCMTD:vswprnc.obj
 0002:0005b4a0       _vswprintf_s               004b44a0 f   LIBCMTD:vswprnc.obj
 0002:0005b4d0       __vsnwprintf_s_l           004b44d0 f   LIBCMTD:vswprnc.obj
 0002:0005b970       __vsnwprintf_s             004b4970 f   LIBCMTD:vswprnc.obj
 0002:0005b9a0       __vswprintf_p              004b49a0 f   LIBCMTD:vswprnc.obj
 0002:0005ba00       __vswprintf_p_l            004b4a00 f   LIBCMTD:vswprnc.obj
 0002:0005ba60       __stbuf                    004b4a60 f   LIBCMTD:_sftbuf.obj
 0002:0005bc10       __ftbuf                    004b4c10 f   LIBCMTD:_sftbuf.obj
 0002:0005bcc0       __flsbuf                   004b4cc0 f   LIBCMTD:_flsbuf.obj
 0002:0005c030       _fwrite                    004b5030 f   LIBCMTD:fwrite.obj
 0002:0005c180       __fwrite_nolock            004b5180 f   LIBCMTD:fwrite.obj
 0002:0005c640       _strtol                    004b5640 f   LIBCMTD:strtol.obj
 0002:0005ccb0       __strtol_l                 004b5cb0 f   LIBCMTD:strtol.obj
 0002:0005cce0       _strtoul                   004b5ce0 f   LIBCMTD:strtol.obj
 0002:0005cd40       __strtoul_l                004b5d40 f   LIBCMTD:strtol.obj
 0002:0005cd70       __strtoi64                 004b5d70 f   LIBCMTD:strtoq.obj
 0002:0005d430       __strtoi64_l               004b6430 f   LIBCMTD:strtoq.obj
 0002:0005d460       __strtoui64                004b6460 f   LIBCMTD:strtoq.obj
 0002:0005d4c0       __strtoui64_l              004b64c0 f   LIBCMTD:strtoq.obj
 0002:0005d4f0       ___report_gsfailure        004b64f0 f   LIBCMTD:gs_report.obj
 0002:0005d640       ?__CxxUnhandledExceptionFilter@@YGJPAU_EXCEPTION_POINTERS@@@Z 004b6640 f   LIBCMTD:unhandld.obj
 0002:0005d6c0       ___CxxSetUnhandledExceptionFilter 004b66c0 f   LIBCMTD:unhandld.obj
 0002:0005d6e0       ___security_init_cookie    004b66e0 f   LIBCMTD:gs_support.obj
 0002:0005d7f0       __initp_misc_winxfltr      004b67f0 f   LIBCMTD:winxfltr.obj
 0002:0005d800       ___CppXcptFilter           004b6800 f   LIBCMTD:winxfltr.obj
 0002:0005d830       __XcptFilter               004b6830 f   LIBCMTD:winxfltr.obj
 0002:0005dae0       __setenvp                  004b6ae0 f   LIBCMTD:stdenvp.obj
 0002:0005dce0       __setargv                  004b6ce0 f   LIBCMTD:stdargv.obj
 0002:0005de40       __set_pgmptr               004b6e40 f i LIBCMTD:stdargv.obj
 0002:0005e290       ___crtGetEnvironmentStringsA 004b7290 f   LIBCMTD:a_env.obj
 0002:0005e530       __RTC_Initialize           004b7530 f   LIBCMTD:initsect.obj
 0002:0005e560       __RTC_Terminate            004b7560 f   LIBCMTD:initsect.obj
 0002:0005e590       __encode_pointer           004b7590 f   LIBCMTD:tidtable.obj
 0002:0005e720       __encoded_null             004b7720 f   LIBCMTD:tidtable.obj
 0002:0005e740       __decode_pointer           004b7740 f   LIBCMTD:tidtable.obj
 0002:0005e800       ___crtTlsAlloc@4           004b7800 f   LIBCMTD:tidtable.obj
 0002:0005e810       ___fls_getvalue@4          004b7810 f   LIBCMTD:tidtable.obj
 0002:0005e830       ___get_flsindex            004b7830 f   LIBCMTD:tidtable.obj
 0002:0005e840       ___set_flsgetvalue         004b7840 f   LIBCMTD:tidtable.obj
 0002:0005e8a0       ___fls_setvalue@8          004b78a0 f   LIBCMTD:tidtable.obj
 0002:0005e8d0       __mtinit                   004b78d0 f   LIBCMTD:tidtable.obj
 0002:0005eb60       __mtterm                   004b7b60 f   LIBCMTD:tidtable.obj
 0002:0005ebd0       __initptd                  004b7bd0 f   LIBCMTD:tidtable.obj
 0002:0005ed50       __getptd_noexit            004b7d50 f   LIBCMTD:tidtable.obj
 0002:0005ee30       __getptd                   004b7e30 f   LIBCMTD:tidtable.obj
 0002:0005ee60       __freefls@4                004b7e60 f   LIBCMTD:tidtable.obj
 0002:0005f0c0       __freeptd                  004b80c0 f   LIBCMTD:tidtable.obj
 0002:0005f160       ___threadid                004b8160 f   LIBCMTD:tidtable.obj
 0002:0005f170       ___threadhandle            004b8170 f   LIBCMTD:tidtable.obj
 0002:0005f180       ___heap_select             004b8180 f   LIBCMTD:heapinit.obj
 0002:0005f230       __heap_init                004b8230 f   LIBCMTD:heapinit.obj
 0002:0005f2c0       __heap_term                004b82c0 f   LIBCMTD:heapinit.obj
 0002:0005f380       __get_heap_handle          004b8380 f   LIBCMTD:heapinit.obj
 0002:0005f3d0       __FF_MSGBANNER             004b83d0 f   LIBCMTD:crt0msg.obj
 0002:0005f430       __NMSG_WRITE               004b8430 f   LIBCMTD:crt0msg.obj
 0002:0005f770       __GET_RTERRMSG             004b8770 f   LIBCMTD:crt0msg.obj
 0002:0005f7c0       __output_l                 004b87c0 f   LIBCMTD:output.obj
 0002:00061150       _get_int_arg               004ba150 f i LIBCMTD:output.obj
 0002:00061170       _get_int64_arg             004ba170 f i LIBCMTD:output.obj
 0002:000611a0       _get_short_arg             004ba1a0 f i LIBCMTD:output.obj
 0002:000611d0       __VEC_memzero              004ba1d0 f   LIBCMTD:p4_memset.obj
 0002:00061300       __sse2_mathfcns_init       004ba300 f   LIBCMTD:mathfcns.obj
 0002:00061330       __set_SSE2_enable          004ba330 f   LIBCMTD:mathfcns.obj
 0002:00061360       __vsprintf_l               004ba360 f   LIBCMTD:vsprintf.obj
 0002:00061530       _vsprintf                  004ba530 f   LIBCMTD:vsprintf.obj
 0002:00061560       __vscprintf_helper         004ba560 f   LIBCMTD:vsprintf.obj
 0002:00061650       __vscprintf                004ba650 f   LIBCMTD:vsprintf.obj
 0002:00061680       __vscprintf_l              004ba680 f   LIBCMTD:vsprintf.obj
 0002:000616b0       __vscprintf_p              004ba6b0 f   LIBCMTD:vsprintf.obj
 0002:000616e0       __vscprintf_p_l            004ba6e0 f   LIBCMTD:vsprintf.obj
 0002:00061710       __vsnprintf_helper         004ba710 f   LIBCMTD:vsnprnc.obj
 0002:00061950       __vsnprintf_c              004ba950 f   LIBCMTD:vsnprnc.obj
 0002:000619b0       __vsnprintf_c_l            004ba9b0 f   LIBCMTD:vsnprnc.obj
 0002:00061a10       __vsprintf_s_l             004baa10 f   LIBCMTD:vsnprnc.obj
 0002:00061d10       _vsprintf_s                004bad10 f   LIBCMTD:vsnprnc.obj
 0002:00061d40       __vsnprintf_s_l            004bad40 f   LIBCMTD:vsnprnc.obj
 0002:000621c0       __vsnprintf_s              004bb1c0 f   LIBCMTD:vsnprnc.obj
 0002:000621f0       __vsprintf_p               004bb1f0 f   LIBCMTD:vsnprnc.obj
 0002:00062250       __vsprintf_p_l             004bb250 f   LIBCMTD:vsnprnc.obj
 0002:000622b0       __VEC_memcpy               004bb2b0 f   LIBCMTD:p4_memcpy.obj
 0002:00062480       __tolower                  004bb480 f   LIBCMTD:tolower.obj
 0002:00062490       __tolower_l                004bb490 f   LIBCMTD:tolower.obj
 0002:000626e0       _tolower                   004bb6e0 f   LIBCMTD:tolower.obj
 0002:00062740       ___updatetmbcinfo          004bb740 f   LIBCMTD:mbctype.obj
 0002:00062890       __setmbcp                  004bb890 f   LIBCMTD:mbctype.obj
 0002:00062d20       __setmbcp_nolock           004bbd20 f   LIBCMTD:mbctype.obj
 0002:00063700       __getmbcp                  004bc700 f   LIBCMTD:mbctype.obj
 0002:00063790       ___initmbctable            004bc790 f   LIBCMTD:mbctype.obj
 0002:000637c0       ____setlc_active_func      004bc7c0 f   LIBCMTD:setlocal.obj
 0002:000637d0       ____unguarded_readlc_active_add_func 004bc7d0 f   LIBCMTD:setlocal.obj
 0002:000637e0       ___freetlocinfo            004bc7e0 f   LIBCMTD:setlocal.obj
 0002:00063b80       ___addlocaleref            004bcb80 f   LIBCMTD:setlocal.obj
 0002:00063cf0       ___removelocaleref         004bccf0 f   LIBCMTD:setlocal.obj
 0002:00063e70       ___updatetlocinfo          004bce70 f   LIBCMTD:setlocal.obj
 0002:00064010       __configthreadlocale       004bd010 f   LIBCMTD:setlocal.obj
 0002:00064160       __locterm                  004bd160 f   LIBCMTD:setlocal.obj
 0002:00064220       __free_locale              004bd220 f   LIBCMTD:setlocal.obj
 0002:00064380       ___free_locale             004bd380 f   LIBCMTD:setlocal.obj
 0002:000643a0       __create_locale            004bd3a0 f   LIBCMTD:setlocal.obj
 0002:00064640       ___create_locale           004bd640 f   LIBCMTD:setlocal.obj
 0002:00064660       __get_current_locale       004bd660 f   LIBCMTD:setlocal.obj
 0002:00064790       ___get_current_locale      004bd790 f   LIBCMTD:setlocal.obj
 0002:000647a0       _setlocale                 004bd7a0 f   LIBCMTD:setlocal.obj
 0002:00065a50       __expandlocale             004bea50 f   LIBCMTD:setlocal.obj
 0002:00065da0       ___init_dummy              004beda0 f   LIBCMTD:setlocal.obj
 0002:00065db0       __strcats                  004bedb0 f   LIBCMTD:setlocal.obj
 0002:00065e40       ___lc_strtolc              004bee40 f   LIBCMTD:setlocal.obj
 0002:000660c0       ___lc_lctostr              004bf0c0 f   LIBCMTD:setlocal.obj
 0002:00066174       __global_unwind2           004bf174 f   LIBCMTD:exsup.obj
 0002:000661d9       __local_unwind2            004bf1d9 f   LIBCMTD:exsup.obj
 0002:0006625d       __abnormal_termination     004bf25d f   LIBCMTD:exsup.obj
 0002:00066280       __NLG_Notify1              004bf280 f   LIBCMTD:exsup.obj
 0002:00066289       __NLG_Notify               004bf289 f   LIBCMTD:exsup.obj
 0002:000662a0       __NLG_Dispatch2            004bf2a0     LIBCMTD:exsup.obj
 0002:000662a0       __NLG_Dispatch             004bf2a0     LIBCMTD:exsup.obj
 0002:000662a8       __NLG_Call                 004bf2a8 f   LIBCMTD:exsup.obj
 0002:000662aa       __NLG_Return2              004bf2aa     LIBCMTD:exsup.obj
 0002:00066300       __chvalidator              004bf300 f   LIBCMTD:isctype.obj
 0002:00066360       __chvalidator_l            004bf360 f   LIBCMTD:isctype.obj
 0002:00066440       __isctype_l                004bf440 f   LIBCMTD:isctype.obj
 0002:000665a0       __isctype                  004bf5a0 f   LIBCMTD:isctype.obj
 0002:000665f0       __setdefaultprecision      004bf5f0 f   LIBCMTD:fp8.obj
 0002:00066640       __ms_p5_test_fdiv          004bf640 f   LIBCMTD:testfdiv.obj
 0002:000666a0       __ms_p5_mp_test_fdiv       004bf6a0 f   LIBCMTD:testfdiv.obj
 0002:00066700       __forcdecpt                004bf700 f   LIBCMTD:cvt.obj
 0002:00066720       __forcdecpt_l              004bf720 f   LIBCMTD:cvt.obj
 0002:00066810       __cropzeros                004bf810 f   LIBCMTD:cvt.obj
 0002:00066830       __cropzeros_l              004bf830 f   LIBCMTD:cvt.obj
 0002:00066980       __positive                 004bf980 f   LIBCMTD:cvt.obj
 0002:000669c0       __fassign_l                004bf9c0 f   LIBCMTD:cvt.obj
 0002:00066a30       __fassign                  004bfa30 f   LIBCMTD:cvt.obj
 0002:00066a60       __cftoe_l                  004bfa60 f   LIBCMTD:cvt.obj
 0002:00067100       __cftoe                    004c0100 f   LIBCMTD:cvt.obj
 0002:00067130       __cftoa_l                  004c0130 f   LIBCMTD:cvt.obj
 0002:00067af0       ?strrchr@@YAPADPADH@Z      004c0af0 f i LIBCMTD:cvt.obj
 0002:00067b10       __cftoa                    004c0b10 f   LIBCMTD:cvt.obj
 0002:00067b40       __cftof_l                  004c0b40 f   LIBCMTD:cvt.obj
 0002:00068040       __cftof                    004c1040 f   LIBCMTD:cvt.obj
 0002:00068070       __cftog_l                  004c1070 f   LIBCMTD:cvt.obj
 0002:00068320       __cftog                    004c1320 f   LIBCMTD:cvt.obj
 0002:00068350       __cfltcvt_l                004c1350 f   LIBCMTD:cvt.obj
 0002:00068440       __cfltcvt                  004c1440 f   LIBCMTD:cvt.obj
 0002:000684b0       __initp_misc_cfltcvt_tab   004c14b0 f   LIBCMTD:cmiscdat.obj
 0002:00068500       __CIcos_pentium4           004c1500 f   LIBCMTD:cos_pentium4.obj
 0002:00068518       __cos_pentium4             004c1518     LIBCMTD:cos_pentium4.obj
 0002:00068720       __trandisp1                004c1720 f   LIBCMTD:87disp.obj
 0002:00068787       __trandisp2                004c1787 f   LIBCMTD:87disp.obj
 0002:00068813       __rttospopde               004c1813     LIBCMTD:87disp.obj
 0002:00068818       __rttospop                 004c1818     LIBCMTD:87disp.obj
 0002:0006881a       __rtnospop                 004c181a     LIBCMTD:87disp.obj
 0002:0006881c       __rttosnpop                004c181c     LIBCMTD:87disp.obj
 0002:0006881d       __rtnospopde               004c181d     LIBCMTD:87disp.obj
 0002:00068824       __rtzeropop                004c1824     LIBCMTD:87disp.obj
 0002:00068826       __rtzeronpop               004c1826     LIBCMTD:87disp.obj
 0002:0006882b       __rtonepop                 004c182b     LIBCMTD:87disp.obj
 0002:0006882d       __rtonenpop                004c182d     LIBCMTD:87disp.obj
 0002:00068832       __tosnan1                  004c1832     LIBCMTD:87disp.obj
 0002:0006885d       __nosnan2                  004c185d     LIBCMTD:87disp.obj
 0002:0006885f       __tosnan2                  004c185f     LIBCMTD:87disp.obj
 0002:00068887       __nan2                     004c1887     LIBCMTD:87disp.obj
 0002:000688c6       __rtindfpop                004c18c6     LIBCMTD:87disp.obj
 0002:000688c8       __rtindfnpop               004c18c8     LIBCMTD:87disp.obj
 0002:000688d9       __rttosnpopde              004c18d9     LIBCMTD:87disp.obj
 0002:000688e3       __rtchsifneg               004c18e3     LIBCMTD:87disp.obj
 0002:00068960       __twoToTOS                 004c1960 f   LIBCMTD:common.obj
 0002:00068975       __load_CW                  004c1975 f   LIBCMTD:common.obj
 0002:0006898c       __convertTOStoQNaN         004c198c f   LIBCMTD:common.obj
 0002:000689a5       __fload_withFB             004c19a5 f   LIBCMTD:common.obj
 0002:000689e8       __checkTOS_withFB          004c19e8 f   LIBCMTD:common.obj
 0002:000689fe       __fast_exit                004c19fe f   LIBCMTD:common.obj
 0002:00068a0b       __math_exit                004c1a0b f   LIBCMTD:common.obj
 0002:00068a35       __check_overflow_exit      004c1a35 f   LIBCMTD:common.obj
 0002:00068a49       __check_range_exit         004c1a49 f   LIBCMTD:common.obj
 0002:00068b50       __startTwoArgErrorHandling 004c1b50 f   LIBCMTD:genexcep.obj
 0002:00068b67       __startOneArgErrorHandling 004c1b67 f   LIBCMTD:genexcep.obj
 0002:00068bc0       ___ascii_strnicmp          004c1bc0 f   LIBCMTD:_strnicm.obj
 0002:00068c40       __cintrindisp2             004c1c40 f   LIBCMTD:87cdisp.obj
 0002:00068c7e       __cintrindisp1             004c1c7e f   LIBCMTD:87cdisp.obj
 0002:00068cbb       __ctrandisp2               004c1cbb f   LIBCMTD:87cdisp.obj
 0002:00068e51       __ctrandisp1               004c1e51 f   LIBCMTD:87cdisp.obj
 0002:00068e84       __fload                    004c1e84 f   LIBCMTD:87cdisp.obj
 0002:00068f60       _fdiv_main_routine         004c1f60 f   LIBCMTD:adj_fdiv.obj
 0002:00069077       __adj_fdiv_r               004c2077 f   LIBCMTD:adj_fdiv.obj
 0002:00069516       __fdivp_sti_st             004c2516 f   LIBCMTD:adj_fdiv.obj
 0002:00069529       __fdivrp_sti_st            004c2529 f   LIBCMTD:adj_fdiv.obj
 0002:0006953c       __adj_fdiv_m32             004c253c f   LIBCMTD:adj_fdiv.obj
 0002:00069588       __adj_fdiv_m64             004c2588 f   LIBCMTD:adj_fdiv.obj
 0002:000695d4       __adj_fdiv_m16i            004c25d4 f   LIBCMTD:adj_fdiv.obj
 0002:00069608       __adj_fdiv_m32i            004c2608 f   LIBCMTD:adj_fdiv.obj
 0002:0006963c       __adj_fdivr_m32            004c263c f   LIBCMTD:adj_fdiv.obj
 0002:00069688       __adj_fdivr_m64            004c2688 f   LIBCMTD:adj_fdiv.obj
 0002:000696d4       __adj_fdivr_m16i           004c26d4 f   LIBCMTD:adj_fdiv.obj
 0002:00069708       __adj_fdivr_m32i           004c2708 f   LIBCMTD:adj_fdiv.obj
 0002:0006973c       __safe_fdiv                004c273c f   LIBCMTD:adj_fdiv.obj
 0002:00069751       __safe_fdivr               004c2751 f   LIBCMTD:adj_fdiv.obj
 0002:00069766       __fprem_common             004c2766 f   LIBCMTD:adj_fdiv.obj
 0002:0006996c       __adj_fprem                004c296c f   LIBCMTD:adj_fdiv.obj
 0002:00069a1e       __fprem1_common            004c2a1e f   LIBCMTD:adj_fdiv.obj
 0002:00069c24       __adj_fprem1               004c2c24 f   LIBCMTD:adj_fdiv.obj
 0002:00069cd9       __safe_fprem               004c2cd9 f   LIBCMTD:adj_fdiv.obj
 0002:00069cdf       __safe_fprem1              004c2cdf f   LIBCMTD:adj_fdiv.obj
 0002:00069ce5       __adj_fpatan               004c2ce5 f   LIBCMTD:adj_fdiv.obj
 0002:00069ce8       __adj_fptan                004c2ce8 f   LIBCMTD:adj_fdiv.obj
 0002:0006a050       __initp_heap_handler       004c3050 f   LIBCMTD:handler.obj
 0002:0006a060       ?_set_new_handler@@YAP6AHI@ZP6AHI@Z@Z 004c3060 f   LIBCMTD:handler.obj
 0002:0006a0c0       ?_set_new_handler@@YAP6AHI@ZH@Z 004c30c0 f   LIBCMTD:handler.obj
 0002:0006a100       ?_query_new_handler@@YAP6AHI@ZXZ 004c3100 f   LIBCMTD:handler.obj
 0002:0006a120       __callnewh                 004c3120 f   LIBCMTD:handler.obj
 0002:0006a170       _V6_HeapAlloc              004c3170 f   LIBCMTD:malloc.obj
 0002:0006a230       __malloc_base              004c3230 f   LIBCMTD:malloc.obj
 0002:0006a2e0       __heap_alloc_base          004c32e0 f i LIBCMTD:malloc.obj
 0002:0006a3c0       __CrtSetReportHook2        004c33c0 f   LIBCMTD:dbgrpt.obj
 0002:0006a7b0       __CrtDbgReport             004c37b0 f   LIBCMTD:dbgrpt.obj
 0002:0006a800       __CrtDbgReportV            004c3800 f i LIBCMTD:dbgrpt.obj
 0002:0006a830       ___crtMessageWindowA       004c3830 f   LIBCMTD:dbgrpt.obj
 0002:0006ad30       __CrtDefaultAllocHook      004c3d30 f   LIBCMTD:dbghook.obj
 0002:0006ad40       __crt_debugger_hook        004c3d40 f   LIBCMTD:dbghook.obj
 0002:0006ad60       __expand_base              004c3d60 f   LIBCMTD:expand.obj
 0002:0006afa0       __realloc_base             004c3fa0 f   LIBCMTD:realloc.obj
 0002:0006b420       __recalloc_base            004c4420 f   LIBCMTD:realloc.obj
 0002:0006b550       __free_base                004c4550 f   LIBCMTD:free.obj
 0002:0006b6c0       __heapchk                  004c46c0 f   LIBCMTD:heapchk.obj
 0002:0006b7c0       __heapset                  004c47c0 f   LIBCMTD:heapchk.obj
 0002:0006b7d0       __get_sbh_threshold        004c47d0 f   LIBCMTD:sbheap.obj
 0002:0006b830       __set_sbh_threshold        004c4830 f   LIBCMTD:sbheap.obj
 0002:0006ba20       __set_amblksiz             004c4a20 f   LIBCMTD:sbheap.obj
 0002:0006bb60       __get_amblksiz             004c4b60 f   LIBCMTD:sbheap.obj
 0002:0006bc90       ___sbh_heap_init           004c4c90 f   LIBCMTD:sbheap.obj
 0002:0006bd10       ___sbh_find_block          004c4d10 f   LIBCMTD:sbheap.obj
 0002:0006bd80       ___sbh_verify_block        004c4d80 f   LIBCMTD:sbheap.obj
 0002:0006bdf0       ___sbh_free_block          004c4df0 f   LIBCMTD:sbheap.obj
 0002:0006c520       ___sbh_alloc_block         004c5520 f   LIBCMTD:sbheap.obj
 0002:0006cb80       ___sbh_alloc_new_region    004c5b80 f   LIBCMTD:sbheap.obj
 0002:0006ccd0       ___sbh_alloc_new_group     004c5cd0 f   LIBCMTD:sbheap.obj
 0002:0006cf40       ___sbh_resize_block        004c5f40 f   LIBCMTD:sbheap.obj
 0002:0006d680       ___sbh_heapmin             004c6680 f   LIBCMTD:sbheap.obj
 0002:0006d800       ___sbh_heap_check          004c6800 f   LIBCMTD:sbheap.obj
 0002:0006de20       __rt_probe_read4@4         004c6e20 f   LIBCMTD:sehsupp.obj
 0002:0006dee0       _vprintf_helper            004c6ee0 f   LIBCMTD:vprintf.obj
 0002:0006e040       __vprintf_l                004c7040 f   LIBCMTD:vprintf.obj
 0002:0006e070       __vprintf_s_l              004c7070 f   LIBCMTD:vprintf.obj
 0002:0006e0a0       __vprintf_p_l              004c70a0 f   LIBCMTD:vprintf.obj
 0002:0006e0d0       _vprintf                   004c70d0 f   LIBCMTD:vprintf.obj
 0002:0006e100       _vprintf_s                 004c7100 f   LIBCMTD:vprintf.obj
 0002:0006e130       __vprintf_p                004c7130 f   LIBCMTD:vprintf.obj
 0002:0006e160       __CIexp_pentium4           004c7160 f   LIBCMTD:exp_pentium4.obj
 0002:0006e178       __exp_pentium4             004c7178     LIBCMTD:exp_pentium4.obj
 0002:0006e4e1       __fFEXP                    004c74e1     LIBCMTD:87tran.obj
 0002:0006e548       __rtinfpopse               004c7548     LIBCMTD:87tran.obj
 0002:0006e54a       __rtinfnpopse              004c754a     LIBCMTD:87tran.obj
 0002:0006e55a       __fFLN                     004c755a     LIBCMTD:87tran.obj
 0002:0006e60f       __rtinfpop                 004c760f     LIBCMTD:87tran.obj
 0002:0006e611       __rtinfnpop                004c7611     LIBCMTD:87tran.obj
 0002:0006e62e       __ffexpm1                  004c762e     LIBCMTD:87tran.obj
 0002:0006e760       __handle_qnan1             004c7760 f   LIBCMTD:fpexcept.obj
 0002:0006e7e0       __handle_qnan2             004c77e0 f   LIBCMTD:fpexcept.obj
 0002:0006e870       __except1                  004c7870 f   LIBCMTD:fpexcept.obj
 0002:0006e9b0       __except2                  004c79b0 f   LIBCMTD:fpexcept.obj
 0002:0006eb00       __raise_exc_ex             004c7b00 f   LIBCMTD:fpexcept.obj
 0002:0006f180       __raise_exc                004c8180 f   LIBCMTD:fpexcept.obj
 0002:0006f1b0       __raise_excf               004c81b0 f   LIBCMTD:fpexcept.obj
 0002:0006f1e0       __handle_exc               004c81e0 f   LIBCMTD:fpexcept.obj
 0002:0006f5a0       __umatherr                 004c85a0 f   LIBCMTD:fpexcept.obj
 0002:0006f670       __set_errno_from_matherr   004c8670 f   LIBCMTD:fpexcept.obj
 0002:0006f710       __errcode                  004c8710 f   LIBCMTD:fpexcept.obj
 0002:0006f790       __set_exp                  004c8790 f   LIBCMTD:util.obj
 0002:0006f7e0       __get_exp                  004c87e0 f   LIBCMTD:util.obj
 0002:0006f820       __add_exp                  004c8820 f   LIBCMTD:util.obj
 0002:0006f860       __set_bexp                 004c8860 f   LIBCMTD:util.obj
 0002:0006f8a0       __sptype                   004c88a0 f   LIBCMTD:util.obj
 0002:0006f930       __decomp                   004c8930 f   LIBCMTD:util.obj
 0002:0006faa0       __statfp                   004c8aa0 f   LIBCMTD:fpctrl.obj
 0002:0006fac0       __clrfp                    004c8ac0 f   LIBCMTD:fpctrl.obj
 0002:0006fae0       __ctrlfp                   004c8ae0 f   LIBCMTD:fpctrl.obj
 0002:0006fb20       __set_statfp               004c8b20 f   LIBCMTD:fpctrl.obj
 0002:0006fba0       ___get_fpsr_sse2           004c8ba0 f   LIBCMTD:fpctrl.obj
 0002:0006fbd0       ___set_fpsr_sse2           004c8bd0 f   LIBCMTD:fpctrl.obj
 0002:0006fce0       ___fclrf_sse2              004c8ce0 f   LIBCMTD:fpctrl.obj
 0002:0006fd10       ___statfp_sse2             004c8d10 f   LIBCMTD:fpctrl.obj
 0002:0006fd50       ___clrfp_sse2              004c8d50 f   LIBCMTD:fpctrl.obj
 0002:0006fd90       ___ctrlfp_sse2             004c8d90 f   LIBCMTD:fpctrl.obj
 0002:0006fe00       ___set_statfp_sse2         004c8e00 f   LIBCMTD:fpctrl.obj
 0002:0006fe40       ___libm_setusermatherr     004c8e40 f   LIBCMTD:libm_error.obj
 0002:0006fe80       ___libm_error_support      004c8e80 f   LIBCMTD:libm_error.obj
 0002:00070c80       __floor_default            004c9c80 f   LIBCMTD:floor.obj
 0002:00070e10       __CIpow_pentium4           004c9e10 f   LIBCMTD:pow_pentium4.obj
 0002:00070e29       __pow_pentium4             004c9e29     LIBCMTD:pow_pentium4.obj
 0002:00071c50       __powhlp                   004cac50 f   LIBCMTD:powhlp.obj
 0002:00071e60       __d_inttype                004cae60 f   LIBCMTD:powhlp.obj
 0002:00071f10       __CIlog_pentium4           004caf10 f   LIBCMTD:log_pentium4.obj
 0002:00071f28       __log_pentium4             004caf28     LIBCMTD:log_pentium4.obj
 0002:00072220       __CIatan_pentium4          004cb220 f   LIBCMTD:atan_pentium4.obj
 0002:00072238       __atan_pentium4            004cb238     LIBCMTD:atan_pentium4.obj
 0002:000725d0       __CIsin_pentium4           004cb5d0 f   LIBCMTD:sin_pentium4.obj
 0002:000725e8       __sin_pentium4             004cb5e8     LIBCMTD:sin_pentium4.obj
 0002:00072810       __onexit                   004cb810 f   LIBCMTD:onexit.obj
 0002:00072a50       _atexit                    004cba50 f   LIBCMTD:onexit.obj
 0002:00072a70       ___onexitinit              004cba70 f   LIBCMTD:onexit.obj
 0002:00072ae0       __ValidateImageBase        004cbae0 f   LIBCMTD:pesect.obj
 0002:00072b60       __FindPESection            004cbb60 f   LIBCMTD:pesect.obj
 0002:00072bf0       __IsNonwritableInCurrentImage 004cbbf0 f   LIBCMTD:pesect.obj
 0002:00072d50       __initp_eh_hooks           004cbd50 f   LIBCMTD:hooks.obj
 0002:00072d70       ?terminate@@YAXXZ          004cbd70 f   LIBCMTD:hooks.obj
 0002:00072e10       ?unexpected@@YAXXZ         004cbe10 f   LIBCMTD:hooks.obj
 0002:00072e40       ?_inconsistency@@YAXXZ     004cbe40 f   LIBCMTD:hooks.obj
 0002:00072ef0       __initp_misc_rand_s        004cbef0 f   LIBCMTD:rand_s.obj
 0002:00072f00       _rand_s                    004cbf00 f   LIBCMTD:rand_s.obj
 0002:000731a0       ___getlocaleinfo           004cc1a0 f   LIBCMTD:inithelp.obj
 0002:000734f0       __initp_misc_purevirt      004cc4f0 f   LIBCMTD:inithelp.obj
 0002:00073500       __initp_misc_initcrit      004cc500 f   LIBCMTD:initcrit.obj
 0002:00073510       ___crtInitCritSecAndSpinCount 004cc510 f   LIBCMTD:initcrit.obj
 0002:000736d0       __read                     004cc6d0 f   LIBCMTD:read.obj
 0002:00073a10       __read_nolock              004cca10 f   LIBCMTD:read.obj
 0002:00074d20       __getbuf                   004cdd20 f   LIBCMTD:_getbuf.obj
 0002:00074e10       __CrtDbgBreak              004cde10 f   LIBCMTD:dbgrptt.obj
 0002:00074e20       __CrtSetReportMode         004cde20 f   LIBCMTD:dbgrptt.obj
 0002:00074fb0       __CrtSetReportFile         004cdfb0 f   LIBCMTD:dbgrptt.obj
 0002:000750e0       __CrtSetReportHook         004ce0e0 f   LIBCMTD:dbgrptt.obj
 0002:00075110       __CrtGetReportHook         004ce110 f   LIBCMTD:dbgrptt.obj
 0002:00075120       __VCrtDbgReportA           004ce120 f   LIBCMTD:dbgrptt.obj
 0002:00075b50       __VCrtDbgReportW           004ceb50 f   LIBCMTD:dbgrptt.obj
 0002:000766d0       __swprintf                 004cf6d0 f   LIBCMTD:swprintf.obj
 0002:00076920       ___swprintf_l              004cf920 f   LIBCMTD:swprintf.obj
 0002:00076950       _swprintf_s                004cf950 f   LIBCMTD:swprintf.obj
 0002:00076990       __snwprintf_s              004cf990 f   LIBCMTD:swprintf.obj
 0002:000769d0       __swprintf_p               004cf9d0 f   LIBCMTD:swprintf.obj
 0002:00076a10       __swprintf_s_l             004cfa10 f   LIBCMTD:swprintf.obj
 0002:00076a50       __snwprintf_s_l            004cfa50 f   LIBCMTD:swprintf.obj
 0002:00076a90       __swprintf_p_l             004cfa90 f   LIBCMTD:swprintf.obj
 0002:00076ad0       __scwprintf                004cfad0 f   LIBCMTD:swprintf.obj
 0002:00076b00       __scwprintf_p              004cfb00 f   LIBCMTD:swprintf.obj
 0002:00076b30       __scwprintf_l              004cfb30 f   LIBCMTD:swprintf.obj
 0002:00076b60       __scwprintf_p_l            004cfb60 f   LIBCMTD:swprintf.obj
 0002:00076b8c       __local_unwind4            004cfb8c f   LIBCMTD:exsup4.obj
 0002:00076c62       __seh_longjmp_unwind4@4    004cfc62 f   LIBCMTD:exsup4.obj
 0002:00076c7e       @_EH4_CallFilterFunc@8     004cfc7e f   LIBCMTD:exsup4.obj
 0002:00076c95       @_EH4_TransferToHandler@8  004cfc95 f   LIBCMTD:exsup4.obj
 0002:00076cae       @_EH4_GlobalUnwind@4       004cfcae f   LIBCMTD:exsup4.obj
 0002:00076cc8       @_EH4_LocalUnwind@16       004cfcc8 f   LIBCMTD:exsup4.obj
 0002:00076d40       _fclose                    004cfd40 f   LIBCMTD:fclose.obj
 0002:00076e90       __fclose_nolock            004cfe90 f   LIBCMTD:fclose.obj
 0002:00076fd0       __commit                   004cffd0 f   LIBCMTD:commit.obj
 0002:00077270       __write                    004d0270 f   LIBCMTD:write.obj
 0002:00077520       __write_nolock             004d0520 f   LIBCMTD:write.obj
 0002:000781c0       __woutput_l                004d11c0 f   LIBCMTD:woutput.obj
 0002:00079800       _vfwprintf_helper          004d2800 f   LIBCMTD:vfwprint.obj
 0002:000799e0       __vfwprintf_l              004d29e0 f   LIBCMTD:vfwprint.obj
 0002:00079a10       __vfwprintf_s_l            004d2a10 f   LIBCMTD:vfwprint.obj
 0002:00079a40       __vfwprintf_p_l            004d2a40 f   LIBCMTD:vfwprint.obj
 0002:00079a70       _vfwprintf                 004d2a70 f   LIBCMTD:vfwprint.obj
 0002:00079aa0       _vfwprintf_s               004d2aa0 f   LIBCMTD:vfwprint.obj
 0002:00079ad0       __vfwprintf_p              004d2ad0 f   LIBCMTD:vfwprint.obj
 0002:00079b00       __freebuf                  004d2b00 f   LIBCMTD:_freebuf.obj
 0002:00079bb0       ___crtMessageBoxA          004d2bb0 f   LIBCMTD:crtmbox.obj
 0002:00079ef0       __itoa_s                   004d2ef0 f   LIBCMTD:xtoas.obj
 0002:0007a3a0       __ltoa_s                   004d33a0 f   LIBCMTD:xtoas.obj
 0002:0007a3f0       __ultoa_s                  004d33f0 f   LIBCMTD:xtoas.obj
 0002:0007a420       __i64toa_s                 004d3420 f   LIBCMTD:xtoas.obj
 0002:0007a920       __ui64toa_s                004d3920 f   LIBCMTD:xtoas.obj
 0002:0007a950       __mbsnbcat_s               004d3950 f   LIBCMTD:mbsnbcat_s.obj
 0002:0007a980       __mbsnbcpy_s               004d3980 f   LIBCMTD:mbsnbcpy_s.obj
 0002:0007a9b0       _fprintf                   004d39b0 f   LIBCMTD:fprintf.obj
 0002:0007ad50       __fprintf_l                004d3d50 f   LIBCMTD:fprintf.obj
 0002:0007ad80       __fprintf_s_l              004d3d80 f   LIBCMTD:fprintf.obj
 0002:0007adb0       _fprintf_s                 004d3db0 f   LIBCMTD:fprintf.obj
 0002:0007ade0       __fprintf_p_l              004d3de0 f   LIBCMTD:fprintf.obj
 0002:0007ae10       __fprintf_p                004d3e10 f   LIBCMTD:fprintf.obj
 0002:0007ae40       __woutput_s_l              004d3e40 f   LIBCMTD:woutputs.obj
 0002:0007c630       __validate_param_reuseW    004d5630 f   LIBCMTD:woutputp.obj
 0002:0007c930       __woutput_p_l              004d5930 f   LIBCMTD:woutputp.obj
 0002:00080e60       __isatty                   004d9e60 f   LIBCMTD:isatty.obj
 0002:00080f80       __lseeki64                 004d9f80 f   LIBCMTD:lseeki64.obj
 0002:00081260       __lseeki64_nolock          004da260 f   LIBCMTD:lseeki64.obj
 0002:00081380       ?_JumpToContinuation@@YGXPAXPAUEHRegistrationNode@@@Z 004da380 f   LIBCMTD:trnsctrl.obj
 0002:000813c0       ?_CallMemberFunction0@@YGXPAX0@Z 004da3c0 f   LIBCMTD:trnsctrl.obj
 0002:000813d0       ?_CallMemberFunction1@@YGXPAX00@Z 004da3d0 f   LIBCMTD:trnsctrl.obj
 0002:000813e0       ?_CallMemberFunction2@@YGXPAX00H@Z 004da3e0 f   LIBCMTD:trnsctrl.obj
 0002:000813f0       ?_UnwindNestedFrames@@YGXPAUEHRegistrationNode@@PAUEHExceptionRecord@@@Z 004da3f0 f   LIBCMTD:trnsctrl.obj
 0002:00081460       ___CxxFrameHandler         004da460 f   LIBCMTD:trnsctrl.obj
 0002:000814b0       ___CxxFrameHandler3        004da4b0 f   LIBCMTD:trnsctrl.obj
 0002:00081500       ___CxxFrameHandler2        004da500 f   LIBCMTD:trnsctrl.obj
 0002:00081550       ___CxxLongjmpUnwind@4      004da550 f   LIBCMTD:trnsctrl.obj
 0002:00081580       ?_CallCatchBlock2@@YAPAXPAUEHRegistrationNode@@PBU_s_FuncInfo@@PAXHK@Z 004da580 f   LIBCMTD:trnsctrl.obj
 0002:00081670       ?_CallSETranslator@@YAHPAUEHExceptionRecord@@PAUEHRegistrationNode@@PAX2PBU_s_FuncInfo@@H1@Z 004da670 f   LIBCMTD:trnsctrl.obj
 0002:00081880       ?_GetRangeOfTrysToCheck@@YAPBU_s_TryBlockMapEntry@@PBU_s_FuncInfo@@HHPAI1@Z 004da880 f   LIBCMTD:trnsctrl.obj
 0002:00081930       __CreateFrameInfo          004da930 f   LIBCMTD:trnsctrl.obj
 0002:00081970       __IsExceptionObjectToBeDestroyed 004da970 f   LIBCMTD:trnsctrl.obj
 0002:000819b0       __FindAndUnlinkFrame       004da9b0 f   LIBCMTD:trnsctrl.obj
 0002:00081a20       __ismbbkalnum_l            004daa20 f   LIBCMTD:ismbbyte.obj
 0002:00081a40       __ismbbkalnum              004daa40 f   LIBCMTD:ismbbyte.obj
 0002:00081a60       __ismbbkprint_l            004daa60 f   LIBCMTD:ismbbyte.obj
 0002:00081a80       __ismbbkprint              004daa80 f   LIBCMTD:ismbbyte.obj
 0002:00081aa0       __ismbbkpunct_l            004daaa0 f   LIBCMTD:ismbbyte.obj
 0002:00081ac0       __ismbbkpunct              004daac0 f   LIBCMTD:ismbbyte.obj
 0002:00081ae0       __ismbbalnum_l             004daae0 f   LIBCMTD:ismbbyte.obj
 0002:00081b10       __ismbbalnum               004dab10 f   LIBCMTD:ismbbyte.obj
 0002:00081b30       __ismbbalpha_l             004dab30 f   LIBCMTD:ismbbyte.obj
 0002:00081b60       __ismbbalpha               004dab60 f   LIBCMTD:ismbbyte.obj
 0002:00081b80       __ismbbgraph_l             004dab80 f   LIBCMTD:ismbbyte.obj
 0002:00081bb0       __ismbbgraph               004dabb0 f   LIBCMTD:ismbbyte.obj
 0002:00081bd0       __ismbbprint_l             004dabd0 f   LIBCMTD:ismbbyte.obj
 0002:00081c00       __ismbbprint               004dac00 f   LIBCMTD:ismbbyte.obj
 0002:00081c20       __ismbbpunct_l             004dac20 f   LIBCMTD:ismbbyte.obj
 0002:00081c40       __ismbbpunct               004dac40 f   LIBCMTD:ismbbyte.obj
 0002:00081c60       __ismbblead_l              004dac60 f   LIBCMTD:ismbbyte.obj
 0002:00081c80       __ismbblead                004dac80 f   LIBCMTD:ismbbyte.obj
 0002:00081ca0       __ismbbtrail_l             004daca0 f   LIBCMTD:ismbbyte.obj
 0002:00081cc0       __ismbbtrail               004dacc0 f   LIBCMTD:ismbbyte.obj
 0002:00081ce0       __ismbbkana_l              004dace0 f   LIBCMTD:ismbbyte.obj
 0002:00081d70       __ismbbkana                004dad70 f   LIBCMTD:ismbbyte.obj
 0002:00081e80       _strncpy_s                 004dae80 f   LIBCMTD:strncpy_s.obj
 0002:00082370       __wctomb_s_l               004db370 f   LIBCMTD:wctomb.obj
 0002:00082730       _wctomb_s                  004db730 f   LIBCMTD:wctomb.obj
 0002:00082760       __wctomb_l                 004db760 f   LIBCMTD:wctomb.obj
 0002:00082800       _wctomb                    004db800 f   LIBCMTD:wctomb.obj
 0002:00082860       __isleadbyte_l             004db860 f i LIBCMTD:_wctype.obj
 0002:000828c0       _isleadbyte                004db8c0 f i LIBCMTD:_wctype.obj
 0002:000828e0       __iswalpha_l               004db8e0 f i LIBCMTD:_wctype.obj
 0002:00082910       _iswalpha                  004db910 f i LIBCMTD:_wctype.obj
 0002:00082930       __iswupper_l               004db930 f i LIBCMTD:_wctype.obj
 0002:00082950       _iswupper                  004db950 f i LIBCMTD:_wctype.obj
 0002:00082970       __iswlower_l               004db970 f i LIBCMTD:_wctype.obj
 0002:00082990       _iswlower                  004db990 f i LIBCMTD:_wctype.obj
 0002:000829b0       __iswdigit_l               004db9b0 f i LIBCMTD:_wctype.obj
 0002:000829d0       _iswdigit                  004db9d0 f i LIBCMTD:_wctype.obj
 0002:000829f0       __iswxdigit_l              004db9f0 f i LIBCMTD:_wctype.obj
 0002:00082a20       _iswxdigit                 004dba20 f i LIBCMTD:_wctype.obj
 0002:00082a40       __iswspace_l               004dba40 f i LIBCMTD:_wctype.obj
 0002:00082a60       _iswspace                  004dba60 f i LIBCMTD:_wctype.obj
 0002:00082a80       __iswpunct_l               004dba80 f i LIBCMTD:_wctype.obj
 0002:00082aa0       _iswpunct                  004dbaa0 f i LIBCMTD:_wctype.obj
 0002:00082ac0       __iswalnum_l               004dbac0 f i LIBCMTD:_wctype.obj
 0002:00082af0       _iswalnum                  004dbaf0 f i LIBCMTD:_wctype.obj
 0002:00082b10       __iswprint_l               004dbb10 f i LIBCMTD:_wctype.obj
 0002:00082b40       _iswprint                  004dbb40 f i LIBCMTD:_wctype.obj
 0002:00082b60       __iswgraph_l               004dbb60 f i LIBCMTD:_wctype.obj
 0002:00082b90       _iswgraph                  004dbb90 f i LIBCMTD:_wctype.obj
 0002:00082bb0       __iswcntrl_l               004dbbb0 f i LIBCMTD:_wctype.obj
 0002:00082bd0       _iswcntrl                  004dbbd0 f i LIBCMTD:_wctype.obj
 0002:00082bf0       _iswascii                  004dbbf0 f i LIBCMTD:_wctype.obj
 0002:00082c10       __iswcsym_l                004dbc10 f i LIBCMTD:_wctype.obj
 0002:00082c60       ___iswcsym                 004dbc60 f i LIBCMTD:_wctype.obj
 0002:00082cb0       __iswcsymf_l               004dbcb0 f i LIBCMTD:_wctype.obj
 0002:00082d00       ___iswcsymf                004dbd00 f i LIBCMTD:_wctype.obj
 0002:00082d50       __get_sse2_info            004dbd50 f   LIBCMTD:cpu_disp.obj
 0002:00082ec0       ___sse2_available_init     004dbec0 f   LIBCMTD:cpu_disp.obj
 0002:00082ee0       __validate_param_reuseA    004dbee0 f   LIBCMTD:outputp.obj
 0002:000831f0       __output_p_l               004dc1f0 f   LIBCMTD:outputp.obj
 0002:00087cf0       _get_crtdouble_arg         004e0cf0 f i LIBCMTD:outputp.obj
 0002:00087d20       __output_s_l               004e0d20 f   LIBCMTD:outputs.obj
 0002:00089860       ___crtLCMapStringA         004e2860 f   LIBCMTD:a_map.obj
 0002:00089f10       __MarkAllocaS              004e2f10 f i LIBCMTD:a_map.obj
 0002:00089f40       __freea                    004e2f40 f i LIBCMTD:a_map.obj
 0002:0008a020       ___crtGetStringTypeA       004e3020 f   LIBCMTD:a_str.obj
 0002:0008a350       ___pwctype_func            004e3350 f   LIBCMTD:ctype.obj
 0002:0008a360       ___pctype_func             004e3360 f   LIBCMTD:ctype.obj
 0002:0008a3c0       ___init_time               004e33c0 f   LIBCMTD:inittime.obj
 0002:0008aca0       ___free_lc_time            004e3ca0 f   LIBCMTD:inittime.obj
 0002:0008b070       ___init_numeric            004e4070 f   LIBCMTD:initnum.obj
 0002:0008b4a0       ___free_lconv_num          004e44a0 f   LIBCMTD:initnum.obj
 0002:0008b530       ___init_monetary           004e4530 f   LIBCMTD:initmon.obj
 0002:0008bb70       ___free_lconv_mon          004e4b70 f   LIBCMTD:initmon.obj
 0002:0008bca0       ___init_ctype              004e4ca0 f   LIBCMTD:initctyp.obj
 0002:0008c3b0       ____mb_cur_max_func        004e53b0 f   LIBCMTD:initctyp.obj
 0002:0008c410       ____mb_cur_max_l_func      004e5410 f   LIBCMTD:initctyp.obj
 0002:0008c450       ____lc_codepage_func       004e5450 f   LIBCMTD:initctyp.obj
 0002:0008c4b0       ____lc_collate_cp_func     004e54b0 f   LIBCMTD:initctyp.obj
 0002:0008c510       ____lc_handle_func         004e5510 f   LIBCMTD:initctyp.obj
 0002:0008c570       ___init_collate            004e5570 f   LIBCMTD:initcoll.obj
 0002:0008c580       __Getdays_l                004e5580 f   LIBCMTD:strftime.obj
 0002:0008c7b0       __Getdays                  004e57b0 f   LIBCMTD:strftime.obj
 0002:0008c7d0       __Getmonths_l              004e57d0 f   LIBCMTD:strftime.obj
 0002:0008ca00       __Getmonths                004e5a00 f   LIBCMTD:strftime.obj
 0002:0008ca20       __Gettnames_l              004e5a20 f   LIBCMTD:strftime.obj
 0002:0008d0e0       __Gettnames                004e60e0 f   LIBCMTD:strftime.obj
 0002:0008d100       __strftime_l               004e6100 f   LIBCMTD:strftime.obj
 0002:0008d130       _strftime                  004e6130 f   LIBCMTD:strftime.obj
 0002:0008d160       __Strftime                 004e6160 f   LIBCMTD:strftime.obj
 0002:0008d190       __Strftime_l               004e6190 f   LIBCMTD:strftime.obj
 0002:0008f6d0       _localeconv                004e86d0 f   LIBCMTD:lconv.obj
 0002:0008f730       _strcspn                   004e8730 f   LIBCMTD:strcspn.obj
 0002:0008f790       _strpbrk                   004e8790 f   LIBCMTD:strpbrk.obj
 0002:0008f7e0       ___get_qualified_locale    004e87e0 f   LIBCMTD:getqloc.obj
 0002:000909d0       __controlfp_s              004e99d0 f   LIBCMTD:contrlfp.obj
 0002:00090af0       __atodbl_l                 004e9af0 f   LIBCMTD:atodbl.obj
 0002:00090c30       __atodbl                   004e9c30 f   LIBCMTD:atodbl.obj
 0002:00090c50       __atoldbl_l                004e9c50 f   LIBCMTD:atodbl.obj
 0002:00090d90       __atoldbl                  004e9d90 f   LIBCMTD:atodbl.obj
 0002:00090db0       __atoflt_l                 004e9db0 f   LIBCMTD:atodbl.obj
 0002:00090ef0       __atoflt                   004e9ef0 f   LIBCMTD:atodbl.obj
 0002:00090f10       __fptostr                  004e9f10 f   LIBCMTD:_fptostr.obj
 0002:00091260       __fltout2                  004ea260 f   LIBCMTD:cfout.obj
 0002:00091340       ___dtold                   004ea340 f   LIBCMTD:cfout.obj
 0002:000914f0       __set_output_format        004ea4f0 f   LIBCMTD:outputformat.obj
 0002:00091590       __get_output_format        004ea590 f   LIBCMTD:outputformat.obj
 0002:000915a0       __allrem                   004ea5a0 f   LIBCMTD:llrem.obj
 0002:00091680       _strrchr                   004ea680 f   LIBCMTD:strrchr.obj
 0002:000916c0       __fptrap                   004ea6c0 f   LIBCMTD:crt0fp.obj
 0002:000916e0       __87except                 004ea6e0 f   LIBCMTD:87except.obj
 0002:00091900       __matherr                  004ea900 f   LIBCMTD:matherr.obj
 0002:00091910       __frnd                     004ea910 f   LIBCMTD:frnd.obj
 0002:00091930       __copysign                 004ea930 f   LIBCMTD:ieeemisc.obj
 0002:00091970       __chgsign                  004ea970 f   LIBCMTD:ieeemisc.obj
 0002:000919b0       __scalb                    004ea9b0 f   LIBCMTD:ieeemisc.obj
 0002:000919d0       __logb                     004ea9d0 f   LIBCMTD:ieeemisc.obj
 0002:00091b50       __nextafter                004eab50 f   LIBCMTD:ieeemisc.obj
 0002:00091f30       __finite                   004eaf30 f   LIBCMTD:ieeemisc.obj
 0002:00091f60       __isnan                    004eaf60 f   LIBCMTD:ieeemisc.obj
 0002:00091fb0       __fpclass                  004eafb0 f   LIBCMTD:ieeemisc.obj
 0002:000920b0       ___crtGetLocaleInfoW       004eb0b0 f   LIBCMTD:w_loc.obj
 0002:000922f0       ___crtGetLocaleInfoA       004eb2f0 f   LIBCMTD:a_loc.obj
 0002:00092540       __alloc_osfhnd             004eb540 f   LIBCMTD:osfinfo.obj
 0002:000928a0       __set_osfhnd               004eb8a0 f   LIBCMTD:osfinfo.obj
 0002:000929a0       __free_osfhnd              004eb9a0 f   LIBCMTD:osfinfo.obj
 0002:00092ac0       __get_osfhandle            004ebac0 f   LIBCMTD:osfinfo.obj
 0002:00092c80       __open_osfhandle           004ebc80 f   LIBCMTD:osfinfo.obj
 0002:00092f30       ___lock_fhandle            004ebf30 f   LIBCMTD:osfinfo.obj
 0002:00093070       __unlock_fhandle           004ec070 f   LIBCMTD:osfinfo.obj
 0002:000930a0       __mbstowcs_l_helper        004ec0a0 f   LIBCMTD:mbstowcs.obj
 0002:00093540       __mbstowcs_l               004ec540 f   LIBCMTD:mbstowcs.obj
 0002:00093570       _mbstowcs                  004ec570 f   LIBCMTD:mbstowcs.obj
 0002:000935d0       __mbstowcs_s_l             004ec5d0 f   LIBCMTD:mbstowcs.obj
 0002:00093990       _mbstowcs_s                004ec990 f   LIBCMTD:mbstowcs.obj
 0002:000939c0       __vswprintf_l              004ec9c0 f   LIBCMTD:vswprint.obj
 0002:00093c00       __vswprintf                004ecc00 f   LIBCMTD:vswprint.obj
 0002:00093c30       ___vswprintf_l             004ecc30 f   LIBCMTD:vswprint.obj
 0002:00093c60       __vscwprintf_helper        004ecc60 f   LIBCMTD:vswprint.obj
 0002:00093d50       __vscwprintf               004ecd50 f   LIBCMTD:vswprint.obj
 0002:00093d80       __vscwprintf_l             004ecd80 f   LIBCMTD:vswprint.obj
 0002:00093db0       __vscwprintf_p             004ecdb0 f   LIBCMTD:vswprint.obj
 0002:00093de0       __vscwprintf_p_l           004ecde0 f   LIBCMTD:vswprint.obj
 0002:00093e10       __close                    004ece10 f   LIBCMTD:close.obj
 0002:000940a0       __close_nolock             004ed0a0 f   LIBCMTD:close.obj
 0002:000941a0       __putwch                   004ed1a0 f   LIBCMTD:putwch.obj
 0002:00094250       __putwch_nolock            004ed250 f   LIBCMTD:putwch.obj
 0002:00094390       __cputws                   004ed390 f   LIBCMTD:putwch.obj
 0002:00094520       __mbtowc_l                 004ed520 f   LIBCMTD:mbtowc.obj
 0002:000947c0       _mbtowc                    004ed7c0 f   LIBCMTD:mbtowc.obj
 0002:000947f0       _fputwc                    004ed7f0 f   LIBCMTD:fputwc.obj
 0002:00094920       __fputwc_nolock            004ed920 f   LIBCMTD:fputwc.obj
 0002:00094df0       _putwc                     004eddf0 f   LIBCMTD:fputwc.obj
 0002:00094e10       __mbsnbcat_s_l             004ede10 f   LIBCMTD:mbsnbcat_s_l.obj
 0002:000957f0       __mbsnbcpy_s_l             004ee7f0 f   LIBCMTD:mbsnbcpy_s_l.obj
 0002:00096000       _vfprintf_helper           004ef000 f   LIBCMTD:vfprintf.obj
 0002:000963a0       __vfprintf_l               004ef3a0 f   LIBCMTD:vfprintf.obj
 0002:000963d0       __vfprintf_s_l             004ef3d0 f   LIBCMTD:vfprintf.obj
 0002:00096400       __vfprintf_p_l             004ef400 f   LIBCMTD:vfprintf.obj
 0002:00096430       _vfprintf                  004ef430 f   LIBCMTD:vfprintf.obj
 0002:00096460       _vfprintf_s                004ef460 f   LIBCMTD:vfprintf.obj
 0002:00096490       __vfprintf_p               004ef490 f   LIBCMTD:vfprintf.obj
 0002:000964c0       _wcstol                    004ef4c0 f   LIBCMTD:wcstol.obj
 0002:00096a60       __wcstol_l                 004efa60 f   LIBCMTD:wcstol.obj
 0002:00096a90       _wcstoul                   004efa90 f   LIBCMTD:wcstol.obj
 0002:00096af0       __wcstoul_l                004efaf0 f   LIBCMTD:wcstol.obj
 0002:00096b20       _DebuggerKnownHandle       004efb20 f   LIBCMTD:error.obj
 0002:00096bf0       ?_RTC_Failure@@YAXPAXH@Z   004efbf0 f   LIBCMTD:error.obj
 0002:00096ff0       ?_RTC_StackFailure@@YAXPAXPBD@Z 004efff0 f   LIBCMTD:error.obj
 0002:00097160       ?_RTC_AllocaFailure@@YAXPAXPAU_RTC_ALLOCA_NODE@@H@Z 004f0160 f   LIBCMTD:error.obj
 0002:00097370       __RTC_UninitUse            004f0370 f   LIBCMTD:error.obj
 0002:000974c0       ___InternalCxxFrameHandler 004f04c0 f   LIBCMTD:frame.obj
 0002:00097c30       ??0bad_exception@std@@QAE@PBD@Z 004f0c30 f i LIBCMTD:frame.obj
 0002:00097c60       ??1bad_exception@std@@UAE@XZ 004f0c60 f i LIBCMTD:frame.obj
 0002:00097c90       ??_Ebad_exception@std@@UAEPAXI@Z 004f0c90 f i LIBCMTD:frame.obj
 0002:00097c90       ??_Gbad_exception@std@@UAEPAXI@Z 004f0c90 f i LIBCMTD:frame.obj
 0002:00097cd0       ??0bad_exception@std@@QAE@ABV01@@Z 004f0cd0 f i LIBCMTD:frame.obj
 0002:00097ee0       ___TypeMatch               004f0ee0 f   LIBCMTD:frame.obj
 0002:00097fc0       ___FrameUnwindFilter       004f0fc0 f   LIBCMTD:frame.obj
 0002:00098050       ___FrameUnwindToState      004f1050 f   LIBCMTD:frame.obj
 0002:000986e0       ___BuildCatchObjectHelper  004f16e0 f   LIBCMTD:frame.obj
 0002:000989f0       ___BuildCatchObject        004f19f0 f   LIBCMTD:frame.obj
 0002:00098b40       ___DestructExceptionObject 004f1b40 f   LIBCMTD:frame.obj
 0002:00098c20       ___AdjustPointer           004f1c20 f   LIBCMTD:frame.obj
 0002:00098c80       ?__uncaught_exception@@YA_NXZ 004f1c80 f   LIBCMTD:frame.obj
 0002:00098ca0       ___CxxExceptionFilter      004f1ca0 f   LIBCMTD:frame.obj
 0002:00098f00       ___CxxRegisterExceptionObject 004f1f00 f   LIBCMTD:frame.obj
 0002:00099080       ___CxxDetectRethrow        004f2080 f   LIBCMTD:frame.obj
 0002:00099120       ___CxxUnregisterExceptionObject 004f2120 f   LIBCMTD:frame.obj
 0002:00099300       ___CxxQueryExceptionSize   004f2300 f   LIBCMTD:frame.obj
 0002:00099310       ___CxxCallUnwindDtor       004f2310 f   LIBCMTD:frame.obj
 0002:000993a0       ___CxxCallUnwindDelDtor    004f23a0 f   LIBCMTD:frame.obj
 0002:00099440       ___CxxCallUnwindStdDelDtor 004f2440 f   LIBCMTD:frame.obj
 0002:000994d0       ___CxxCallUnwindVecDtor    004f24d0 f   LIBCMTD:frame.obj
 0002:00099770       ?_is_exception_typeof@@YAHABVtype_info@@PAU_EXCEPTION_POINTERS@@@Z 004f2770 f   LIBCMTD:frame.obj
 0002:00099880       __CallSettingFrame@12      004f2880 f   LIBCMTD:lowhelpr.obj
 0002:000998a7       __NLG_Return               004f28a7     LIBCMTD:lowhelpr.obj
 0002:000998e0       __iswctype_l               004f28e0 f   LIBCMTD:iswctype.obj
 0002:000999b0       _iswctype                  004f29b0 f   LIBCMTD:iswctype.obj
 0002:00099a60       _is_wctype                 004f2a60 f   LIBCMTD:iswctype.obj
 0002:00099a80       ___ansicp                  004f2a80 f   LIBCMTD:convrtcp.obj
 0002:00099af0       ___convertcp               004f2af0 f   LIBCMTD:convrtcp.obj
 0002:00099dc0       __get_daylight             004f2dc0 f   LIBCMTD:timeset.obj
 0002:00099e60       __get_dstbias              004f2e60 f   LIBCMTD:timeset.obj
 0002:00099f00       __get_timezone             004f2f00 f   LIBCMTD:timeset.obj
 0002:00099fa0       __get_tzname               004f2fa0 f   LIBCMTD:timeset.obj
 0002:0009a1f0       ___daylight                004f31f0 f   LIBCMTD:timeset.obj
 0002:0009a200       ___dstbias                 004f3200 f   LIBCMTD:timeset.obj
 0002:0009a210       ___timezone                004f3210 f   LIBCMTD:timeset.obj
 0002:0009a220       ___tzname                  004f3220 f   LIBCMTD:timeset.obj
 0002:0009a230       ___tzset                   004f3230 f   LIBCMTD:tzset.obj
 0002:0009a2f0       __tzset                    004f32f0 f   LIBCMTD:tzset.obj
 0002:0009aa00       __set_daylight             004f3a00 f i LIBCMTD:tzset.obj
 0002:0009aa20       __set_dstbias              004f3a20 f i LIBCMTD:tzset.obj
 0002:0009aa40       __set_timezone             004f3a40 f i LIBCMTD:tzset.obj
 0002:0009aa60       __isindst                  004f3a60 f   LIBCMTD:tzset.obj
 0002:0009b250       __statusfp2                004f4250 f   LIBCMTD:ieee87.obj
 0002:0009b2a0       __statusfp                 004f42a0 f   LIBCMTD:ieee87.obj
 0002:0009b2f0       __clearfp                  004f42f0 f   LIBCMTD:ieee87.obj
 0002:0009b340       ___control87_2             004f4340 f   LIBCMTD:ieee87.obj
 0002:0009b410       __controlfp                004f4410 f   LIBCMTD:ieee87.obj
 0002:0009b430       __control87                004f4430 f i LIBCMTD:ieee87.obj
 0002:0009b510       __set_controlfp            004f4510 f   LIBCMTD:ieee87.obj
 0002:0009b5c0       __fpreset                  004f45c0 f   LIBCMTD:ieee87.obj
 0002:0009bf40       __ld12tod                  004f4f40 f   LIBCMTD:intrncvt.obj
 0002:0009bf60       __ld12cvt                  004f4f60 f i LIBCMTD:intrncvt.obj
 0002:0009c240       __RoundMan                 004f5240 f i LIBCMTD:intrncvt.obj
 0002:0009c350       __ZeroTail                 004f5350 f i LIBCMTD:intrncvt.obj
 0002:0009c400       __IncMan                   004f5400 f i LIBCMTD:intrncvt.obj
 0002:0009c4e0       ___addl                    004f54e0 f i LIBCMTD:intrncvt.obj
 0002:0009c530       __CopyMan                  004f5530 f i LIBCMTD:intrncvt.obj
 0002:0009c590       __FillZeroMan              004f5590 f i LIBCMTD:intrncvt.obj
 0002:0009c5d0       __IsZeroMan                004f55d0 f i LIBCMTD:intrncvt.obj
 0002:0009c620       __ShrMan                   004f5620 f i LIBCMTD:intrncvt.obj
 0002:0009c750       __ld12tof                  004f5750 f   LIBCMTD:intrncvt.obj
 0002:0009c770       __ld12told                 004f5770 f   LIBCMTD:intrncvt.obj
 0002:0009c850       ___strgtold12_l            004f5850 f   LIBCMTD:strgtold.obj
 0002:0009d5a0       ___multtenpow12            004f65a0 f i LIBCMTD:strgtold.obj
 0002:0009d6b0       ___ld12mul                 004f66b0 f i LIBCMTD:strgtold.obj
 0002:0009dba0       ___shl_12                  004f6ba0 f i LIBCMTD:strgtold.obj
 0002:0009dc20       ___shr_12                  004f6c20 f i LIBCMTD:strgtold.obj
 0002:0009dca0       ___STRINGTOLD_L            004f6ca0 f   LIBCMTD:strgtold.obj
 0002:0009dd30       _$I10_OUTPUT               004f6d30 f   LIBCMTD:x10fout.obj
 0002:0009e430       ___add_12                  004f7430 f i LIBCMTD:x10fout.obj
 0002:0009e510       _ldexp                     004f7510 f   LIBCMTD:ldexp.obj
 0002:0009e880       ___initconin               004f7880 f   LIBCMTD:initcon.obj
 0002:0009e8b0       ___initconout              004f78b0 f   LIBCMTD:initcon.obj
 0002:0009e8e0       ___termcon                 004f78e0 f   LIBCMTD:initcon.obj
 0002:0009e940       __flswbuf                  004f7940 f   LIBCMTD:_flswbuf.obj
 0002:0009ecd0       _strncat_s                 004f7cd0 f   LIBCMTD:strncat_s.obj
 0002:0009f290       __wchartodigit             004f8290 f   LIBCMTD:wchtodig.obj
 0002:0009f680       ?_RTC_GetSrcLine@@YAHPAEPA_WKPAH1K@Z 004f8680 f   LIBCMTD:pdblkup.obj
 0002:0009fc30       __RTC_NumErrors            004f8c30 f   LIBCMTD:userapi.obj
 0002:0009fc40       __RTC_GetErrDesc           004f8c40 f   LIBCMTD:userapi.obj
 0002:0009fc60       __RTC_SetErrorType         004f8c60 f   LIBCMTD:userapi.obj
 0002:0009fc90       __RTC_SetErrorFunc         004f8c90 f   LIBCMTD:userapi.obj
 0002:0009fcc0       __RTC_SetErrorFuncW        004f8cc0 f   LIBCMTD:userapi.obj
 0002:0009fcf0       ?_RTC_GetErrorFunc@@YAP6AHHPBDH00ZZPBX@Z 004f8cf0 f   LIBCMTD:userapi.obj
 0002:0009fd00       ?_RTC_GetErrorFuncW@@YAP6AHHPB_WH00ZZPBX@Z 004f8d00 f   LIBCMTD:userapi.obj
 0002:0009fd10       ?_ValidateRead@@YAHPBXI@Z  004f8d10 f   LIBCMTD:validate.obj
 0002:0009fd40       ?_ValidateWrite@@YAHPAXI@Z 004f8d40 f   LIBCMTD:validate.obj
 0002:0009fd70       ?_ValidateExecute@@YAHP6GHXZ@Z 004f8d70 f   LIBCMTD:validate.obj
 0002:0009fda0       __CxxThrowException@8      004f8da0 f   LIBCMTD:throw.obj
 0002:0009fe10       ?name@type_info@@QBEPBDPAU__type_info_node@@@Z 004f8e10 f   LIBCMTD:typinfo.obj
 0002:0009fe40       ??1type_info@@UAE@XZ       004f8e40 f   LIBCMTD:typinfo.obj
 0002:0009fe70       ??_Etype_info@@UAEPAXI@Z   004f8e70 f i LIBCMTD:typinfo.obj
 0002:0009fe70       ??_Gtype_info@@UAEPAXI@Z   004f8e70 f i LIBCMTD:typinfo.obj
 0002:0009feb0       ?_name_internal_method@type_info@@QBEPBDPAU__type_info_node@@@Z 004f8eb0 f   LIBCMTD:typinfo.obj
 0002:0009fee0       ?_type_info_dtor_internal_method@type_info@@QAEXXZ 004f8ee0 f   LIBCMTD:typinfo.obj
 0002:0009ff00       ??8type_info@@QBE_NABV0@@Z 004f8f00 f   LIBCMTD:typinfo.obj
 0002:0009ff40       ??9type_info@@QBE_NABV0@@Z 004f8f40 f   LIBCMTD:typinfo.obj
 0002:0009ff80       ?before@type_info@@QBEHABV1@@Z 004f8f80 f   LIBCMTD:typinfo.obj
 0002:0009ffc0       ?raw_name@type_info@@QBEPBDXZ 004f8fc0 f   LIBCMTD:typinfo.obj
 0002:0009ffe0       ??0type_info@@AAE@ABV0@@Z  004f8fe0 f   LIBCMTD:typinfo.obj
 0002:000a0000       ??4type_info@@AAEAAV0@ABV0@@Z 004f9000 f   LIBCMTD:typinfo.obj
 0002:000a0020       ??0exception@std@@QAE@XZ   004f9020 f   LIBCMTD:stdexcpt.obj
 0002:000a0060       ??_Gexception@std@@UAEPAXI@Z 004f9060 f i LIBCMTD:stdexcpt.obj
 0002:000a0060       ??_Eexception@std@@UAEPAXI@Z 004f9060 f i LIBCMTD:stdexcpt.obj
 0002:000a00a0       ??0exception@std@@QAE@ABQBD@Z 004f90a0 f   LIBCMTD:stdexcpt.obj
 0002:000a0150       ??0exception@std@@QAE@ABQBDH@Z 004f9150 f   LIBCMTD:stdexcpt.obj
 0002:000a0190       ??0exception@std@@QAE@ABV01@@Z 004f9190 f   LIBCMTD:stdexcpt.obj
 0002:000a0260       ??4exception@std@@QAEAAV01@ABV01@@Z 004f9260 f   LIBCMTD:stdexcpt.obj
 0002:000a0330       ??1exception@std@@UAE@XZ   004f9330 f   LIBCMTD:stdexcpt.obj
 0002:000a0370       ?what@exception@std@@UBEPBDXZ 004f9370 f   LIBCMTD:stdexcpt.obj
 0002:000a03a0       ??0bad_cast@std@@QAE@PBD@Z 004f93a0 f   LIBCMTD:stdexcpt.obj
 0002:000a03d0       ??_Ebad_cast@std@@UAEPAXI@Z 004f93d0 f i LIBCMTD:stdexcpt.obj
 0002:000a03d0       ??_Gbad_cast@std@@UAEPAXI@Z 004f93d0 f i LIBCMTD:stdexcpt.obj
 0002:000a0410       ??0bad_cast@std@@QAE@ABV01@@Z 004f9410 f   LIBCMTD:stdexcpt.obj
 0002:000a0440       ??1bad_cast@std@@UAE@XZ    004f9440 f   LIBCMTD:stdexcpt.obj
 0002:000a0470       ??0bad_typeid@std@@QAE@PBD@Z 004f9470 f   LIBCMTD:stdexcpt.obj
 0002:000a04a0       ??_Gbad_typeid@std@@UAEPAXI@Z 004f94a0 f i LIBCMTD:stdexcpt.obj
 0002:000a04a0       ??_Ebad_typeid@std@@UAEPAXI@Z 004f94a0 f i LIBCMTD:stdexcpt.obj
 0002:000a04e0       ??0bad_typeid@std@@QAE@ABV01@@Z 004f94e0 f   LIBCMTD:stdexcpt.obj
 0002:000a0510       ??1bad_typeid@std@@UAE@XZ  004f9510 f   LIBCMTD:stdexcpt.obj
 0002:000a0540       ??0__non_rtti_object@std@@QAE@PBD@Z 004f9540 f   LIBCMTD:stdexcpt.obj
 0002:000a0570       ??_E__non_rtti_object@std@@UAEPAXI@Z 004f9570 f i LIBCMTD:stdexcpt.obj
 0002:000a0570       ??_G__non_rtti_object@std@@UAEPAXI@Z 004f9570 f i LIBCMTD:stdexcpt.obj
 0002:000a05b0       ??0__non_rtti_object@std@@QAE@ABV01@@Z 004f95b0 f   LIBCMTD:stdexcpt.obj
 0002:000a05e0       ??1__non_rtti_object@std@@UAE@XZ 004f95e0 f   LIBCMTD:stdexcpt.obj
 0002:000a0610       ??3@YAXPAX@Z               004f9610 f   LIBCMTD:dbgdel.obj
 0002:000a0730       ___crtGetStringTypeW       004f9730 f   LIBCMTD:w_str.obj
 0002:000a0af0       _getenv                    004f9af0 f   LIBCMTD:getenv.obj
 0002:000a0ca0       __getenv_helper_nolock     004f9ca0 f   LIBCMTD:getenv.obj
 0002:000a0e00       _getenv_s                  004f9e00 f   LIBCMTD:getenv.obj
 0002:000a10b0       __dupenv_s                 004fa0b0 f   LIBCMTD:getenv.obj
 0002:000a10e0       __dupenv_s_dbg             004fa0e0 f   LIBCMTD:getenv.obj
 0002:000a13c0       ___mtold12                 004fa3c0 f   LIBCMTD:mantold.obj
 0002:000a1560       ?_Type_info_dtor@type_info@@CAXPAV1@@Z 004fa560 f   LIBCMTD:typname.obj
 0002:000a16b0       ?_Name_base@type_info@@CAPBDPBV1@PAU__type_info_node@@@Z 004fa6b0 f   LIBCMTD:typname.obj
 0002:000a18c0       ?_Type_info_dtor_internal@type_info@@CAXPAV1@@Z 004fa8c0 f   LIBCMTD:typname.obj
 0002:000a1a10       ___unDNameHelper           004faa10 f   LIBCMTD:typname.obj
 0002:000a1a60       ?_Name_base_internal@type_info@@CAPBDPBV1@PAU__type_info_node@@@Z 004faa60 f   LIBCMTD:typname.obj
 0002:000a1c60       ___clean_type_info_names_internal 004fac60 f   LIBCMTD:typname.obj
 0002:000a1d40       _strnlen                   004fad40 f   LIBCMTD:strlen_s.obj
 0002:000a1d90       __mbsnbicoll_l             004fad90 f   LIBCMTD:mbsnbico.obj
 0002:000a2060       __mbsnbicoll               004fb060 f   LIBCMTD:mbsnbico.obj
 0002:000a2090       ___wtomb_environ           004fb090 f   LIBCMTD:wtombenv.obj
 0002:000a21b0       ___unDName                 004fb1b0 f   LIBCMTD:undname.obj
 0002:000a22c0       ?Constructor@HeapManager@@QAEXP6APAXI@ZP6AXPAX@Z@Z 004fb2c0 f i LIBCMTD:undname.obj
 0002:000a2310       ?Destructor@HeapManager@@QAEXXZ 004fb310 f i LIBCMTD:undname.obj
 0002:000a2370       ___unDNameEx               004fb370 f   LIBCMTD:undname.obj
 0002:000a2480       ??0UnDecorator@@QAE@PADPBDHP6APADJ@ZK@Z 004fb480 f i LIBCMTD:undname.obj
 0002:000a2540       ??BUnDecorator@@QAEPADXZ   004fb540 f i LIBCMTD:undname.obj
 0002:000a2800       ?dbGetString@DName@@QBEPADXZ 004fb800 f   LIBCMTD:undname.obj
 0002:000a2830       ?getDecoratedName@UnDecorator@@CA?AVDName@@XZ 004fb830 f   LIBCMTD:undname.obj
 0002:000a2c00       ?getSymbolName@UnDecorator@@CA?AVDName@@XZ 004fbc00 f i LIBCMTD:undname.obj
 0002:000a2c90       ?getZName@UnDecorator@@CA?AVDName@@_N@Z 004fbc90 f   LIBCMTD:undname.obj
 0002:000a2f90       ?getOperatorName@UnDecorator@@CA?AVDName@@_NPA_N@Z 004fbf90 f i LIBCMTD:undname.obj
 0002:000a3af0       ?getStringEncoding@UnDecorator@@CA?AVDName@@PADH@Z 004fcaf0 f   LIBCMTD:undname.obj
 0002:000a3c30       ?getScope@UnDecorator@@CA?AVDName@@XZ 004fcc30 f   LIBCMTD:undname.obj
 0002:000a4100       ?getSignedDimension@UnDecorator@@CA?AVDName@@XZ 004fd100 f   LIBCMTD:undname.obj
 0002:000a41a0       ?getDimension@UnDecorator@@CA?AVDName@@_N@Z 004fd1a0 f   LIBCMTD:undname.obj
 0002:000a4500       ?getNumberOfDimensions@UnDecorator@@CAHXZ 004fd500 f   LIBCMTD:undname.obj
 0002:000a4640       ?getTemplateName@UnDecorator@@CA?AVDName@@_N@Z 004fd640 f   LIBCMTD:undname.obj
 0002:000a48a0       ?getTemplateArgumentList@UnDecorator@@CA?AVDName@@XZ 004fd8a0 f   LIBCMTD:undname.obj
 0002:000a4bc0       ?getTemplateConstant@UnDecorator@@CA?AVDName@@XZ 004fdbc0 f   LIBCMTD:undname.obj
 0002:000a5170       ?composeDeclaration@UnDecorator@@CA?AVDName@@ABV2@@Z 004fe170 f i LIBCMTD:undname.obj
 0002:000a6ce0       ?getTypeEncoding@UnDecorator@@CAHXZ 004ffce0 f i LIBCMTD:undname.obj
 0002:000a78d0       ?getBasedType@UnDecorator@@CA?AVDName@@XZ 005008d0 f   LIBCMTD:undname.obj
 0002:000a79c0       ?getScopedName@UnDecorator@@CA?AVDName@@XZ 005009c0 f   LIBCMTD:undname.obj
 0002:000a7b20       ?getCallingConvention@UnDecorator@@CA?AVDName@@XZ 00500b20 f   LIBCMTD:undname.obj
 0002:000a7cd0       ?getReturnType@UnDecorator@@CA?AVDName@@PAV2@@Z 00500cd0 f   LIBCMTD:undname.obj
 0002:000a7d30       ?getDataType@UnDecorator@@CA?AVDName@@PAV2@@Z 00500d30 f   LIBCMTD:undname.obj
 0002:000a7e80       ?getPrimaryDataType@UnDecorator@@CA?AVDName@@ABV2@@Z 00500e80 f   LIBCMTD:undname.obj
 0002:000a81d0       ?getArgumentTypes@UnDecorator@@CA?AVDName@@XZ 005011d0 f   LIBCMTD:undname.obj
 0002:000a8380       ?getArgumentList@UnDecorator@@CA?AVDName@@XZ 00501380 f   LIBCMTD:undname.obj
 0002:000a8500       ?getThrowTypes@UnDecorator@@CA?AVDName@@XZ 00501500 f   LIBCMTD:undname.obj
 0002:000a85d0       ?getBasicDataType@UnDecorator@@CA?AVDName@@ABV2@@Z 005015d0 f   LIBCMTD:undname.obj
 0002:000a8c90       ?getECSUDataType@UnDecorator@@CA?AVDName@@XZ 00501c90 f   LIBCMTD:undname.obj
 0002:000a8ed0       ?getECSUName@UnDecorator@@CA?AVDName@@XZ 00501ed0 f i LIBCMTD:undname.obj
 0002:000a8ef0       ?getEnumType@UnDecorator@@CA?AVDName@@XZ 00501ef0 f i LIBCMTD:undname.obj
 0002:000a9090       ?getFunctionIndirectType@UnDecorator@@CA?AVDName@@ABV2@@Z 00502090 f   LIBCMTD:undname.obj
 0002:000a95e0       ?getPtrRefType@UnDecorator@@CA?AVDName@@ABV2@0D@Z 005025e0 f   LIBCMTD:undname.obj
 0002:000a9790       ?getExtendedDataIndirectType@UnDecorator@@CA?AVDName@@AADAA_NH@Z 00502790 f   LIBCMTD:undname.obj
 0002:000a9990       ?getDataIndirectType@UnDecorator@@CA?AVDName@@ABV2@D0H@Z 00502990 f   LIBCMTD:undname.obj
 0002:000aa240       ?getPtrRefDataType@UnDecorator@@CA?AVDName@@ABV2@H@Z 00503240 f i LIBCMTD:undname.obj
 0002:000aa3d0       ?getArrayType@UnDecorator@@CA?AVDName@@ABV2@@Z 005033d0 f i LIBCMTD:undname.obj
 0002:000aa670       ?getLexicalFrame@UnDecorator@@CA?AVDName@@XZ 00503670 f i LIBCMTD:undname.obj
 0002:000aa6c0       ?getThisType@UnDecorator@@CA?AVDName@@XZ 005036c0 f i LIBCMTD:undname.obj
 0002:000aa700       ?getPointerType@UnDecorator@@CA?AVDName@@ABV2@0@Z 00503700 f i LIBCMTD:undname.obj
 0002:000aa730       ?getPointerTypeArray@UnDecorator@@CA?AVDName@@ABV2@0@Z 00503730 f i LIBCMTD:undname.obj
 0002:000aa760       ?getReferenceType@UnDecorator@@CA?AVDName@@ABV2@0@Z 00503760 f i LIBCMTD:undname.obj
 0002:000aa790       ?getDisplacement@UnDecorator@@CA?AVDName@@XZ 00503790 f i LIBCMTD:undname.obj
 0002:000aa7b0       ?getCallIndex@UnDecorator@@CA?AVDName@@XZ 005037b0 f i LIBCMTD:undname.obj
 0002:000aa7d0       ?getGuardNumber@UnDecorator@@CA?AVDName@@XZ 005037d0 f i LIBCMTD:undname.obj
 0002:000aa7f0       ?getVbTableType@UnDecorator@@CA?AVDName@@ABV2@@Z 005037f0 f i LIBCMTD:undname.obj
 0002:000aa810       ?getVCallThunkType@UnDecorator@@CA?AVDName@@XZ 00503810 f i LIBCMTD:undname.obj
 0002:000aa890       ?getVfTableType@UnDecorator@@CA?AVDName@@ABV2@@Z 00503890 f i LIBCMTD:undname.obj
 0002:000aaac0       ?getStorageConvention@UnDecorator@@CA?AVDName@@XZ 00503ac0 f i LIBCMTD:undname.obj
 0002:000aaae0       ?getDataIndirectType@UnDecorator@@CA?AVDName@@XZ 00503ae0 f i LIBCMTD:undname.obj
 0002:000aab20       ?getVdispMapType@UnDecorator@@CA?AVDName@@ABV2@@Z 00503b20 f i LIBCMTD:undname.obj
 0002:000aabb0       ?getExternalDataType@UnDecorator@@CA?AVDName@@ABV2@@Z 00503bb0 f i LIBCMTD:undname.obj
 0002:000aac70       ?doMSKeywords@UnDecorator@@SAHXZ 00503c70 f i LIBCMTD:undname.obj
 0002:000aac90       ?doPtr64@UnDecorator@@SAHXZ 00503c90 f i LIBCMTD:undname.obj
 0002:000aacb0       ?doFunctionReturns@UnDecorator@@SAHXZ 00503cb0 f i LIBCMTD:undname.obj
 0002:000aacd0       ?doAllocationModel@UnDecorator@@SAHXZ 00503cd0 f i LIBCMTD:undname.obj
 0002:000aacf0       ?doAllocationLanguage@UnDecorator@@SAHXZ 00503cf0 f i LIBCMTD:undname.obj
 0002:000aad10       ?doThisTypes@UnDecorator@@SAHXZ 00503d10 f i LIBCMTD:undname.obj
 0002:000aad30       ?doAccessSpecifiers@UnDecorator@@SAHXZ 00503d30 f i LIBCMTD:undname.obj
 0002:000aad50       ?doThrowTypes@UnDecorator@@SAHXZ 00503d50 f i LIBCMTD:undname.obj
 0002:000aad70       ?doMemberTypes@UnDecorator@@SAHXZ 00503d70 f i LIBCMTD:undname.obj
 0002:000aad90       ?doNameOnly@UnDecorator@@SAHXZ 00503d90 f i LIBCMTD:undname.obj
 0002:000aadb0       ?doTypeOnly@UnDecorator@@SAHXZ 00503db0 f i LIBCMTD:undname.obj
 0002:000aadd0       ?haveTemplateParameters@UnDecorator@@SAHXZ 00503dd0 f i LIBCMTD:undname.obj
 0002:000aadf0       ?doEcsu@UnDecorator@@SAHXZ 00503df0 f i LIBCMTD:undname.obj
 0002:000aae10       ?doEllipsis@UnDecorator@@SAHXZ 00503e10 f i LIBCMTD:undname.obj
 0002:000aae30       ?UScore@UnDecorator@@SAPBDW4Tokens@@@Z 00503e30 f   LIBCMTD:undname.obj
 0002:000aae70       ?doUnderScore@UnDecorator@@SAHXZ 00503e70 f i LIBCMTD:undname.obj
 0002:000aae90       ??2@YAPAXIAAVHeapManager@@H@Z 00503e90 f i LIBCMTD:undname.obj
 0002:000aaeb0       ?getMemory@HeapManager@@QAEPAXIH@Z 00503eb0 f   LIBCMTD:undname.obj
 0002:000ab000       ??0Block@HeapManager@@QAE@XZ 00504000 f i LIBCMTD:undname.obj
 0002:000ab020       ??H@YA?AVDName@@DABV0@@Z   00504020 f i LIBCMTD:undname.obj
 0002:000ab060       ??H@YA?AVDName@@W4DNameStatus@@ABV0@@Z 00504060 f i LIBCMTD:undname.obj
 0002:000ab0a0       ??H@YA?AVDName@@PBDABV0@@Z 005040a0 f i LIBCMTD:undname.obj
 0002:000ab0e0       ??0DName@@QAE@XZ           005040e0 f i LIBCMTD:undname.obj
 0002:000ab1c0       ??0DName@@QAE@D@Z          005041c0 f   LIBCMTD:undname.obj
 0002:000ab2c0       ??0DName@@QAE@ABV0@@Z      005042c0 f i LIBCMTD:undname.obj
 0002:000ab480       ??0DName@@QAE@PAV0@@Z      00504480 f   LIBCMTD:undname.obj
 0002:000ab5e0       ??0DName@@QAE@PBD@Z        005045e0 f   LIBCMTD:undname.obj
 0002:000ab6f0       ??0DName@@QAE@AAPBDD@Z     005046f0 f   LIBCMTD:undname.obj
 0002:000aba50       ?doNoIdentCharCheck@UnDecorator@@SAHXZ 00504a50 f i LIBCMTD:undname.obj
 0002:000aba70       ??0DName@@QAE@_K@Z         00504a70 f   LIBCMTD:undname.obj
 0002:000abbf0       ??0DName@@QAE@_J@Z         00504bf0 f   LIBCMTD:undname.obj
 0002:000abdc0       ??0DName@@QAE@W4DNameStatus@@@Z 00504dc0 f   LIBCMTD:undname.obj
 0002:000abf20       ?isValid@DName@@QBEHXZ     00504f20 f   LIBCMTD:undname.obj
 0002:000abf70       ?isEmpty@DName@@QBEHXZ     00504f70 f   LIBCMTD:undname.obj
 0002:000abfc0       ?status@DName@@QBE?AW4DNameStatus@@XZ 00504fc0 f i LIBCMTD:undname.obj
 0002:000abfe0       ?clearStatus@DName@@QAEXXZ 00504fe0 f i LIBCMTD:undname.obj
 0002:000ac000       ?setPtrRef@DName@@QAEAAV1@XZ 00505000 f i LIBCMTD:undname.obj
 0002:000ac030       ?isPtrRef@DName@@QBEHXZ    00505030 f i LIBCMTD:undname.obj
 0002:000ac050       ?isUDC@DName@@QBEHXZ       00505050 f i LIBCMTD:undname.obj
 0002:000ac0a0       ?setIsUDC@DName@@QAEXXZ    005050a0 f i LIBCMTD:undname.obj
 0002:000ac0d0       ?isUDTThunk@DName@@QBEHXZ  005050d0 f i LIBCMTD:undname.obj
 0002:000ac120       ?setIsArray@DName@@QAEXXZ  00505120 f i LIBCMTD:undname.obj
 0002:000ac150       ?isArray@DName@@QBEHXZ     00505150 f i LIBCMTD:undname.obj
 0002:000ac170       ?isNoTE@DName@@QBEHXZ      00505170 f i LIBCMTD:undname.obj
 0002:000ac190       ?setIsNoTE@DName@@QAEXXZ   00505190 f i LIBCMTD:undname.obj
 0002:000ac1c0       ?isPinPtr@DName@@QBEHXZ    005051c0 f i LIBCMTD:undname.obj
 0002:000ac1e0       ?setIsPinPtr@DName@@QAEXXZ 005051e0 f i LIBCMTD:undname.obj
 0002:000ac210       ?isComArray@DName@@QBEHXZ  00505210 f i LIBCMTD:undname.obj
 0002:000ac230       ?setIsComArray@DName@@QAEXXZ 00505230 f i LIBCMTD:undname.obj
 0002:000ac260       ?isVCallThunk@DName@@QBEHXZ 00505260 f i LIBCMTD:undname.obj
 0002:000ac280       ?setIsVCallThunk@DName@@QAEXXZ 00505280 f i LIBCMTD:undname.obj
 0002:000ac2b0       ?length@DName@@QBEHXZ      005052b0 f   LIBCMTD:undname.obj
 0002:000ac320       ?getLastChar@DName@@QBEDXZ 00505320 f   LIBCMTD:undname.obj
 0002:000ac3b0       ?getString@DName@@QBEPADPADH@Z 005053b0 f   LIBCMTD:undname.obj
 0002:000ac4f0       ??HDName@@QBE?AV0@D@Z      005054f0 f   LIBCMTD:undname.obj
 0002:000ac560       ??HDName@@QBE?AV0@PBD@Z    00505560 f   LIBCMTD:undname.obj
 0002:000ac5d0       ??HDName@@QBE?AV0@ABV0@@Z  005055d0 f   LIBCMTD:undname.obj
 0002:000ac660       ??HDName@@QBE?AV0@PAV0@@Z  00505660 f   LIBCMTD:undname.obj
 0002:000ac6d0       ??HDName@@QBE?AV0@W4DNameStatus@@@Z 005056d0 f   LIBCMTD:undname.obj
 0002:000ac740       ??YDName@@QAEAAV0@D@Z      00505740 f   LIBCMTD:undname.obj
 0002:000ac810       ??YDName@@QAEAAV0@PBD@Z    00505810 f   LIBCMTD:undname.obj
 0002:000ac8f0       ??YDName@@QAEAAV0@ABV0@@Z  005058f0 f   LIBCMTD:undname.obj
 0002:000ac9a0       ??YDName@@QAEAAV0@PAV0@@Z  005059a0 f   LIBCMTD:undname.obj
 0002:000acad0       ??YDName@@QAEAAV0@W4DNameStatus@@@Z 00505ad0 f   LIBCMTD:undname.obj
 0002:000acbd0       ??_5DName@@QAEAAV0@ABV0@@Z 00505bd0 f   LIBCMTD:undname.obj
 0002:000acc30       ??4DName@@QAEAAV0@D@Z      00505c30 f   LIBCMTD:undname.obj
 0002:000accc0       ??4DName@@QAEAAV0@PBD@Z    00505cc0 f   LIBCMTD:undname.obj
 0002:000acd60       ??4DName@@QAEAAV0@ABV0@@Z  00505d60 f   LIBCMTD:undname.obj
 0002:000aceb0       ??4DName@@QAEAAV0@PAV0@@Z  00505eb0 f   LIBCMTD:undname.obj
 0002:000acfe0       ??4DName@@QAEAAV0@W4DNameStatus@@@Z 00505fe0 f   LIBCMTD:undname.obj
 0002:000ad140       ?doPchar@DName@@AAEXPBDH@Z 00506140 f   LIBCMTD:undname.obj
 0002:000ad2e0       ?isFull@Replicator@@QBEHXZ 005062e0 f i LIBCMTD:undname.obj
 0002:000ad300       ??0Replicator@@QAE@XZ      00506300 f i LIBCMTD:undname.obj
 0002:000ad340       ??YReplicator@@QAEAAV0@ABVDName@@@Z 00506340 f   LIBCMTD:undname.obj
 0002:000ad3f0       ??AReplicator@@QBEABVDName@@H@Z 005063f0 f   LIBCMTD:undname.obj
 0002:000ad450       ??0DNameNode@@IAE@XZ       00506450 f   LIBCMTD:undname.obj
 0002:000ad480       ?nextNode@DNameNode@@QBEPAV1@XZ 00506480 f i LIBCMTD:undname.obj
 0002:000ad4a0       ?clone@DNameNode@@QAEPAV1@XZ 005064a0 f   LIBCMTD:undname.obj
 0002:000ad540       ??0DName@@QAE@PAVDNameNode@@@Z 00506540 f i LIBCMTD:undname.obj
 0002:000ad620       ??YDNameNode@@QAEAAV0@PAV0@@Z 00506620 f   LIBCMTD:undname.obj
 0002:000ad690       ??0charNode@@QAE@D@Z       00506690 f   LIBCMTD:undname.obj
 0002:000ad6d0       ?length@charNode@@UBEHXZ   005066d0 f i LIBCMTD:undname.obj
 0002:000ad6f0       ?getLastChar@charNode@@UBEDXZ 005066f0 f i LIBCMTD:undname.obj
 0002:000ad710       ?getString@charNode@@UBEPADPADH@Z 00506710 f   LIBCMTD:undname.obj
 0002:000ad750       ??0pcharNode@@QAE@PBDH@Z   00506750 f   LIBCMTD:undname.obj
 0002:000ad830       ?length@pcharNode@@UBEHXZ  00506830 f i LIBCMTD:undname.obj
 0002:000ad850       ?getLastChar@pcharNode@@UBEDXZ 00506850 f i LIBCMTD:undname.obj
 0002:000ad890       ?getString@pcharNode@@UBEPADPADH@Z 00506890 f   LIBCMTD:undname.obj
 0002:000ad910       ??0pDNameNode@@QAE@PAVDName@@@Z 00506910 f   LIBCMTD:undname.obj
 0002:000ad990       ?length@pDNameNode@@UBEHXZ 00506990 f i LIBCMTD:undname.obj
 0002:000ad9d0       ?getLastChar@pDNameNode@@UBEDXZ 005069d0 f i LIBCMTD:undname.obj
 0002:000ada10       ?getString@pDNameNode@@UBEPADPADH@Z 00506a10 f   LIBCMTD:undname.obj
 0002:000ada70       ??0DNameStatusNode@@QAE@W4DNameStatus@@@Z 00506a70 f   LIBCMTD:undname.obj
 0002:000adad0       ?length@DNameStatusNode@@UBEHXZ 00506ad0 f i LIBCMTD:undname.obj
 0002:000adaf0       ?getLastChar@DNameStatusNode@@UBEDXZ 00506af0 f i LIBCMTD:undname.obj
 0002:000adb20       ?getString@DNameStatusNode@@UBEPADPADH@Z 00506b20 f   LIBCMTD:undname.obj
 0002:000adcb0       ___crtCompareStringA       00506cb0 f   LIBCMTD:a_cmp.obj
 0002:000ae3d0       __strnicoll_l              005073d0 f   LIBCMTD:strnicol.obj
 0002:000ae6b0       __strnicoll                005076b0 f   LIBCMTD:strnicol.obj
 0002:000ae700       ___crtsetenv               00507700 f   LIBCMTD:setenv.obj
 0002:000aef20       __purecall                 00507f20 f   LIBCMTD:purevirt.obj
 0002:000aef70       __set_purecall_handler     00507f70 f   LIBCMTD:purevirt.obj
 0002:000aefc0       __get_purecall_handler     00507fc0 f   LIBCMTD:purevirt.obj
 0002:000aefe0       __mbschr_l                 00507fe0 f   LIBCMTD:mbschr.obj
 0002:000af1d0       __mbschr                   005081d0 f   LIBCMTD:mbschr.obj
 0002:000af1ec       _GetCurrentProcessId@0     005081ec f   kernel32:KERNEL32.dll
 0002:000af1f2       _GetThreadPriority@4       005081f2 f   kernel32:KERNEL32.dll
 0002:000af1f8       _GetLastError@0            005081f8 f   kernel32:KERNEL32.dll
 0002:000af1fe       _SetThreadPriority@8       005081fe f   kernel32:KERNEL32.dll
 0002:000af204       _GetCurrentThreadId@0      00508204 f   kernel32:KERNEL32.dll
 0002:000af20a       _GetCurrentThread@0        0050820a f   kernel32:KERNEL32.dll
 0002:000af210       _CreateThread@24           00508210 f   kernel32:KERNEL32.dll
 0002:000af216       _ResumeThread@4            00508216 f   kernel32:KERNEL32.dll
 0002:000af21c       _WaitForSingleObject@8     0050821c f   kernel32:KERNEL32.dll
 0002:000af222       _CloseHandle@4             00508222 f   kernel32:KERNEL32.dll
 0002:000af228       _Sleep@4                   00508228 f   kernel32:KERNEL32.dll
 0002:000af22e       _InterlockedExchange@8     0050822e f   kernel32:KERNEL32.dll
 0002:000af234       _InterlockedIncrement@4    00508234 f   kernel32:KERNEL32.dll
 0002:000af23a       _InterlockedDecrement@4    0050823a f   kernel32:KERNEL32.dll
 0002:000af240       _InterlockedExchangeAdd@8  00508240 f   kernel32:KERNEL32.dll
 0002:000af246       _TlsAlloc@0                00508246 f   kernel32:KERNEL32.dll
 0002:000af24c       _TlsFree@4                 0050824c f   kernel32:KERNEL32.dll
 0002:000af252       _TlsSetValue@8             00508252 f   kernel32:KERNEL32.dll
 0002:000af258       _TlsGetValue@4             00508258 f   kernel32:KERNEL32.dll
 0002:000af25e       _InitializeCriticalSection@4 0050825e f   kernel32:KERNEL32.dll
 0002:000af264       _EnterCriticalSection@4    00508264 f   kernel32:KERNEL32.dll
 0002:000af26a       _LeaveCriticalSection@4    0050826a f   kernel32:KERNEL32.dll
 0002:000af270       _TryEnterCriticalSection@4 00508270 f   kernel32:KERNEL32.dll
 0002:000af276       _DeleteCriticalSection@4   00508276 f   kernel32:KERNEL32.dll
 0002:000af27c       _CreateSemaphoreA@16       0050827c f   kernel32:KERNEL32.dll
 0002:000af282       _ReleaseSemaphore@12       00508282 f   kernel32:KERNEL32.dll
 0002:000af288       _CreateEventA@16           00508288 f   kernel32:KERNEL32.dll
 0002:000af28e       _SetEvent@4                0050828e f   kernel32:KERNEL32.dll
 0002:000af294       _PulseEvent@4              00508294 f   kernel32:KERNEL32.dll
 0002:000af29a       _ResetEvent@4              0050829a f   kernel32:KERNEL32.dll
 0002:000af2a0       _SetConsoleTextAttribute@8 005082a0 f   kernel32:KERNEL32.dll
 0002:000af2a6       _GetStdHandle@4            005082a6 f   kernel32:KERNEL32.dll
 0002:000af2ac       _GetConsoleScreenBufferInfo@8 005082ac f   kernel32:KERNEL32.dll
 0002:000af2b2       _QueryPerformanceCounter@4 005082b2 f   kernel32:KERNEL32.dll
 0002:000af2b8       _QueryPerformanceFrequency@4 005082b8 f   kernel32:KERNEL32.dll
 0002:000af2be       _SystemTimeToFileTime@8    005082be f   kernel32:KERNEL32.dll
 0002:000af2c4       _GetLocalTime@4            005082c4 f   kernel32:KERNEL32.dll
 0002:000af2ca       _FileTimeToSystemTime@8    005082ca f   kernel32:KERNEL32.dll
 0002:000af2d0       _CreateFileA@28            005082d0 f   kernel32:KERNEL32.dll
 0002:000af2d6       _WriteFile@20              005082d6 f   kernel32:KERNEL32.dll
 0002:000af2dc       _ReadFile@20               005082dc f   kernel32:KERNEL32.dll
 0002:000af2e2       _SetFilePointer@16         005082e2 f   kernel32:KERNEL32.dll
 0002:000af2e8       _FlushFileBuffers@4        005082e8 f   kernel32:KERNEL32.dll
 0002:000af2ee       _GetFileSize@8             005082ee f   kernel32:KERNEL32.dll
 0002:000af2f4       _DeleteFileA@4             005082f4 f   kernel32:KERNEL32.dll
 0002:000af2fa       _MoveFileExA@12            005082fa f   kernel32:KERNEL32.dll
 0002:000af300       _GetFileTime@16            00508300 f   kernel32:KERNEL32.dll
 0002:000af306       _FileTimeToLocalFileTime@8 00508306 f   kernel32:KERNEL32.dll
 0002:000af30c       _SetLastError@4            0050830c f   kernel32:KERNEL32.dll
 0002:000af312       _FormatMessageA@28         00508312 f   kernel32:KERNEL32.dll
 0002:000af318       _GetProcAddress@8          00508318 f   kernel32:KERNEL32.dll
 0002:000af31e       _LoadLibraryA@4            0050831e f   kernel32:KERNEL32.dll
 0002:000af324       _FreeLibrary@4             00508324 f   kernel32:KERNEL32.dll
 0002:000af32a       _GetModuleFileNameW@12     0050832a f   kernel32:KERNEL32.dll
 0002:000af330       _WriteConsoleW@20          00508330 f   kernel32:KERNEL32.dll
 0002:000af336       _GetFileType@4             00508336 f   kernel32:KERNEL32.dll
 0002:000af33c       _GetCommandLineA@0         0050833c f   kernel32:KERNEL32.dll
 0002:000af342       _HeapFree@12               00508342 f   kernel32:KERNEL32.dll
 0002:000af348       _GetVersionExA@4           00508348 f   kernel32:KERNEL32.dll
 0002:000af34e       _HeapAlloc@12              0050834e f   kernel32:KERNEL32.dll
 0002:000af354       _GetProcessHeap@0          00508354 f   kernel32:KERNEL32.dll
 0002:000af35a       _HeapValidate@12           0050835a f   kernel32:KERNEL32.dll
 0002:000af360       _IsBadReadPtr@8            00508360 f   kernel32:KERNEL32.dll
 0002:000af366       _RtlUnwind@16              00508366 f   kernel32:KERNEL32.dll
 0002:000af36c       _GetModuleHandleA@4        0050836c f   kernel32:KERNEL32.dll
 0002:000af372       _ExitProcess@4             00508372 f   kernel32:KERNEL32.dll
 0002:000af378       _GetSystemTimeAsFileTime@4 00508378 f   kernel32:KERNEL32.dll
 0002:000af37e       _SetHandleCount@4          0050837e f   kernel32:KERNEL32.dll
 0002:000af384       _GetStartupInfoA@4         00508384 f   kernel32:KERNEL32.dll
 0002:000af38a       _TerminateProcess@8        0050838a f   kernel32:KERNEL32.dll
 0002:000af390       _GetCurrentProcess@0       00508390 f   kernel32:KERNEL32.dll
 0002:000af396       _UnhandledExceptionFilter@4 00508396 f   kernel32:KERNEL32.dll
 0002:000af39c       _SetUnhandledExceptionFilter@4 0050839c f   kernel32:KERNEL32.dll
 0002:000af3a2       _IsDebuggerPresent@0       005083a2 f   kernel32:KERNEL32.dll
 0002:000af3a8       _FatalAppExitA@8           005083a8 f   kernel32:KERNEL32.dll
 0002:000af3ae       _SetConsoleCtrlHandler@8   005083ae f   kernel32:KERNEL32.dll
 0002:000af3b4       _LoadLibraryW@4            005083b4 f   kernel32:KERNEL32.dll
 0002:000af3ba       _GetModuleFileNameA@12     005083ba f   kernel32:KERNEL32.dll
 0002:000af3c0       _WideCharToMultiByte@32    005083c0 f   kernel32:KERNEL32.dll
 0002:000af3c6       _GetTickCount@0            005083c6 f   kernel32:KERNEL32.dll
 0002:000af3cc       _FreeEnvironmentStringsA@4 005083cc f   kernel32:KERNEL32.dll
 0002:000af3d2       _GetEnvironmentStrings@0   005083d2 f   kernel32:KERNEL32.dll
 0002:000af3d8       _FreeEnvironmentStringsW@4 005083d8 f   kernel32:KERNEL32.dll
 0002:000af3de       _GetEnvironmentStringsW@0  005083de f   kernel32:KERNEL32.dll
 0002:000af3e4       _HeapDestroy@4             005083e4 f   kernel32:KERNEL32.dll
 0002:000af3ea       _HeapCreate@12             005083ea f   kernel32:KERNEL32.dll
 0002:000af3f0       _VirtualFree@12            005083f0 f   kernel32:KERNEL32.dll
 0002:000af3f6       _GetACP@0                  005083f6 f   kernel32:KERNEL32.dll
 0002:000af3fc       _GetOEMCP@0                005083fc f   kernel32:KERNEL32.dll
 0002:000af402       _GetCPInfo@8               00508402 f   kernel32:KERNEL32.dll
 0002:000af408       _IsValidCodePage@4         00508408 f   kernel32:KERNEL32.dll
 0002:000af40e       _HeapReAlloc@16            0050840e f   kernel32:KERNEL32.dll
 0002:000af414       _VirtualAlloc@16           00508414 f   kernel32:KERNEL32.dll
 0002:000af41a       _RaiseException@16         0050841a f   kernel32:KERNEL32.dll
 0002:000af420       _MultiByteToWideChar@24    00508420 f   kernel32:KERNEL32.dll
 0002:000af426       _DebugBreak@0              00508426 f   kernel32:KERNEL32.dll
 0002:000af42c       _OutputDebugStringA@4      0050842c f   kernel32:KERNEL32.dll
 0002:000af432       _OutputDebugStringW@4      00508432 f   kernel32:KERNEL32.dll
 0002:000af438       _GetConsoleCP@0            00508438 f   kernel32:KERNEL32.dll
 0002:000af43e       _GetConsoleMode@8          0050843e f   kernel32:KERNEL32.dll
 0002:000af444       _LCMapStringA@24           00508444 f   kernel32:KERNEL32.dll
 0002:000af44a       _LCMapStringW@24           0050844a f   kernel32:KERNEL32.dll
 0002:000af450       _GetStringTypeA@20         00508450 f   kernel32:KERNEL32.dll
 0002:000af456       _GetStringTypeW@16         00508456 f   kernel32:KERNEL32.dll
 0002:000af45c       _GetTimeFormatA@24         0050845c f   kernel32:KERNEL32.dll
 0002:000af462       _GetDateFormatA@24         00508462 f   kernel32:KERNEL32.dll
 0002:000af468       _GetLocaleInfoA@16         00508468 f   kernel32:KERNEL32.dll
 0002:000af46e       _IsValidLocale@8           0050846e f   kernel32:KERNEL32.dll
 0002:000af474       _EnumSystemLocalesA@8      00508474 f   kernel32:KERNEL32.dll
 0002:000af47a       _GetUserDefaultLCID@0      0050847a f   kernel32:KERNEL32.dll
 0002:000af480       _GetLocaleInfoW@16         00508480 f   kernel32:KERNEL32.dll
 0002:000af486       _SetStdHandle@8            00508486 f   kernel32:KERNEL32.dll
 0002:000af48c       _WriteConsoleA@20          0050848c f   kernel32:KERNEL32.dll
 0002:000af492       _GetConsoleOutputCP@0      00508492 f   kernel32:KERNEL32.dll
 0002:000af498       _lstrlenA@4                00508498 f   kernel32:KERNEL32.dll
 0002:000af49e       _GetTimeZoneInformation@4  0050849e f   kernel32:KERNEL32.dll
 0002:000af4a4       _VirtualQuery@12           005084a4 f   kernel32:KERNEL32.dll
 0002:000af4aa       _CompareStringA@24         005084aa f   kernel32:KERNEL32.dll
 0002:000af4b0       _CompareStringW@24         005084b0 f   kernel32:KERNEL32.dll
 0002:000af4b6       _SetEnvironmentVariableA@8 005084b6 f   kernel32:KERNEL32.dll
 0002:000af4c0       _pjmedia_aud_dev_cap_name  005084c0 f   pjmedia-audiodev-i386-win32-vc8-debug:audiodev.obj
 0002:000af560       _pjmedia_aud_param_set_cap 00508560 f   pjmedia-audiodev-i386-win32-vc8-debug:audiodev.obj
 0002:000af910       _pjmedia_aud_param_get_cap 00508910 f   pjmedia-audiodev-i386-win32-vc8-debug:audiodev.obj
 0002:000af9d0       _pjmedia_aud_subsys_init   005089d0 f   pjmedia-audiodev-i386-win32-vc8-debug:audiodev.obj
 0002:000afea0       _pjmedia_aud_register_factory 00508ea0 f   pjmedia-audiodev-i386-win32-vc8-debug:audiodev.obj
 0002:000aff30       _pjmedia_aud_unregister_factory 00508f30 f   pjmedia-audiodev-i386-win32-vc8-debug:audiodev.obj
 0002:000b0020       _pjmedia_aud_subsys_get_pool_factory 00509020 f   pjmedia-audiodev-i386-win32-vc8-debug:audiodev.obj
 0002:000b0040       _pjmedia_aud_subsys_shutdown 00509040 f   pjmedia-audiodev-i386-win32-vc8-debug:audiodev.obj
 0002:000b00c0       _pjmedia_aud_dev_count     005090c0 f   pjmedia-audiodev-i386-win32-vc8-debug:audiodev.obj
 0002:000b00e0       _pjmedia_aud_dev_get_info  005090e0 f   pjmedia-audiodev-i386-win32-vc8-debug:audiodev.obj
 0002:000b04b0       _pjmedia_aud_dev_lookup    005094b0 f   pjmedia-audiodev-i386-win32-vc8-debug:audiodev.obj
 0002:000b06e0       _pjmedia_aud_dev_default_param 005096e0 f   pjmedia-audiodev-i386-win32-vc8-debug:audiodev.obj
 0002:000b0820       _pjmedia_aud_stream_create 00509820 f   pjmedia-audiodev-i386-win32-vc8-debug:audiodev.obj
 0002:000b0b20       _pjmedia_aud_stream_get_param 00509b20 f   pjmedia-audiodev-i386-win32-vc8-debug:audiodev.obj
 0002:000b0c30       _pjmedia_aud_stream_get_cap 00509c30 f   pjmedia-audiodev-i386-win32-vc8-debug:audiodev.obj
 0002:000b0c70       _pjmedia_aud_stream_set_cap 00509c70 f   pjmedia-audiodev-i386-win32-vc8-debug:audiodev.obj
 0002:000b0cb0       _pjmedia_aud_stream_start  00509cb0 f   pjmedia-audiodev-i386-win32-vc8-debug:audiodev.obj
 0002:000b0ce0       _pjmedia_aud_stream_stop   00509ce0 f   pjmedia-audiodev-i386-win32-vc8-debug:audiodev.obj
 0002:000b0d10       _pjmedia_aud_stream_destroy 00509d10 f   pjmedia-audiodev-i386-win32-vc8-debug:audiodev.obj
 0002:000b0d40       _pjmedia_wmme_factory      00509d40 f   pjmedia-audiodev-i386-win32-vc8-debug:wmme_dev.obj
 0002:000b3810       _pjmedia_audiodev_strerror 0050c810 f   pjmedia-audiodev-i386-win32-vc8-debug:errno.obj
 0002:000b3a7a       _WaitForMultipleObjects@16 0050ca7a f   kernel32:KERNEL32.dll
 0002:000b3a80       _waveOutGetDevCapsA@12     0050ca80 f   winmm:WINMM.dll
 0002:000b3a86       _waveInGetDevCapsA@12      0050ca86 f   winmm:WINMM.dll
 0002:000b3a8c       _waveOutGetNumDevs@0       0050ca8c f   winmm:WINMM.dll
 0002:000b3a92       _waveInGetNumDevs@0        0050ca92 f   winmm:WINMM.dll
 0002:000b3a98       _waveOutWrite@12           0050ca98 f   winmm:WINMM.dll
 0002:000b3a9e       _waveOutPrepareHeader@12   0050ca9e f   winmm:WINMM.dll
 0002:000b3aa4       _waveOutPause@4            0050caa4 f   winmm:WINMM.dll
 0002:000b3aaa       _waveOutOpen@24            0050caaa f   winmm:WINMM.dll
 0002:000b3ab0       _waveInAddBuffer@12        0050cab0 f   winmm:WINMM.dll
 0002:000b3ab6       _waveInPrepareHeader@12    0050cab6 f   winmm:WINMM.dll
 0002:000b3abc       _waveInOpen@24             0050cabc f   winmm:WINMM.dll
 0002:000b3ac2       _waveOutGetVolume@8        0050cac2 f   winmm:WINMM.dll
 0002:000b3ac8       _waveOutSetVolume@8        0050cac8 f   winmm:WINMM.dll
 0002:000b3ace       _waveInStart@4             0050cace f   winmm:WINMM.dll
 0002:000b3ad4       _waveOutRestart@4          0050cad4 f   winmm:WINMM.dll
 0002:000b3ada       _waveInStop@4              0050cada f   winmm:WINMM.dll
 0002:000b3ae0       _waveInClose@4             0050cae0 f   winmm:WINMM.dll
 0002:000b3ae6       _waveInUnprepareHeader@12  0050cae6 f   winmm:WINMM.dll
 0002:000b3aec       _waveInReset@4             0050caec f   winmm:WINMM.dll
 0002:000b3af2       _waveOutClose@4            0050caf2 f   winmm:WINMM.dll
 0002:000b3af8       _waveOutUnprepareHeader@12 0050caf8 f   winmm:WINMM.dll
 0002:000b3afe       _waveOutReset@4            0050cafe f   winmm:WINMM.dll
 0002:000b3b04       _waveOutGetErrorTextA@12   0050cb04 f   winmm:WINMM.dll
 0002:000b3b0a       _waveInGetErrorTextA@12    0050cb0a f   winmm:WINMM.dll
 0003:00000000       ___xc_a                    0050f000     LIBCMTD:crt0init.obj
 0003:00000104       ___xc_z                    0050f104     LIBCMTD:crt0init.obj
 0003:00000208       ___xi_a                    0050f208     LIBCMTD:crt0init.obj
 0003:0000052c       ___xi_z                    0050f52c     LIBCMTD:crt0init.obj
 0003:00000630       ___xp_a                    0050f630     LIBCMTD:crt0init.obj
 0003:00000944       ___xp_z                    0050f944     LIBCMTD:crt0init.obj
 0003:00000a48       ___xt_a                    0050fa48     LIBCMTD:crt0init.obj
 0003:00000b4c       ___xt_z                    0050fb4c     LIBCMTD:crt0init.obj
 0003:00000c6c       ??_C@_08LMCBNPPN@sendrecv?$AA@ 0050fc6c     pjmedia-i386-win32-vc8-debug:endpoint.obj
 0003:00000c78       ??_C@_07HDFHIMAJ@pjmedia?$AA@ 0050fc78     pjmedia-i386-win32-vc8-debug:endpoint.obj
 0003:00000c84       ??_C@_07OEHJJJKF@RTP?1AVP?$AA@ 0050fc84     pjmedia-i386-win32-vc8-debug:endpoint.obj
 0003:00000c90       ??_C@_03NNAHIIJB@IP6?$AA@  0050fc90     pjmedia-i386-win32-vc8-debug:endpoint.obj
 0003:00000c94       ??_C@_03OPDBOKBD@IP4?$AA@  0050fc94     pjmedia-i386-win32-vc8-debug:endpoint.obj
 0003:00000c98       ??_C@_02BBAPPCCJ@IN?$AA@   0050fc98     pjmedia-i386-win32-vc8-debug:endpoint.obj
 0003:00000c9c       ??_C@_05BPFJLLEL@video?$AA@ 0050fc9c     pjmedia-i386-win32-vc8-debug:endpoint.obj
 0003:00000ca4       ??_C@_05KNIAAKIP@audio?$AA@ 0050fca4     pjmedia-i386-win32-vc8-debug:endpoint.obj
 0003:00000cf8       ??_C@_05CECBHAPI@media?$AA@ 0050fcf8     pjmedia-i386-win32-vc8-debug:endpoint.obj
 0003:00000d00       ??_C@_0L@DLFDMOGF@endpoint?4c?$AA@ 0050fd00     pjmedia-i386-win32-vc8-debug:endpoint.obj
 0003:00000d10       ??_C@_0EL@BIFHLACC@Warning?3?5no?5worker?5thread?5is?5cre@ 0050fd10     pjmedia-i386-win32-vc8-debug:endpoint.obj
 0003:00000d6c       ??_C@_07LBNDIDNE@med?9ept?$AA@ 0050fd6c     pjmedia-i386-win32-vc8-debug:endpoint.obj
 0003:00000d78       ??_C@_1CC@JIGJPFHP@?$AAw?$AAo?$AAr?$AAk?$AAe?$AAr?$AA_?$AAc?$AAn?$AAt?$AA?5?$AA?$DM?$AA?$DN?$AA?5?$AA1?$AA6?$AA?$AA@ 0050fd78     pjmedia-i386-win32-vc8-debug:endpoint.obj
 0003:00000da0       ??_C@_1BM@OGBIIDDA@?$AAp?$AAf?$AA?5?$AA?$CG?$AA?$CG?$AA?5?$AAp?$AA_?$AAe?$AAn?$AAd?$AAp?$AAt?$AA?$AA@ 0050fda0     pjmedia-i386-win32-vc8-debug:endpoint.obj
 0003:00000dc8       ??_C@_1GM@FPBIKOEH@?$AAd?$AA?3?$AA?2?$AAm?$AAy?$AAg?$AAi?$AAt?$AA?2?$AAp?$AAj?$AAp?$AAr?$AAo?$AAj?$AAe?$AAc?$AAt?$AA?9?$AA1?$AA?4?$AA4?$AA?2?$AAp?$AAj?$AAm?$AAe?$AAd?$AAi?$AAa?$AA?2?$AAs@ 0050fdc8     pjmedia-i386-win32-vc8-debug:endpoint.obj
 0003:00000e4c       ??_C@_1M@EACLICAA@?$AAe?$AAn?$AAd?$AAp?$AAt?$AA?$AA@ 0050fe4c     pjmedia-i386-win32-vc8-debug:endpoint.obj
 0003:00000e5c       ??_C@_1DE@FPNJNJGM@?$AAi?$AAn?$AAd?$AAe?$AAx?$AA?5?$AA?$DM?$AA?5?$AAe?$AAn?$AAd?$AAp?$AAt?$AA?9?$AA?$DO?$AAt?$AAh?$AAr?$AAe?$AAa?$AAd?$AA_?$AAc?$AAn?$AAt?$AA?$AA@ 0050fe5c     pjmedia-i386-win32-vc8-debug:endpoint.obj
 0003:00000e9c       ??_C@_1CK@LGNMMEDO@?$AAe?$AAn?$AAd?$AAp?$AAt?$AA?5?$AA?$CB?$AA?$DN?$AA?5?$AA?$CI?$AA?$CI?$AAv?$AAo?$AAi?$AAd?$AA?5?$AA?$CK?$AA?$CJ?$AA0?$AA?$CJ?$AA?$AA@ 0050fe9c     pjmedia-i386-win32-vc8-debug:endpoint.obj
 0003:00000ed0       ??_C@_08NICIEFBJ@101?50?915?$AA@ 0050fed0     pjmedia-i386-win32-vc8-debug:endpoint.obj
 0003:00000edc       ??_C@_0BJ@OLBFBHHG@101?5telephone?9event?18000?$AA@ 0050fedc     pjmedia-i386-win32-vc8-debug:endpoint.obj
 0003:00000efc       ??_C@_06NPGDLJKE@rtpmap?$AA@ 0050fefc     pjmedia-i386-win32-vc8-debug:endpoint.obj
 0003:00000f04       ??_C@_03HEBKFNAF@101?$AA@  0050ff04     pjmedia-i386-win32-vc8-debug:endpoint.obj
 0003:00000f08       ??_C@_04JKCEBMKL@fmtp?$AA@ 0050ff08     pjmedia-i386-win32-vc8-debug:endpoint.obj
 0003:00000f10       ??_C@_04EBNJJJJI@?$CF?4?$CKs?$AA@ 0050ff10     pjmedia-i386-win32-vc8-debug:endpoint.obj
 0003:00000f18       ??_C@_09IKOEDHAN@?$CF?4?$CKs?$DN?$CF?4?$CKs?$AA@ 0050ff18     pjmedia-i386-win32-vc8-debug:endpoint.obj
 0003:00000f24       ??_C@_01ICJEACDI@?$DL?$AA@ 0050ff24     pjmedia-i386-win32-vc8-debug:endpoint.obj
 0003:00000f28       ??_C@_01CLKCMJKC@?5?$AA@   0050ff28     pjmedia-i386-win32-vc8-debug:endpoint.obj
 0003:00000f2c       ??_C@_02DPKJAMEF@?$CFd?$AA@ 0050ff2c     pjmedia-i386-win32-vc8-debug:endpoint.obj
 0003:00000f30       ??_C@_1DK@OFJDILED@?$AAc?$AAo?$AAd?$AAe?$AAc?$AA_?$AAi?$AAn?$AAf?$AAo?$AA?9?$AA?$DO?$AAc?$AAh?$AAa?$AAn?$AAn?$AAe?$AAl?$AA_?$AAc?$AAn?$AAt?$AA?5?$AA?$DM?$AA?5?$AA1?$AA0?$AA?$AA@ 0050ff30     pjmedia-i386-win32-vc8-debug:endpoint.obj
 0003:00000f78       ??_C@_1DE@IHJPNLLP@?$AA?$CB?$AA?$CC?$AAI?$AAn?$AAv?$AAa?$AAl?$AAi?$AAd?$AA?5?$AAa?$AAd?$AAd?$AAr?$AAe?$AAs?$AAs?$AA?5?$AAf?$AAa?$AAm?$AAi?$AAl?$AAy?$AA?$CC?$AA?$AA@ 0050ff78     pjmedia-i386-win32-vc8-debug:endpoint.obj
 0003:00000fb8       ??_C@_0BH@FKKILFGM@Invalid?5address?5family?$AA@ 0050ffb8     pjmedia-i386-win32-vc8-debug:endpoint.obj
 0003:00000fd4       ??_C@_01JOAMLHOP@?9?$AA@   0050ffd4     pjmedia-i386-win32-vc8-debug:endpoint.obj
 0003:00000fd8       ??_C@_1EC@FHIDABHP@?$AAe?$AAn?$AAd?$AAp?$AAt?$AA?9?$AA?$DO?$AAc?$AAo?$AAd?$AAe?$AAc?$AA_?$AAm?$AAg?$AAr?$AA?4?$AAc?$AAo?$AAd?$AAe?$AAc?$AA_?$AAc?$AAn?$AAt?$AA?5?$AA?$DM?$AA?$DN?$AA?5?$AA3?$AA2@ 0050ffd8     pjmedia-i386-win32-vc8-debug:endpoint.obj
 0003:00001028       ??_C@_1EK@OMFKIODI@?$AAe?$AAn?$AAd?$AAp?$AAt?$AA?5?$AA?$CG?$AA?$CG?$AA?5?$AAp?$AAo?$AAo?$AAl?$AA?5?$AA?$CG?$AA?$CG?$AA?5?$AAp?$AA_?$AAs?$AAd?$AAp?$AA?5?$AA?$CG?$AA?$CG?$AA?5?$AAs?$AAt?$AAr?$AAe?$AAa?$AAm@ 00510028     pjmedia-i386-win32-vc8-debug:endpoint.obj
 0003:00001080       ??_C@_0EA@ILGHOPII@?5?5?5?$CFs?5codec?5?$CD?$CF2d?3?5pt?$DN?$CFd?5?$CI?$CF?4?$CKs?5?$EA?$CF@ 00510080     pjmedia-i386-win32-vc8-debug:endpoint.obj
 0003:000010cc       ??_C@_04POMMNHBC@?5vad?$AA@ 005100cc     pjmedia-i386-win32-vc8-debug:endpoint.obj
 0003:000010d4       ??_C@_04LJHKGEEB@?5cng?$AA@ 005100d4     pjmedia-i386-win32-vc8-debug:endpoint.obj
 0003:000010dc       ??_C@_04JMDOINFK@?5plc?$AA@ 005100dc     pjmedia-i386-win32-vc8-debug:endpoint.obj
 0003:000010e4       ??_C@_05FDNGLLBB@?5penh?$AA@ 005100e4     pjmedia-i386-win32-vc8-debug:endpoint.obj
 0003:000010eb       ??_C@_00CNPNBAHC@?$AA@     005100eb     pjmedia-i386-win32-vc8-debug:endpoint.obj
 0003:000010ec       ??_C@_09FOKECCNG@?5disabled?$AA@ 005100ec     pjmedia-i386-win32-vc8-debug:endpoint.obj
 0003:000010f8       ??_C@_0N@DGOCBNGP@Unknown?5type?$AA@ 005100f8     pjmedia-i386-win32-vc8-debug:endpoint.obj
 0003:00001108       ??_C@_05BIPFLOHN@Video?$AA@ 00510108     pjmedia-i386-win32-vc8-debug:endpoint.obj
 0003:00001110       ??_C@_05KKCMAPLJ@Audio?$AA@ 00510110     pjmedia-i386-win32-vc8-debug:endpoint.obj
 0003:00001118       ??_C@_0CH@IFCBLLJF@?5?5Total?5number?5of?5installed?5code@ 00510118     pjmedia-i386-win32-vc8-debug:endpoint.obj
 0003:00001148       ??_C@_0BP@LIKCCMEP@?5?9error?3?5failed?5to?5enum?5codecs?$AA@ 00510148     pjmedia-i386-win32-vc8-debug:endpoint.obj
 0003:00001170       ??_C@_0BO@DJCACKHJ@Dumping?5PJMEDIA?5capabilities?3?$AA@ 00510170     pjmedia-i386-win32-vc8-debug:endpoint.obj
 0003:00001194       ??_C@_08LMNIIOKA@?$CFd?4?$CF02dM?$AA@ 00510194     pjmedia-i386-win32-vc8-debug:endpoint.obj
 0003:000011a0       ??_C@_06NJDNEAKN@?$CFd?4?$CFdK?$AA@ 005101a0     pjmedia-i386-win32-vc8-debug:endpoint.obj
 0003:000011a8       ??_C@_03FABGEMFG@AEC?$AA@  005101a8     pjmedia-i386-win32-vc8-debug:echo_common.obj
 0003:000011ac       ??_C@_0BA@LPBIANE@Echo?5suppressor?$AA@ 005101ac     pjmedia-i386-win32-vc8-debug:echo_common.obj
 0003:000011c0       ??_C@_0FO@FCNNBEFH@?$CFs?5created?0?5clock_rate?$DN?$CFd?0?5chann@ 005101c0     pjmedia-i386-win32-vc8-debug:echo_common.obj
 0003:00001230       ??_C@_0M@KMDBLPFK@Creating?5?$CFs?$AA@ 00510230     pjmedia-i386-win32-vc8-debug:echo_common.obj
 0003:00001240       ??_C@_04FACFFFMP@ec?$CFp?$AA@ 00510240     pjmedia-i386-win32-vc8-debug:echo_common.obj
 0003:00001248       ??_C@_0BM@HOHFIKPJ@Latency?5bufferring?5complete?$AA@ 00510248     pjmedia-i386-win32-vc8-debug:echo_common.obj
 0003:0000126c       ??_C@_0DF@ENONGENO@No?5frame?5from?5delay?5buffer?4?5This@ 0051026c     pjmedia-i386-win32-vc8-debug:echo_common.obj
 0003:000012ac       ??_C@_0O@DBBHABPM@Prefetching?4?4?$AA@ 005102ac     pjmedia-i386-win32-vc8-debug:echo_common.obj
 0003:000012bc       ??_C@_03CPEGOAOM@pcm?$AA@  005102bc     pjmedia-i386-win32-vc8-debug:port.obj
 0003:000012c0       ??_C@_1BM@GBCEPKLE@?$AAp?$AAo?$AAr?$AAt?$AA?5?$AA?$CG?$AA?$CG?$AA?5?$AAf?$AAr?$AAa?$AAm?$AAe?$AA?$AA@ 005102c0     pjmedia-i386-win32-vc8-debug:port.obj
 0003:000012e8       ??_C@_1GE@NJONMOP@?$AAd?$AA?3?$AA?2?$AAm?$AAy?$AAg?$AAi?$AAt?$AA?2?$AAp?$AAj?$AAp?$AAr?$AAo?$AAj?$AAe?$AAc?$AAt?$AA?9?$AA1?$AA?4?$AA4?$AA?2?$AAp?$AAj?$AAm?$AAe?$AAd?$AAi?$AAa?$AA?2?$AAs@ 005102e8     pjmedia-i386-win32-vc8-debug:port.obj
 0003:00001360       ??_C@_19EBEADLAH@?$AAp?$AAo?$AAr?$AAt?$AA?$AA@ 00510360     pjmedia-i386-win32-vc8-debug:port.obj
 0003:0000136c       ??_C@_0N@MCLOBLAH@wav_writer?4c?$AA@ 0051036c     pjmedia-i386-win32-vc8-debug:wav_writer.obj
 0003:0000137c       ??_C@_0DH@EDIEAILI@File?5writer?5?8?$CF?4?$CKs?8?5created?3?5samp@ 0051037c     pjmedia-i386-win32-vc8-debug:wav_writer.obj
 0003:000013c0       ??_C@_1GG@JAFBABDH@?$AAf?$AAp?$AAo?$AAr?$AAt?$AA?9?$AA?$DO?$AAb?$AAu?$AAf?$AAs?$AAi?$AAz?$AAe?$AA?5?$AA?$DO?$AA?$DN?$AA?5?$AAf?$AAp?$AAo?$AAr?$AAt?$AA?9?$AA?$DO?$AAb?$AAa?$AAs?$AAe?$AA?4?$AAi?$AAn@ 005103c0     pjmedia-i386-win32-vc8-debug:wav_writer.obj
 0003:0000143c       ??_C@_1CK@FOBDPJMG@?$AAf?$AAp?$AAo?$AAr?$AAt?$AA?5?$AA?$CB?$AA?$DN?$AA?5?$AA?$CI?$AA?$CI?$AAv?$AAo?$AAi?$AAd?$AA?5?$AA?$CK?$AA?$CJ?$AA0?$AA?$CJ?$AA?$AA@ 0051043c     pjmedia-i386-win32-vc8-debug:wav_writer.obj
 0003:00001470       ??_C@_1CM@FGHFKMMF@?$AAb?$AAi?$AAt?$AAs?$AA_?$AAp?$AAe?$AAr?$AA_?$AAs?$AAa?$AAm?$AAp?$AAl?$AAe?$AA?5?$AA?$DN?$AA?$DN?$AA?5?$AA1?$AA6?$AA?$AA@ 00510470     pjmedia-i386-win32-vc8-debug:wav_writer.obj
 0003:000014a4       ??_C@_1DG@FDMGAKIN@?$AAp?$AAo?$AAo?$AAl?$AA?5?$AA?$CG?$AA?$CG?$AA?5?$AAf?$AAi?$AAl?$AAe?$AAn?$AAa?$AAm?$AAe?$AA?5?$AA?$CG?$AA?$CG?$AA?5?$AAp?$AA_?$AAp?$AAo?$AAr?$AAt?$AA?$AA@ 005104a4     pjmedia-i386-win32-vc8-debug:wav_writer.obj
 0003:000014e8       ??_C@_1HA@DDJOMAFJ@?$AAd?$AA?3?$AA?2?$AAm?$AAy?$AAg?$AAi?$AAt?$AA?2?$AAp?$AAj?$AAp?$AAr?$AAo?$AAj?$AAe?$AAc?$AAt?$AA?9?$AA1?$AA?4?$AA4?$AA?2?$AAp?$AAj?$AAm?$AAe?$AAd?$AAi?$AAa?$AA?2?$AAs@ 005104e8     pjmedia-i386-win32-vc8-debug:wav_writer.obj
 0003:00001570       ??_C@_1HG@NIHCKNAK@?$AAp?$AAo?$AAr?$AAt?$AA?9?$AA?$DO?$AAi?$AAn?$AAf?$AAo?$AA?4?$AAs?$AAi?$AAg?$AAn?$AAa?$AAt?$AAu?$AAr?$AAe?$AA?5?$AA?$DN?$AA?$DN?$AA?5?$AA?$CI?$AA?8?$AAF?$AA?8?$AA?$DM?$AA?$DM?$AA2?$AA4@ 00510570     pjmedia-i386-win32-vc8-debug:wav_writer.obj
 0003:00001600       ??_C@_1BG@LGJCGAEO@?$AAp?$AAo?$AAr?$AAt?$AA?5?$AA?$CG?$AA?$CG?$AA?5?$AAc?$AAb?$AA?$AA@ 00510600     pjmedia-i386-win32-vc8-debug:wav_writer.obj
 0003:00001620       ??_C@_1HA@DLDPHCKI@?$AAf?$AAp?$AAo?$AAr?$AAt?$AA?9?$AA?$DO?$AAw?$AAr?$AAi?$AAt?$AAe?$AAp?$AAo?$AAs?$AA?$CL?$AAf?$AAr?$AAa?$AAm?$AAe?$AA_?$AAs?$AAi?$AAz?$AAe?$AA?5?$AA?$DM?$AA?$DN?$AA?5?$AAf?$AAp@ 00510620     pjmedia-i386-win32-vc8-debug:wav_writer.obj
 0003:000016a8       ??_C@_1BI@MDCHJGIP@?$AAs?$AAt?$AAa?$AAt?$AAu?$AAs?$AA?5?$AA?$DN?$AA?$DN?$AA?5?$AA0?$AA?$AA@ 005106a8     pjmedia-i386-win32-vc8-debug:wav_writer.obj
 0003:000016c8       ??_C@_0EO@KJDBHFL@File?5player?5?8?$CF?4?$CKs?8?5created?3?5samp@ 005106c8     pjmedia-i386-win32-vc8-debug:wav_player.obj
 0003:00001728       ??_C@_0N@EAJPAIGO@wav_player?4c?$AA@ 00510728     pjmedia-i386-win32-vc8-debug:wav_player.obj
 0003:00001738       ??_C@_0DH@CJCCJAOK@actual?5value?$HMexpected?5riff?$DN?$CFx?$HM?$CFx@ 00510738     pjmedia-i386-win32-vc8-debug:wav_player.obj
 0003:00001780       ??_C@_1HA@LJODBNNA@?$AAd?$AA?3?$AA?2?$AAm?$AAy?$AAg?$AAi?$AAt?$AA?2?$AAp?$AAj?$AAp?$AAr?$AAo?$AAj?$AAe?$AAc?$AAt?$AA?9?$AA1?$AA?4?$AA4?$AA?2?$AAp?$AAj?$AAm?$AAe?$AAd?$AAi?$AAa?$AA?2?$AAs@ 00510780     pjmedia-i386-win32-vc8-debug:wav_player.obj
 0003:00001808       ??_C@_04DAMGJPCA@file?$AA@ 00510808     pjmedia-i386-win32-vc8-debug:wav_player.obj
 0003:00001810       ??_C@_1HG@FBHMAFPB@?$AAp?$AAo?$AAr?$AAt?$AA?9?$AA?$DO?$AAi?$AAn?$AAf?$AAo?$AA?4?$AAs?$AAi?$AAg?$AAn?$AAa?$AAt?$AAu?$AAr?$AAe?$AA?5?$AA?$DN?$AA?$DN?$AA?5?$AA?$CI?$AA?8?$AAF?$AA?8?$AA?$DM?$AA?$DM?$AA2?$AA4@ 00510810     pjmedia-i386-win32-vc8-debug:wav_player.obj
 0003:000018a0       ??_C@_1FC@HFLKGOHP@?$AAb?$AAy?$AAt?$AAe?$AAs?$AA?5?$AA?$DM?$AA?5?$AAf?$AAp?$AAo?$AAr?$AAt?$AA?9?$AA?$DO?$AAf?$AAs?$AAi?$AAz?$AAe?$AA?5?$AA?9?$AA?5?$AAf?$AAp?$AAo?$AAr?$AAt?$AA?9?$AA?$DO?$AAs?$AAt@ 005108a0     pjmedia-i386-win32-vc8-debug:wav_player.obj
 0003:00001908       ??_C@_1LG@MPLAFCEO@?$AAf?$AAp?$AAo?$AAr?$AAt?$AA?9?$AA?$DO?$AAf?$AAm?$AAt?$AA_?$AAt?$AAa?$AAg?$AA?5?$AA?$DN?$AA?$DN?$AA?5?$AAP?$AAJ?$AAM?$AAE?$AAD?$AAI?$AAA?$AA_?$AAW?$AAA?$AAV?$AAE?$AA_?$AAF@ 00510908     pjmedia-i386-win32-vc8-debug:wav_player.obj
 0003:000019e4       ??_C@_0BL@OHCCHMIC@File?5port?5?$CF?4?$CKs?5rewinding?4?4?$AA@ 005109e4     pjmedia-i386-win32-vc8-debug:wav_player.obj
 0003:00001a04       ??_C@_0BD@LPPPNKOC@File?5port?5?$CF?4?$CKs?5EOF?$AA@ 00510a04     pjmedia-i386-win32-vc8-debug:wav_player.obj
 0003:00001a1c       ??_C@_1DM@GNICMNHP@?$AAf?$AAr?$AAa?$AAm?$AAe?$AA?9?$AA?$DO?$AAs?$AAi?$AAz?$AAe?$AA?5?$AA?$DM?$AA?$DN?$AA?5?$AAf?$AAp?$AAo?$AAr?$AAt?$AA?9?$AA?$DO?$AAb?$AAu?$AAf?$AAs?$AAi?$AAz?$AAe?$AA?$AA@ 00510a1c     pjmedia-i386-win32-vc8-debug:wav_player.obj
 0003:00001a68       ??_C@_1IC@DMHCIENA@?$AAf?$AAp?$AAo?$AAr?$AAt?$AA?9?$AA?$DO?$AAb?$AAa?$AAs?$AAe?$AA?4?$AAi?$AAn?$AAf?$AAo?$AA?4?$AAs?$AAi?$AAg?$AAn?$AAa?$AAt?$AAu?$AAr?$AAe?$AA?5?$AA?$DN?$AA?$DN?$AA?5?$AA?$CI?$AA?8@ 00510a68     pjmedia-i386-win32-vc8-debug:wav_player.obj
 0003:00001b08       ??_C@_1IA@NAOIJECF@?$AAt?$AAh?$AAi?$AAs?$AA_?$AAp?$AAo?$AAr?$AAt?$AA?9?$AA?$DO?$AAi?$AAn?$AAf?$AAo?$AA?4?$AAs?$AAi?$AAg?$AAn?$AAa?$AAt?$AAu?$AAr?$AAe?$AA?5?$AA?$DN?$AA?$DN?$AA?5?$AA?$CI?$AA?8?$AAF@ 00510b08     pjmedia-i386-win32-vc8-debug:wav_player.obj
 0003:00001ba4       ??_C@_09GLMNEMC@codec?9mgr?$AA@ 00510ba4     pjmedia-i386-win32-vc8-debug:codec.obj
 0003:00001bb0       ??_C@_1BE@KDGOHEJD@?$AAm?$AAg?$AAr?$AA?5?$AA?$CG?$AA?$CG?$AA?5?$AAp?$AAf?$AA?$AA@ 00510bb0     pjmedia-i386-win32-vc8-debug:codec.obj
 0003:00001bc8       ??_C@_1GG@JKOIMCIH@?$AAd?$AA?3?$AA?2?$AAm?$AAy?$AAg?$AAi?$AAt?$AA?2?$AAp?$AAj?$AAp?$AAr?$AAo?$AAj?$AAe?$AAc?$AAt?$AA?9?$AA1?$AA?4?$AA4?$AA?2?$AAp?$AAj?$AAm?$AAe?$AAd?$AAi?$AAa?$AA?2?$AAs@ 00510bc8     pjmedia-i386-win32-vc8-debug:codec.obj
 0003:00001c44       ??_C@_1DO@EEIIFHKJ@?$AAm?$AAg?$AAr?$AA?9?$AA?$DO?$AAc?$AAo?$AAd?$AAe?$AAc?$AA_?$AAd?$AAe?$AAs?$AAc?$AA?$FL?$AAi?$AA?$FN?$AA?4?$AAp?$AAa?$AAr?$AAa?$AAm?$AA?9?$AA?$DO?$AAp?$AAo?$AAo?$AAl?$AA?$AA@ 00510c44     pjmedia-i386-win32-vc8-debug:codec.obj
 0003:00001c90       ??_C@_17FPEMCAJ@?$AAm?$AAg?$AAr?$AA?$AA@ 00510c90     pjmedia-i386-win32-vc8-debug:codec.obj
 0003:00001c9c       ??_C@_1BO@BNPCENCC@?$AAm?$AAg?$AAr?$AA?5?$AA?$CG?$AA?$CG?$AA?5?$AAf?$AAa?$AAc?$AAt?$AAo?$AAr?$AAy?$AA?$AA@ 00510c9c     pjmedia-i386-win32-vc8-debug:codec.obj
 0003:00001cc0       ??_C@_1CO@FACHMPOK@?$AAm?$AAg?$AAr?$AA?5?$AA?$CG?$AA?$CG?$AA?5?$AAc?$AAo?$AAu?$AAn?$AAt?$AA?5?$AA?$CG?$AA?$CG?$AA?5?$AAc?$AAo?$AAd?$AAe?$AAc?$AAs?$AA?$AA@ 00510cc0     pjmedia-i386-win32-vc8-debug:codec.obj
 0003:00001cf8       ??_C@_1EE@JECMOLIN@?$AAm?$AAg?$AAr?$AA?5?$AA?$CG?$AA?$CG?$AA?5?$AAp?$AA_?$AAi?$AAn?$AAf?$AAo?$AA?5?$AA?$CG?$AA?$CG?$AA?5?$AAp?$AAt?$AA?$DO?$AA?$DN?$AA0?$AA?5?$AA?$CG?$AA?$CG?$AA?5?$AAp?$AAt?$AA?5?$AA?$DM?$AA?5?$AA9@ 00510cf8     pjmedia-i386-win32-vc8-debug:codec.obj
 0003:00001d4c       ??_C@_0L@MMBOMEDE@?$CF?4?$CKs?1?$CFu?1?$CFu?$AA@ 00510d4c     pjmedia-i386-win32-vc8-debug:codec.obj
 0003:00001d5c       ??_C@_1CM@NHECEOC@?$AAi?$AAn?$AAf?$AAo?$AA?5?$AA?$CG?$AA?$CG?$AA?5?$AAi?$AAd?$AA?5?$AA?$CG?$AA?$CG?$AA?5?$AAm?$AAa?$AAx?$AA_?$AAl?$AAe?$AAn?$AA?$AA@ 00510d5c     pjmedia-i386-win32-vc8-debug:codec.obj
 0003:00001d90       ??_C@_1EG@PNDDPIBP@?$AAm?$AAg?$AAr?$AA?5?$AA?$CG?$AA?$CG?$AA?5?$AAc?$AAo?$AAd?$AAe?$AAc?$AA_?$AAi?$AAd?$AA?5?$AA?$CG?$AA?$CG?$AA?5?$AAc?$AAo?$AAu?$AAn?$AAt?$AA?5?$AA?$CG?$AA?$CG?$AA?5?$AA?$CK?$AAc?$AAo?$AAu@ 00510d90     pjmedia-i386-win32-vc8-debug:codec.obj
 0003:00001de4       ??_C@_1CA@FGAKAPCG@?$AAm?$AAg?$AAr?$AA?5?$AA?$CG?$AA?$CG?$AA?5?$AAc?$AAo?$AAd?$AAe?$AAc?$AA_?$AAi?$AAd?$AA?$AA@ 00510de4     pjmedia-i386-win32-vc8-debug:codec.obj
 0003:00001e0c       ??_C@_1CO@PLEMIHIG@?$AAm?$AAg?$AAr?$AA?5?$AA?$CG?$AA?$CG?$AA?5?$AAi?$AAn?$AAf?$AAo?$AA?5?$AA?$CG?$AA?$CG?$AA?5?$AAp?$AA_?$AAc?$AAo?$AAd?$AAe?$AAc?$AA?$AA@ 00510e0c     pjmedia-i386-win32-vc8-debug:codec.obj
 0003:00001e44       ??_C@_1DC@MPIDFLIE@?$AAc?$AAo?$AAd?$AAe?$AAc?$AA_?$AAd?$AAe?$AAs?$AAc?$AA?9?$AA?$DO?$AAp?$AAa?$AAr?$AAa?$AAm?$AA?9?$AA?$DO?$AAp?$AAa?$AAr?$AAa?$AAm?$AA?$AA@ 00510e44     pjmedia-i386-win32-vc8-debug:codec.obj
 0003:00001e80       ??_C@_1CK@EGILOIOM@?$AAm?$AAg?$AAr?$AA?5?$AA?$CG?$AA?$CG?$AA?5?$AAi?$AAn?$AAf?$AAo?$AA?5?$AA?$CG?$AA?$CG?$AA?5?$AAp?$AAa?$AAr?$AAa?$AAm?$AA?$AA@ 00510e80     pjmedia-i386-win32-vc8-debug:codec.obj
 0003:00001eb4       ??_C@_1DA@EFFFDKKD@?$AAc?$AAo?$AAd?$AAe?$AAc?$AA_?$AAd?$AAe?$AAs?$AAc?$AA?9?$AA?$DO?$AAp?$AAa?$AAr?$AAa?$AAm?$AA?9?$AA?$DO?$AAp?$AAo?$AAo?$AAl?$AA?$AA@ 00510eb4     pjmedia-i386-win32-vc8-debug:codec.obj
 0003:00001ef0       ??_C@_1BI@PNBKIADI@?$AAm?$AAg?$AAr?$AA?5?$AA?$CG?$AA?$CG?$AA?5?$AAi?$AAn?$AAf?$AAo?$AA?$AA@ 00510ef0     pjmedia-i386-win32-vc8-debug:codec.obj
 0003:00001f0c       ??_C@_1BK@DFPPDNGI@?$AAm?$AAg?$AAr?$AA?5?$AA?$CG?$AA?$CG?$AA?5?$AAc?$AAo?$AAd?$AAe?$AAc?$AA?$AA@ 00510f0c     pjmedia-i386-win32-vc8-debug:codec.obj
 0003:00001f30       ??_C@_0EO@MOMMHEEA@Secure?5transport?5required?5in?5SDP@ 00510f30     pjmedia-i386-win32-vc8-debug:errno.obj
 0003:00001f90       ??_C@_0DM@OPHJDJCK@SRTP?5crypto?5attribute?5required?5?$CI@ 00510f90     pjmedia-i386-win32-vc8-debug:errno.obj
 0003:00001fd8       ??_C@_0EE@HKDIFKLN@Invalid?5SDP?5media?5transport?5for?5@ 00510fd8     pjmedia-i386-win32-vc8-debug:errno.obj
 0003:0000202c       ??_C@_0DH@JABOECDK@Invalid?5SRTP?5crypto?5tag?5?$CIPJMEDIA@ 0051102c     pjmedia-i386-win32-vc8-debug:errno.obj
 0003:00002070       ??_C@_0DK@EIEPDNB@Invalid?5SRTP?5crypto?5attribute?5?$CIP@ 00511070     pjmedia-i386-win32-vc8-debug:errno.obj
 0003:000020b8       ??_C@_0DL@PPDCJAFI@Duplicated?5SRTP?5crypto?5tag?5?$CIPJME@ 005110b8     pjmedia-i386-win32-vc8-debug:errno.obj
 0003:00002100       ??_C@_0DP@DNDEFJI@SRTP?5SDP?5contains?5ambigue?5answer@ 00511100     pjmedia-i386-win32-vc8-debug:errno.obj
 0003:0000214c       ??_C@_0DL@BINEGGLM@Unsupported?5SRTP?5crypto?9suite?5?$CIP@ 0051114c     pjmedia-i386-win32-vc8-debug:errno.obj
 0003:00002198       ??_C@_0EF@DCMAHBDI@Invalid?5SRTP?5key?5length?5for?5spec@ 00511198     pjmedia-i386-win32-vc8-debug:errno.obj
 0003:000021f0       ??_C@_0FA@HAKEALMK@SRTP?5crypto?9suite?5name?5not?5match@ 005111f0     pjmedia-i386-win32-vc8-debug:errno.obj
 0003:00002250       ??_C@_0EB@GAMOPGD@Invalid?5sample?5format?5for?5sound?5@ 00511250     pjmedia-i386-win32-vc8-debug:errno.obj
 0003:000022a0       ??_C@_0CO@FCJGKBG@Invalid?5sound?5device?5ID?5?$CIPJMEDIA@ 005112a0     pjmedia-i386-win32-vc8-debug:errno.obj
 0003:000022d8       ??_C@_0DH@NACBPKOD@No?5suitable?5sound?5playback?5devic@ 005112d8     pjmedia-i386-win32-vc8-debug:errno.obj
 0003:0000231c       ??_C@_0DF@PKIKHNPA@No?5suitable?5sound?5capture?5device@ 0051131c     pjmedia-i386-win32-vc8-debug:errno.obj
 0003:0000235c       ??_C@_0DP@HHAKLPGE@Sound?5frame?5too?5large?5for?5file?5b@ 0051135c     pjmedia-i386-win32-vc8-debug:errno.obj
 0003:000023a8       ??_C@_0CM@HKHLDPDN@WAVE?5file?5too?5short?5?$CIPJMEDIA_EWA@ 005113a8     pjmedia-i386-win32-vc8-debug:errno.obj
 0003:000023dc       ??_C@_0DD@FKNCKLNB@Unsupported?5WAVE?5file?5format?5?$CIPJ@ 005113dc     pjmedia-i386-win32-vc8-debug:errno.obj
 0003:0000241c       ??_C@_0CO@CKCFJDML@Not?5a?5valid?5WAVE?5file?5?$CIPJMEDIA_E@ 0051141c     pjmedia-i386-win32-vc8-debug:errno.obj
 0003:00002458       ??_C@_0EG@FBPNENMF@Media?5ports?5have?5incompatible?5nu@ 00511458     pjmedia-i386-win32-vc8-debug:errno.obj
 0003:000024b0       ??_C@_0EB@DHIDGGBD@Media?5ports?5have?5incompatible?5by@ 005114b0     pjmedia-i386-win32-vc8-debug:errno.obj
 0003:00002500       ??_C@_0EA@CDICINEI@Media?5ports?5have?5incompatible?5bi@ 00511500     pjmedia-i386-win32-vc8-debug:errno.obj
 0003:0000254c       ??_C@_0DL@FLCJCEPI@Media?5ports?5have?5incompatible?5me@ 0051154c     pjmedia-i386-win32-vc8-debug:errno.obj
 0003:00002598       ??_C@_0EL@KOIIKBFP@Media?5ports?5have?5incompatible?5sa@ 00511598     pjmedia-i386-win32-vc8-debug:errno.obj
 0003:000025f8       ??_C@_0EA@EJPEOGMK@Media?5ports?5have?5incompatible?5cl@ 005115f8     pjmedia-i386-win32-vc8-debug:errno.obj
 0003:00002644       ??_C@_0DI@MEKDIPIO@Media?5ports?5are?5not?5compatible?5?$CI@ 00511644     pjmedia-i386-win32-vc8-debug:errno.obj
 0003:00002688       ??_C@_0CO@BFKJOFNE@RTP?5is?5not?5configured?5?$CIPJMEDIA_R@ 00511688     pjmedia-i386-win32-vc8-debug:errno.obj
 0003:000026c0       ??_C@_0EE@PHAAOPAG@RTP?5media?5port?5destination?5is?5no@ 005116c0     pjmedia-i386-win32-vc8-debug:errno.obj
 0003:00002714       ??_C@_0DI@LFLLIJCB@Bad?5sequence?5number?5in?5RTP?5packe@ 00511714     pjmedia-i386-win32-vc8-debug:errno.obj
 0003:00002758       ??_C@_0DG@OPPFJBGL@RTP?5session?5in?5probation?5?$CIPJMEDI@ 00511758     pjmedia-i386-win32-vc8-debug:errno.obj
 0003:00002798       ??_C@_0DB@HLHLKEBJ@RTP?5session?5restarted?5?$CIPJMEDIA_R@ 00511798     pjmedia-i386-win32-vc8-debug:errno.obj
 0003:000027d4       ??_C@_0CP@OBFABIAL@Invalid?5RTP?5packet?5length?5?$CIPJMED@ 005117d4     pjmedia-i386-win32-vc8-debug:errno.obj
 0003:0000280c       ??_C@_0DF@KDOADJLK@RTP?5packet?5payload?5type?5mismatch@ 0051180c     pjmedia-i386-win32-vc8-debug:errno.obj
 0003:0000284c       ??_C@_0DC@PFPAEINL@RTP?5packet?5SSRC?5id?5mismatch?5?$CIPJM@ 0051184c     pjmedia-i386-win32-vc8-debug:errno.obj
 0003:00002888       ??_C@_0CJ@NGKNCMFA@Invalid?5RTP?5version?5?$CIPJMEDIA_RTP@ 00511888     pjmedia-i386-win32-vc8-debug:errno.obj
 0003:000028bc       ??_C@_0DL@KLDJIJLI@Invalid?5RTP?5packing?5?$CIinternal?5er@ 005118bc     pjmedia-i386-win32-vc8-debug:errno.obj
 0003:00002904       ??_C@_0CI@KDAMKHEL@Invalid?5RTP?5packet?5?$CIPJMEDIA_RTP_@ 00511904     pjmedia-i386-win32-vc8-debug:errno.obj
 0003:00002934       ??_C@_0DN@EHCPFJJN@Remote?5does?5not?5support?5RFC?52833@ 00511934     pjmedia-i386-win32-vc8-debug:errno.obj
 0003:00002980       ??_C@_0CJ@ECIKMCPH@Invalid?5DTMF?5digit?5?$CIPJMEDIA_RTP_@ 00511980     pjmedia-i386-win32-vc8-debug:errno.obj
 0003:000029b4       ??_C@_0DF@NNKPPHHC@Remote?5does?5not?5support?5DTMF?5?$CIPJ@ 005119b4     pjmedia-i386-win32-vc8-debug:errno.obj
 0003:000029f4       ??_C@_0CO@MJBLNMMI@Invalid?5media?5type?5?$CIPJMEDIA_EINV@ 005119f4     pjmedia-i386-win32-vc8-debug:errno.obj
 0003:00002a2c       ??_C@_0DN@IGGOEBDI@Missing?5rtpmap?5in?5media?5descript@ 00511a2c     pjmedia-i386-win32-vc8-debug:errno.obj
 0003:00002a78       ??_C@_0DA@DKJJFGPE@Invalid?5media?5payload?5type?5?$CIPJME@ 00511a78     pjmedia-i386-win32-vc8-debug:errno.obj
 0003:00002ab4       ??_C@_0DM@GBJMMNCF@Asymetric?5media?5codec?5is?5not?5sup@ 00511ab4     pjmedia-i386-win32-vc8-debug:errno.obj
 0003:00002afc       ??_C@_0DH@KOBKDDJI@Invalid?5remote?5media?5?$CIIP?$CJ?5addres@ 00511afc     pjmedia-i386-win32-vc8-debug:errno.obj
 0003:00002b40       ??_C@_0DG@EKMGLMFL@Invalid?5codec?5mode?5?$CIno?5fmtp?$DP?$CJ?5?$CIP@ 00511b40     pjmedia-i386-win32-vc8-debug:errno.obj
 0003:00002b80       ??_C@_0DG@LLBBCNCG@Invalid?5PCM?5frame?5length?5?$CIPJMEDI@ 00511b80     pjmedia-i386-win32-vc8-debug:errno.obj
 0003:00002bc0       ??_C@_0DF@JDAOLAOM@Invalid?5codec?5frame?5length?5?$CIPJME@ 00511bc0     pjmedia-i386-win32-vc8-debug:errno.obj
 0003:00002c00       ??_C@_0DE@OLKJHMCL@PCM?5frame?5is?5too?5short?5?$CIPJMEDIA_@ 00511c00     pjmedia-i386-win32-vc8-debug:errno.obj
 0003:00002c40       ??_C@_0DG@FOGENKNL@Codec?5frame?5is?5too?5short?5?$CIPJMEDI@ 00511c40     pjmedia-i386-win32-vc8-debug:errno.obj
 0003:00002c80       ??_C@_0DG@KJBEJCIE@Codec?5internal?5creation?5error?5?$CIP@ 00511c80     pjmedia-i386-win32-vc8-debug:errno.obj
 0003:00002cc0       ??_C@_0CP@ODMIIAEN@Unsupported?5media?5codec?5?$CIPJMEDIA@ 00511cc0     pjmedia-i386-win32-vc8-debug:errno.obj
 0003:00002cf8       ??_C@_0DE@PFJJJNGL@SDP?5time?5line?5not?5equal?5?$CIPJMEDIA@ 00511cf8     pjmedia-i386-win32-vc8-debug:errno.obj
 0003:00002d38       ??_C@_0DM@HCOBINN@SDP?5name?1subject?5line?5not?5equal?5@ 00511d38     pjmedia-i386-win32-vc8-debug:errno.obj
 0003:00002d80       ??_C@_0DI@BLKBMMGO@SDP?5origin?5line?5not?5equal?5?$CIPJMED@ 00511d80     pjmedia-i386-win32-vc8-debug:errno.obj
 0003:00002dc4       ??_C@_0DN@EALGPLFN@SDP?5session?5descriptor?5not?5equal@ 00511dc4     pjmedia-i386-win32-vc8-debug:errno.obj
 0003:00002e10       ??_C@_0DN@HLKACHFN@SDP?5rtpmap?5attribute?5not?5equal?5?$CI@ 00511e10     pjmedia-i386-win32-vc8-debug:errno.obj
 0003:00002e5c       ??_C@_0DJ@FFGHKCEG@SDP?5fmtp?5attribute?5not?5equal?5?$CIPJ@ 00511e5c     pjmedia-i386-win32-vc8-debug:errno.obj
 0003:00002ea0       ??_C@_0DJ@GGABIHGL@SDP?5media?5direction?5not?5equal?5?$CIP@ 00511ea0     pjmedia-i386-win32-vc8-debug:errno.obj
 0003:00002ee4       ??_C@_0DF@HHCJAGLJ@SDP?5attributes?5not?5equal?5?$CIPJMEDI@ 00511ee4     pjmedia-i386-win32-vc8-debug:errno.obj
 0003:00002f24       ??_C@_0DK@MAHAOAHF@SDP?5connection?5line?5not?5equal?5?$CIP@ 00511f24     pjmedia-i386-win32-vc8-debug:errno.obj
 0003:00002f70       ??_C@_0EH@FMIFCFBA@Format?5in?5SDP?5media?5descriptor?5n@ 00511f70     pjmedia-i386-win32-vc8-debug:errno.obj
 0003:00002fc8       ??_C@_0EJ@FJOJLJDF@Transport?5in?5SDP?5media?5descripto@ 00511fc8     pjmedia-i386-win32-vc8-debug:errno.obj
 0003:00003020       ??_C@_0ED@KAALGBMF@Port?5in?5SDP?5media?5descriptor?5not@ 00512020     pjmedia-i386-win32-vc8-debug:errno.obj
 0003:00003070       ??_C@_0DM@JMBBJEKO@SDP?5media?5descriptor?5not?5equal?5?$CI@ 00512070     pjmedia-i386-win32-vc8-debug:errno.obj
 0003:000030b8       ??_C@_0EK@LPNBCGHG@No?5suitable?5answer?5for?5unknown?5r@ 005120b8     pjmedia-i386-win32-vc8-debug:errno.obj
 0003:00003110       ??_C@_0EM@LLMPLGCO@No?5suitable?5telephone?9event?5for?5@ 00512110     pjmedia-i386-win32-vc8-debug:errno.obj
 0003:0000316c       ??_C@_0DP@KIMEPBPF@No?5suitable?5codec?5for?5remote?5off@ 0051216c     pjmedia-i386-win32-vc8-debug:errno.obj
 0003:000031b8       ??_C@_0ED@HELGJJGO@No?5active?5media?5stream?5after?5neg@ 005121b8     pjmedia-i386-win32-vc8-debug:errno.obj
 0003:00003208       ??_C@_0ED@NGHPALDD@No?5common?5SDP?5media?5payload?5in?5a@ 00512208     pjmedia-i386-win32-vc8-debug:errno.obj
 0003:00003258       ??_C@_0EN@OPFCIOMP@SDP?5media?5transport?5type?5mismatc@ 00512258     pjmedia-i386-win32-vc8-debug:errno.obj
 0003:000032b8       ??_C@_0EG@MJOIPNIH@SDP?5media?5type?5mismatch?5in?5offer@ 005122b8     pjmedia-i386-win32-vc8-debug:errno.obj
 0003:00003310       ??_C@_0EE@BLNHOMNC@SDP?5media?5count?5mismatch?5in?5offe@ 00512310     pjmedia-i386-win32-vc8-debug:errno.obj
 0003:00003364       ??_C@_0DN@JGPGLEOH@No?5current?5local?1remote?5offer?1an@ 00512364     pjmedia-i386-win32-vc8-debug:errno.obj
 0003:000033b0       ??_C@_0DL@MFMHOMBE@No?5active?5SDP?5in?5SDP?5negotiator?5@ 005123b0     pjmedia-i386-win32-vc8-debug:errno.obj
 0003:000033f8       ??_C@_0ED@IFOJJHNO@No?5initial?5local?5SDP?5in?5SDP?5nego@ 005123f8     pjmedia-i386-win32-vc8-debug:errno.obj
 0003:00003448       ??_C@_0EF@CJNFLCEL@Invalid?5SDP?5negotiator?5state?5for@ 00512448     pjmedia-i386-win32-vc8-debug:errno.obj
 0003:0000349c       ??_C@_0DM@JFGCNJLM@Invalid?5SDP?5media?5transport?5prot@ 0051249c     pjmedia-i386-win32-vc8-debug:errno.obj
 0003:000034e4       ??_C@_0DB@BKKJGGKM@Invalid?5SDP?5rtcp?5attribyte?5?$CIPJME@ 005124e4     pjmedia-i386-win32-vc8-debug:errno.obj
 0003:00003520       ??_C@_0DB@BJCACDID@Invalid?5SDP?5fmtp?5attribute?5?$CIPJME@ 00512520     pjmedia-i386-win32-vc8-debug:errno.obj
 0003:0000355c       ??_C@_0DL@KAILPDC@Invalid?5SDP?5payload?5type?5in?5medi@ 0051255c     pjmedia-i386-win32-vc8-debug:errno.obj
 0003:000035a4       ??_C@_0DN@GADAENKO@No?5SDP?5payload?5format?5in?5the?5med@ 005125a4     pjmedia-i386-win32-vc8-debug:errno.obj
 0003:000035f0       ??_C@_0CO@DIKFNJOF@Invalid?5SDP?5media?5line?5?$CIPJMEDIA_@ 005125f0     pjmedia-i386-win32-vc8-debug:errno.obj
 0003:00003628       ??_C@_0EJ@IDNJACOO@Missing?5SDP?5rtpmap?5for?5dynamic?5p@ 00512628     pjmedia-i386-win32-vc8-debug:errno.obj
 0003:00003680       ??_C@_0DL@HCOGNPAF@SDP?5rtpmap?5attribute?5too?5long?5?$CIP@ 00512680     pjmedia-i386-win32-vc8-debug:errno.obj
 0003:000036c8       ??_C@_0DF@BJAALDOM@Invalid?5SDP?5rtpmap?5attribute?5?$CIPJ@ 005126c8     pjmedia-i386-win32-vc8-debug:errno.obj
 0003:00003708       ??_C@_0CN@JHLMEODJ@Invalid?5SDP?5attributes?5?$CIPJMEDIA_@ 00512708     pjmedia-i386-win32-vc8-debug:errno.obj
 0003:00003740       ??_C@_0DM@NEDHCJGL@Missing?5SDP?5connection?5info?5line@ 00512740     pjmedia-i386-win32-vc8-debug:errno.obj
 0003:00003788       ??_C@_0DC@KNNPDHKA@Invalid?5SDP?5connection?5line?5?$CIPJM@ 00512788     pjmedia-i386-win32-vc8-debug:errno.obj
 0003:000037c4       ??_C@_0DF@HNDCDPJF@SDP?5name?1subject?5line?5is?5empty?5?$CI@ 005127c4     pjmedia-i386-win32-vc8-debug:errno.obj
 0003:00003804       ??_C@_0CM@DLEAGODI@Invalid?5SDP?5time?5line?5?$CIPJMEDIA_S@ 00512804     pjmedia-i386-win32-vc8-debug:errno.obj
 0003:00003838       ??_C@_0DA@DIKNJOEJ@Invalid?5SDP?5origin?5line?5?$CIPJMEDIA@ 00512838     pjmedia-i386-win32-vc8-debug:errno.obj
 0003:00003874       ??_C@_0CO@ONPCFICA@Invalid?5SDP?5version?5line?5?$CIPJMEDI@ 00512874     pjmedia-i386-win32-vc8-debug:errno.obj
 0003:000038ac       ??_C@_0CM@KFAONKNJ@Invalid?5SDP?5descriptor?5?$CIPJMEDIA_@ 005128ac     pjmedia-i386-win32-vc8-debug:errno.obj
 0003:000038e0       ??_C@_0CK@HBHLALIF@Unspecified?5PJMEDIA?5error?5?$CIPJMED@ 005128e0     pjmedia-i386-win32-vc8-debug:errno.obj
 0003:00003ca0       ??_C@_0BJ@JGEGOKIK@Unknown?5pjmedia?5error?5?$CFd?$AA@ 00512ca0     pjmedia-i386-win32-vc8-debug:errno.obj
 0003:00003cc0       ??_C@_08MPIAKENM@RTP?1SAVP?$AA@ 00512cc0     pjmedia-i386-win32-vc8-debug:sdp.obj
 0003:00003ce0       ??_C@_1BK@LHKKGLPP@?$AAp?$AAo?$AAo?$AAl?$AA?5?$AA?$CG?$AA?$CG?$AA?5?$AAn?$AAa?$AAm?$AAe?$AA?$AA@ 00512ce0     pjmedia-i386-win32-vc8-debug:sdp.obj
 0003:00003d00       ??_C@_1GC@EIEAHPHN@?$AAd?$AA?3?$AA?2?$AAm?$AAy?$AAg?$AAi?$AAt?$AA?2?$AAp?$AAj?$AAp?$AAr?$AAo?$AAj?$AAe?$AAc?$AAt?$AA?9?$AA1?$AA?4?$AA4?$AA?2?$AAp?$AAj?$AAm?$AAe?$AAd?$AAi?$AAa?$AA?2?$AAs@ 00512d00     pjmedia-i386-win32-vc8-debug:sdp.obj
 0003:00003d78       ??_C@_1BI@CECNPHHM@?$AAp?$AAo?$AAo?$AAl?$AA?5?$AA?$CG?$AA?$CG?$AA?5?$AAr?$AAh?$AAs?$AA?$AA@ 00512d78     pjmedia-i386-win32-vc8-debug:sdp.obj
 0003:00003d94       ??_C@_1CI@HFMGJFMC@?$AA?$CK?$AAc?$AAo?$AAu?$AAn?$AAt?$AA?5?$AA?$DM?$AA?5?$AA?$CI?$AA3?$AA2?$AA?$CK?$AA2?$AA?5?$AA?$CL?$AA?5?$AA4?$AA?$CJ?$AA?$AA@ 00512d94     pjmedia-i386-win32-vc8-debug:sdp.obj
 0003:00003dc4       ??_C@_1DI@HJCFDDCH@?$AAc?$AAo?$AAu?$AAn?$AAt?$AA?5?$AA?$CG?$AA?$CG?$AA?5?$AAa?$AAt?$AAt?$AAr?$AA_?$AAa?$AAr?$AAr?$AAa?$AAy?$AA?5?$AA?$CG?$AA?$CG?$AA?5?$AAa?$AAt?$AAt?$AAr?$AA?$AA@ 00512dc4     pjmedia-i386-win32-vc8-debug:sdp.obj
 0003:00003e08       ??_C@_1DI@FFGCGLJA@?$AAc?$AAo?$AAu?$AAn?$AAt?$AA?5?$AA?$CG?$AA?$CG?$AA?5?$AAa?$AAt?$AAt?$AAr?$AA_?$AAa?$AAr?$AAr?$AAa?$AAy?$AA?5?$AA?$CG?$AA?$CG?$AA?5?$AAn?$AAa?$AAm?$AAe?$AA?$AA@ 00512e08     pjmedia-i386-win32-vc8-debug:sdp.obj
 0003:00003e4c       ??_C@_1CI@KMDGDPGJ@?$AA?$CB?$AA?$CC?$AAS?$AAh?$AAo?$AAu?$AAl?$AAd?$AAn?$AA?8?$AAt?$AA?5?$AAh?$AAa?$AAp?$AAp?$AAe?$AAn?$AA?$CC?$AA?$AA@ 00512e4c     pjmedia-i386-win32-vc8-debug:sdp.obj
 0003:00003e7c       ??_C@_0BB@FMMFANH@Shouldn?8t?5happen?$AA@ 00512e7c     pjmedia-i386-win32-vc8-debug:sdp.obj
 0003:00003e90       ??_C@_1CM@JFDNFDJN@?$AAa?$AAt?$AAt?$AAr?$AA?9?$AA?$DO?$AAv?$AAa?$AAl?$AAu?$AAe?$AA?4?$AAs?$AAl?$AAe?$AAn?$AA?5?$AA?$CB?$AA?$DN?$AA?5?$AA0?$AA?$AA@ 00512e90     pjmedia-i386-win32-vc8-debug:sdp.obj
 0003:00003ec8       ??_C@_1EK@FJKEMOIA@?$AAp?$AAj?$AA_?$AAs?$AAt?$AAr?$AAc?$AAm?$AAp?$AA2?$AA?$CI?$AA?$CG?$AAa?$AAt?$AAt?$AAr?$AA?9?$AA?$DO?$AAn?$AAa?$AAm?$AAe?$AA?0?$AA?5?$AA?$CC?$AAr?$AAt?$AAp?$AAm?$AAa?$AAp?$AA?$CC@ 00512ec8     pjmedia-i386-win32-vc8-debug:sdp.obj
 0003:00003f20       ??_C@_0BC@KMLOGCBL@?$CB?$CD$?$CF?$CG?8?$CK?$CL?9?4?$FO_?$GA?$HL?$HM?$HN?$HO?$AA@ 00512f20     pjmedia-i386-win32-vc8-debug:sdp.obj
 0003:00003f38       ??_C@_1EG@MKFCNOBN@?$AAp?$AAj?$AA_?$AAs?$AAt?$AAr?$AAc?$AAm?$AAp?$AA2?$AA?$CI?$AA?$CG?$AAa?$AAt?$AAt?$AAr?$AA?9?$AA?$DO?$AAn?$AAa?$AAm?$AAe?$AA?0?$AA?5?$AA?$CC?$AAf?$AAm?$AAt?$AAp?$AA?$CC?$AA?$CJ?$AA?$DN@ 00512f38     pjmedia-i386-win32-vc8-debug:sdp.obj
 0003:00003f90       ??_C@_1EG@KJAHBMHP@?$AAp?$AAj?$AA_?$AAs?$AAt?$AAr?$AAc?$AAm?$AAp?$AA2?$AA?$CI?$AA?$CG?$AAa?$AAt?$AAt?$AAr?$AA?9?$AA?$DO?$AAn?$AAa?$AAm?$AAe?$AA?0?$AA?5?$AA?$CC?$AAr?$AAt?$AAc?$AAp?$AA?$CC?$AA?$CJ?$AA?$DN@ 00512f90     pjmedia-i386-win32-vc8-debug:sdp.obj
 0003:00003fe4       ??_C@_04DLDMIAAJ@rtcp?$AA@ 00512fe4     pjmedia-i386-win32-vc8-debug:sdp.obj
 0003:00003fec       ??_C@_1DM@IJIBEIIG@?$AA?$CB?$AA?$CC?$AAU?$AAn?$AAs?$AAu?$AAp?$AAp?$AAo?$AAr?$AAt?$AAe?$AAd?$AA?5?$AAa?$AAd?$AAd?$AAr?$AAe?$AAs?$AAs?$AA?5?$AAf?$AAa?$AAm?$AAi?$AAl?$AAy?$AA?$CC?$AA?$AA@ 00512fec     pjmedia-i386-win32-vc8-debug:sdp.obj
 0003:00004034       ??_C@_0BL@ILIKGEFL@Unsupported?5address?5family?$AA@ 00513034     pjmedia-i386-win32-vc8-debug:sdp.obj
 0003:00004054       ??_C@_0N@IAPMNKHK@?$CFu?5IN?5IP6?5?$CFs?$AA@ 00513054     pjmedia-i386-win32-vc8-debug:sdp.obj
 0003:00004064       ??_C@_0N@PKDMIJBK@?$CFu?5IN?5IP4?5?$CFs?$AA@ 00513064     pjmedia-i386-win32-vc8-debug:sdp.obj
 0003:00004074       ??_C@_1BE@LGFCOKD@?$AA?$CK?$AAp?$AA_?$AAr?$AAt?$AAp?$AAm?$AAa?$AAp?$AA?$AA@ 00513074     pjmedia-i386-win32-vc8-debug:sdp.obj
 0003:0000408c       ??_C@_1DC@MOOEGOAE@?$AAp?$AAo?$AAo?$AAl?$AA?5?$AA?$CG?$AA?$CG?$AA?5?$AAa?$AAt?$AAt?$AAr?$AA?5?$AA?$CG?$AA?$CG?$AA?5?$AAp?$AA_?$AAr?$AAt?$AAp?$AAm?$AAa?$AAp?$AA?$AA@ 0051308c     pjmedia-i386-win32-vc8-debug:sdp.obj
 0003:000040c8       ??_C@_0BD@HEFIBNKB@?$CF?4?$CKs?5?$CF?4?$CKs?1?$CFu?$CFs?$CF?4?$CKs?$AA@ 005130c8     pjmedia-i386-win32-vc8-debug:sdp.obj
 0003:000040e0       ??_C@_01KMDKNFGN@?1?$AA@   005130e0     pjmedia-i386-win32-vc8-debug:sdp.obj
 0003:000040e4       ??_C@_1CI@EPAHAEGD@?$AAa?$AAt?$AAt?$AAr?$AA?5?$AA?$CB?$AA?$DN?$AA?5?$AA?$CI?$AA?$CI?$AAv?$AAo?$AAi?$AAd?$AA?5?$AA?$CK?$AA?$CJ?$AA0?$AA?$CJ?$AA?$AA@ 005130e4     pjmedia-i386-win32-vc8-debug:sdp.obj
 0003:00004118       ??_C@_1FI@PEPMJPO@?$AAr?$AAt?$AAp?$AAm?$AAa?$AAp?$AA?9?$AA?$DO?$AAe?$AAn?$AAc?$AA_?$AAn?$AAa?$AAm?$AAe?$AA?4?$AAs?$AAl?$AAe?$AAn?$AA?5?$AA?$CG?$AA?$CG?$AA?5?$AAr?$AAt?$AAp?$AAm?$AAa?$AAp?$AA?9@ 00513118     pjmedia-i386-win32-vc8-debug:sdp.obj
 0003:00004184       ??_C@_1DC@EIKIHHHP@?$AAp?$AAo?$AAo?$AAl?$AA?5?$AA?$CG?$AA?$CG?$AA?5?$AAr?$AAt?$AAp?$AAm?$AAa?$AAp?$AA?5?$AA?$CG?$AA?$CG?$AA?5?$AAp?$AA_?$AAa?$AAt?$AAt?$AAr?$AA?$AA@ 00513184     pjmedia-i386-win32-vc8-debug:sdp.obj
 0003:000041c0       ??_C@_1DE@GHMIPEL@?$AAm?$AA?9?$AA?$DO?$AAa?$AAt?$AAt?$AAr?$AA?$FL?$AAi?$AA?$FN?$AA?5?$AA?$CB?$AA?$DN?$AA?5?$AA?$CI?$AA?$CI?$AAv?$AAo?$AAi?$AAd?$AA?5?$AA?$CK?$AA?$CJ?$AA0?$AA?$CJ?$AA?$AA@ 005131c0     pjmedia-i386-win32-vc8-debug:sdp.obj
 0003:00004200       ??_C@_1CO@IELLMBJI@?$AAm?$AA?9?$AA?$DO?$AAc?$AAo?$AAn?$AAn?$AA?5?$AA?$CB?$AA?$DN?$AA?5?$AA?$CI?$AA?$CI?$AAv?$AAo?$AAi?$AAd?$AA?5?$AA?$CK?$AA?$CJ?$AA0?$AA?$CJ?$AA?$AA@ 00513200     pjmedia-i386-win32-vc8-debug:sdp.obj
 0003:00004238       ??_C@_1CC@CMAOLAKC@?$AAm?$AA?5?$AA?$CB?$AA?$DN?$AA?5?$AA?$CI?$AA?$CI?$AAv?$AAo?$AAi?$AAd?$AA?5?$AA?$CK?$AA?$CJ?$AA0?$AA?$CJ?$AA?$AA@ 00513238     pjmedia-i386-win32-vc8-debug:sdp.obj
 0003:00004260       ??_C@_1BE@DGPNFPKO@?$AAm?$AA?5?$AA?$CG?$AA?$CG?$AA?5?$AAn?$AAa?$AAm?$AAe?$AA?$AA@ 00513260     pjmedia-i386-win32-vc8-debug:sdp.obj
 0003:00004278       ??_C@_1CI@FMGOBFFN@?$AAc?$AAt?$AAx?$AA?4?$AAl?$AAa?$AAs?$AAt?$AA_?$AAe?$AAr?$AAr?$AAo?$AAr?$AA?5?$AA?$CB?$AA?$DN?$AA?5?$AA0?$AA?$AA@ 00513278     pjmedia-i386-win32-vc8-debug:sdp.obj
 0003:000042a8       ??_C@_0CI@CAFHMKHI@Error?5parsing?5SDP?5in?5line?5?$CFd?5col@ 005132a8     pjmedia-i386-win32-vc8-debug:sdp.obj
 0003:000042d8       ??_C@_05LIAFADKM@sdp?4c?$AA@ 005132d8     pjmedia-i386-win32-vc8-debug:sdp.obj
 0003:000042e0       ??_C@_0CF@NCOGEPJF@Error?5adding?5media?0?5media?5is?5ign@ 005132e0     pjmedia-i386-win32-vc8-debug:sdp.obj
 0003:0000430c       ??_C@_1CO@HBFFMPPN@?$AAs?$AAe?$AAs?$AAs?$AAi?$AAo?$AAn?$AA?5?$AA?$CB?$AA?$DN?$AA?5?$AA?$CI?$AA?$CI?$AAv?$AAo?$AAi?$AAd?$AA?5?$AA?$CK?$AA?$CJ?$AA0?$AA?$CJ?$AA?$AA@ 0051330c     pjmedia-i386-win32-vc8-debug:sdp.obj
 0003:00004344       ??_C@_04HHCDBDLF@?5?7?$AN?6?$AA@ 00513344     pjmedia-i386-win32-vc8-debug:sdp.obj
 0003:0000434c       ??_C@_02PCIJFNDE@?$AN?6?$AA@ 0051334c     pjmedia-i386-win32-vc8-debug:sdp.obj
 0003:00004350       ??_C@_0DG@FMMLOIKL@Error?5adding?5SDP?5media?5format?5?$CF?4@ 00513350     pjmedia-i386-win32-vc8-debug:sdp.obj
 0003:00004390       ??_C@_08EHCGIGCO@recvonly?$AA@ 00513390     pjmedia-i386-win32-vc8-debug:sdp.obj
 0003:0000439c       ??_C@_08HPJEFADN@sendonly?$AA@ 0051339c     pjmedia-i386-win32-vc8-debug:sdp.obj
 0003:000043a8       ??_C@_08INHMCBAE@inactive?$AA@ 005133a8     pjmedia-i386-win32-vc8-debug:sdp.obj
 0003:000043b4       ??_C@_05MIOLEPMP@v?$DN0?$AN?6?$AA@ 005133b4     pjmedia-i386-win32-vc8-debug:sdp.obj
 0003:000043bc       ??_C@_0BD@NGNJPLJA@c?$DN?$CF?4?$CKs?5?$CF?4?$CKs?5?$CF?4?$CKs?$AN?6?$AA@ 005133bc     pjmedia-i386-win32-vc8-debug:sdp.obj
 0003:000043d4       ??_C@_1DE@KFDBFPOJ@?$AAs?$AAe?$AAs?$AAs?$AA?9?$AA?$DO?$AAc?$AAo?$AAn?$AAn?$AA?5?$AA?$CB?$AA?$DN?$AA?5?$AA?$CI?$AA?$CI?$AAv?$AAo?$AAi?$AAd?$AA?5?$AA?$CK?$AA?$CJ?$AA0?$AA?$CJ?$AA?$AA@ 005133d4     pjmedia-i386-win32-vc8-debug:sdp.obj
 0003:00004414       ??_C@_1CI@HOBAFJIC@?$AAs?$AAe?$AAs?$AAs?$AA?5?$AA?$CB?$AA?$DN?$AA?5?$AA?$CI?$AA?$CI?$AAv?$AAo?$AAi?$AAd?$AA?5?$AA?$CK?$AA?$CJ?$AA0?$AA?$CJ?$AA?$AA@ 00513414     pjmedia-i386-win32-vc8-debug:sdp.obj
 0003:00004444       ??_C@_13BHPHAPDN@?$AAm?$AA?$AA@ 00513444     pjmedia-i386-win32-vc8-debug:sdp.obj
 0003:00004448       ??_C@_1DO@OECGDPCF@?$AAe?$AAc?$AAh?$AAo?$AA?9?$AA?$DO?$AAt?$AAm?$AAp?$AA_?$AAf?$AAr?$AAa?$AAm?$AAe?$AA?5?$AA?$CB?$AA?$DN?$AA?5?$AA?$CI?$AA?$CI?$AAv?$AAo?$AAi?$AAd?$AA?5?$AA?$CK?$AA?$CJ?$AA0?$AA?$CJ?$AA?$AA@ 00513448     pjmedia-i386-win32-vc8-debug:echo_speex.obj
 0003:00004494       ??_C@_0N@MOFPDDJO@echo_speex?4c?$AA@ 00513494     pjmedia-i386-win32-vc8-debug:echo_speex.obj
 0003:000044a8       ??_C@_0EK@HDJKCMHE@Multichannel?5EC?5is?5not?5supported@ 005134a8     pjmedia-i386-win32-vc8-debug:echo_speex.obj
 0003:00004500       ??_C@_1CI@PJIDEBKE@?$AAe?$AAc?$AAh?$AAo?$AA?5?$AA?$CB?$AA?$DN?$AA?5?$AA?$CI?$AA?$CI?$AAv?$AAo?$AAi?$AAd?$AA?5?$AA?$CK?$AA?$CJ?$AA0?$AA?$CJ?$AA?$AA@ 00513500     pjmedia-i386-win32-vc8-debug:echo_speex.obj
 0003:00004530       ??_C@_1HA@OHCECIHE@?$AAd?$AA?3?$AA?2?$AAm?$AAy?$AAg?$AAi?$AAt?$AA?2?$AAp?$AAj?$AAp?$AAr?$AAo?$AAj?$AAe?$AAc?$AAt?$AA?9?$AA1?$AA?4?$AA4?$AA?2?$AAp?$AAj?$AAm?$AAe?$AAd?$AAi?$AAa?$AA?2?$AAs@ 00513530     pjmedia-i386-win32-vc8-debug:echo_speex.obj
 0003:000045b8       ??_C@_1CI@KLAOEAOO@?$AAe?$AAc?$AAh?$AAo?$AA?5?$AA?$CG?$AA?$CG?$AA?5?$AAe?$AAc?$AAh?$AAo?$AA?9?$AA?$DO?$AAs?$AAt?$AAa?$AAt?$AAe?$AA?$AA@ 005135b8     pjmedia-i386-win32-vc8-debug:echo_speex.obj
 0003:000045e8       ??_C@_1IG@KBIFAHBP@?$AAe?$AAc?$AAh?$AAo?$AA?5?$AA?$CG?$AA?$CG?$AA?5?$AAr?$AAe?$AAc?$AA_?$AAf?$AAr?$AAm?$AA?5?$AA?$CG?$AA?$CG?$AA?5?$AAp?$AAl?$AAa?$AAy?$AA_?$AAf?$AAr?$AAm?$AA?5?$AA?$CG?$AA?$CG?$AA?5?$AAo@ 005135e8     pjmedia-i386-win32-vc8-debug:echo_speex.obj
 0003:00004688       ??_C@_0P@NMIBKBFL@remote?5talking?$AA@ 00513688     pjmedia-i386-win32-vc8-debug:echo_suppress.obj
 0003:0000469c       ??_C@_0L@CAEADLDB@doubletalk?$AA@ 0051369c     pjmedia-i386-win32-vc8-debug:echo_suppress.obj
 0003:000046ac       ??_C@_0O@PIDDEHFL@remote?5silent?$AA@ 005136ac     pjmedia-i386-win32-vc8-debug:echo_suppress.obj
 0003:000046bc       ??_C@_0O@JMIHPEIP@local?5talking?$AA@ 005136bc     pjmedia-i386-win32-vc8-debug:echo_suppress.obj
 0003:000046cc       ??_C@_04KHKKIIL@Null?$AA@  005136cc     pjmedia-i386-win32-vc8-debug:echo_suppress.obj
 0003:000046d8       ??_C@_1FI@MAGEJIAJ@?$AAs?$AAa?$AAm?$AAp?$AAl?$AAe?$AAs?$AA_?$AAp?$AAe?$AAr?$AA_?$AAf?$AAr?$AAa?$AAm?$AAe?$AA?5?$AA?$DO?$AA?$DN?$AA?5?$AA1?$AA0?$AA?5?$AA?$CK?$AA?5?$AAc?$AAl?$AAo?$AAc?$AAk?$AA_@ 005136d8     pjmedia-i386-win32-vc8-debug:echo_suppress.obj
 0003:00004748       ??_C@_1HG@BNNADJGD@?$AAd?$AA?3?$AA?2?$AAm?$AAy?$AAg?$AAi?$AAt?$AA?2?$AAp?$AAj?$AAp?$AAr?$AAo?$AAj?$AAe?$AAc?$AAt?$AA?9?$AA1?$AA?4?$AA4?$AA?2?$AAp?$AAj?$AAm?$AAe?$AAd?$AAi?$AAa?$AA?2?$AAs@ 00513748     pjmedia-i386-win32-vc8-debug:echo_suppress.obj
 0003:000047d8       __real@3f800000            005137d8     pjmedia-i386-win32-vc8-debug:echo_suppress.obj
 0003:000047dc       __real@7efffff8            005137dc     pjmedia-i386-win32-vc8-debug:echo_suppress.obj
 0003:000047e0       __real@00000000            005137e0     pjmedia-i386-win32-vc8-debug:echo_suppress.obj
 0003:000047e4       ??_C@_0BA@GIJBCBML@echo_suppress?4c?$AA@ 005137e4     pjmedia-i386-win32-vc8-debug:echo_suppress.obj
 0003:000047f8       ??_C@_0CK@GILFEPIK@Echo?5suppressor?5soft?5reset?4?5Re?9l@ 005137f8     pjmedia-i386-win32-vc8-debug:echo_suppress.obj
 0003:00004830       __real@4004000000000000    00513830     pjmedia-i386-win32-vc8-debug:echo_suppress.obj
 0003:0000483c       ??_C@_0CC@OBLDMFND@Echo?5suppressor?5residue?5?$DN?5?$CFd?4?$CF03@ 0051383c     pjmedia-i386-win32-vc8-debug:echo_suppress.obj
 0003:00004868       __real@408f400000000000    00513868     pjmedia-i386-win32-vc8-debug:echo_suppress.obj
 0003:00004878       __real@4034000000000000    00513878     pjmedia-i386-win32-vc8-debug:echo_suppress.obj
 0003:00004888       __real@4033000000000000    00513888     pjmedia-i386-win32-vc8-debug:echo_suppress.obj
 0003:00004898       __real@4008000000000000    00513898     pjmedia-i386-win32-vc8-debug:echo_suppress.obj
 0003:000048a8       __real@4000000000000000    005138a8     pjmedia-i386-win32-vc8-debug:echo_suppress.obj
 0003:000048b4       ??_C@_17GIJBGODF@?$AAN?$AA?$DO?$AA0?$AA?$AA@ 005138b4     pjmedia-i386-win32-vc8-debug:echo_suppress.obj
 0003:000048c0       ??_C@_0FK@NODMKGEL@Echo?5suppressor?5learning?5done?5at@ 005138c0     pjmedia-i386-win32-vc8-debug:echo_suppress.obj
 0003:00004930       ??_C@_0FL@JMGHEEIK@Echo?5suppressor?5updated?5at?5t?$DN?$CF03@ 00513930     pjmedia-i386-win32-vc8-debug:echo_suppress.obj
 0003:000049a0       ??_C@_1CM@DHJONFKH@?$AAe?$AAc?$AA?9?$AA?$DO?$AAt?$AAm?$AAp?$AA_?$AAf?$AAa?$AAc?$AAt?$AAo?$AAr?$AA?$FL?$AAi?$AA?$FN?$AA?5?$AA?$DM?$AA?5?$AA1?$AA?$AA@ 005139a0     pjmedia-i386-win32-vc8-debug:echo_suppress.obj
 0003:000049d8       __real@3ff0000000000000    005139d8     pjmedia-i386-win32-vc8-debug:echo_suppress.obj
 0003:000049e8       __real@0000000000000000    005139e8     pjmedia-i386-win32-vc8-debug:echo_suppress.obj
 0003:000049f4       ??_C@_08LLMLEOE@delaybuf?$AA@ 005139f4     pjmedia-i386-win32-vc8-debug:delaybuf.obj
 0003:00004a00       ??_C@_1BG@HAPGGMFI@?$AAo?$AAp?$AAt?$AAi?$AAo?$AAn?$AAs?$AA?$DN?$AA?$DN?$AA0?$AA?$AA@ 00513a00     pjmedia-i386-win32-vc8-debug:delaybuf.obj
 0003:00004a20       ??_C@_1IA@DDDBCBDL@?$AAp?$AAo?$AAo?$AAl?$AA?5?$AA?$CG?$AA?$CG?$AA?5?$AAs?$AAa?$AAm?$AAp?$AAl?$AAe?$AAs?$AA_?$AAp?$AAe?$AAr?$AA_?$AAf?$AAr?$AAa?$AAm?$AAe?$AA?5?$AA?$CG?$AA?$CG?$AA?5?$AAc?$AAl?$AAo@ 00513a20     pjmedia-i386-win32-vc8-debug:delaybuf.obj
 0003:00004ac0       ??_C@_1GM@CLGOMPGB@?$AAd?$AA?3?$AA?2?$AAm?$AAy?$AAg?$AAi?$AAt?$AA?2?$AAp?$AAj?$AAp?$AAr?$AAo?$AAj?$AAe?$AAc?$AAt?$AA?9?$AA1?$AA?4?$AA4?$AA?2?$AAp?$AAj?$AAm?$AAe?$AAd?$AAi?$AAa?$AA?2?$AAs@ 00513ac0     pjmedia-i386-win32-vc8-debug:delaybuf.obj
 0003:00004b44       ??_C@_13EPJEBPGL@?$AAb?$AA?$AA@ 00513b44     pjmedia-i386-win32-vc8-debug:delaybuf.obj
 0003:00004b48       ??_C@_0EJ@EDGJCEJM@Shrinking?5failed?5or?5insufficient@ 00513b48     pjmedia-i386-win32-vc8-debug:delaybuf.obj
 0003:00004ba0       ??_C@_1BG@GKFLCPLJ@?$AAb?$AA?5?$AA?$CG?$AA?$CG?$AA?5?$AAf?$AAr?$AAa?$AAm?$AAe?$AA?$AA@ 00513ba0     pjmedia-i386-win32-vc8-debug:delaybuf.obj
 0003:00004bbc       ??_C@_0BP@JJBHJNOO@?$CFd?5samples?5reduced?0?5buf_cnt?$DN?$CFd?$AA@ 00513bbc     pjmedia-i386-win32-vc8-debug:delaybuf.obj
 0003:00004be8       ??_C@_1HA@CEPCLGKM@?$AAb?$AA?5?$AA?$CG?$AA?$CG?$AA?5?$AAe?$AAr?$AAa?$AAs?$AAe?$AA_?$AAc?$AAn?$AAt?$AA?5?$AA?$CG?$AA?$CG?$AA?5?$AAp?$AAj?$AAm?$AAe?$AAd?$AAi?$AAa?$AA_?$AAc?$AAi?$AAr?$AAc?$AA_?$AAb@ 00513be8     pjmedia-i386-win32-vc8-debug:delaybuf.obj
 0003:00004c70       ??_C@_0DA@FPCBOFHC@Buffer?5size?5adjusted?5from?5?$CFd?5to?5@ 00513c70     pjmedia-i386-win32-vc8-debug:delaybuf.obj
 0003:00004cac       ??_C@_0CC@NNEAKFHB@Error?5generating?5frame?0?5status?$DN?$CF@ 00513cac     pjmedia-i386-win32-vc8-debug:delaybuf.obj
 0003:00004cd4       ??_C@_0CN@FEOJBHHF@Underflow?0?5buf_cnt?$DN?$CFd?0?5will?5gene@ 00513cd4     pjmedia-i386-win32-vc8-debug:delaybuf.obj
 0003:00004d0c       ??_C@_0BG@OCJPAJA@Delay?5buffer?5is?5reset?$AA@ 00513d0c     pjmedia-i386-win32-vc8-debug:delaybuf.obj
 0003:00004d28       _pjmedia_linear2ulaw_tab   00513d28     pjmedia-i386-win32-vc8-debug:alaw_ulaw_table.obj
 0003:00008d28       _pjmedia_linear2alaw_tab   00517d28     pjmedia-i386-win32-vc8-debug:alaw_ulaw_table.obj
 0003:0000cd28       _pjmedia_ulaw2linear_tab   0051bd28     pjmedia-i386-win32-vc8-debug:alaw_ulaw_table.obj
 0003:0000cf28       _pjmedia_alaw2linear_tab   0051bf28     pjmedia-i386-win32-vc8-debug:alaw_ulaw_table.obj
 0003:0000eb90       ??_C@_0BI@JNCDFEKK@error?5while?5using?5pfkey?$AA@ 0051db90     pjmedia-i386-win32-vc8-debug:transport_srtp.obj
 0003:0000ebac       ??_C@_0BN@OEPMNKMP@error?5while?5using?5semaphores?$AA@ 0051dbac     pjmedia-i386-win32-vc8-debug:transport_srtp.obj
 0003:0000ebd0       ??_C@_0BE@FFKLLGEP@error?5encoding?5data?$AA@ 0051dbd0     pjmedia-i386-win32-vc8-debug:transport_srtp.obj
 0003:0000ebe8       ??_C@_0BD@PIIFGNCP@error?5pasring?5data?$AA@ 0051dbe8     pjmedia-i386-win32-vc8-debug:transport_srtp.obj
 0003:0000ec00       ??_C@_0BE@PIHIJLHG@couldn?8t?5write?5data?$AA@ 0051dc00     pjmedia-i386-win32-vc8-debug:transport_srtp.obj
 0003:0000ec18       ??_C@_0BD@FCFDDPHP@couldn?8t?5read?5data?$AA@ 0051dc18     pjmedia-i386-win32-vc8-debug:transport_srtp.obj
 0003:0000ec30       ??_C@_0BD@HFMCMINA@nonce?5check?5failed?$AA@ 0051dc30     pjmedia-i386-win32-vc8-debug:transport_srtp.obj
 0003:0000ec48       ??_C@_0BL@DJFHEKEC@error?5in?5use?5POSIX?5signals?$AA@ 0051dc48     pjmedia-i386-win32-vc8-debug:transport_srtp.obj
 0003:0000ec68       ??_C@_0BH@CDHGOGDE@error?5in?5use?5of?5socket?$AA@ 0051dc68     pjmedia-i386-win32-vc8-debug:transport_srtp.obj
 0003:0000ec84       ??_C@_0BH@NKHPNDDN@can?8t?5use?5key?5any?5more?$AA@ 0051dc84     pjmedia-i386-win32-vc8-debug:transport_srtp.obj
 0003:0000eca0       ??_C@_0CF@DOHHPHGD@unable?5to?5perform?5desired?5valida@ 0051dca0     pjmedia-i386-win32-vc8-debug:transport_srtp.obj
 0003:0000eccc       ??_C@_0BN@PDJKDLOF@no?5appropriate?5context?5found?$AA@ 0051dccc     pjmedia-i386-win32-vc8-debug:transport_srtp.obj
 0003:0000ecf0       ??_C@_0BG@JKFIFBMN@unsupported?5operation?$AA@ 0051dcf0     pjmedia-i386-win32-vc8-debug:transport_srtp.obj
 0003:0000ed0c       ??_C@_0BO@KLFALCF@algorithm?5failed?5test?5routine?$AA@ 0051dd0c     pjmedia-i386-win32-vc8-debug:transport_srtp.obj
 0003:0000ed30       ??_C@_0CE@GCMJOMFK@replay?5check?5failed?5?$CIindex?5too?5o@ 0051dd30     pjmedia-i386-win32-vc8-debug:transport_srtp.obj
 0003:0000ed5c       ??_C@_0CA@LIFPFHJ@replay?5check?5failed?5?$CIbad?5index?$CJ?$AA@ 0051dd5c     pjmedia-i386-win32-vc8-debug:transport_srtp.obj
 0003:0000ed84       ??_C@_0P@MHOCHBCE@cipher?5failure?$AA@ 0051dd84     pjmedia-i386-win32-vc8-debug:transport_srtp.obj
 0003:0000ed98       ??_C@_0BH@DJJHFLDI@authentication?5failure?$AA@ 0051dd98     pjmedia-i386-win32-vc8-debug:transport_srtp.obj
 0003:0000edb4       ??_C@_0CI@FEPPFOBO@can?8t?5process?5as?5much?5data?5as?5re@ 0051ddb4     pjmedia-i386-win32-vc8-debug:transport_srtp.obj
 0003:0000ede4       ??_C@_0BE@KBPICNEA@couldn?8t?5initialize?$AA@ 0051dde4     pjmedia-i386-win32-vc8-debug:transport_srtp.obj
 0003:0000edfc       ??_C@_0BN@LJIJFBAJ@couldn?8t?5deallocate?5properly?$AA@ 0051ddfc     pjmedia-i386-win32-vc8-debug:transport_srtp.obj
 0003:0000ee20       ??_C@_0BJ@DGLNBGGB@couldn?8t?5allocate?5memory?$AA@ 0051de20     pjmedia-i386-win32-vc8-debug:transport_srtp.obj
 0003:0000ee40       ??_C@_0BG@LENPEKHL@unsupported?5parameter?$AA@ 0051de40     pjmedia-i386-win32-vc8-debug:transport_srtp.obj
 0003:0000ee5c       ??_C@_0BE@KFOIPNMM@unspecified?5failure?$AA@ 0051de5c     pjmedia-i386-win32-vc8-debug:transport_srtp.obj
 0003:0000ee74       ??_C@_02MFDMBIJM@ok?$AA@   0051de74     pjmedia-i386-win32-vc8-debug:transport_srtp.obj
 0003:0000ee78       ??_C@_0BI@NOFEHABG@AES_CM_128_HMAC_SHA1_32?$AA@ 0051de78     pjmedia-i386-win32-vc8-debug:transport_srtp.obj
 0003:0000ee94       ??_C@_0BI@OADHPNHF@AES_CM_128_HMAC_SHA1_80?$AA@ 0051de94     pjmedia-i386-win32-vc8-debug:transport_srtp.obj
 0003:0000eeb0       ??_C@_04HIBGFPH@NULL?$AA@  0051deb0     pjmedia-i386-win32-vc8-debug:transport_srtp.obj
 0003:0000eeb8       ??_C@_06LAEHEPPF@crypto?$AA@ 0051deb8     pjmedia-i386-win32-vc8-debug:transport_srtp.obj
 0003:0000eee8       ??_C@_0BJ@BOBCJFAN@Unknown?5libsrtp?5error?5?$CFd?$AA@ 0051dee8     pjmedia-i386-win32-vc8-debug:transport_srtp.obj
 0003:0000ef08       ??_C@_0CD@JOBKHEBK@Failed?5to?5register?5libsrtp?5deini@ 0051df08     pjmedia-i386-win32-vc8-debug:transport_srtp.obj
 0003:0000ef34       ??_C@_0BB@HGEADDBB@transport_srtp?4c?$AA@ 0051df34     pjmedia-i386-win32-vc8-debug:transport_srtp.obj
 0003:0000ef48       ??_C@_0CB@KJOFGAC@Failed?5to?5initialize?5libsrtp?3?5?$CFs@ 0051df48     pjmedia-i386-win32-vc8-debug:transport_srtp.obj
 0003:0000ef70       ??_C@_0CD@EDFIBBCB@Failed?5to?5deinitialize?5libsrtp?3?5@ 0051df70     pjmedia-i386-win32-vc8-debug:transport_srtp.obj
 0003:0000ef9c       ??_C@_17HMGJKIIL@?$AAo?$AAp?$AAt?$AA?$AA@ 0051df9c     pjmedia-i386-win32-vc8-debug:transport_srtp.obj
 0003:0000efa8       ??_C@_1HI@INLAJBIN@?$AAd?$AA?3?$AA?2?$AAm?$AAy?$AAg?$AAi?$AAt?$AA?2?$AAp?$AAj?$AAp?$AAr?$AAo?$AAj?$AAe?$AAc?$AAt?$AA?9?$AA1?$AA?4?$AA4?$AA?2?$AAp?$AAj?$AAm?$AAe?$AAd?$AAi?$AAa?$AA?2?$AAs@ 0051dfa8     pjmedia-i386-win32-vc8-debug:transport_srtp.obj
 0003:0000f038       ??_C@_06IPCNFNJD@srtp?$CFp?$AA@ 0051e038     pjmedia-i386-win32-vc8-debug:transport_srtp.obj
 0003:0000f040       ??_C@_1CI@IBFHDBIO@?$AAe?$AAn?$AAd?$AAp?$AAt?$AA?5?$AA?$CG?$AA?$CG?$AA?5?$AAt?$AAp?$AA?5?$AA?$CG?$AA?$CG?$AA?5?$AAp?$AA_?$AAt?$AAp?$AA?$AA@ 0051e040     pjmedia-i386-win32-vc8-debug:transport_srtp.obj
 0003:0000f070       ??_C@_0BA@ENEHOOPC@RX?3?5disable?$CFs?$CFs?$AA@ 0051e070     pjmedia-i386-win32-vc8-debug:transport_srtp.obj
 0003:0000f084       ??_C@_0O@EHJJODHO@RX?3?5?$CFs?5key?$DN?$CFs?$AA@ 0051e084     pjmedia-i386-win32-vc8-debug:transport_srtp.obj
 0003:0000f094       ??_C@_0BA@BONGIHBG@TX?3?5disable?$CFs?$CFs?$AA@ 0051e094     pjmedia-i386-win32-vc8-debug:transport_srtp.obj
 0003:0000f0a8       ??_C@_04PIHNPOJJ@?5enc?$AA@ 0051e0a8     pjmedia-i386-win32-vc8-debug:transport_srtp.obj
 0003:0000f0b0       ??_C@_05EPPOHEBK@?5auth?$AA@ 0051e0b0     pjmedia-i386-win32-vc8-debug:transport_srtp.obj
 0003:0000f0b8       ??_C@_0O@LPFLKIMI@TX?3?5?$CFs?5key?$DN?$CFs?$AA@ 0051e0b8     pjmedia-i386-win32-vc8-debug:transport_srtp.obj
 0003:0000f0c8       ??_C@_1BO@OBDHBCGG@?$AAt?$AAp?$AA?5?$AA?$CG?$AA?$CG?$AA?5?$AAt?$AAx?$AA?5?$AA?$CG?$AA?$CG?$AA?5?$AAr?$AAx?$AA?$AA@ 0051e0c8     pjmedia-i386-win32-vc8-debug:transport_srtp.obj
 0003:0000f0ec       ??_C@_0CG@CHCMAIDE@Failed?5to?5dealloc?5TX?5SRTP?5contex@ 0051e0ec     pjmedia-i386-win32-vc8-debug:transport_srtp.obj
 0003:0000f11c       ??_C@_0CG@KDAPJFOB@Failed?5to?5dealloc?5RX?5SRTP?5contex@ 0051e11c     pjmedia-i386-win32-vc8-debug:transport_srtp.obj
 0003:0000f14c       ??_C@_19BEPCNALE@?$AAs?$AAr?$AAt?$AAp?$AA?$AA@ 0051e14c     pjmedia-i386-win32-vc8-debug:transport_srtp.obj
 0003:0000f158       ??_C@_15LFLBLBBH@?$AAt?$AAp?$AA?$AA@ 0051e158     pjmedia-i386-win32-vc8-debug:transport_srtp.obj
 0003:0000f160       ??_C@_1DI@NHMPMOHF@?$AAi?$AAn?$AAf?$AAo?$AA?9?$AA?$DO?$AAs?$AAp?$AAe?$AAc?$AAi?$AAf?$AAi?$AAc?$AA_?$AAi?$AAn?$AAf?$AAo?$AA_?$AAc?$AAn?$AAt?$AA?5?$AA?$DM?$AA?5?$AA4?$AA?$AA@ 0051e160     pjmedia-i386-win32-vc8-debug:transport_srtp.obj
 0003:0000f1a4       ??_C@_1BG@EOJHKJHM@?$AAt?$AAp?$AA?5?$AA?$CG?$AA?$CG?$AA?5?$AAi?$AAn?$AAf?$AAo?$AA?$AA@ 0051e1a4     pjmedia-i386-win32-vc8-debug:transport_srtp.obj
 0003:0000f1c0       ??_C@_1DG@DEIMONIE@?$AAt?$AAp?$AA?5?$AA?$CG?$AA?$CG?$AA?5?$AAr?$AAe?$AAm?$AA_?$AAa?$AAd?$AAd?$AAr?$AA?5?$AA?$CG?$AA?$CG?$AA?5?$AAa?$AAd?$AAd?$AAr?$AA_?$AAl?$AAe?$AAn?$AA?$AA@ 0051e1c0     pjmedia-i386-win32-vc8-debug:transport_srtp.obj
 0003:0000f200       ??_C@_0CO@EDHKLEPP@Failed?5to?5unprotect?5SRTP?0?5pkt?5si@ 0051e200     pjmedia-i386-win32-vc8-debug:transport_srtp.obj
 0003:0000f238       ??_C@_0BP@CAGNCNCA@Failed?5to?5restart?5SRTP?0?5err?$DN?$CFs?$AA@ 0051e238     pjmedia-i386-win32-vc8-debug:transport_srtp.obj
 0003:0000f260       ??_C@_1DA@ECGHFHEH@?$AA?$CI?$AA?$CI?$AA?$CI?$AAl?$AAo?$AAn?$AAg?$AA?$CJ?$AAp?$AAk?$AAt?$AA?$CJ?$AA?5?$AA?$CG?$AA?5?$AA0?$AAx?$AA0?$AA3?$AA?$CJ?$AA?$DN?$AA?$DN?$AA0?$AA?$AA@ 0051e260     pjmedia-i386-win32-vc8-debug:transport_srtp.obj
 0003:0000f29c       ??_C@_0CP@OAIPELPD@Failed?5to?5unprotect?5SRTCP?0?5pkt?5s@ 0051e29c     pjmedia-i386-win32-vc8-debug:transport_srtp.obj
 0003:0000f2d4       ??_C@_1DG@DDFOJFNA@?$AA?$CB?$AA?$CC?$AAS?$AAh?$AAo?$AAu?$AAl?$AAd?$AA?5?$AAn?$AAe?$AAv?$AAe?$AAr?$AA?5?$AAr?$AAe?$AAa?$AAc?$AAh?$AA?5?$AAh?$AAe?$AAr?$AAe?$AA?$CC?$AA?$AA@ 0051e2d4     pjmedia-i386-win32-vc8-debug:transport_srtp.obj
 0003:0000f314       ??_C@_0BI@MOAPCAF@Should?5never?5reach?5here?$AA@ 0051e314     pjmedia-i386-win32-vc8-debug:transport_srtp.obj
 0003:0000f330       ??_C@_1CI@PICKKBLK@?$AAs?$AAd?$AAp?$AA_?$AAr?$AAe?$AAm?$AAo?$AAt?$AAe?$AA?5?$AA?$CG?$AA?$CG?$AA?5?$AAm?$AA_?$AAr?$AAe?$AAm?$AA?$AA@ 0051e330     pjmedia-i386-win32-vc8-debug:transport_srtp.obj
 0003:0000f360       ??_C@_1DI@FKNKINIE@?$AAt?$AAp?$AA?5?$AA?$CG?$AA?$CG?$AA?5?$AAs?$AAd?$AAp?$AA_?$AAp?$AAo?$AAo?$AAl?$AA?5?$AA?$CG?$AA?$CG?$AA?5?$AAs?$AAd?$AAp?$AA_?$AAl?$AAo?$AAc?$AAa?$AAl?$AA?$AA@ 0051e360     pjmedia-i386-win32-vc8-debug:transport_srtp.obj
 0003:0000f3a4       ??_C@_0BA@OGAKIHAO@?$CFd?5?$CFs?5inline?3?$CFs?$AA@ 0051e3a4     pjmedia-i386-win32-vc8-debug:transport_srtp.obj
 0003:0000f3b8       ??_C@_1GM@GMFMOBNN@?$AA?$CK?$AAb?$AAu?$AAf?$AAf?$AAe?$AAr?$AA_?$AAl?$AAe?$AAn?$AA?5?$AA?$DO?$AA?$DN?$AA?5?$AA?$CI?$AAc?$AAr?$AAy?$AAp?$AAt?$AAo?$AA?9?$AA?$DO?$AAn?$AAa?$AAm?$AAe?$AA?4?$AAs?$AAl?$AAe@ 0051e3b8     pjmedia-i386-win32-vc8-debug:transport_srtp.obj
 0003:0000f43c       ??_C@_0CE@BAIPFCEP@Failed?5encoding?5plain?5key?5to?5bas@ 0051e43c     pjmedia-i386-win32-vc8-debug:transport_srtp.obj
 0003:0000f468       ??_C@_0CB@DDJJDFFB@Failed?5generating?5random?5key?3?5?$CFs@ 0051e468     pjmedia-i386-win32-vc8-debug:transport_srtp.obj
 0003:0000f490       ??_C@_1FG@MFJEMHJF@?$AA3?$AA2?$AA?5?$AA?$DO?$AA?$DN?$AA?5?$AAc?$AAr?$AAy?$AAp?$AAt?$AAo?$AA_?$AAs?$AAu?$AAi?$AAt?$AAe?$AAs?$AA?$FL?$AAc?$AAs?$AA_?$AAi?$AAd?$AAx?$AA?$FN?$AA?4?$AAc?$AAi?$AAp?$AAh@ 0051e490     pjmedia-i386-win32-vc8-debug:transport_srtp.obj
 0003:0000f4f8       ??_C@_0CH@PPONEAL@Failed?5decoding?5crypto?5key?5from?5@ 0051e4f8     pjmedia-i386-win32-vc8-debug:transport_srtp.obj
 0003:0000f528       ??_C@_0N@FJKIJMGM@Key?5too?5long?$AA@ 0051e528     pjmedia-i386-win32-vc8-debug:transport_srtp.obj
 0003:0000f538       ??_C@_0BP@FKKPLPLE@Attribute?5crypto?5expecting?5key?$AA@ 0051e538     pjmedia-i386-win32-vc8-debug:transport_srtp.obj
 0003:0000f560       ??_C@_02MINBJDHL@?$HM?5?$AA@ 0051e560     pjmedia-i386-win32-vc8-debug:transport_srtp.obj
 0003:0000f564       ??_C@_0DA@ONAGIJJE@Attribute?5crypto?5key?5method?5?8?$CFs?8@ 0051e564     pjmedia-i386-win32-vc8-debug:transport_srtp.obj
 0003:0000f5a0       ??_C@_06OGMBMJA@inline?$AA@ 0051e5a0     pjmedia-i386-win32-vc8-debug:transport_srtp.obj
 0003:0000f5a8       ??_C@_0CG@JCJFEHFF@Attribute?5crypto?5expecting?5key?5m@ 0051e5a8     pjmedia-i386-win32-vc8-debug:transport_srtp.obj
 0003:0000f5d8       ??_C@_01JLIPDDHJ@?3?$AA@   0051e5d8     pjmedia-i386-win32-vc8-debug:transport_srtp.obj
 0003:0000f5dc       ??_C@_0CI@IIDGBGP@Attribute?5crypto?5expecting?5crypt@ 0051e5dc     pjmedia-i386-win32-vc8-debug:transport_srtp.obj
 0003:0000f60c       ??_C@_0BP@IBJNGPHO@Attribute?5crypto?5expecting?5tag?$AA@ 0051e60c     pjmedia-i386-win32-vc8-debug:transport_srtp.obj
 0003:0000f638       ??_C@_1EM@GOCGNPBL@?$AAt?$AAp?$AA?5?$AA?$CG?$AA?$CG?$AA?5?$AAp?$AAo?$AAo?$AAl?$AA?5?$AA?$CG?$AA?$CG?$AA?5?$AAs?$AAd?$AAp?$AA_?$AAl?$AAo?$AAc?$AAa?$AAl?$AA?5?$AA?$CG?$AA?$CG?$AA?5?$AAs?$AAd?$AAp?$AA_?$AAr@ 0051e638     pjmedia-i386-win32-vc8-debug:transport_srtp.obj
 0003:0000f694       ??_C@_0CN@IMPBKLBH@SRTP?5failed?5stop?5underlying?5medi@ 0051e694     pjmedia-i386-win32-vc8-debug:transport_srtp.obj
 0003:0000f6cc       ??_C@_1CK@KNFDBKGE@?$AAs?$AAr?$AAt?$AAp?$AA?9?$AA?$DO?$AAs?$AAe?$AAs?$AAs?$AAi?$AAo?$AAn?$AA_?$AAi?$AAn?$AAi?$AAt?$AAe?$AAd?$AA?$AA@ 0051e6cc     pjmedia-i386-win32-vc8-debug:transport_srtp.obj
 0003:0000f700       ??_C@_1DE@DOJDHBHH@?$AAt?$AAp?$AA?5?$AA?$CG?$AA?$CG?$AA?5?$AAp?$AAk?$AAt?$AA?5?$AA?$CG?$AA?$CG?$AA?5?$AA?$CI?$AA?$CK?$AAp?$AAk?$AAt?$AA_?$AAl?$AAe?$AAn?$AA?$DO?$AA0?$AA?$CJ?$AA?$AA@ 0051e700     pjmedia-i386-win32-vc8-debug:transport_srtp.obj
 0003:0000f740       ??_C@_04CCFCAPFE@sd?$CFp?$AA@ 0051e740     pjmedia-i386-win32-vc8-debug:silencedet.obj
 0003:0000f748       ??_C@_1BK@JPOKJPGF@?$AAp?$AAo?$AAo?$AAl?$AA?5?$AA?$CG?$AA?$CG?$AA?5?$AAp?$AA_?$AAs?$AAd?$AA?$AA@ 0051e748     pjmedia-i386-win32-vc8-debug:silencedet.obj
 0003:0000f768       ??_C@_1HA@CGKBAKEE@?$AAd?$AA?3?$AA?2?$AAm?$AAy?$AAg?$AAi?$AAt?$AA?2?$AAp?$AAj?$AAp?$AAr?$AAo?$AAj?$AAe?$AAc?$AAt?$AA?9?$AA1?$AA?4?$AA4?$AA?2?$AAp?$AAj?$AAm?$AAe?$AAd?$AAi?$AAa?$AA?2?$AAs@ 0051e768     pjmedia-i386-win32-vc8-debug:silencedet.obj
 0003:0000f7f0       ??_C@_1BG@LLODMODC@?$AAs?$AAd?$AA?5?$AA?$CG?$AA?$CG?$AA?5?$AAn?$AAa?$AAm?$AAe?$AA?$AA@ 0051e7f0     pjmedia-i386-win32-vc8-debug:silencedet.obj
 0003:0000f80c       ??_C@_15HHMPEBGH@?$AAs?$AAd?$AA?$AA@ 0051e80c     pjmedia-i386-win32-vc8-debug:silencedet.obj
 0003:0000f814       ??_C@_0CJ@HMFIAFFP@Starting?5silence?5?$CIlevel?$DN?$CFd?5thres@ 0051e814     pjmedia-i386-win32-vc8-debug:silencedet.obj
 0003:0000f848       ??_C@_0CG@DGOMOKAK@Re?9adjust?5threshold?5?$CIin?5silence?$CJ@ 0051e848     pjmedia-i386-win32-vc8-debug:silencedet.obj
 0003:0000f878       ??_C@_13COJANIEC@?$AA0?$AA?$AA@ 0051e878     pjmedia-i386-win32-vc8-debug:silencedet.obj
 0003:0000f87c       ??_C@_0CM@HFHDPICL@Starting?5talk?5burst?5?$CIlevel?$DN?$CFd?5th@ 0051e87c     pjmedia-i386-win32-vc8-debug:silencedet.obj
 0003:0000f8b0       ??_C@_0N@GGOMHLHN@silencedet?4c?$AA@ 0051e8b0     pjmedia-i386-win32-vc8-debug:silencedet.obj
 0003:0000f8c0       ??_C@_0CJ@FEGDIEOD@Re?9adjust?5threshold?5?$CIin?5talk?5bur@ 0051e8c0     pjmedia-i386-win32-vc8-debug:silencedet.obj
 0003:0000f8f8       __real@3fe0000000000000    0051e8f8     pjmedia-i386-win32-vc8-debug:wsola.obj
 0003:0000f908       ??_C@_1FC@ONNECCLI@?$AAw?$AAs?$AAo?$AAl?$AAa?$AA?9?$AA?$DO?$AAt?$AAe?$AAm?$AAp?$AAl?$AA_?$AAs?$AAi?$AAz?$AAe?$AA?5?$AA?$DM?$AA?$DN?$AA?5?$AAw?$AAs?$AAo?$AAl?$AAa?$AA?9?$AA?$DO?$AAh?$AAa?$AAn?$AAn@ 0051e908     pjmedia-i386-win32-vc8-debug:wsola.obj
 0003:0000f970       __real@3ff8000000000000    0051e970     pjmedia-i386-win32-vc8-debug:wsola.obj
 0003:0000f97c       ??_C@_07LLDBJGIC@wsola?4c?$AA@ 0051e97c     pjmedia-i386-win32-vc8-debug:wsola.obj
 0003:0000f988       ??_C@_0BO@PBEKEGBF@Failed?5to?5create?5circular?5buf?$AA@ 0051e988     pjmedia-i386-win32-vc8-debug:wsola.obj
 0003:0000f9ac       ??_C@_1CE@HKIMEAPL@?$AAc?$AAh?$AAa?$AAn?$AAn?$AAe?$AAl?$AA_?$AAc?$AAo?$AAu?$AAn?$AAt?$AA?5?$AA?$DO?$AA?5?$AA0?$AA?$AA@ 0051e9ac     pjmedia-i386-win32-vc8-debug:wsola.obj
 0003:0000f9d8       ??_C@_1DO@HNOJLLOB@?$AAs?$AAa?$AAm?$AAp?$AAl?$AAe?$AAs?$AA_?$AAp?$AAe?$AAr?$AA_?$AAf?$AAr?$AAa?$AAm?$AAe?$AA?5?$AA?$DM?$AA?5?$AAc?$AAl?$AAo?$AAc?$AAk?$AA_?$AAr?$AAa?$AAt?$AAe?$AA?$AA@ 0051e9d8     pjmedia-i386-win32-vc8-debug:wsola.obj
 0003:0000fa24       ??_C@_1CI@CPJHFBDP@?$AAc?$AAl?$AAo?$AAc?$AAk?$AA_?$AAr?$AAa?$AAt?$AAe?$AA?5?$AA?$DM?$AA?$DN?$AA?5?$AA6?$AA5?$AA5?$AA3?$AA5?$AA?$AA@ 0051ea24     pjmedia-i386-win32-vc8-debug:wsola.obj
 0003:0000fa58       ??_C@_1GG@IAKBIPBK@?$AAp?$AAo?$AAo?$AAl?$AA?5?$AA?$CG?$AA?$CG?$AA?5?$AAc?$AAl?$AAo?$AAc?$AAk?$AA_?$AAr?$AAa?$AAt?$AAe?$AA?5?$AA?$CG?$AA?$CG?$AA?5?$AAs?$AAa?$AAm?$AAp?$AAl?$AAe?$AAs?$AA_?$AAp?$AAe@ 0051ea58     pjmedia-i386-win32-vc8-debug:wsola.obj
 0003:0000fad8       ??_C@_1GG@CLBLJFGG@?$AAd?$AA?3?$AA?2?$AAm?$AAy?$AAg?$AAi?$AAt?$AA?2?$AAp?$AAj?$AAp?$AAr?$AAo?$AAj?$AAe?$AAc?$AAt?$AA?9?$AA1?$AA?4?$AA4?$AA?2?$AAp?$AAj?$AAm?$AAe?$AAd?$AAi?$AAa?$AA?2?$AAs@ 0051ead8     pjmedia-i386-win32-vc8-debug:wsola.obj
 0003:0000fb58       __real@401921fb54442d18    0051eb58     pjmedia-i386-win32-vc8-debug:wsola.obj
 0003:0000fb64       ??_C@_1M@DMOBICCA@?$AAw?$AAs?$AAo?$AAl?$AAa?$AA?$AA@ 0051eb64     pjmedia-i386-win32-vc8-debug:wsola.obj
 0003:0000fb74       ??_C@_1CI@POPKIGC@?$AAw?$AAs?$AAo?$AAl?$AAa?$AA?5?$AA?$CG?$AA?$CG?$AA?5?$AAo?$AAp?$AAt?$AAi?$AAo?$AAn?$AAs?$AA?$DN?$AA?$DN?$AA0?$AA?$AA@ 0051eb74     pjmedia-i386-win32-vc8-debug:wsola.obj
 0003:0000fba8       ??_C@_1EM@MPJCGMLC@?$AA?$CB?$AA?$CC?$AAW?$AAS?$AAO?$AAL?$AAA?$AA?5?$AAb?$AAu?$AAf?$AAf?$AAe?$AAr?$AA?5?$AAs?$AAi?$AAz?$AAe?$AA?5?$AAm?$AAa?$AAy?$AA?5?$AAb?$AAe?$AA?5?$AAt?$AAo?$AA?5?$AAs?$AAm@ 0051eba8     pjmedia-i386-win32-vc8-debug:wsola.obj
 0003:0000fc04       ??_C@_0CD@BICDEMGJ@WSOLA?5buffer?5size?5may?5be?5to?5smal@ 0051ec04     pjmedia-i386-win32-vc8-debug:wsola.obj
 0003:0000fc30       ??_C@_1DI@CFNECNLA@?$AA?$CB?$AA?$CC?$AAW?$AAS?$AAO?$AAL?$AAA?$AA?5?$AAn?$AAe?$AAe?$AAd?$AA?5?$AAe?$AAr?$AAa?$AAs?$AAe?$AA?5?$AAb?$AAu?$AAf?$AAf?$AAe?$AAr?$AA?$CB?$AA?$CC?$AA?$AA@ 0051ec30     pjmedia-i386-win32-vc8-debug:wsola.obj
 0003:0000fc74       ??_C@_0BJ@IJOBNPHA@WSOLA?5need?5erase?5buffer?$CB?$AA@ 0051ec74     pjmedia-i386-win32-vc8-debug:wsola.obj
 0003:0000fc94       ??_C@_19KJFIAAFN@?$AAb?$AAu?$AAf?$AA2?$AA?$AA@ 0051ec94     pjmedia-i386-win32-vc8-debug:wsola.obj
 0003:0000fca0       ??_C@_1BC@NPKJGPLM@?$AA?$CK?$AAd?$AAe?$AAl?$AA_?$AAc?$AAn?$AAt?$AA?$AA@ 0051eca0     pjmedia-i386-win32-vc8-debug:wsola.obj
 0003:0000fcb8       ??_C@_1EK@EPLDJPJP@?$AAw?$AAs?$AAo?$AAl?$AAa?$AA?5?$AA?$CG?$AA?$CG?$AA?5?$AAb?$AAu?$AAf?$AA1?$AA?5?$AA?$CG?$AA?$CG?$AA?5?$AAb?$AAu?$AAf?$AA1?$AA_?$AAc?$AAn?$AAt?$AA?5?$AA?$CG?$AA?$CG?$AA?5?$AAd?$AAe?$AAl@ 0051ecb8     pjmedia-i386-win32-vc8-debug:wsola.obj
 0003:0000fd10       ??_C@_02BAABKJLB@?9?9?$AA@ 0051ed10     pjlib-util-i386-win32-vc8-debug:getopt.obj
 0003:0000fd14       ??_C@_1BG@BNCNGJJK@?$AAc?$AAs?$AAt?$AAa?$AAr?$AAt?$AA?5?$AA?$DO?$AA?5?$AA0?$AA?$AA@ 0051ed14     pjlib-util-i386-win32-vc8-debug:scanner.obj
 0003:0000fd30       ??_C@_1HG@DBHLDMGJ@?$AAd?$AA?3?$AA?2?$AAm?$AAy?$AAg?$AAi?$AAt?$AA?2?$AAp?$AAj?$AAp?$AAr?$AAo?$AAj?$AAe?$AAc?$AAt?$AA?9?$AA1?$AA?4?$AA4?$AA?2?$AAp?$AAj?$AAl?$AAi?$AAb?$AA?9?$AAu?$AAt?$AAi@ 0051ed30     pjlib-util-i386-win32-vc8-debug:scanner.obj
 0003:0000fdc0       ??_C@_0DL@LPIJLIOP@d?3?2mygit?2pjproject?91?44?2pjlib?9uti@ 0051edc0     pjlib-util-i386-win32-vc8-debug:scanner.obj
 0003:0000fe08       ??_C@_1DA@FEHFDNDH@?$AAp?$AAj?$AA_?$AAc?$AAi?$AAs?$AA_?$AAm?$AAa?$AAt?$AAc?$AAh?$AA?$CI?$AAs?$AAp?$AAe?$AAc?$AA?0?$AA0?$AA?$CJ?$AA?$DN?$AA?$DN?$AA0?$AA?$AA@ 0051ee08     pjlib-util-i386-win32-vc8-debug:scanner.obj
 0003:0000fe44       ??_C@_1DE@FFIKCEEP@?$AAp?$AAj?$AA_?$AAc?$AAi?$AAs?$AA_?$AAm?$AAa?$AAt?$AAc?$AAh?$AA?$CI?$AAs?$AAp?$AAe?$AAc?$AA?0?$AA?8?$AA?$CF?$AA?8?$AA?$CJ?$AA?$DN?$AA?$DN?$AA0?$AA?$AA@ 0051ee44     pjlib-util-i386-win32-vc8-debug:scanner.obj
 0003:0000fe84       ??_C@_1BE@DNGPADLB@?$AAq?$AAs?$AAi?$AAz?$AAe?$AA?5?$AA?$DO?$AA?5?$AA0?$AA?$AA@ 0051ee84     pjlib-util-i386-win32-vc8-debug:scanner.obj
 0003:0000fea0       _base64_char               0051eea0     pjlib-util-i386-win32-vc8-debug:base64.obj
 0003:0000fef0       ??_C@_1EC@PACNHEMO@?$AA?$CK?$AAo?$AAu?$AAt?$AA_?$AAl?$AAe?$AAn?$AA?5?$AA?$DO?$AA?$DN?$AA?5?$AA?$CI?$AAi?$AAn?$AA_?$AAl?$AAe?$AAn?$AA?5?$AA?$CK?$AA?5?$AA4?$AA?5?$AA?1?$AA?5?$AA3?$AA?5?$AA?$CL?$AA?5?$AA3?$AA?$CJ@ 0051eef0     pjlib-util-i386-win32-vc8-debug:base64.obj
 0003:0000ff40       ??_C@_1DG@FBBIODPK@?$AAi?$AAn?$AAp?$AAu?$AAt?$AA?5?$AA?$CG?$AA?$CG?$AA?5?$AAo?$AAu?$AAt?$AAp?$AAu?$AAt?$AA?5?$AA?$CG?$AA?$CG?$AA?5?$AAo?$AAu?$AAt?$AA_?$AAl?$AAe?$AAn?$AA?$AA@ 0051ef40     pjlib-util-i386-win32-vc8-debug:base64.obj
 0003:0000ff80       ??_C@_1HE@LHBJDBOE@?$AAd?$AA?3?$AA?2?$AAm?$AAy?$AAg?$AAi?$AAt?$AA?2?$AAp?$AAj?$AAp?$AAr?$AAo?$AAj?$AAe?$AAc?$AAt?$AA?9?$AA1?$AA?4?$AA4?$AA?2?$AAp?$AAj?$AAl?$AAi?$AAb?$AA?9?$AAu?$AAt?$AAi@ 0051ef80     pjlib-util-i386-win32-vc8-debug:base64.obj
 0003:0001000c       ??_C@_1BK@IGKMLFDG@?$AAj?$AA?5?$AA?$DM?$AA?5?$AA?$CK?$AAo?$AAu?$AAt?$AA_?$AAl?$AAe?$AAn?$AA?$AA@ 0051f00c     pjlib-util-i386-win32-vc8-debug:base64.obj
 0003:0001002c       ??_C@_1DE@FJIMPKJC@?$AA?$CK?$AAo?$AAu?$AAt?$AA_?$AAl?$AAe?$AAn?$AA?5?$AA?$DO?$AA?$DN?$AA?5?$AA?$CI?$AAl?$AAe?$AAn?$AA?5?$AA?$CK?$AA?5?$AA3?$AA?5?$AA?1?$AA?5?$AA4?$AA?$CJ?$AA?$AA@ 0051f02c     pjlib-util-i386-win32-vc8-debug:base64.obj
 0003:0001006c       ??_C@_1DA@PGJCBFEE@?$AAi?$AAn?$AAp?$AAu?$AAt?$AA?5?$AA?$CG?$AA?$CG?$AA?5?$AAo?$AAu?$AAt?$AA?5?$AA?$CG?$AA?$CG?$AA?5?$AAo?$AAu?$AAt?$AA_?$AAl?$AAe?$AAn?$AA?$AA@ 0051f06c     pjlib-util-i386-win32-vc8-debug:base64.obj
 0003:000100a8       ??_C@_1GM@MFPEOKEG@?$AA?$CB?$AA?$CC?$AAS?$AAh?$AAo?$AAu?$AAl?$AAd?$AA?5?$AAn?$AAo?$AAt?$AA?5?$AAh?$AAa?$AAp?$AAp?$AAe?$AAn?$AA?5?$AAa?$AAs?$AA?5?$AA?8?$AA?$DN?$AA?8?$AA?5?$AAs?$AAh?$AAo?$AAu?$AAl@ 0051f0a8     pjlib-util-i386-win32-vc8-debug:base64.obj
 0003:0001012c       ??_C@_0DD@GALDCHMC@Should?5not?5happen?5as?5?8?$DN?8?5should?5@ 0051f12c     pjlib-util-i386-win32-vc8-debug:base64.obj
 0003:0001016c       ??_C@_0BA@FNCACAIG@os_core_win32?4c?$AA@ 0051f16c     pjlib-i386-win32-vc8-debug:os_core_win32.obj
 0003:00010180       ??_C@_0BP@NGEKBPIB@pjlib?5?$CFs?5for?5win32?5initialized?$AA@ 0051f180     pjlib-i386-win32-vc8-debug:os_core_win32.obj
 0003:000101a8       ??_C@_0BA@NGJFHJA@PJLIB?1No?5memory?$AA@ 0051f1a8     pjlib-i386-win32-vc8-debug:os_core_win32.obj
 0003:000101bc       ??_C@_04IFCNACLH@pj?$CFp?$AA@ 0051f1bc     pjlib-i386-win32-vc8-debug:os_core_win32.obj
 0003:000101c4       ??_C@_0CI@EAKIIBBA@Main?5thread?5stack?5max?5usage?$DN?$CFu?5b@ 0051f1c4     pjlib-i386-win32-vc8-debug:os_core_win32.obj
 0003:000101f4       ??_C@_0DE@DKACGBCJ@d?3?2mygit?2pjproject?91?44?2pjlib?2src@ 0051f1f4     pjlib-i386-win32-vc8-debug:os_core_win32.obj
 0003:00010234       ??_C@_1DA@EPDLFMNN@?$AAp?$AAr?$AAi?$AAo?$AA?$DO?$AA?$DN?$AA?$CI?$AA?9?$AA1?$AA5?$AA?$CJ?$AA?5?$AA?$CG?$AA?$CG?$AA?5?$AAp?$AAr?$AAi?$AAo?$AA?$DM?$AA?$DN?$AA1?$AA5?$AA?$AA@ 0051f234     pjlib-i386-win32-vc8-debug:os_core_win32.obj
 0003:00010270       ??_C@_1O@OOICOHEB@?$AAt?$AAh?$AAr?$AAe?$AAa?$AAd?$AA?$AA@ 0051f270     pjlib-i386-win32-vc8-debug:os_core_win32.obj
 0003:00010280       ??_C@_1GI@EHEAAMPO@?$AAd?$AA?3?$AA?2?$AAm?$AAy?$AAg?$AAi?$AAt?$AA?2?$AAp?$AAj?$AAp?$AAr?$AAo?$AAj?$AAe?$AAc?$AAt?$AA?9?$AA1?$AA?4?$AA4?$AA?2?$AAp?$AAj?$AAl?$AAi?$AAb?$AA?2?$AAs?$AAr?$AAc@ 0051f280     pjlib-i386-win32-vc8-debug:os_core_win32.obj
 0003:000102fc       ??_C@_05KHEDLION@thr?$CFp?$AA@ 0051f2fc     pjlib-i386-win32-vc8-debug:os_core_win32.obj
 0003:00010308       ??_C@_1EG@HCJPCAON@?$AA?$CB?$AA?$CC?$AAN?$AAo?$AAt?$AA?5?$AAe?$AAn?$AAo?$AAu?$AAg?$AAh?$AA?5?$AAp?$AAj?$AA_?$AAt?$AAh?$AAr?$AAe?$AAa?$AAd?$AA_?$AAd?$AAe?$AAs?$AAc?$AA?5?$AAs?$AAi?$AAz?$AAe@ 0051f308     pjlib-i386-win32-vc8-debug:os_core_win32.obj
 0003:0001035c       ??_C@_0CA@KDDLBGGI@Not?5enough?5pj_thread_desc?5size?$CB?$AA@ 0051f35c     pjlib-i386-win32-vc8-debug:os_core_win32.obj
 0003:00010384       ??_C@_1DG@GPPEEMGI@?$AAp?$AAo?$AAo?$AAl?$AA?5?$AA?$CG?$AA?$CG?$AA?5?$AAp?$AAr?$AAo?$AAc?$AA?5?$AA?$CG?$AA?$CG?$AA?5?$AAt?$AAh?$AAr?$AAe?$AAa?$AAd?$AA_?$AAp?$AAt?$AAr?$AA?$AA@ 0051f384     pjlib-i386-win32-vc8-debug:os_core_win32.obj
 0003:000103c4       ??_C@_0CD@GPHECFNA@Thread?5stack?5max?5usage?$DN?$CFu?5by?5?$CFs?3@ 0051f3c4     pjlib-i386-win32-vc8-debug:os_core_win32.obj
 0003:000103f0       ??_C@_1EK@KGMDGLFJ@?$AA?$CB?$AA?$CC?$AAT?$AAL?$AAS?$AA?5?$AAi?$AAs?$AA?5?$AAn?$AAo?$AAt?$AA?5?$AAs?$AAe?$AAt?$AA?5?$AA?$CI?$AAp?$AAj?$AA_?$AAi?$AAn?$AAi?$AAt?$AA?$CI?$AA?$CJ?$AA?5?$AAe?$AAr?$AAr?$AAo@ 0051f3f0     pjlib-i386-win32-vc8-debug:os_core_win32.obj
 0003:00010448       ??_C@_0CC@JLGHEGJO@TLS?5is?5not?5set?5?$CIpj_init?$CI?$CJ?5error?$DP@ 0051f448     pjlib-i386-win32-vc8-debug:os_core_win32.obj
 0003:00010470       ??_C@_13LFIEIAHP@?$AAp?$AA?$AA@ 0051f470     pjlib-i386-win32-vc8-debug:os_core_win32.obj
 0003:00010478       ??_C@_1BCM@LMJGLOKF@?$AA?$CB?$AA?$CC?$AAC?$AAa?$AAl?$AAl?$AAi?$AAn?$AAg?$AA?5?$AAp?$AAj?$AAl?$AAi?$AAb?$AA?5?$AAf?$AAr?$AAo?$AAm?$AA?5?$AAu?$AAn?$AAk?$AAn?$AAo?$AAw?$AAn?$AA?1?$AAe?$AAx?$AAt@ 0051f478     pjlib-i386-win32-vc8-debug:os_core_win32.obj
 0003:000105e0       ??_C@_0IN@DGHJHPPL@Calling?5pjlib?5from?5unknown?1exter@ 0051f5e0     pjlib-i386-win32-vc8-debug:os_core_win32.obj
 0003:00010690       ??_C@_1HC@CNEMGLGB@?$AA?$CC?$AAS?$AAT?$AAA?$AAC?$AAK?$AA?5?$AAO?$AAV?$AAE?$AAR?$AAF?$AAL?$AAO?$AAW?$AA?$CB?$AA?$CB?$AA?5?$AA?$CC?$AA?5?$AA?$CG?$AA?$CG?$AA?5?$AA?$CI?$AAu?$AAs?$AAa?$AAg?$AAe?$AA?5?$AA?$DM?$AA?$DN@ 0051f690     pjlib-i386-win32-vc8-debug:os_core_win32.obj
 0003:00010718       ??_C@_0BC@GDBGMOLB@STACK?5OVERFLOW?$CB?$CB?5?$AA@ 0051f718     pjlib-i386-win32-vc8-debug:os_core_win32.obj
 0003:00010730       ??_C@_17PCHMAMGJ@?$AAv?$AAa?$AAr?$AA?$AA@ 0051f730     pjlib-i386-win32-vc8-debug:os_core_win32.obj
 0003:0001073c       ??_C@_1BG@PPEGLHPH@?$AAa?$AAt?$AAo?$AAm?$AAi?$AAc?$AA_?$AAv?$AAa?$AAr?$AA?$AA@ 0051f73c     pjlib-i386-win32-vc8-debug:os_core_win32.obj
 0003:00010758       ??_C@_1CK@HHDJMMIF@?$AAi?$AAn?$AAd?$AAe?$AAx?$AA?5?$AA?$CB?$AA?$DN?$AA?5?$AA?$CI?$AA?$CI?$AAv?$AAo?$AAi?$AAd?$AA?5?$AA?$CK?$AA?$CJ?$AA0?$AA?$CJ?$AA?$AA@ 0051f758     pjlib-i386-win32-vc8-debug:os_core_win32.obj
 0003:0001078c       ??_C@_05EJDHHBFJ@mtx?$CFp?$AA@ 0051f78c     pjlib-i386-win32-vc8-debug:os_core_win32.obj
 0003:00010794       ??_C@_1CE@MHFMCIAM@?$AAp?$AAo?$AAo?$AAl?$AA?5?$AA?$CG?$AA?$CG?$AA?5?$AAm?$AAu?$AAt?$AAe?$AAx?$AA_?$AAp?$AAt?$AAr?$AA?$AA@ 0051f794     pjlib-i386-win32-vc8-debug:os_core_win32.obj
 0003:000107c0       ??_C@_1M@PMBPJDFK@?$AAm?$AAu?$AAt?$AAe?$AAx?$AA?$AA@ 0051f7c0     pjlib-i386-win32-vc8-debug:os_core_win32.obj
 0003:000107d0       ??_C@_1EC@GCIAJGPL@?$AAm?$AAu?$AAt?$AAe?$AAx?$AA?9?$AA?$DO?$AAo?$AAw?$AAn?$AAe?$AAr?$AA?5?$AA?$DN?$AA?$DN?$AA?5?$AAp?$AAj?$AA_?$AAt?$AAh?$AAr?$AAe?$AAa?$AAd?$AA_?$AAt?$AAh?$AAi?$AAs?$AA?$CI?$AA?$CJ@ 0051f7d0     pjlib-i386-win32-vc8-debug:os_core_win32.obj
 0003:00010820       ??_C@_1CA@LHAPCNHN@?$AAp?$AAo?$AAo?$AAl?$AA?5?$AA?$CG?$AA?$CG?$AA?5?$AAp?$AA_?$AAm?$AAu?$AAt?$AAe?$AAx?$AA?$AA@ 0051f820     pjlib-i386-win32-vc8-debug:os_core_win32.obj
 0003:00010848       ??_C@_1GC@LDINOLIB@?$AAd?$AA?3?$AA?2?$AAm?$AAy?$AAg?$AAi?$AAt?$AA?2?$AAp?$AAj?$AAp?$AAr?$AAo?$AAj?$AAe?$AAc?$AAt?$AA?9?$AA1?$AA?4?$AA4?$AA?2?$AAp?$AAj?$AAl?$AAi?$AAb?$AA?2?$AAs?$AAr?$AAc@ 0051f848     pjlib-i386-win32-vc8-debug:os_core_win32.obj
 0003:000108c0       ??_C@_1EE@JKGKFCJM@?$AAm?$AAu?$AAt?$AAe?$AAx?$AA?9?$AA?$DO?$AAr?$AAe?$AAa?$AAd?$AAe?$AAr?$AA_?$AAc?$AAo?$AAu?$AAn?$AAt?$AA?5?$AA?$DM?$AA?5?$AA0?$AAx?$AA7?$AAF?$AAF?$AAF?$AAF?$AAF?$AAF?$AA0@ 0051f8c0     pjlib-i386-win32-vc8-debug:os_core_win32.obj
 0003:00010918       ??_C@_1EE@FBNPIAAA@?$AA?$CB?$AA?$CC?$AAT?$AAh?$AAi?$AAs?$AA?5?$AAp?$AAr?$AAe?$AAt?$AAt?$AAy?$AA?5?$AAm?$AAu?$AAc?$AAh?$AA?5?$AAi?$AAs?$AA?5?$AAu?$AAn?$AAe?$AAx?$AAp?$AAe?$AAc?$AAt?$AAe?$AAd@ 0051f918     pjlib-i386-win32-vc8-debug:os_core_win32.obj
 0003:0001096c       ??_C@_0BP@HDILOBIG@This?5pretty?5much?5is?5unexpected?$AA@ 0051f96c     pjlib-i386-win32-vc8-debug:os_core_win32.obj
 0003:00010994       ??_C@_1DC@HENDGEDB@?$AAm?$AAu?$AAt?$AAe?$AAx?$AA?9?$AA?$DO?$AAr?$AAe?$AAa?$AAd?$AAe?$AAr?$AA_?$AAc?$AAo?$AAu?$AAn?$AAt?$AA?5?$AA?$DO?$AA?$DN?$AA?5?$AA1?$AA?$AA@ 0051f994     pjlib-i386-win32-vc8-debug:os_core_win32.obj
 0003:000109d0       ??_C@_1DC@HACGLEAM@?$AAm?$AAu?$AAt?$AAe?$AAx?$AA?9?$AA?$DO?$AAr?$AAe?$AAa?$AAd?$AAe?$AAr?$AA_?$AAc?$AAo?$AAu?$AAn?$AAt?$AA?5?$AA?$DM?$AA?$DN?$AA?5?$AA1?$AA?$AA@ 0051f9d0     pjlib-i386-win32-vc8-debug:os_core_win32.obj
 0003:00010a0c       ??_C@_05EKKMALCN@sem?$CFp?$AA@ 0051fa0c     pjlib-i386-win32-vc8-debug:os_core_win32.obj
 0003:00010a14       ??_C@_1CA@JMCEKLBJ@?$AAp?$AAo?$AAo?$AAl?$AA?5?$AA?$CG?$AA?$CG?$AA?5?$AAs?$AAe?$AAm?$AA_?$AAp?$AAt?$AAr?$AA?$AA@ 0051fa14     pjlib-i386-win32-vc8-debug:os_core_win32.obj
 0003:00010a3c       ??_C@_17CJHHAHNC@?$AAs?$AAe?$AAm?$AA?$AA@ 0051fa3c     pjlib-i386-win32-vc8-debug:os_core_win32.obj
 0003:00010a48       ??_C@_05JFHCBPOM@evt?$CFp?$AA@ 0051fa48     pjlib-i386-win32-vc8-debug:os_core_win32.obj
 0003:00010a50       ??_C@_1CE@LCHMPKLP@?$AAp?$AAo?$AAo?$AAl?$AA?5?$AA?$CG?$AA?$CG?$AA?5?$AAe?$AAv?$AAe?$AAn?$AAt?$AA_?$AAp?$AAt?$AAr?$AA?$AA@ 0051fa50     pjlib-i386-win32-vc8-debug:os_core_win32.obj
 0003:00010a7c       ??_C@_1M@IBCECAGJ@?$AAe?$AAv?$AAe?$AAn?$AAt?$AA?$AA@ 0051fa7c     pjlib-i386-win32-vc8-debug:os_core_win32.obj
 0003:00010a8c       ??_C@_0M@IGFPEOLJ@cachingpool?$AA@ 0051fa8c     pjlib-i386-win32-vc8-debug:pool_caching.obj
 0003:00010a9c       ??_C@_0DD@KAFBPNDE@d?3?2mygit?2pjproject?91?44?2pjlib?2src@ 0051fa9c     pjlib-i386-win32-vc8-debug:pool_caching.obj
 0003:00010adc       ??_C@_0DD@ECGDPCBA@Pool?5is?5not?5released?5by?5applicat@ 0051fadc     pjlib-i386-win32-vc8-debug:pool_caching.obj
 0003:00010b1c       ??_C@_19PJIDINHE@?$AAi?$AA?$DM?$AA1?$AA6?$AA?$AA@ 0051fb1c     pjlib-i386-win32-vc8-debug:pool_caching.obj
 0003:00010b28       ??_C@_1BG@FEHIFIBG@?$AAp?$AAf?$AA?5?$AA?$CG?$AA?$CG?$AA?5?$AAp?$AAo?$AAo?$AAl?$AA?$AA@ 0051fb28     pjlib-i386-win32-vc8-debug:pool_caching.obj
 0003:00010b48       ??_C@_1GG@MBCHAACK@?$AAd?$AA?3?$AA?2?$AAm?$AAy?$AAg?$AAi?$AAt?$AA?2?$AAp?$AAj?$AAp?$AAr?$AAo?$AAj?$AAe?$AAc?$AAt?$AA?9?$AA1?$AA?4?$AA4?$AA?2?$AAp?$AAj?$AAl?$AAi?$AAb?$AA?2?$AAs?$AAr?$AAc@ 0051fb48     pjlib-i386-win32-vc8-debug:pool_caching.obj
 0003:00010bc4       ??_C@_0CB@GKBJPDKG@?5?5Total?5?$CF9d?5of?5?$CF9d?5?$CI?$CFd?5?$CF?$CF?$CJ?5used?$CB@ 0051fbc4     pjlib-i386-win32-vc8-debug:pool_caching.obj
 0003:00010bec       ??_C@_0CA@MMLIKIEG@?5?5?5?$CF16s?3?5?$CF8d?5of?5?$CF8d?5?$CI?$CFd?$CF?$CF?$CJ?5used?$AA@ 0051fbec     pjlib-i386-win32-vc8-debug:pool_caching.obj
 0003:00010c14       ??_C@_0BM@IDLDGCC@?5?5Dumping?5all?5active?5pools?3?$AA@ 0051fc14     pjlib-i386-win32-vc8-debug:pool_caching.obj
 0003:00010c38       ??_C@_0CN@DOKPIIOH@?5?5?5Capacity?$DN?$CFu?0?5max_capacity?$DN?$CFu?0@ 0051fc38     pjlib-i386-win32-vc8-debug:pool_caching.obj
 0003:00010c70       ??_C@_08COPEICHG@cachpool?$AA@ 0051fc70     pjlib-i386-win32-vc8-debug:pool_caching.obj
 0003:00010c7c       ??_C@_0BH@BBPHJKOA@?5Dumping?5caching?5pool?3?$AA@ 0051fc7c     pjlib-i386-win32-vc8-debug:pool_caching.obj
 0003:00010c98       ??_C@_1CC@EAFADDBO@?$AAp?$AA?5?$AA?$CB?$AA?$DN?$AA?5?$AA?$CI?$AA?$CI?$AAv?$AAo?$AAi?$AAd?$AA?5?$AA?$CK?$AA?$CJ?$AA0?$AA?$CJ?$AA?$AA@ 0051fc98     pjlib-i386-win32-vc8-debug:pool.obj
 0003:00010cc0       ??_C@_1FG@JDMIMKBI@?$AAd?$AA?3?$AA?2?$AAm?$AAy?$AAg?$AAi?$AAt?$AA?2?$AAp?$AAj?$AAp?$AAr?$AAo?$AAj?$AAe?$AAc?$AAt?$AA?9?$AA1?$AA?4?$AA4?$AA?2?$AAp?$AAj?$AAl?$AAi?$AAb?$AA?2?$AAs?$AAr?$AAc@ 0051fcc0     pjlib-i386-win32-vc8-debug:pool.obj
 0003:00010d28       ??_C@_0CL@BHDJIK@d?3?2mygit?2pjproject?91?44?2pjlib?2src@ 0051fd28     pjlib-i386-win32-vc8-debug:pool.obj
 0003:00010d5c       ??_C@_1DM@GJMPJMCP@?$AAs?$AAi?$AAz?$AAe?$AA?5?$AA?$DO?$AA?$DN?$AA?5?$AAs?$AAi?$AAz?$AAe?$AAo?$AAf?$AA?$CI?$AAp?$AAj?$AA_?$AAp?$AAo?$AAo?$AAl?$AA_?$AAb?$AAl?$AAo?$AAc?$AAk?$AA?$CJ?$AA?$AA@ 0051fd5c     pjlib-i386-win32-vc8-debug:pool.obj
 0003:00010da8       ??_C@_1HA@KHKDBJOJ@?$AAi?$AAn?$AAi?$AAt?$AAi?$AAa?$AAl?$AA_?$AAs?$AAi?$AAz?$AAe?$AA?5?$AA?$DO?$AA?$DN?$AA?5?$AAs?$AAi?$AAz?$AAe?$AAo?$AAf?$AA?$CI?$AAp?$AAj?$AA_?$AAp?$AAo?$AAo?$AAl?$AA_?$AAt@ 0051fda8     pjlib-i386-win32-vc8-debug:pool.obj
 0003:00010e30       __real@41cdcd6500000000    0051fe30     pjlib-i386-win32-vc8-debug:os_timestamp_common.obj
 0003:00010e40       __real@412e848000000000    0051fe40     pjlib-i386-win32-vc8-debug:os_timestamp_common.obj
 0003:00010e4c       ??_C@_03FEFJNEK@Sat?$AA@   0051fe4c     pjlib-i386-win32-vc8-debug:log.obj
 0003:00010e50       ??_C@_03IDIOELNC@Fri?$AA@  0051fe50     pjlib-i386-win32-vc8-debug:log.obj
 0003:00010e54       ??_C@_03IOFIKPDN@Thu?$AA@  0051fe54     pjlib-i386-win32-vc8-debug:log.obj
 0003:00010e58       ??_C@_03MHOMLAJA@Wed?$AA@  0051fe58     pjlib-i386-win32-vc8-debug:log.obj
 0003:00010e5c       ??_C@_03NAGEINEP@Tue?$AA@  0051fe5c     pjlib-i386-win32-vc8-debug:log.obj
 0003:00010e60       ??_C@_03PDAGKDH@Mon?$AA@   0051fe60     pjlib-i386-win32-vc8-debug:log.obj
 0003:00010e64       ??_C@_03KOEHGMDN@Sun?$AA@  0051fe64     pjlib-i386-win32-vc8-debug:log.obj
 0003:00010e68       ??_C@_06HGKAKJPG@DETRC?3?$AA@ 0051fe68     pjlib-i386-win32-vc8-debug:log.obj
 0003:00010e70       ??_C@_06ELIFFDKB@TRACE?3?$AA@ 0051fe70     pjlib-i386-win32-vc8-debug:log.obj
 0003:00010e78       ??_C@_06DNOFLLB@DEBUG?3?$AA@ 0051fe78     pjlib-i386-win32-vc8-debug:log.obj
 0003:00010e80       ??_C@_06ICKKLHPE@?5INFO?3?$AA@ 0051fe80     pjlib-i386-win32-vc8-debug:log.obj
 0003:00010e88       ??_C@_06OHJPOJDB@?5WARN?3?$AA@ 0051fe88     pjlib-i386-win32-vc8-debug:log.obj
 0003:00010e90       ??_C@_06PONDCDME@ERROR?3?$AA@ 0051fe90     pjlib-i386-win32-vc8-debug:log.obj
 0003:00010e98       ??_C@_06DDFOEFIF@FATAL?3?$AA@ 0051fe98     pjlib-i386-win32-vc8-debug:log.obj
 0003:00010ea0       ??_C@_0BO@BGMDCDKP@?$DMlogging?5error?3?5msg?5too?5long?$DO?$AA@ 0051fea0     pjlib-i386-win32-vc8-debug:log.obj
 0003:00010ec4       ??_C@_0CK@EEOLDIAL@d?3?2mygit?2pjproject?91?44?2pjlib?2src@ 0051fec4     pjlib-i386-win32-vc8-debug:log.obj
 0003:00010ef8       ??_C@_0DJ@OCCONKIP@d?3?2mygit?2pjproject?91?44?2pjlib?2src@ 0051fef8     pjlib-i386-win32-vc8-debug:pool_policy_malloc.obj
 0003:00010f3c       ??_C@_0CK@DJAHHNOI@Unsupported?5address?5family?5?$CIPJ_E@ 0051ff3c     pjlib-i386-win32-vc8-debug:errno.obj
 0003:00010f70       ??_C@_0CH@OGOOBJBE@IPv6?5is?5not?5supported?5?$CIPJ_EIPV6N@ 0051ff70     pjlib-i386-win32-vc8-debug:errno.obj
 0003:00010fa0       ??_C@_0BG@NBDJGAFI@Ignored?5?$CIPJ_EIGNORED?$CJ?$AA@ 0051ffa0     pjlib-i386-win32-vc8-debug:errno.obj
 0003:00010fbc       ??_C@_0CB@MGGLJMNO@Size?5is?5too?5short?5?$CIPJ_ETOOSMALL?$CJ@ 0051ffbc     pjlib-i386-win32-vc8-debug:errno.obj
 0003:00010fe4       ??_C@_0DB@FDCHLEID@gethostbyname?$CI?$CJ?5has?5returned?5err@ 0051ffe4     pjlib-i386-win32-vc8-debug:errno.obj
 0003:00011020       ??_C@_0BN@PCCNBFLN@Size?5is?5too?5big?5?$CIPJ_ETOOBIG?$CJ?$AA@ 00520020     pjlib-i386-win32-vc8-debug:errno.obj
 0003:00011044       ??_C@_0BG@GMBDFNLN@End?5of?5file?5?$CIPJ_EEOF?$CJ?$AA@ 00520044     pjlib-i386-win32-vc8-debug:errno.obj
 0003:00011060       ??_C@_0CD@LODOFNLC@Object?5already?5exists?5?$CIPJ_EEXIST@ 00520060     pjlib-i386-win32-vc8-debug:errno.obj
 0003:0001108c       ??_C@_0CE@KDDMJLGF@Operation?5cancelled?5?$CIPJ_ECANCELL@ 0052008c     pjlib-i386-win32-vc8-debug:errno.obj
 0003:000110b8       ??_C@_0CC@OEEEEEML@Invalid?5operation?5?$CIPJ_EINVALIDOP@ 005200b8     pjlib-i386-win32-vc8-debug:errno.obj
 0003:000110e0       ??_C@_0CP@BAIBJOJE@Option?1operation?5is?5not?5supporte@ 005200e0     pjlib-i386-win32-vc8-debug:errno.obj
 0003:00011118       ??_C@_0BK@OMPILOH@Object?5is?5busy?5?$CIPJ_EBUSY?$CJ?$AA@ 00520118     pjlib-i386-win32-vc8-debug:errno.obj
 0003:00011138       ??_C@_0DF@MIFNAIHL@Too?5many?5objects?5of?5the?5specifie@ 00520138     pjlib-i386-win32-vc8-debug:errno.obj
 0003:00011178       ??_C@_0CD@JOGIDHPJ@Operation?5timed?5out?5?$CIPJ_ETIMEDOU@ 00520178     pjlib-i386-win32-vc8-debug:errno.obj
 0003:000111a4       ??_C@_0BI@HHGDCAID@BUG?5DETECTED?$CB?5?$CIPJ_EBUG?$CJ?$AA@ 005201a4     pjlib-i386-win32-vc8-debug:errno.obj
 0003:000111c0       ??_C@_0BO@GOLCMJKK@Not?5enough?5memory?5?$CIPJ_ENOMEM?$CJ?$AA@ 005201c0     pjlib-i386-win32-vc8-debug:errno.obj
 0003:000111e4       ??_C@_0BJ@JNKLPII@Not?5found?5?$CIPJ_ENOTFOUND?$CJ?$AA@ 005201e4     pjlib-i386-win32-vc8-debug:errno.obj
 0003:00011204       ??_C@_0CA@GJABNEKD@Name?5too?5long?5?$CIPJ_ENAMETOOLONG?$CJ?$AA@ 00520204     pjlib-i386-win32-vc8-debug:errno.obj
 0003:0001122c       ??_C@_0CG@CBCJBJGD@Invalid?5value?5or?5argument?5?$CIPJ_EI@ 0052022c     pjlib-i386-win32-vc8-debug:errno.obj
 0003:0001125c       ??_C@_0CO@GABEOAFF@Too?5many?5connecting?5sockets?5?$CIPJ_@ 0052025c     pjlib-i386-win32-vc8-debug:errno.obj
 0003:00011294       ??_C@_0CA@DCLOOJGD@Pending?5operation?5?$CIPJ_EPENDING?$CJ?$AA@ 00520294     pjlib-i386-win32-vc8-debug:errno.obj
 0003:000112bc       ??_C@_0BM@FLPPOGAG@Unknown?5Error?5?$CIPJ_EUNKNOWN?$CJ?$AA@ 005202bc     pjlib-i386-win32-vc8-debug:errno.obj
 0003:000113b8       ??_C@_1FK@DLNOOHBD@?$AAs?$AAt?$AAa?$AAr?$AAt?$AA?5?$AA?$DO?$AA?$DN?$AA?5?$AA?$CI?$AA?$CI?$AA?$CI?$AA2?$AA0?$AA0?$AA0?$AA0?$AA?5?$AA?$CL?$AA?5?$AA5?$AA0?$AA0?$AA0?$AA0?$AA?$CJ?$AA?5?$AA?$CL?$AA?5?$AA5?$AA0?$AA0@ 005203b8     pjlib-i386-win32-vc8-debug:errno.obj
 0003:00011428       ??_C@_1HO@NFELGIHB@?$AAe?$AAr?$AAr?$AA_?$AAm?$AAs?$AAg?$AA_?$AAh?$AAn?$AAd?$AA_?$AAc?$AAn?$AAt?$AA?5?$AA?$DM?$AA?5?$AA?$CI?$AAs?$AAi?$AAz?$AAe?$AAo?$AAf?$AA?$CI?$AAe?$AAr?$AAr?$AA_?$AAm?$AAs@ 00520428     pjlib-i386-win32-vc8-debug:errno.obj
 0003:000114c0       ??_C@_1CI@LKNPLGGB@?$AAs?$AAt?$AAa?$AAr?$AAt?$AA?5?$AA?$CG?$AA?$CG?$AA?5?$AAs?$AAp?$AAa?$AAc?$AAe?$AA?5?$AA?$CG?$AA?$CG?$AA?5?$AAf?$AA?$AA@ 005204c0     pjlib-i386-win32-vc8-debug:errno.obj
 0003:000114f0       ??_C@_1FI@FNLMDAID@?$AAd?$AA?3?$AA?2?$AAm?$AAy?$AAg?$AAi?$AAt?$AA?2?$AAp?$AAj?$AAp?$AAr?$AAo?$AAj?$AAe?$AAc?$AAt?$AA?9?$AA1?$AA?4?$AA4?$AA?2?$AAp?$AAj?$AAl?$AAi?$AAb?$AA?2?$AAs?$AAr?$AAc@ 005204f0     pjlib-i386-win32-vc8-debug:errno.obj
 0003:0001155c       ??_C@_0BB@BIKLJNJD@Unknown?5error?5?$CFd?$AA@ 0052055c     pjlib-i386-win32-vc8-debug:errno.obj
 0003:00011570       ??_C@_07PBILKAFL@Success?$AA@ 00520570     pjlib-i386-win32-vc8-debug:errno.obj
 0003:0001157c       ??_C@_1BO@OJPHOMAD@?$AAb?$AAu?$AAf?$AA?5?$AA?$CG?$AA?$CG?$AA?5?$AAb?$AAu?$AAf?$AAs?$AAi?$AAz?$AAe?$AA?$AA@ 0052057c     pjlib-i386-win32-vc8-debug:errno.obj
 0003:000115a0       ??_C@_0BH@ONDLFCEA@Unknown?5pjlib?5error?5?$CFd?$AA@ 005205a0     pjlib-i386-win32-vc8-debug:errno.obj
 0003:000115bc       ??_C@_06DJHOIPC@?$CFs?3?5?$CFs?$AA@ 005205bc     pjlib-i386-win32-vc8-debug:errno.obj
 0003:000115c4       ??_C@_05NAOIJFC@Error?$AA@ 005205c4     pjlib-i386-win32-vc8-debug:errno.obj
 0003:000115cc       ??_C@_1CA@KCHPHKDA@?$AAi?$AAo?$AAq?$AAu?$AAe?$AAu?$AAe?$AA?5?$AA?$CG?$AA?$CG?$AA?5?$AAl?$AAo?$AAc?$AAk?$AA?$AA@ 005205cc     pjlib-i386-win32-vc8-debug:ioqueue_select.obj
 0003:000115f8       ??_C@_1HC@IJKGENJH@?$AAd?$AA?3?$AA?2?$AAm?$AAy?$AAg?$AAi?$AAt?$AA?2?$AAp?$AAj?$AAp?$AAr?$AAo?$AAj?$AAe?$AAc?$AAt?$AA?9?$AA1?$AA?4?$AA4?$AA?2?$AAp?$AAj?$AAl?$AAi?$AAb?$AA?2?$AAs?$AAr?$AAc@ 005205f8     pjlib-i386-win32-vc8-debug:ioqueue_select.obj
 0003:00011680       ??_C@_1CG@DEMIAMFE@?$AAk?$AAe?$AAy?$AA?5?$AA?$CB?$AA?$DN?$AA?5?$AA?$CI?$AA?$CI?$AAv?$AAo?$AAi?$AAd?$AA?5?$AA?$CK?$AA?$CJ?$AA0?$AA?$CJ?$AA?$AA@ 00520680     pjlib-i386-win32-vc8-debug:ioqueue_select.obj
 0003:000116b0       ??_C@_17FJFCONIE@?$AAk?$AAe?$AAy?$AA?$AA@ 005206b0     pjlib-i386-win32-vc8-debug:ioqueue_select.obj
 0003:000116bc       ??_C@_1BI@EKGFNMKL@?$AAs?$AAe?$AAn?$AAd?$AA_?$AAr?$AAc?$AA?5?$AA?$DO?$AA?5?$AA0?$AA?$AA@ 005206bc     pjlib-i386-win32-vc8-debug:ioqueue_select.obj
 0003:000116d8       ??_C@_1DG@KDBMKDML@?$AA?$CB?$AA?$CC?$AAI?$AAn?$AAv?$AAa?$AAl?$AAi?$AAd?$AA?5?$AAo?$AAp?$AAe?$AAr?$AAa?$AAt?$AAi?$AAo?$AAn?$AA?5?$AAt?$AAy?$AAp?$AAe?$AA?$CB?$AA?$CC?$AA?$AA@ 005206d8     pjlib-i386-win32-vc8-debug:ioqueue_select.obj
 0003:00011718       ??_C@_0BI@NKJLJNEF@Invalid?5operation?5type?$CB?$AA@ 00520718     pjlib-i386-win32-vc8-debug:ioqueue_select.obj
 0003:00011738       ??_C@_1EE@CNIDBBIK@?$AAr?$AAe?$AAa?$AAd?$AA_?$AAo?$AAp?$AA?9?$AA?$DO?$AAo?$AAp?$AA?5?$AA?$DN?$AA?$DN?$AA?5?$AAP?$AAJ?$AA_?$AAI?$AAO?$AAQ?$AAU?$AAE?$AAU?$AAE?$AA_?$AAO?$AAP?$AA_?$AAR?$AAE?$AAA@ 00520738     pjlib-i386-win32-vc8-debug:ioqueue_select.obj
 0003:0001178c       ??_C@_0DJ@LEHEFFKN@d?3?2mygit?2pjproject?91?44?2pjlib?2src@ 0052078c     pjlib-i386-win32-vc8-debug:ioqueue_select.obj
 0003:000117d0       ??_C@_1EE@GPIKMDPH@?$AAk?$AAe?$AAy?$AA?5?$AA?$CG?$AA?$CG?$AA?5?$AAo?$AAp?$AA_?$AAk?$AAe?$AAy?$AA?5?$AA?$CG?$AA?$CG?$AA?5?$AAb?$AAu?$AAf?$AAf?$AAe?$AAr?$AA?5?$AA?$CG?$AA?$CG?$AA?5?$AAl?$AAe?$AAn?$AAg?$AAt@ 005207d0     pjlib-i386-win32-vc8-debug:ioqueue_select.obj
 0003:00011828       ??_C@_1EA@PBLBPGMH@?$AAk?$AAe?$AAy?$AA?5?$AA?$CG?$AA?$CG?$AA?5?$AAo?$AAp?$AA_?$AAk?$AAe?$AAy?$AA?5?$AA?$CG?$AA?$CG?$AA?5?$AAd?$AAa?$AAt?$AAa?$AA?5?$AA?$CG?$AA?$CG?$AA?5?$AAl?$AAe?$AAn?$AAg?$AAt?$AAh?$AA?$AA@ 00520828     pjlib-i386-win32-vc8-debug:ioqueue_select.obj
 0003:00011878       ??_C@_1EO@LGPBHJKN@?$AAa?$AAd?$AAd?$AAr?$AAl?$AAe?$AAn?$AA?5?$AA?$DM?$AA?$DN?$AA?5?$AA?$CI?$AAi?$AAn?$AAt?$AA?$CJ?$AAs?$AAi?$AAz?$AAe?$AAo?$AAf?$AA?$CI?$AAp?$AAj?$AA_?$AAs?$AAo?$AAc?$AAk?$AAa?$AAd@ 00520878     pjlib-i386-win32-vc8-debug:ioqueue_select.obj
 0003:000118d8       ??_C@_1DE@IAHNELBK@?$AAk?$AAe?$AAy?$AA?5?$AA?$CG?$AA?$CG?$AA?5?$AAo?$AAp?$AA_?$AAk?$AAe?$AAy?$AA?5?$AA?$CG?$AA?$CG?$AA?5?$AAn?$AAe?$AAw?$AA_?$AAs?$AAo?$AAc?$AAk?$AA?$AA@ 005208d8     pjlib-i386-win32-vc8-debug:ioqueue_select.obj
 0003:00011918       ??_C@_1CO@PMKELHLG@?$AAk?$AAe?$AAy?$AA?5?$AA?$CG?$AA?$CG?$AA?5?$AAa?$AAd?$AAd?$AAr?$AA?5?$AA?$CG?$AA?$CG?$AA?5?$AAa?$AAd?$AAd?$AAr?$AAl?$AAe?$AAn?$AA?$AA@ 00520918     pjlib-i386-win32-vc8-debug:ioqueue_select.obj
 0003:00011950       ??_C@_1CO@FLGLFEIC@?$AAi?$AAo?$AAq?$AAu?$AAe?$AAu?$AAe?$AA?5?$AA?$CB?$AA?$DN?$AA?5?$AA?$CI?$AA?$CI?$AAv?$AAo?$AAi?$AAd?$AA?5?$AA?$CK?$AA?$CJ?$AA0?$AA?$CJ?$AA?$AA@ 00520950     pjlib-i386-win32-vc8-debug:ioqueue_select.obj
 0003:00011988       ??_C@_1BG@HNKGLEIM@?$AAa?$AAl?$AAl?$AAo?$AAw?$AA?5?$AA?$HM?$AA?$HM?$AA?5?$AA1?$AA?$AA@ 00520988     pjlib-i386-win32-vc8-debug:ioqueue_select.obj
 0003:000119a4       ??_C@_06LGNCCACI@select?$AA@ 005209a4     pjlib-i386-win32-vc8-debug:ioqueue_select.obj
 0003:000119ac       ??_C@_05PHKAINEA@pjlib?$AA@ 005209ac     pjlib-i386-win32-vc8-debug:ioqueue_select.obj
 0003:000119b4       ??_C@_0CA@IMDCINDN@select?$CI?$CJ?5I?1O?5Queue?5created?5?$CI?$CFp?$CJ?$AA@ 005209b4     pjlib-i386-win32-vc8-debug:ioqueue_select.obj
 0003:000119dc       ??_C@_05LIJONKFG@ioq?$CFp?$AA@ 005209dc     pjlib-i386-win32-vc8-debug:ioqueue_select.obj
 0003:000119e8       ??_C@_1KA@LNOEPJNH@?$AAp?$AAo?$AAo?$AAl?$AA?5?$AA?$CB?$AA?$DN?$AA?5?$AA?$CI?$AA?$CI?$AAv?$AAo?$AAi?$AAd?$AA?5?$AA?$CK?$AA?$CJ?$AA0?$AA?$CJ?$AA?5?$AA?$CG?$AA?$CG?$AA?5?$AAp?$AA_?$AAi?$AAo?$AAq?$AAu?$AAe?$AAu?$AAe@ 005209e8     pjlib-i386-win32-vc8-debug:ioqueue_select.obj
 0003:00011aa8       ??_C@_1GK@HOPALPNM@?$AAd?$AA?3?$AA?2?$AAm?$AAy?$AAg?$AAi?$AAt?$AA?2?$AAp?$AAj?$AAp?$AAr?$AAo?$AAj?$AAe?$AAc?$AAt?$AA?9?$AA1?$AA?4?$AA4?$AA?2?$AAp?$AAj?$AAl?$AAi?$AAb?$AA?2?$AAs?$AAr?$AAc@ 00520aa8     pjlib-i386-win32-vc8-debug:ioqueue_select.obj
 0003:00011b28       ??_C@_1BA@ENKELKPH@?$AAi?$AAo?$AAq?$AAu?$AAe?$AAu?$AAe?$AA?$AA@ 00520b28     pjlib-i386-win32-vc8-debug:ioqueue_select.obj
 0003:00011b40       ??_C@_1EI@PJMCDAJH@?$AA?$CB?$AAp?$AAj?$AA_?$AAl?$AAi?$AAs?$AAt?$AA_?$AAe?$AAm?$AAp?$AAt?$AAy?$AA?$CI?$AA?$CG?$AAi?$AAo?$AAq?$AAu?$AAe?$AAu?$AAe?$AA?9?$AA?$DO?$AAf?$AAr?$AAe?$AAe?$AA_?$AAl?$AAi@ 00520b40     pjlib-i386-win32-vc8-debug:ioqueue_select.obj
 0003:00011b98       ??_C@_1FO@PPHPABF@?$AAp?$AAo?$AAo?$AAl?$AA?5?$AA?$CG?$AA?$CG?$AA?5?$AAi?$AAo?$AAq?$AAu?$AAe?$AAu?$AAe?$AA?5?$AA?$CG?$AA?$CG?$AA?5?$AAs?$AAo?$AAc?$AAk?$AA?5?$AA?$CB?$AA?$DN?$AA?5?$AA?$CI?$AA?9?$AA1?$AA?$CJ?$AA?5@ 00520b98     pjlib-i386-win32-vc8-debug:ioqueue_select.obj
 0003:00011c08       ??_C@_1CI@INOOPFAE@?$AAk?$AAe?$AAy?$AA?9?$AA?$DO?$AAr?$AAe?$AAf?$AA_?$AAc?$AAo?$AAu?$AAn?$AAt?$AA?5?$AA?$DN?$AA?$DN?$AA?5?$AA0?$AA?$AA@ 00520c08     pjlib-i386-win32-vc8-debug:ioqueue_select.obj
 0003:00011c38       ??_C@_1CG@PJOLFMEL@?$AAi?$AAo?$AAq?$AAu?$AAe?$AAu?$AAe?$AA?9?$AA?$DO?$AAc?$AAo?$AAu?$AAn?$AAt?$AA?5?$AA?$DO?$AA?5?$AA0?$AA?$AA@ 00520c38     pjlib-i386-win32-vc8-debug:ioqueue_select.obj
 0003:00011c68       ??_C@_1CE@KOHBIHOL@?$AAk?$AAe?$AAy?$AA?9?$AA?$DO?$AAc?$AAl?$AAo?$AAs?$AAi?$AAn?$AAg?$AA?5?$AA?$DN?$AA?$DN?$AA?5?$AA1?$AA?$AA@ 00520c68     pjlib-i386-win32-vc8-debug:ioqueue_select.obj
 0003:00011c94       ??_C@_1CA@OBALMACM@?$AAh?$AA?9?$AA?$DO?$AAc?$AAl?$AAo?$AAs?$AAi?$AAn?$AAg?$AA?5?$AA?$CB?$AA?$DN?$AA?5?$AA0?$AA?$AA@ 00520c94     pjlib-i386-win32-vc8-debug:ioqueue_select.obj
 0003:00011cbc       ??_C@_1CE@KOLKIPFK@?$AA?$CB?$AA?$CC?$AAI?$AAn?$AAv?$AAa?$AAl?$AAi?$AAd?$AA?5?$AAe?$AAv?$AAe?$AAn?$AAt?$AA?$CB?$AA?$CC?$AA?$AA@ 00520cbc     pjlib-i386-win32-vc8-debug:ioqueue_select.obj
 0003:00011ce8       ??_C@_0P@KEHJHANK@Invalid?5event?$CB?$AA@ 00520ce8     pjlib-i386-win32-vc8-debug:ioqueue_select.obj
 0003:00011cfc       ??_C@_0BB@JCEFLFJE@0123456789abcdef?$AA@ 00520cfc     pjlib-i386-win32-vc8-debug:string.obj
 0003:00011d10       ??_C@_0CN@HLGDBJEL@d?3?2mygit?2pjproject?91?44?2pjlib?2src@ 00520d10     pjlib-i386-win32-vc8-debug:string.obj
 0003:00011d48       ??_C@_1CI@NFHHBACP@?$AA?$CB?$AA?$CC?$AAU?$AAn?$AAs?$AAu?$AAp?$AAp?$AAo?$AAr?$AAt?$AAe?$AAd?$AA?5?$AAb?$AAa?$AAs?$AAe?$AA?$CC?$AA?$AA@ 00520d48     pjlib-i386-win32-vc8-debug:string.obj
 0003:00011d78       ??_C@_1FK@HCOEDFMJ@?$AAd?$AA?3?$AA?2?$AAm?$AAy?$AAg?$AAi?$AAt?$AA?2?$AAp?$AAj?$AAp?$AAr?$AAo?$AAj?$AAe?$AAc?$AAt?$AA?9?$AA1?$AA?4?$AA4?$AA?2?$AAp?$AAj?$AAl?$AAi?$AAb?$AA?2?$AAs?$AAr?$AAc@ 00520d78     pjlib-i386-win32-vc8-debug:string.obj
 0003:00011de4       ??_C@_0BB@CEONGONL@Unsupported?5base?$AA@ 00520de4     pjlib-i386-win32-vc8-debug:string.obj
 0003:00011df8       ??_C@_08KJEDNCKC@?$CFs?$CFs?$CFs?$CFs?$AA@ 00520df8     pjlib-i386-win32-vc8-debug:sock_common.obj
 0003:00011e04       ??_C@_03HODKBCIO@?3?$CFd?$AA@ 00520e04     pjlib-i386-win32-vc8-debug:sock_common.obj
 0003:00011e08       ??_C@_01LBDDMOBJ@?$FN?$AA@ 00520e08     pjlib-i386-win32-vc8-debug:sock_common.obj
 0003:00011e0c       ??_C@_01OHGJGJJP@?$FL?$AA@ 00520e0c     pjlib-i386-win32-vc8-debug:sock_common.obj
 0003:00011e10       ??_C@_1EI@LMAIDKEG@?$AA?$CB?$AAs?$AAt?$AAr?$AA_?$AAa?$AAd?$AAd?$AAr?$AA?5?$AA?$HM?$AA?$HM?$AA?5?$AAs?$AAt?$AAr?$AA_?$AAa?$AAd?$AAd?$AAr?$AA?9?$AA?$DO?$AAs?$AAl?$AAe?$AAn?$AA?5?$AA?$DM?$AA?5?$AA?$CI?$AA1@ 00520e10     pjlib-i386-win32-vc8-debug:sock_common.obj
 0003:00011e68       ??_C@_1GE@NJGOJLHF@?$AAd?$AA?3?$AA?2?$AAm?$AAy?$AAg?$AAi?$AAt?$AA?2?$AAp?$AAj?$AAp?$AAr?$AAo?$AAj?$AAe?$AAc?$AAt?$AA?9?$AA1?$AA?4?$AA4?$AA?2?$AAp?$AAj?$AAl?$AAi?$AAb?$AA?2?$AAs?$AAr?$AAc@ 00520e68     pjlib-i386-win32-vc8-debug:sock_common.obj
 0003:00011ee0       ??_C@_0DC@HPFAILKA@d?3?2mygit?2pjproject?91?44?2pjlib?2src@ 00520ee0     pjlib-i386-win32-vc8-debug:sock_common.obj
 0003:00011f1c       ??_C@_1CA@EINGOHHA@?$AAa?$AAf?$AA?$DN?$AA?$DN?$AAP?$AAJ?$AA_?$AAA?$AAF?$AA_?$AAI?$AAN?$AAE?$AAT?$AA6?$AA?$AA@ 00520f1c     pjlib-i386-win32-vc8-debug:sock_common.obj
 0003:00011f44       ??_C@_19CEKCHDNN@?$AAa?$AAd?$AAd?$AAr?$AA?$AA@ 00520f44     pjlib-i386-win32-vc8-debug:sock_common.obj
 0003:00011f50       ??_C@_1II@IEDNCJLG@?$AAa?$AA?9?$AA?$DO?$AAa?$AAd?$AAd?$AAr?$AA?4?$AAs?$AAa?$AA_?$AAf?$AAa?$AAm?$AAi?$AAl?$AAy?$AA?5?$AA?$DN?$AA?$DN?$AA?5?$AAP?$AAJ?$AA_?$AAA?$AAF?$AA_?$AAI?$AAN?$AAE?$AAT?$AA?5@ 00520f50     pjlib-i386-win32-vc8-debug:sock_common.obj
 0003:00011ff8       ??_C@_1EE@BHODCNOF@?$AAa?$AAf?$AA?$DN?$AA?$DN?$AAP?$AAJ?$AA_?$AAA?$AAF?$AA_?$AAI?$AAN?$AAE?$AAT?$AA?5?$AA?$HM?$AA?$HM?$AA?5?$AAa?$AAf?$AA?$DN?$AA?$DN?$AAP?$AAJ?$AA_?$AAA?$AAF?$AA_?$AAI?$AAN?$AAE?$AAT@ 00520ff8     pjlib-i386-win32-vc8-debug:sock_common.obj
 0003:00012050       ??_C@_1LE@BCBAMGPH@?$AA?$CI?$AAa?$AAf?$AA?$DN?$AA?$DN?$AAP?$AAJ?$AA_?$AAA?$AAF?$AA_?$AAI?$AAN?$AAE?$AAT?$AA?5?$AA?$HM?$AA?$HM?$AA?5?$AAa?$AAf?$AA?$DN?$AA?$DN?$AAP?$AAJ?$AA_?$AAA?$AAF?$AA_?$AAI?$AAN?$AAE@ 00521050     pjlib-i386-win32-vc8-debug:sock_common.obj
 0003:00012128       ??_C@_1BK@KDKCCGFK@?$AAo?$AAp?$AAt?$AAi?$AAo?$AAn?$AAs?$AA?5?$AA?$DN?$AA?$DN?$AA?5?$AA0?$AA?$AA@ 00521128     pjlib-i386-win32-vc8-debug:sock_common.obj
 0003:00012148       ??_C@_1GM@GCDHCLKA@?$AAa?$AAf?$AA?$DN?$AA?$DN?$AAP?$AAJ?$AA_?$AAA?$AAF?$AA_?$AAU?$AAN?$AAS?$AAP?$AAE?$AAC?$AA?5?$AA?$HM?$AA?$HM?$AA?5?$AAa?$AAf?$AA?$DN?$AA?$DN?$AAP?$AAJ?$AA_?$AAA?$AAF?$AA_?$AAI?$AAN@ 00521148     pjlib-i386-win32-vc8-debug:sock_common.obj
 0003:000121d0       ??_C@_1FK@OKOAJPPE@?$AAa?$AAi?$AA?4?$AAa?$AAi?$AA_?$AAa?$AAd?$AAd?$AAr?$AA?4?$AAa?$AAd?$AAd?$AAr?$AA?4?$AAs?$AAa?$AA_?$AAf?$AAa?$AAm?$AAi?$AAl?$AAy?$AA?5?$AA?$DN?$AA?$DN?$AA?5?$AA?$CI?$AAp?$AAj@ 005211d0     pjlib-i386-win32-vc8-debug:sock_common.obj
 0003:0001223c       ??_C@_04NFKLOGOF@1?3?31?$AA@ 0052123c     pjlib-i386-win32-vc8-debug:sock_common.obj
 0003:00012244       ??_C@_07EBPGIHEF@1?41?41?41?$AA@ 00521244     pjlib-i386-win32-vc8-debug:sock_common.obj
 0003:00012250       _PJ_AF_UNSPEC              00521250     pjlib-i386-win32-vc8-debug:sock_bsd.obj
 0003:00012254       _PJ_AF_UNIX                00521254     pjlib-i386-win32-vc8-debug:sock_bsd.obj
 0003:00012258       _PJ_AF_INET                00521258     pjlib-i386-win32-vc8-debug:sock_bsd.obj
 0003:0001225c       _PJ_AF_INET6               0052125c     pjlib-i386-win32-vc8-debug:sock_bsd.obj
 0003:00012260       _PJ_AF_PACKET              00521260     pjlib-i386-win32-vc8-debug:sock_bsd.obj
 0003:00012264       _PJ_AF_IRDA                00521264     pjlib-i386-win32-vc8-debug:sock_bsd.obj
 0003:00012268       _PJ_SOCK_STREAM            00521268     pjlib-i386-win32-vc8-debug:sock_bsd.obj
 0003:0001226c       _PJ_SOCK_DGRAM             0052126c     pjlib-i386-win32-vc8-debug:sock_bsd.obj
 0003:00012270       _PJ_SOCK_RAW               00521270     pjlib-i386-win32-vc8-debug:sock_bsd.obj
 0003:00012274       _PJ_SOCK_RDM               00521274     pjlib-i386-win32-vc8-debug:sock_bsd.obj
 0003:00012278       _PJ_SOL_SOCKET             00521278     pjlib-i386-win32-vc8-debug:sock_bsd.obj
 0003:0001227c       _PJ_SOL_IP                 0052127c     pjlib-i386-win32-vc8-debug:sock_bsd.obj
 0003:00012280       _PJ_SOL_TCP                00521280     pjlib-i386-win32-vc8-debug:sock_bsd.obj
 0003:00012284       _PJ_SOL_UDP                00521284     pjlib-i386-win32-vc8-debug:sock_bsd.obj
 0003:00012288       _PJ_SOL_IPV6               00521288     pjlib-i386-win32-vc8-debug:sock_bsd.obj
 0003:0001228c       _PJ_IP_TOS                 0052128c     pjlib-i386-win32-vc8-debug:sock_bsd.obj
 0003:00012290       _PJ_IPTOS_LOWDELAY         00521290     pjlib-i386-win32-vc8-debug:sock_bsd.obj
 0003:00012294       _PJ_IPTOS_THROUGHPUT       00521294     pjlib-i386-win32-vc8-debug:sock_bsd.obj
 0003:00012298       _PJ_IPTOS_RELIABILITY      00521298     pjlib-i386-win32-vc8-debug:sock_bsd.obj
 0003:0001229c       _PJ_IPTOS_MINCOST          0052129c     pjlib-i386-win32-vc8-debug:sock_bsd.obj
 0003:000122a0       _PJ_SO_TYPE                005212a0     pjlib-i386-win32-vc8-debug:sock_bsd.obj
 0003:000122a4       _PJ_SO_RCVBUF              005212a4     pjlib-i386-win32-vc8-debug:sock_bsd.obj
 0003:000122a8       _PJ_SO_SNDBUF              005212a8     pjlib-i386-win32-vc8-debug:sock_bsd.obj
 0003:000122ac       _PJ_TCP_NODELAY            005212ac     pjlib-i386-win32-vc8-debug:sock_bsd.obj
 0003:000122b0       _PJ_SO_REUSEADDR           005212b0     pjlib-i386-win32-vc8-debug:sock_bsd.obj
 0003:000122b4       _PJ_SO_PRIORITY            005212b4     pjlib-i386-win32-vc8-debug:sock_bsd.obj
 0003:000122b8       _PJ_IP_MULTICAST_IF        005212b8     pjlib-i386-win32-vc8-debug:sock_bsd.obj
 0003:000122bc       _PJ_IP_MULTICAST_TTL       005212bc     pjlib-i386-win32-vc8-debug:sock_bsd.obj
 0003:000122c0       _PJ_IP_MULTICAST_LOOP      005212c0     pjlib-i386-win32-vc8-debug:sock_bsd.obj
 0003:000122c4       _PJ_IP_ADD_MEMBERSHIP      005212c4     pjlib-i386-win32-vc8-debug:sock_bsd.obj
 0003:000122c8       _PJ_IP_DROP_MEMBERSHIP     005212c8     pjlib-i386-win32-vc8-debug:sock_bsd.obj
 0003:000122cc       _PJ_MSG_OOB                005212cc     pjlib-i386-win32-vc8-debug:sock_bsd.obj
 0003:000122d0       _PJ_MSG_PEEK               005212d0     pjlib-i386-win32-vc8-debug:sock_bsd.obj
 0003:000122d4       _PJ_MSG_DONTROUTE          005212d4     pjlib-i386-win32-vc8-debug:sock_bsd.obj
 0003:000122f4       ??_C@_1CM@OEECOBPG@?$AAc?$AAp?$AA?5?$AA?$CG?$AA?$CG?$AA?5?$AAc?$AAp?$AA?9?$AA?$DO?$AAs?$AAl?$AAe?$AAn?$AA?5?$AA?$CG?$AA?$CG?$AA?5?$AAi?$AAn?$AAp?$AA?$AA@ 005212f4     pjlib-i386-win32-vc8-debug:sock_bsd.obj
 0003:00012328       ??_C@_1FO@MFHJLFFA@?$AAd?$AA?3?$AA?2?$AAm?$AAy?$AAg?$AAi?$AAt?$AA?2?$AAp?$AAj?$AAp?$AAr?$AAo?$AAj?$AAe?$AAc?$AAt?$AA?9?$AA1?$AA?4?$AA4?$AA?2?$AAp?$AAj?$AAl?$AAi?$AAb?$AA?2?$AAs?$AAr?$AAc@ 00521328     pjlib-i386-win32-vc8-debug:sock_bsd.obj
 0003:00012398       ??_C@_1DA@NIAFCNGJ@?$AAs?$AAr?$AAc?$AA?5?$AA?$CG?$AA?$CG?$AA?5?$AAs?$AAr?$AAc?$AA?9?$AA?$DO?$AAs?$AAl?$AAe?$AAn?$AA?5?$AA?$CG?$AA?$CG?$AA?5?$AAd?$AAs?$AAt?$AA?$AA@ 00521398     pjlib-i386-win32-vc8-debug:sock_bsd.obj
 0003:000123d4       ??_C@_1CG@FCIAPMOJ@?$AAs?$AAr?$AAc?$AA?5?$AA?$CG?$AA?$CG?$AA?5?$AAd?$AAs?$AAt?$AA?5?$AA?$CG?$AA?$CG?$AA?5?$AAs?$AAi?$AAz?$AAe?$AA?$AA@ 005213d4     pjlib-i386-win32-vc8-debug:sock_bsd.obj
 0003:00012404       ??_C@_0CP@COLIDBCF@d?3?2mygit?2pjproject?91?44?2pjlib?2src@ 00521404     pjlib-i386-win32-vc8-debug:sock_bsd.obj
 0003:0001243c       ??_C@_1CE@CHKBIEBK@?$AAs?$AAo?$AAc?$AAk?$AA?$CB?$AA?$DN?$AA?$CI?$AA?$CI?$AAv?$AAo?$AAi?$AAd?$AA?5?$AA?$CK?$AA?$CJ?$AA0?$AA?$CJ?$AA?$AA@ 0052143c     pjlib-i386-win32-vc8-debug:sock_bsd.obj
 0003:00012468       ??_C@_1FO@NFJOCODB@?$AAa?$AAd?$AAd?$AAr?$AA?5?$AA?$CG?$AA?$CG?$AA?5?$AAl?$AAe?$AAn?$AA?5?$AA?$DO?$AA?$DN?$AA?5?$AA?$CI?$AAi?$AAn?$AAt?$AA?$CJ?$AAs?$AAi?$AAz?$AAe?$AAo?$AAf?$AA?$CI?$AAs?$AAt?$AAr?$AAu?$AAc@ 00521468     pjlib-i386-win32-vc8-debug:sock_bsd.obj
 0003:000124d8       ??_C@_17JOFJILLL@?$AAl?$AAe?$AAn?$AA?$AA@ 005214d8     pjlib-i386-win32-vc8-debug:sock_bsd.obj
 0003:000124e4       ??_C@_1BG@KIOEFHJP@?$AAb?$AAu?$AAf?$AA?5?$AA?$CG?$AA?$CG?$AA?5?$AAl?$AAe?$AAn?$AA?$AA@ 005214e4     pjlib-i386-win32-vc8-debug:sock_bsd.obj
 0003:00012500       ??_C@_1CA@EMDLJNLA@?$AAf?$AAr?$AAo?$AAm?$AA?5?$AA?$CG?$AA?$CG?$AA?5?$AAf?$AAr?$AAo?$AAm?$AAl?$AAe?$AAn?$AA?$AA@ 00521500     pjlib-i386-win32-vc8-debug:sock_bsd.obj
 0003:00012528       ??_C@_1CC@JEHODAPI@?$AAo?$AAp?$AAt?$AAv?$AAa?$AAl?$AA?5?$AA?$CG?$AA?$CG?$AA?5?$AAo?$AAp?$AAt?$AAl?$AAe?$AAn?$AA?$AA@ 00521528     pjlib-i386-win32-vc8-debug:sock_bsd.obj
 0003:00012550       ??_C@_1CO@HPOGKJKP@?$AAn?$AAe?$AAw?$AAs?$AAo?$AAc?$AAk?$AA?5?$AA?$CB?$AA?$DN?$AA?5?$AA?$CI?$AA?$CI?$AAv?$AAo?$AAi?$AAd?$AA?5?$AA?$CK?$AA?$CJ?$AA0?$AA?$CJ?$AA?$AA@ 00521550     pjlib-i386-win32-vc8-debug:sock_bsd.obj
 0003:00012588       ??_C@_1DG@DCHEFIEL@?$AA?$CB?$AA?$CC?$AAI?$AAn?$AAv?$AAa?$AAl?$AAi?$AAd?$AA?5?$AAf?$AAi?$AAl?$AAe?$AA?5?$AAo?$AAp?$AAe?$AAn?$AA?5?$AAf?$AAl?$AAa?$AAg?$AAs?$AA?$CC?$AA?$AA@ 00521588     pjlib-i386-win32-vc8-debug:file_io_win32.obj
 0003:000125c8       ??_C@_0BI@LPOELMPF@Invalid?5file?5open?5flags?$AA@ 005215c8     pjlib-i386-win32-vc8-debug:file_io_win32.obj
 0003:000125e4       ??_C@_1CM@MJBFNBMA@?$AAp?$AAa?$AAt?$AAh?$AAn?$AAa?$AAm?$AAe?$AA?$CB?$AA?$DN?$AA?$CI?$AA?$CI?$AAv?$AAo?$AAi?$AAd?$AA?5?$AA?$CK?$AA?$CJ?$AA0?$AA?$CJ?$AA?$AA@ 005215e4     pjlib-i386-win32-vc8-debug:file_io_win32.obj
 0003:00012618       ??_C@_1GI@IKFBJBIN@?$AAd?$AA?3?$AA?2?$AAm?$AAy?$AAg?$AAi?$AAt?$AA?2?$AAp?$AAj?$AAp?$AAr?$AAo?$AAj?$AAe?$AAc?$AAt?$AA?9?$AA1?$AA?4?$AA4?$AA?2?$AAp?$AAj?$AAl?$AAi?$AAb?$AA?2?$AAs?$AAr?$AAc@ 00521618     pjlib-i386-win32-vc8-debug:file_io_win32.obj
 0003:00012698       ??_C@_1EC@LGNMFIKH@?$AA?$CB?$AA?$CC?$AAI?$AAn?$AAv?$AAa?$AAl?$AAi?$AAd?$AA?5?$AAw?$AAh?$AAe?$AAn?$AAc?$AAe?$AA?5?$AAi?$AAn?$AA?5?$AAf?$AAi?$AAl?$AAe?$AA_?$AAs?$AAe?$AAt?$AAp?$AAo?$AAs?$AA?$CC@ 00521698     pjlib-i386-win32-vc8-debug:file_io_win32.obj
 0003:000126e8       ??_C@_0BO@DKHJKGGI@Invalid?5whence?5in?5file_setpos?$AA@ 005216e8     pjlib-i386-win32-vc8-debug:file_io_win32.obj
 0003:0001270c       ??_C@_1DA@HKABCAPK@?$AAf?$AAi?$AAl?$AAe?$AAn?$AAa?$AAm?$AAe?$AA?5?$AA?$CB?$AA?$DN?$AA?5?$AA?$CI?$AA?$CI?$AAv?$AAo?$AAi?$AAd?$AA?5?$AA?$CK?$AA?$CJ?$AA0?$AA?$CJ?$AA?$AA@ 0052170c     pjlib-i386-win32-vc8-debug:file_access_win32.obj
 0003:00012748       ??_C@_1HA@FPMFOAFG@?$AAd?$AA?3?$AA?2?$AAm?$AAy?$AAg?$AAi?$AAt?$AA?2?$AAp?$AAj?$AAp?$AAr?$AAo?$AAj?$AAe?$AAc?$AAt?$AA?9?$AA1?$AA?4?$AA4?$AA?2?$AAp?$AAj?$AAl?$AAi?$AAb?$AA?2?$AAs?$AAr?$AAc@ 00521748     pjlib-i386-win32-vc8-debug:file_access_win32.obj
 0003:000127d0       ??_C@_1FK@FNKPHKMJ@?$AAo?$AAl?$AAd?$AAn?$AAa?$AAm?$AAe?$AA?$CB?$AA?$DN?$AA?$CI?$AA?$CI?$AAv?$AAo?$AAi?$AAd?$AA?5?$AA?$CK?$AA?$CJ?$AA0?$AA?$CJ?$AA?5?$AA?$CG?$AA?$CG?$AA?5?$AAn?$AAe?$AAw?$AAn?$AAa?$AAm?$AAe?$AA?$CB@ 005217d0     pjlib-i386-win32-vc8-debug:file_access_win32.obj
 0003:00012840       ??_C@_1FG@CEPDPGNF@?$AAf?$AAi?$AAl?$AAe?$AAn?$AAa?$AAm?$AAe?$AA?$CB?$AA?$DN?$AA?$CI?$AA?$CI?$AAv?$AAo?$AAi?$AAd?$AA?5?$AA?$CK?$AA?$CJ?$AA0?$AA?$CJ?$AA?5?$AA?$CG?$AA?$CG?$AA?5?$AAs?$AAt?$AAa?$AAt?$AA?$CB?$AA?$DN?$AA?$CI@ 00521840     pjlib-i386-win32-vc8-debug:file_access_win32.obj
 0003:000128a8       ??_C@_1BG@OJJHGIJH@?$AAc?$AAo?$AAu?$AAn?$AAt?$AA?5?$AA?$CB?$AA?$DN?$AA?5?$AA0?$AA?$AA@ 005218a8     pjlib-i386-win32-vc8-debug:array.obj
 0003:000128c8       ??_C@_1FI@MCFCBPCF@?$AAd?$AA?3?$AA?2?$AAm?$AAy?$AAg?$AAi?$AAt?$AA?2?$AAp?$AAj?$AAp?$AAr?$AAo?$AAj?$AAe?$AAc?$AAt?$AA?9?$AA1?$AA?4?$AA4?$AA?2?$AAp?$AAj?$AAl?$AAi?$AAb?$AA?2?$AAs?$AAr?$AAc@ 005218c8     pjlib-i386-win32-vc8-debug:array.obj
 0003:00012934       ??_C@_1CO@MDLDAOGN@?$AAh?$AAa?$AAn?$AAd?$AAl?$AAe?$AAr?$AA?5?$AA?$CB?$AA?$DN?$AA?5?$AA?$CI?$AA?$CI?$AAv?$AAo?$AAi?$AAd?$AA?5?$AA?$CK?$AA?$CJ?$AA0?$AA?$CJ?$AA?$AA@ 00521934     pjlib-i386-win32-vc8-debug:except.obj
 0003:00012970       ??_C@_1FK@MAPNBBJE@?$AAd?$AA?3?$AA?2?$AAm?$AAy?$AAg?$AAi?$AAt?$AA?2?$AAp?$AAj?$AAp?$AAr?$AAo?$AAj?$AAe?$AAc?$AAt?$AA?9?$AA1?$AA?4?$AA4?$AA?2?$AAp?$AAj?$AAl?$AAi?$AAb?$AA?2?$AAs?$AAr?$AAc@ 00521970     pjlib-i386-win32-vc8-debug:except.obj
 0003:000129dc       ??_C@_08PDFMOJIE@except?4c?$AA@ 005219dc     pjlib-i386-win32-vc8-debug:except.obj
 0003:000129e8       ??_C@_0CD@KFHCCJFN@?$CB?$CB?$CBFATAL?3?5unhandled?5exception?5?$CFs@ 005219e8     pjlib-i386-win32-vc8-debug:except.obj
 0003:00012a14       ??_C@_1CM@CIICDJMC@?$AAt?$AAh?$AAr?$AAe?$AAa?$AAd?$AA_?$AAl?$AAo?$AAc?$AAa?$AAl?$AA_?$AAi?$AAd?$AA?5?$AA?$CB?$AA?$DN?$AA?5?$AA?9?$AA1?$AA?$AA@ 00521a14     pjlib-i386-win32-vc8-debug:except.obj
 0003:00012a48       ??_C@_1BM@OONEPGEP@?$AAi?$AAd?$AA?$DO?$AA0?$AA?5?$AA?$CG?$AA?$CG?$AA?5?$AAi?$AAd?$AA?$DM?$AA1?$AA6?$AA?$AA@ 00521a48     pjlib-i386-win32-vc8-debug:except.obj
 0003:00012a6c       ??_C@_0N@LJPLLMIL@exception?5?$CFd?$AA@ 00521a6c     pjlib-i386-win32-vc8-debug:except.obj
 0003:00012a7c       ??_C@_0N@GJOLEKJC@?$DMInvalid?5ID?$DO?$AA@ 00521a7c     pjlib-i386-win32-vc8-debug:except.obj
 0003:00012a8c       ??_C@_1BK@HMAALPLD@?$AAp?$AAo?$AAo?$AAl?$AA?5?$AA?$CG?$AA?$CG?$AA?5?$AAl?$AAo?$AAc?$AAk?$AA?$AA@ 00521a8c     pjlib-i386-win32-vc8-debug:lock.obj
 0003:00012ab0       ??_C@_1FG@MPHGIOMO@?$AAd?$AA?3?$AA?2?$AAm?$AAy?$AAg?$AAi?$AAt?$AA?2?$AAp?$AAj?$AAp?$AAr?$AAo?$AAj?$AAe?$AAc?$AAt?$AA?9?$AA1?$AA?4?$AA4?$AA?2?$AAp?$AAj?$AAl?$AAi?$AAb?$AA?2?$AAs?$AAr?$AAc@ 00521ab0     pjlib-i386-win32-vc8-debug:lock.obj
 0003:00012b18       ??_C@_19LMCCMMJG@?$AAl?$AAo?$AAc?$AAk?$AA?$AA@ 00521b18     pjlib-i386-win32-vc8-debug:lock.obj
 0003:00012b24       ??_C@_1CI@EGCMNLMJ@?$AAl?$AAo?$AAc?$AAk?$AA?5?$AA?$CB?$AA?$DN?$AA?5?$AA?$CI?$AA?$CI?$AAv?$AAo?$AAi?$AAd?$AA?5?$AA?$CK?$AA?$CJ?$AA0?$AA?$CJ?$AA?$AA@ 00521b24     pjlib-i386-win32-vc8-debug:lock.obj
 0003:00012b54       ??_C@_09LHLPNNII@1?46?9trunk?$AA@ 00521b54     pjlib-i386-win32-vc8-debug:config.obj
 0003:00012b60       ??_C@_08DOCHLGNA@config?4c?$AA@ 00521b60     pjlib-i386-win32-vc8-debug:config.obj
 0003:00012b6c       ??_C@_0CA@HPFADEMC@?5PJ_HAS_HIGH_RES_TIMER?5?5?5?5?5?3?5?$CFd?$AA@ 00521b6c     pjlib-i386-win32-vc8-debug:config.obj
 0003:00012b94       ??_C@_0CA@KNFEOAMF@?5PJ_OS_HAS_CHECK_STACK?5?5?5?5?5?3?5?$CFd?$AA@ 00521b94     pjlib-i386-win32-vc8-debug:config.obj
 0003:00012bbc       ??_C@_0CA@ELABDFDK@?5PJ_TIMESTAMP_USE_RDTSC?3?5?5?5?3?5?$CFd?$AA@ 00521bbc     pjlib-i386-win32-vc8-debug:config.obj
 0003:00012be4       ??_C@_0CA@JCLOPIAE@?5PJ_EXCEPTION_USE_WIN32_SEH?3?5?$CFd?$AA@ 00521be4     pjlib-i386-win32-vc8-debug:config.obj
 0003:00012c0c       ??_C@_0CA@PDHBELMF@?5PJ_MAX_EXCEPTION_ID?5?5?5?5?5?5?5?3?5?$CFd?$AA@ 00521c0c     pjlib-i386-win32-vc8-debug:config.obj
 0003:00012c34       ??_C@_0CA@KBIPPCDM@?5PJ_HAS_EXCEPTION_NAMES?5?5?5?5?3?5?$CFd?$AA@ 00521c34     pjlib-i386-win32-vc8-debug:config.obj
 0003:00012c5c       ??_C@_0CA@HDOPKKCK@?5PJ_ENABLE_EXTRA_CHECK?5?5?5?5?5?3?5?$CFd?$AA@ 00521c5c     pjlib-i386-win32-vc8-debug:config.obj
 0003:00012c84       ??_C@_0CA@PPJIFE@?5PJ_HAS_EVENT_OBJ?5?5?5?5?5?5?5?5?5?5?3?5?$CFd?$AA@ 00521c84     pjlib-i386-win32-vc8-debug:config.obj
 0003:00012cac       ??_C@_0CA@MDECAGDJ@?5PJ_HAS_SEMAPHORE?5?5?5?5?5?5?5?5?5?5?3?5?$CFd?$AA@ 00521cac     pjlib-i386-win32-vc8-debug:config.obj
 0003:00012cd4       ??_C@_0CA@KKPKMEKG@?5PJ_HAS_THREADS?5?5?5?5?5?5?5?5?5?5?5?5?3?5?$CFd?$AA@ 00521cd4     pjlib-i386-win32-vc8-debug:config.obj
 0003:00012cfc       ??_C@_0CA@EOIHPMGI@?5PJ_IOQUEUE_HAS_SAFE_UNREG?5?3?5?$CFd?$AA@ 00521cfc     pjlib-i386-win32-vc8-debug:config.obj
 0003:00012d24       ??_C@_0CA@MFIGELPB@?5PJ_IOQUEUE_MAX_HANDLES?5?5?5?5?3?5?$CFd?$AA@ 00521d24     pjlib-i386-win32-vc8-debug:config.obj
 0003:00012d4c       ??_C@_0CA@IFEKDPPK@?5ioqueue?5type?5?5?5?5?5?5?5?5?5?5?5?5?5?5?3?5?$CFs?$AA@ 00521d4c     pjlib-i386-win32-vc8-debug:config.obj
 0003:00012d74       ??_C@_0CA@IJPJLFMD@?5PJ_MAX_HOSTNAME?5?5?5?5?5?5?5?5?5?5?5?3?5?$CFd?$AA@ 00521d74     pjlib-i386-win32-vc8-debug:config.obj
 0003:00012d9c       ??_C@_0CA@PHJFINJO@?5PJ_HAS_TCP?5?5?5?5?5?5?5?5?5?5?5?5?5?5?5?5?3?5?$CFd?$AA@ 00521d9c     pjlib-i386-win32-vc8-debug:config.obj
 0003:00012dc4       ??_C@_0CA@JFMEIGNB@?5PJ_HAS_POOL_ALT_API?5?5?5?5?5?5?5?3?5?$CFd?$AA@ 00521dc4     pjlib-i386-win32-vc8-debug:config.obj
 0003:00012dec       ??_C@_0CA@HLGIANHB@?5PJ_POOL_DEBUG?5?5?5?5?5?5?5?5?5?5?5?5?5?3?5?$CFd?$AA@ 00521dec     pjlib-i386-win32-vc8-debug:config.obj
 0003:00012e14       ??_C@_0CA@LNDGNGPB@?5PJ_LOG_USE_STACK_BUFFER?5?5?5?3?5?$CFd?$AA@ 00521e14     pjlib-i386-win32-vc8-debug:config.obj
 0003:00012e3c       ??_C@_0CA@JKBDOCPB@?5PJ_LOG_MAX_SIZE?5?5?5?5?5?5?5?5?5?5?5?3?5?$CFd?$AA@ 00521e3c     pjlib-i386-win32-vc8-debug:config.obj
 0003:00012e64       ??_C@_0CA@GEBJAONH@?5PJ_LOG_MAX_LEVEL?5?5?5?5?5?5?5?5?5?5?3?5?$CFd?$AA@ 00521e64     pjlib-i386-win32-vc8-debug:config.obj
 0003:00012e8c       ??_C@_0CA@PKIHIMKF@?5PJ_FUNCTIONS_ARE_INLINED?5?5?3?5?$CFd?$AA@ 00521e8c     pjlib-i386-win32-vc8-debug:config.obj
 0003:00012eb4       ??_C@_0CA@NBBHLDIH@?5PJ_DEBUG?5?5?5?5?5?5?5?5?5?5?5?5?5?5?5?5?5?5?3?5?$CFd?$AA@ 00521eb4     pjlib-i386-win32-vc8-debug:config.obj
 0003:00012edc       ??_C@_0CA@LMENGBAP@?5PJ_HAS_FLOATING_POINT?5?5?5?5?5?3?5?$CFd?$AA@ 00521edc     pjlib-i386-win32-vc8-debug:config.obj
 0003:00012f04       ??_C@_0CA@GGBFPJFC@?5PJ_HAS_INT64?5?5?5?5?5?5?5?5?5?5?5?5?5?5?3?5?$CFd?$AA@ 00521f04     pjlib-i386-win32-vc8-debug:config.obj
 0003:00012f2c       ??_C@_0CA@CNKKKLLD@?5PJ_IS_?$CIBIG?1LITTLE?$CJ_ENDIAN?5?3?5?$CFs?$AA@ 00521f2c     pjlib-i386-win32-vc8-debug:config.obj
 0003:00012f54       ??_C@_0O@KEGGAHLA@little?9endian?$AA@ 00521f54     pjlib-i386-win32-vc8-debug:config.obj
 0003:00012f64       ??_C@_0CJ@BAKBAPNO@?5PJ_CC_NAME?1VER_?$CI1?02?03?$CJ?5?5?5?5?3?5?$CFs?9@ 00521f64     pjlib-i386-win32-vc8-debug:config.obj
 0003:00012f98       ??_C@_04DPFJJIOK@msvc?$AA@ 00521f98     pjlib-i386-win32-vc8-debug:config.obj
 0003:00012fa0       ??_C@_0CA@GPBHGDBG@?5PJ_OS_NAME?5?5?5?5?5?5?5?5?5?5?5?5?5?5?5?5?3?5?$CFs?$AA@ 00521fa0     pjlib-i386-win32-vc8-debug:config.obj
 0003:00012fc8       ??_C@_05NMJMPJJB@win32?$AA@ 00521fc8     pjlib-i386-win32-vc8-debug:config.obj
 0003:00012fd0       ??_C@_0CA@KOLEBPNK@?5PJ_HAS_PENTIUM?5?5?5?5?5?5?5?5?5?5?5?5?3?5?$CFd?$AA@ 00521fd0     pjlib-i386-win32-vc8-debug:config.obj
 0003:00012ff8       ??_C@_0CA@NCEBBBBA@?5PJ_M_NAME?5?5?5?5?5?5?5?5?5?5?5?5?5?5?5?5?5?3?5?$CFs?$AA@ 00521ff8     pjlib-i386-win32-vc8-debug:config.obj
 0003:00013020       ??_C@_04OMAFGPMM@i386?$AA@ 00522020     pjlib-i386-win32-vc8-debug:config.obj
 0003:00013028       ??_C@_0CA@JHFFEGGP@?5PJ_VERSION?5?5?5?5?5?5?5?5?5?5?5?5?5?5?5?5?3?5?$CFs?$AA@ 00522028     pjlib-i386-win32-vc8-debug:config.obj
 0003:00013050       ??_C@_0BI@GDBJIAMF@Dumping?5configurations?3?$AA@ 00522050     pjlib-i386-win32-vc8-debug:config.obj
 0003:0001306c       ??_C@_0BO@KNCHBKC@PJLIB?5?$CIc?$CJ2008?92009?5Teluu?5Inc?4?$AA@ 0052206c     pjlib-i386-win32-vc8-debug:config.obj
 0003:00013090       _PJ_GUID_STRING_LENGTH     00522090     pjlib-i386-win32-vc8-debug:guid_win32.obj
 0003:00013094       ??_C@_0DB@PJLEIDGO@d?3?2mygit?2pjproject?91?44?2pjlib?2src@ 00522094     pjlib-i386-win32-vc8-debug:guid_win32.obj
 0003:000130d0       ??_C@_1BI@BGGDHCPA@?$AAb?$AAu?$AAf?$AA?5?$AA?$CG?$AA?$CG?$AA?5?$AAs?$AAi?$AAz?$AAe?$AA?$AA@ 005220d0     pjlib-i386-win32-vc8-debug:pool_buf.obj
 0003:000130f0       ??_C@_1FO@FCDKOOFF@?$AAd?$AA?3?$AA?2?$AAm?$AAy?$AAg?$AAi?$AAt?$AA?2?$AAp?$AAj?$AAp?$AAr?$AAo?$AAj?$AAe?$AAc?$AAt?$AA?9?$AA1?$AA?4?$AA4?$AA?2?$AAp?$AAj?$AAl?$AAi?$AAb?$AA?2?$AAs?$AAr?$AAc@ 005220f0     pjlib-i386-win32-vc8-debug:pool_buf.obj
 0003:00013160       ??_C@_1CI@HJOGHDAN@?$AAs?$AAi?$AAz?$AAe?$AA?5?$AA?$DM?$AA?$DN?$AA?5?$AAp?$AAa?$AAr?$AAa?$AAm?$AA?9?$AA?$DO?$AAs?$AAi?$AAz?$AAe?$AA?$AA@ 00522160     pjlib-i386-win32-vc8-debug:pool_buf.obj
 0003:00013190       ??_C@_02DKCKIIND@?$CFs?$AA@ 00522190     pjlib-i386-win32-vc8-debug:log_writer_stdout.obj
 0003:00013194       ??_C@_0DI@PKGPCBFN@d?3?2mygit?2pjproject?91?44?2pjlib?2src@ 00522194     pjlib-i386-win32-vc8-debug:log_writer_stdout.obj
 0003:000131d8       ??_C@_0DB@KFPHELLI@No?5host?5data?5of?5that?5type?5was?5fo@ 005221d8     pjlib-i386-win32-vc8-debug:os_error_win32.obj
 0003:00013214       ??_C@_0CD@OEALOMDH@Host?5not?5found?5?$CIWSAHOST_NOT_FOUN@ 00522214     pjlib-i386-win32-vc8-debug:os_error_win32.obj
 0003:00013240       ??_C@_0CL@GFDHEKLB@Graceful?5shutdown?5in?5progress?5?$CIW@ 00522240     pjlib-i386-win32-vc8-debug:os_error_win32.obj
 0003:00013274       ??_C@_0CO@HPDHHDHA@WSAStartup?5not?5yet?5called?5?$CIWSANO@ 00522274     pjlib-i386-win32-vc8-debug:os_error_win32.obj
 0003:000132ac       ??_C@_0DC@BLAKHMMJ@Winsock?5version?5out?5of?5range?5?$CIWS@ 005222ac     pjlib-i386-win32-vc8-debug:os_error_win32.obj
 0003:000132e8       ??_C@_0CP@IBAEMKGH@Network?5system?5is?5unavailable?5?$CIW@ 005222e8     pjlib-i386-win32-vc8-debug:os_error_win32.obj
 0003:00013320       ??_C@_0CP@MLAFGPOA@Too?5many?5levels?5of?5remote?5in?5pat@ 00522320     pjlib-i386-win32-vc8-debug:os_error_win32.obj
 0003:00013358       ??_C@_0CC@IMLIDHNH@Stale?5NFS?5file?5handle?5?$CIWSAESTALE@ 00522358     pjlib-i386-win32-vc8-debug:os_error_win32.obj
 0003:00013380       ??_C@_0CA@MIOFDKMA@Disc?5quota?5exceeded?5?$CIWSAEDQUOT?$CJ?$AA@ 00522380     pjlib-i386-win32-vc8-debug:os_error_win32.obj
 0003:000133a8       ??_C@_0BL@IGHJMJKO@Too?5many?5users?5?$CIWSAEUSERS?$CJ?$AA@ 005223a8     pjlib-i386-win32-vc8-debug:os_error_win32.obj
 0003:000133c8       ??_C@_0CB@GPCGLHOJ@Too?5many?5processes?5?$CIWSAEPROCLIM?$CJ@ 005223c8     pjlib-i386-win32-vc8-debug:os_error_win32.obj
 0003:000133f0       ??_C@_0CD@NEFLEHEG@Directory?5not?5empty?5?$CIWSAENOTEMPT@ 005223f0     pjlib-i386-win32-vc8-debug:os_error_win32.obj
 0003:0001341c       ??_C@_0CD@ECJOJHBH@No?5route?5to?5host?5?$CIWSAEHOSTUNREAC@ 0052241c     pjlib-i386-win32-vc8-debug:os_error_win32.obj
 0003:00013448       ??_C@_0BM@NCJCEEDP@Host?5is?5down?5?$CIWSAEHOSTDOWN?$CJ?$AA@ 00522448     pjlib-i386-win32-vc8-debug:os_error_win32.obj
 0003:0001346c       ??_C@_0CF@MOFKOMBB@File?5name?5too?5long?5?$CIWSAENAMETOOL@ 0052246c     pjlib-i386-win32-vc8-debug:os_error_win32.obj
 0003:00013498       ??_C@_0CN@FCKBNFMB@Too?5many?5levels?5of?5symbolic?5link@ 00522498     pjlib-i386-win32-vc8-debug:os_error_win32.obj
 0003:000134d0       ??_C@_0CF@JMKFBJH@Connection?5refused?5?$CIWSAECONNREFU@ 005224d0     pjlib-i386-win32-vc8-debug:os_error_win32.obj
 0003:000134fc       ??_C@_0CE@IIKHBGF@Connection?5timed?5out?5?$CIWSAETIMEDO@ 005224fc     pjlib-i386-win32-vc8-debug:os_error_win32.obj
 0003:00013528       ??_C@_0DE@CAILNFFE@Too?5many?5references?0?5can?8t?5splic@ 00522528     pjlib-i386-win32-vc8-debug:os_error_win32.obj
 0003:00013568       ??_C@_0DA@JGJMJPNM@Can?8t?5send?5after?5socket?5shutdown@ 00522568     pjlib-i386-win32-vc8-debug:os_error_win32.obj
 0003:000135a4       ??_C@_0CG@CECDMHLL@Socket?5is?5not?5connected?5?$CIWSAENOT@ 005225a4     pjlib-i386-win32-vc8-debug:os_error_win32.obj
 0003:000135d4       ??_C@_0CJ@JOPBNNOD@Socket?5is?5already?5connected?5?$CIWSA@ 005225d4     pjlib-i386-win32-vc8-debug:os_error_win32.obj
 0003:00013608       ??_C@_0CH@EKNGIMKN@No?5buffer?5space?5available?5?$CIWSAEN@ 00522608     pjlib-i386-win32-vc8-debug:os_error_win32.obj
 0003:00013638       ??_C@_0CJ@PJHCFAAN@Connection?5reset?5by?5peer?5?$CIWSAECO@ 00522638     pjlib-i386-win32-vc8-debug:os_error_win32.obj
 0003:0001366c       ??_C@_0DD@PGDIHOBG@Software?5caused?5connection?5abort@ 0052266c     pjlib-i386-win32-vc8-debug:os_error_win32.obj
 0003:000136ac       ??_C@_0CE@LJEEEFEC@Net?5connection?5reset?5?$CIWSAENETRES@ 005226ac     pjlib-i386-win32-vc8-debug:os_error_win32.obj
 0003:000136d8       ??_C@_0CI@NKJAACME@Network?5is?5unreachable?5?$CIWSAENETU@ 005226d8     pjlib-i386-win32-vc8-debug:os_error_win32.obj
 0003:00013708       ??_C@_0BO@IICKDHLJ@Network?5is?5down?5?$CIWSAENETDOWN?$CJ?$AA@ 00522708     pjlib-i386-win32-vc8-debug:os_error_win32.obj
 0003:0001372c       ??_C@_0DC@FJJPJPOD@Can?8t?5assign?5requested?5address?5?$CI@ 0052272c     pjlib-i386-win32-vc8-debug:os_error_win32.obj
 0003:00013768       ??_C@_0CH@OCKNFBKE@Address?5already?5in?5use?5?$CIWSAEADDR@ 00522768     pjlib-i386-win32-vc8-debug:os_error_win32.obj
 0003:00013798       ??_C@_0CP@MMKHGIFC@Address?5family?5not?5supported?5?$CIWS@ 00522798     pjlib-i386-win32-vc8-debug:os_error_win32.obj
 0003:000137d0       ??_C@_0DA@GFNBENIG@Protocol?5family?5not?5supported?5?$CIW@ 005227d0     pjlib-i386-win32-vc8-debug:os_error_win32.obj
 0003:0001380c       ??_C@_0DC@GJMFANID@Operation?5not?5supported?5on?5socke@ 0052280c     pjlib-i386-win32-vc8-debug:os_error_win32.obj
 0003:00013848       ??_C@_0CP@JLBNHCOL@Socket?5type?5not?5supported?5?$CIWSAES@ 00522848     pjlib-i386-win32-vc8-debug:os_error_win32.obj
 0003:00013880       ??_C@_0CM@HPGHEHCE@Protocol?5not?5supported?5?$CIWSAEPROT@ 00522880     pjlib-i386-win32-vc8-debug:os_error_win32.obj
 0003:000138b4       ??_C@_0CF@HNFLHOHA@Bad?5protocol?5option?5?$CIWSAENOPROTO@ 005228b4     pjlib-i386-win32-vc8-debug:os_error_win32.obj
 0003:000138e0       ??_C@_0CP@MMIMIEMF@Protocol?5wrong?5type?5for?5socket?5?$CI@ 005228e0     pjlib-i386-win32-vc8-debug:os_error_win32.obj
 0003:00013918       ??_C@_0BP@LNFPBFEK@Message?5too?5long?5?$CIWSAEMSGSIZE?$CJ?$AA@ 00522918     pjlib-i386-win32-vc8-debug:os_error_win32.obj
 0003:00013940       ??_C@_0CP@HCDICECK@Destination?5address?5required?5?$CIWS@ 00522940     pjlib-i386-win32-vc8-debug:os_error_win32.obj
 0003:00013978       ??_C@_0CN@PAFKDEBN@Socket?5operation?5on?5non?9socket?5?$CI@ 00522978     pjlib-i386-win32-vc8-debug:os_error_win32.obj
 0003:000139b0       ??_C@_0CM@BEMCBKDH@Operation?5already?5in?5progress?5?$CIW@ 005229b0     pjlib-i386-win32-vc8-debug:os_error_win32.obj
 0003:000139e4       ??_C@_0CL@DKGHEPCD@Operation?5now?5in?5progress?5?$CIWSAEI@ 005229e4     pjlib-i386-win32-vc8-debug:os_error_win32.obj
 0003:00013a18       ??_C@_0CH@GCPPFMGM@Operation?5would?5block?5?$CIWSAEWOULD@ 00522a18     pjlib-i386-win32-vc8-debug:os_error_win32.obj
 0003:00013a48       ??_C@_0CC@HMKKNDGL@Too?5many?5open?5sockets?5?$CIWSAEMFILE@ 00522a48     pjlib-i386-win32-vc8-debug:os_error_win32.obj
 0003:00013a70       ??_C@_0BN@FEIDINKH@Invalid?5argument?5?$CIWSAEINVAL?$CJ?$AA@ 00522a70     pjlib-i386-win32-vc8-debug:os_error_win32.obj
 0003:00013a94       ??_C@_0BI@LAKHPJJ@Bad?5address?5?$CIWSAEFAULT?$CJ?$AA@ 00522a94     pjlib-i386-win32-vc8-debug:os_error_win32.obj
 0003:00013ab0       ??_C@_0BO@BMBEEPBP@Permission?5denied?5?$CIWSAEACCES?$CJ?$AA@ 00522ab0     pjlib-i386-win32-vc8-debug:os_error_win32.obj
 0003:00013ad4       ??_C@_0BL@OKPDNKLH@Bad?5file?5number?5?$CIWSAEBADF?$CJ?$AA@ 00522ad4     pjlib-i386-win32-vc8-debug:os_error_win32.obj
 0003:00013af4       ??_C@_0CD@FNMHLHMI@Interrupted?5system?5call?5?$CIWSAEINT@ 00522af4     pjlib-i386-win32-vc8-debug:os_error_win32.obj
 0003:00013d00       ??_C@_0BE@JPHLLAEM@Win32?5error?5code?5?$CFu?$AA@ 00522d00     pjlib-i386-win32-vc8-debug:os_error_win32.obj
 0003:00013d18       ??_C@_1BK@KKHIEKEI@?$AAb?$AAu?$AAf?$AAs?$AAi?$AAz?$AAe?$AA?5?$AA?$DO?$AA?$DN?$AA?5?$AA0?$AA?$AA@ 00522d18     pjlib-i386-win32-vc8-debug:os_error_win32.obj
 0003:00013d38       ??_C@_1CG@MKDKEIKM@?$AAb?$AAu?$AAf?$AA?5?$AA?$CB?$AA?$DN?$AA?5?$AA?$CI?$AA?$CI?$AAv?$AAo?$AAi?$AAd?$AA?5?$AA?$CK?$AA?$CJ?$AA0?$AA?$CJ?$AA?$AA@ 00522d38     pjlib-i386-win32-vc8-debug:os_error_win32.obj
 0003:00013d68       ??_C@_1GK@JKFBBHJD@?$AAd?$AA?3?$AA?2?$AAm?$AAy?$AAg?$AAi?$AAt?$AA?2?$AAp?$AAj?$AAp?$AAr?$AAo?$AAj?$AAe?$AAc?$AAt?$AA?9?$AA1?$AA?4?$AA4?$AA?2?$AAp?$AAj?$AAl?$AAi?$AAb?$AA?2?$AAs?$AAr?$AAc@ 00522d68     pjlib-i386-win32-vc8-debug:os_error_win32.obj
 0003:00013de8       ??_C@_0DC@PCCAAGDK@d?3?2mygit?2pjproject?91?44?2pjlib?2src@ 00522de8     pjlib-i386-win32-vc8-debug:sock_select.obj
 0003:00013e24       ??_C@_0CM@HNEMPJLO@d?3?2mygit?2pjproject?91?44?2pjlib?2src@ 00522e24     pjlib-i386-win32-vc8-debug:types.obj
 0003:00013e58       ??_C@_0CL@FFFGEIIM@d?3?2mygit?2pjproject?91?44?2pjlib?2src@ 00522e58     pjlib-i386-win32-vc8-debug:rand.obj
 0003:00013e90       ??_C@_1EI@LHIOBFFM@?$AAh?$AAo?$AAs?$AAt?$AAn?$AAa?$AAm?$AAe?$AA?5?$AA?$CG?$AA?$CG?$AA?5?$AAh?$AAo?$AAs?$AAt?$AAn?$AAa?$AAm?$AAe?$AA?5?$AA?9?$AA?$DO?$AAs?$AAl?$AAe?$AAn?$AA?5?$AA?$DM?$AA?5?$AA?$CI?$AA1@ 00522e90     pjlib-i386-win32-vc8-debug:addr_resolv_sock.obj
 0003:00013ee8       ??_C@_1GO@CDNHLFLG@?$AAd?$AA?3?$AA?2?$AAm?$AAy?$AAg?$AAi?$AAt?$AA?2?$AAp?$AAj?$AAp?$AAr?$AAo?$AAj?$AAe?$AAc?$AAt?$AA?9?$AA1?$AA?4?$AA4?$AA?2?$AAp?$AAj?$AAl?$AAi?$AAb?$AA?2?$AAs?$AAr?$AAc@ 00522ee8     pjlib-i386-win32-vc8-debug:addr_resolv_sock.obj
 0003:00013f6c       ??_C@_1CA@LMDHKGAC@?$AAc?$AAo?$AAu?$AAn?$AAt?$AA?5?$AA?$CG?$AA?$CG?$AA?5?$AA?$CK?$AAc?$AAo?$AAu?$AAn?$AAt?$AA?$AA@ 00522f6c     pjlib-i386-win32-vc8-debug:addr_resolv_sock.obj
 0003:00013f94       ??_C@_1BK@HGDCMKGI@?$AAp?$AA_?$AAc?$AAn?$AAt?$AA?5?$AA?$CG?$AA?$CG?$AA?5?$AAi?$AAf?$AAs?$AA?$AA@ 00522f94     pjlib-i386-win32-vc8-debug:ip_helper_win32.obj
 0003:00013fb8       ??_C@_1GM@LOEKENEL@?$AAd?$AA?3?$AA?2?$AAm?$AAy?$AAg?$AAi?$AAt?$AA?2?$AAp?$AAj?$AAp?$AAr?$AAo?$AAj?$AAe?$AAc?$AAt?$AA?9?$AA1?$AA?4?$AA4?$AA?2?$AAp?$AAj?$AAl?$AAi?$AAb?$AA?2?$AAs?$AAr?$AAc@ 00522fb8     pjlib-i386-win32-vc8-debug:ip_helper_win32.obj
 0003:0001403c       ??_C@_0P@PMIJPFPM@GetIpAddrTable?$AA@ 0052303c     pjlib-i386-win32-vc8-debug:ip_helper_win32.obj
 0003:00014050       ??_C@_08PFPBFMIL@IpHlpApi?$AA@ 00523050     pjlib-i386-win32-vc8-debug:ip_helper_win32.obj
 0003:0001405c       ??_C@_0L@BLHMKEDC@GetIfEntry?$AA@ 0052305c     pjlib-i386-win32-vc8-debug:ip_helper_win32.obj
 0003:0001406c       ??_C@_0BF@LHFCIIHE@GetAdaptersAddresses?$AA@ 0052306c     pjlib-i386-win32-vc8-debug:ip_helper_win32.obj
 0003:00014088       ??_C@_1CA@PNMIBKCD@?$AAp?$AA_?$AAc?$AAn?$AAt?$AA?5?$AA?$CG?$AA?$CG?$AA?5?$AAr?$AAo?$AAu?$AAt?$AAe?$AAs?$AA?$AA@ 00523088     pjlib-i386-win32-vc8-debug:ip_helper_win32.obj
 0003:000140b0       ??_C@_0BC@MNHJPEOP@GetIpForwardTable?$AA@ 005230b0     pjlib-i386-win32-vc8-debug:ip_helper_win32.obj
 0003:00014130       __real@c0126bb98c000000    00523130     libspeex-i386-win32-vc8-debug:preprocess.obj
 0003:00014140       __real@3ff61adea8000000    00523140     libspeex-i386-win32-vc8-debug:preprocess.obj
 0003:0001414c       __real@41f00000            0052314c     libspeex-i386-win32-vc8-debug:preprocess.obj
 0003:00014150       __real@26901d7d            00523150     libspeex-i386-win32-vc8-debug:preprocess.obj
 0003:00014154       __real@3c23d70a            00523154     libspeex-i386-win32-vc8-debug:preprocess.obj
 0003:00014158       __real@3f847ae140000000    00523158     libspeex-i386-win32-vc8-debug:preprocess.obj
 0003:00014168       __real@3fe75c2900000000    00523168     libspeex-i386-win32-vc8-debug:preprocess.obj
 0003:00014178       __real@412b774000000000    00523178     libspeex-i386-win32-vc8-debug:preprocess.obj
 0003:00014188       __real@bfe0000000000000    00523188     libspeex-i386-win32-vc8-debug:preprocess.obj
 0003:00014198       __real@40adb00000000000    00523198     libspeex-i386-win32-vc8-debug:preprocess.obj
 0003:000141a8       __real@40cf400000000000    005231a8     libspeex-i386-win32-vc8-debug:preprocess.obj
 0003:000141b8       __real@3fd6666660000000    005231b8     libspeex-i386-win32-vc8-debug:preprocess.obj
 0003:000141c4       __real@45fa0000            005231c4     libspeex-i386-win32-vc8-debug:preprocess.obj
 0003:000141c8       __real@3e4ccccd            005231c8     libspeex-i386-win32-vc8-debug:preprocess.obj
 0003:000141cc       __real@3eb33333            005231cc     libspeex-i386-win32-vc8-debug:preprocess.obj
 0003:000141d0       __real@3ff921fb54442d18    005231d0     libspeex-i386-win32-vc8-debug:preprocess.obj
 0003:000141e0       __real@3ff459b700000000    005231e0     libspeex-i386-win32-vc8-debug:preprocess.obj
 0003:000141f0       __real@4010000000000000    005231f0     libspeex-i386-win32-vc8-debug:preprocess.obj
 0003:00014200       __real@40db580000000000    00523200     libspeex-i386-win32-vc8-debug:preprocess.obj
 0003:00014210       __real@3fd54fdf40000000    00523210     libspeex-i386-win32-vc8-debug:preprocess.obj
 0003:00014220       __real@3fc978d500000000    00523220     libspeex-i386-win32-vc8-debug:preprocess.obj
 0003:00014230       __real@3fe99999a0000000    00523230     libspeex-i386-win32-vc8-debug:preprocess.obj
 0003:00014240       __real@3fc99999a0000000    00523240     libspeex-i386-win32-vc8-debug:preprocess.obj
 0003:00014250       __real@3fecc49ba0000000    00523250     libspeex-i386-win32-vc8-debug:preprocess.obj
 0003:00014260       __real@3fb3333340000000    00523260     libspeex-i386-win32-vc8-debug:preprocess.obj
 0003:00014270       __real@3fc3333340000000    00523270     libspeex-i386-win32-vc8-debug:preprocess.obj
 0003:00014280       __real@3fd3333340000000    00523280     libspeex-i386-win32-vc8-debug:preprocess.obj
 0003:00014290       __real@3fe6666660000000    00523290     libspeex-i386-win32-vc8-debug:preprocess.obj
 0003:000142a0       __real@3fb99999a0000000    005232a0     libspeex-i386-win32-vc8-debug:preprocess.obj
 0003:000142b0       __real@3fec7ae140000000    005232b0     libspeex-i386-win32-vc8-debug:preprocess.obj
 0003:000142bc       __real@42c80000            005232bc     libspeex-i386-win32-vc8-debug:preprocess.obj
 0003:000142c0       __real@4059000000000000    005232c0     libspeex-i386-win32-vc8-debug:preprocess.obj
 0003:000142d0       __real@3fe3333340000000    005232d0     libspeex-i386-win32-vc8-debug:preprocess.obj
 0003:000142e0       __real@3f9eb851eb851eb8    005232e0     libspeex-i386-win32-vc8-debug:preprocess.obj
 0003:000142f0       __real@3f1a36e2e0000000    005232f0     libspeex-i386-win32-vc8-debug:preprocess.obj
 0003:00014300       __real@3fc096bb98c7e282    00523300     libspeex-i386-win32-vc8-debug:preprocess.obj
 0003:00014310       __real@3fcd791c40000000    00523310     libspeex-i386-win32-vc8-debug:preprocess.obj
 0003:00014320       __real@4024000000000000    00523320     libspeex-i386-win32-vc8-debug:preprocess.obj
 0003:00014330       __real@3f1a36e2eb1c432d    00523330     libspeex-i386-win32-vc8-debug:preprocess.obj
 0003:00014340       __real@bfc99999a0000000    00523340     libspeex-i386-win32-vc8-debug:preprocess.obj
 0003:00014350       __real@3f50624de0000000    00523350     libspeex-i386-win32-vc8-debug:preprocess.obj
 0003:00014360       __real@4014000000000000    00523360     libspeex-i386-win32-vc8-debug:preprocess.obj
 0003:00014370       __real@3fd99999a0000000    00523370     libspeex-i386-win32-vc8-debug:preprocess.obj
 0003:00014380       __real@3fa99999a0000000    00523380     libspeex-i386-win32-vc8-debug:preprocess.obj
 0003:00014390       __real@3fee666660000000    00523390     libspeex-i386-win32-vc8-debug:preprocess.obj
 0003:0001439c       ??_C@_0BA@JHIGFAJK@warning?3?5?$CFs?3?5?$CFd?$AA@ 0052339c     libspeex-i386-win32-vc8-debug:preprocess.obj
 0003:000143b0       ??_C@_0CH@BPNBAON@Unknown?5speex_preprocess_ctl?5req@ 005233b0     libspeex-i386-win32-vc8-debug:preprocess.obj
 0003:000143e0       __real@3fc999999999999a    005233e0     libspeex-i386-win32-vc8-debug:preprocess.obj
 0003:000143ec       ??_C@_05JPFLDMPI@speex?$AA@ 005233ec     libspeex-i386-win32-vc8-debug:preprocess.obj
 0003:000143f4       ??_C@_0M@FDFEAFGN@warning?3?5?$CFs?$AA@ 005233f4     libspeex-i386-win32-vc8-debug:preprocess.obj
 0003:00014404       ??_C@_0DP@GLHJBLIP@The?5VAD?5has?5been?5replaced?5by?5a?5h@ 00523404     libspeex-i386-win32-vc8-debug:preprocess.obj
 0003:00014450       __real@40215f212d773190    00523450     libspeex-i386-win32-vc8-debug:preprocess.obj
 0003:00014460       __real@3fbd7928e0000000    00523460     libspeex-i386-win32-vc8-debug:preprocess.obj
 0003:0001446c       __real@47000000            0052346c     libspeex-i386-win32-vc8-debug:preprocess.obj
 0003:00014470       __real@40e0000000000000    00523470     libspeex-i386-win32-vc8-debug:preprocess.obj
 0003:00014498       __real@3f7df3b6            00523498     libspeex-i386-win32-vc8-debug:mdf.obj
 0003:0001449c       __real@3f7b645a            0052349c     libspeex-i386-win32-vc8-debug:mdf.obj
 0003:000144a0       __real@3f666666            005234a0     libspeex-i386-win32-vc8-debug:mdf.obj
 0003:000144a4       __real@3f333333            005234a4     libspeex-i386-win32-vc8-debug:mdf.obj
 0003:000144a8       __real@4003333340000000    005234a8     libspeex-i386-win32-vc8-debug:mdf.obj
 0003:000144b4       ??_C@_0CF@JGKBANKE@internal?5playback?5buffer?5corrupt@ 005234b4     libspeex-i386-win32-vc8-debug:mdf.obj
 0003:000144e0       ??_C@_0EJ@GHABDNKB@No?5playback?5frame?5available?5?$CIyou@ 005234e0     libspeex-i386-win32-vc8-debug:mdf.obj
 0003:00014538       ??_C@_0EN@KMLFENGK@Had?5to?5discard?5a?5playback?5frame?5@ 00523538     libspeex-i386-win32-vc8-debug:mdf.obj
 0003:00014598       ??_C@_0EF@JCPCCFEP@Auto?9filling?5the?5buffer?5?$CIyour?5ap@ 00523598     libspeex-i386-win32-vc8-debug:mdf.obj
 0003:000145ec       ??_C@_0BP@HJHBOHLA@discarded?5first?5playback?5frame?$AA@ 005235ec     libspeex-i386-win32-vc8-debug:mdf.obj
 0003:00014618       __real@3fd0000000000000    00523618     libspeex-i386-win32-vc8-debug:mdf.obj
 0003:00014628       __real@3fd3333333333333    00523628     libspeex-i386-win32-vc8-debug:mdf.obj
 0003:00014638       __real@3fe6666666666666    00523638     libspeex-i386-win32-vc8-debug:mdf.obj
 0003:00014648       __real@3f9eb851e0000000    00523648     libspeex-i386-win32-vc8-debug:mdf.obj
 0003:00014654       __real@3f000000            00523654     libspeex-i386-win32-vc8-debug:mdf.obj
 0003:00014658       __real@40cfff8000000000    00523658     libspeex-i386-win32-vc8-debug:mdf.obj
 0003:00014668       ??_C@_0FP@LGAMLFHE@The?5echo?5canceller?5started?5actin@ 00523668     libspeex-i386-win32-vc8-debug:mdf.obj
 0003:000146e0       __real@40c3880000000000    005236e0     libspeex-i386-win32-vc8-debug:mdf.obj
 0003:000146ec       __real@c7000000            005236ec     libspeex-i386-win32-vc8-debug:mdf.obj
 0003:000146f0       __real@c0e0000000000000    005236f0     libspeex-i386-win32-vc8-debug:mdf.obj
 0003:000146fc       __real@46fffe00            005236fc     libspeex-i386-win32-vc8-debug:mdf.obj
 0003:00014700       __real@40dfffc000000000    00523700     libspeex-i386-win32-vc8-debug:mdf.obj
 0003:00014710       __real@3feb333340000000    00523710     libspeex-i386-win32-vc8-debug:mdf.obj
 0003:00014720       __real@3fd6666666666666    00523720     libspeex-i386-win32-vc8-debug:mdf.obj
 0003:00014730       __real@3fefae1480000000    00523730     libspeex-i386-win32-vc8-debug:mdf.obj
 0003:0001473c       ??_C@_0CB@DEGFPNC@Unknown?5speex_echo_ctl?5request?3?5@ 0052373c     libspeex-i386-win32-vc8-debug:mdf.obj
 0003:00014764       ??_C@_0CA@EIAGMGLH@FFT?5should?5not?5be?5done?5in?9place?$AA@ 00523764     libspeex-i386-win32-vc8-debug:fftwrap.obj
 0003:00014790       __real@4001eb8520000000    00523790     libspeex-i386-win32-vc8-debug:filterbank.obj
 0003:000147a0       __real@3e53dd3dc0000000    005237a0     libspeex-i386-win32-vc8-debug:filterbank.obj
 0003:000147b0       __real@402a333340000000    005237b0     libspeex-i386-win32-vc8-debug:filterbank.obj
 0003:000147c0       __real@3f483f91e0000000    005237c0     libspeex-i386-win32-vc8-debug:filterbank.obj
 0003:000147cc       __real@3f004dfd            005237cc     libspeex-i386-win32-vc8-debug:filterbank.obj
 0003:000147d0       __real@3eaed289            005237d0     libspeex-i386-win32-vc8-debug:filterbank.obj
 0003:000147d4       ??_C@_04DKFOEDJA@srtp?$AA@ 005237d4     libsrtp-i386-win32-vc8-debug:srtp.obj
 0003:000147dc       ??_C@_0CD@KFGKPJOG@?$CFs?3?5cloning?5stream?5?$CISSRC?3?50x?$CF08x@ 005237dc     libsrtp-i386-win32-vc8-debug:srtp.obj
 0003:00014808       ??_C@_0BJ@CAOFEOFD@?$CFs?3?5rtcp?5auth?5key?3?5?5?5?$CFs?6?$AA@ 00523808     libsrtp-i386-win32-vc8-debug:srtp.obj
 0003:00014828       ??_C@_0BJ@KAKGCCMO@?$CFs?3?5rtcp?5cipher?5key?3?5?$CFs?6?$AA@ 00523828     libsrtp-i386-win32-vc8-debug:srtp.obj
 0003:00014848       ??_C@_0CJ@BAADIODK@?$CFs?3?5found?5aes_icm?0?5generating?5rt@ 00523848     libsrtp-i386-win32-vc8-debug:srtp.obj
 0003:0001487c       ??_C@_0BE@HGKFNAFC@?$CFs?3?5auth?5key?3?5?5?5?$CFs?6?$AA@ 0052387c     libsrtp-i386-win32-vc8-debug:srtp.obj
 0003:00014894       ??_C@_0BE@PGOGLMMP@?$CFs?3?5cipher?5key?3?5?$CFs?6?$AA@ 00523894     libsrtp-i386-win32-vc8-debug:srtp.obj
 0003:000148ac       ??_C@_0CE@KANLHMK@?$CFs?3?5found?5aes_icm?0?5generating?5sa@ 005238ac     libsrtp-i386-win32-vc8-debug:srtp.obj
 0003:000148d8       ??_C@_0CI@PDNDGOMA@?$CFs?3?5initializing?5stream?5?$CISSRC?3?50@ 005238d8     libsrtp-i386-win32-vc8-debug:srtp.obj
 0003:00014908       ??_C@_0CE@FFJEPPID@?7unknown?5event?5reported?5to?5handl@ 00523908     libsrtp-i386-win32-vc8-debug:srtp.obj
 0003:00014934       ??_C@_0BN@MKCGGAOP@?7packet?5index?5limit?5reached?6?$AA@ 00523934     libsrtp-i386-win32-vc8-debug:srtp.obj
 0003:00014958       ??_C@_0BP@KNJIFCF@?7key?5usage?5hard?5limit?5reached?6?$AA@ 00523958     libsrtp-i386-win32-vc8-debug:srtp.obj
 0003:00014980       ??_C@_0BP@HOEKLBIN@?7key?5usage?5soft?5limit?5reached?6?$AA@ 00523980     libsrtp-i386-win32-vc8-debug:srtp.obj
 0003:000149a8       ??_C@_0BB@PPFALDPP@?7SSRC?5collision?6?$AA@ 005239a8     libsrtp-i386-win32-vc8-debug:srtp.obj
 0003:000149bc       ??_C@_0BH@GAKJJGLB@srtp?3?5in?5stream?50x?$CFx?3?5?$AA@ 005239bc     libsrtp-i386-win32-vc8-debug:srtp.obj
 0003:000149d8       ??_C@_0BK@GCKOFNLP@?$CFs?3?5srtp?5auth?5tag?3?5?5?5?5?$CFs?6?$AA@ 005239d8     libsrtp-i386-win32-vc8-debug:srtp.obj
 0003:000149f8       ??_C@_0BK@KLBGMJPP@?$CFs?3?5keystream?5prefix?3?5?$CFs?6?$AA@ 005239f8     libsrtp-i386-win32-vc8-debug:srtp.obj
 0003:00014a18       ??_C@_0CF@PEPHCKJP@?$CFs?3?5estimated?5packet?5index?3?5?$CF016@ 00523a18     libsrtp-i386-win32-vc8-debug:srtp.obj
 0003:00014a44       ??_C@_0BL@MADNODBC@?$CFs?3?5function?5srtp_protect?6?$AA@ 00523a44     libsrtp-i386-win32-vc8-debug:srtp.obj
 0003:00014a64       ??_C@_0BO@KMHOFFAA@?$CFs?3?5packet?5auth?5tag?3?5?5?5?5?5?5?$CFs?6?$AA@ 00523a64     libsrtp-i386-win32-vc8-debug:srtp.obj
 0003:00014a88       ??_C@_0BO@BONEKIBH@?$CFs?3?5computed?5auth?5tag?3?5?5?5?5?$CFs?6?$AA@ 00523a88     libsrtp-i386-win32-vc8-debug:srtp.obj
 0003:00014aac       ??_C@_0CH@MOHBLIMO@?$CFs?3?5estimated?5u_packet?5index?3?5?$CF0@ 00523aac     libsrtp-i386-win32-vc8-debug:srtp.obj
 0003:00014adc       ??_C@_0CN@PJAKIEAG@?$CFs?3?5using?5provisional?5stream?5?$CISS@ 00523adc     libsrtp-i386-win32-vc8-debug:srtp.obj
 0003:00014b14       ??_C@_0BN@LADOAJPP@?$CFs?3?5function?5srtp_unprotect?6?$AA@ 00523b14     libsrtp-i386-win32-vc8-debug:srtp.obj
 0003:00014b38       ??_C@_0BL@OBHAKLEH@?$CFs?3?5srtcp?5auth?5tag?3?5?5?5?5?$CFs?6?$AA@ 00523b38     libsrtp-i386-win32-vc8-debug:srtp.obj
 0003:00014b58       ??_C@_0BF@JBCKCIAJ@?$CFs?3?5srtcp?5index?3?5?$CFx?6?$AA@ 00523b58     libsrtp-i386-win32-vc8-debug:srtp.obj
 0003:00014b74       ??_C@_0CC@GFCANNPL@?$CFs?3?5srtcp?5tag?5from?5packet?3?5?5?5?5?$CFs@ 00523b74     libsrtp-i386-win32-vc8-debug:srtp.obj
 0003:00014b9c       ??_C@_0CC@IMKDPKDI@?$CFs?3?5srtcp?5computed?5tag?3?5?5?5?5?5?5?5?$CFs@ 00523b9c     libsrtp-i386-win32-vc8-debug:srtp.obj
 0003:00014bc4       ??_C@_0DD@HHOLLDKC@?$CFs?3?5srtcp?5using?5provisional?5stre@ 00523bc4     libsrtp-i386-win32-vc8-debug:srtp.obj
 0003:00014c04       ??_C@_0O@MIKIJNFL@crypto?5kernel?$AA@ 00523c04     libsrtp-i386-win32-vc8-debug:crypto_kernel.obj
 0003:00014c14       ??_C@_06KCCPFFCC@?$CIoff?$CJ?6?$AA@ 00523c14     libsrtp-i386-win32-vc8-debug:crypto_kernel.obj
 0003:00014c1c       ??_C@_05KICKCMEO@?$CIon?$CJ?6?$AA@ 00523c1c     libsrtp-i386-win32-vc8-debug:crypto_kernel.obj
 0003:00014c24       ??_C@_05NMIPNJMJ@?5?5?$CFs?5?$AA@ 00523c24     libsrtp-i386-win32-vc8-debug:crypto_kernel.obj
 0003:00014c2c       ??_C@_0BH@NLMDBEPJ@debug?5modules?5loaded?3?6?$AA@ 00523c2c     libsrtp-i386-win32-vc8-debug:crypto_kernel.obj
 0003:00014c48       ??_C@_0P@CJMMEABE@auth?5func?3?5?$CFs?6?$AA@ 00523c48     libsrtp-i386-win32-vc8-debug:crypto_kernel.obj
 0003:00014c5c       ??_C@_0BL@HPMBNDJK@failed?5with?5error?5code?5?$CFd?6?$AA@ 00523c5c     libsrtp-i386-win32-vc8-debug:crypto_kernel.obj
 0003:00014c7c       ??_C@_0O@CJBDENN@?5?5self?9test?3?5?$AA@ 00523c7c     libsrtp-i386-win32-vc8-debug:crypto_kernel.obj
 0003:00014c8c       ??_C@_0BG@FPPKCBEM@?5?5instance?5count?3?5?$CFd?6?$AA@ 00523c8c     libsrtp-i386-win32-vc8-debug:crypto_kernel.obj
 0003:00014ca8       ??_C@_0M@FNOFIMGM@cipher?3?5?$CFs?6?$AA@ 00523ca8     libsrtp-i386-win32-vc8-debug:crypto_kernel.obj
 0003:00014cb8       ??_C@_07JBEBJPGA@passed?6?$AA@ 00523cb8     libsrtp-i386-win32-vc8-debug:crypto_kernel.obj
 0003:00014cc4       ??_C@_07GLGIIGGC@failed?6?$AA@ 00523cc4     libsrtp-i386-win32-vc8-debug:crypto_kernel.obj
 0003:00014cd0       ??_C@_0BH@HDPMNGEM@testing?5rand_source?4?4?4?$AA@ 00523cd0     libsrtp-i386-win32-vc8-debug:crypto_kernel.obj
 0003:00014cec       ??_C@_0CI@MFBGGOG@?$CFs?3?5freeing?5memory?5for?5debug?5mod@ 00523cec     libsrtp-i386-win32-vc8-debug:crypto_kernel.obj
 0003:00014d1c       ??_C@_0CK@KGHAAPIM@?$CFs?3?5freeing?5memory?5for?5authentic@ 00523d1c     libsrtp-i386-win32-vc8-debug:crypto_kernel.obj
 0003:00014d50       ??_C@_0CC@DLGHEHKN@?$CFs?3?5freeing?5memory?5for?5cipher?5?$CFs@ 00523d50     libsrtp-i386-win32-vc8-debug:crypto_kernel.obj
 0003:00014d78       ??_C@_05KNPMOECN@alloc?$AA@ 00523d78     libsrtp-i386-win32-vc8-debug:alloc.obj
 0003:00014d80       ??_C@_0CN@JJLNACEJ@?$CFs?3?5allocation?5failed?5?$CIasked?5for@ 00523d80     libsrtp-i386-win32-vc8-debug:alloc.obj
 0003:00014db8       ??_C@_0BO@KJOGHNGM@?$CFs?3?5?$CIlocation?3?5?$CFp?$CJ?5allocated?6?$AA@ 00523db8     libsrtp-i386-win32-vc8-debug:alloc.obj
 0003:00014ddc       ??_C@_0BK@BNKOPMHD@?$CFs?3?5?$CIlocation?3?5?$CFp?$CJ?5freed?6?$AA@ 00523ddc     libsrtp-i386-win32-vc8-debug:alloc.obj
 0003:00014dfc       ??_C@_07EFAIHJHH@libsrtp?$AA@ 00523dfc     libsrtp-i386-win32-vc8-debug:srtp_err.obj
 0003:00014e08       ??_C@_07MPIJGLIA@aes?5icm?$AA@ 00523e08     libsrtp-i386-win32-vc8-debug:aes_icm.obj
 0003:00014e14       ??_C@_0CK@DAFEFAPH@?$CFs?3?5allocating?5cipher?5with?5key?5l@ 00523e14     libsrtp-i386-win32-vc8-debug:aes_icm.obj
 0003:00014e48       ??_C@_0BA@ILFEGDEM@?$CFs?3?5offset?3?5?$CFs?6?$AA@ 00523e48     libsrtp-i386-win32-vc8-debug:aes_icm.obj
 0003:00014e5c       ??_C@_0O@GFBJNBAD@?$CFs?3?5key?3?5?5?$CFs?6?$AA@ 00523e5c     libsrtp-i386-win32-vc8-debug:aes_icm.obj
 0003:00014e6c       ??_C@_0BE@ILCAEFF@?$CFs?3?5ciphertext?3?5?$CFs?6?$AA@ 00523e6c     libsrtp-i386-win32-vc8-debug:aes_icm.obj
 0003:00014e84       ??_C@_0BE@ENJPOLAG@?$CFs?3?5counter?3?5?5?5?5?$CFs?6?$AA@ 00523e84     libsrtp-i386-win32-vc8-debug:aes_icm.obj
 0003:00014e9c       ??_C@_0BD@KCAAHGLK@?$CFs?3?5set_octet?3?5?$CFs?6?$AA@ 00523e9c     libsrtp-i386-win32-vc8-debug:aes_icm.obj
 0003:00014eb4       ??_C@_0BF@OAOEHNDM@?$CFs?3?5set_counter?3?5?$CFs?6?$AA@ 00523eb4     libsrtp-i386-win32-vc8-debug:aes_icm.obj
 0003:00014ed0       ??_C@_0BE@ECIFEEKH@?$CFs?3?5setting?5iv?3?5?$CFs?6?$AA@ 00523ed0     libsrtp-i386-win32-vc8-debug:aes_icm.obj
 0003:00014ee8       ??_C@_0BF@BLBMMINO@?$CFs?3?5block?5index?3?5?$CFd?6?$AA@ 00523ee8     libsrtp-i386-win32-vc8-debug:aes_icm.obj
 0003:00014f04       ??_C@_09EJIBOKIO@auth?5func?$AA@ 00523f04     libsrtp-i386-win32-vc8-debug:auth.obj
 0003:00014f10       ??_C@_0BO@CKPEGHKK@?$CFs?3?5?5?5?$CImismatch?5at?5octet?5?$CFd?$CJ?6?$AA@ 00523f10     libsrtp-i386-win32-vc8-debug:auth.obj
 0003:00014f34       ??_C@_0BJ@ECBNBHJB@?$CFs?3?5test?5case?5?$CFd?5failed?6?$AA@ 00523f34     libsrtp-i386-win32-vc8-debug:auth.obj
 0003:00014f54       ??_C@_0BG@PEPPBOLB@?$CFs?3?5tag?5expected?3?5?$CFs?6?$AA@ 00523f54     libsrtp-i386-win32-vc8-debug:auth.obj
 0003:00014f70       ??_C@_0BG@KCOPIALB@?$CFs?3?5tag?5computed?3?5?$CFs?6?$AA@ 00523f70     libsrtp-i386-win32-vc8-debug:auth.obj
 0003:00014f8c       ??_C@_0O@NBGEFCOD@?$CFs?3?5data?3?5?$CFs?6?$AA@ 00523f8c     libsrtp-i386-win32-vc8-debug:auth.obj
 0003:00014f9c       ??_C@_0N@OIMPEMMJ@?$CFs?3?5key?3?5?$CFs?6?$AA@ 00523f9c     libsrtp-i386-win32-vc8-debug:auth.obj
 0003:00014fac       ??_C@_0CM@DFOPKAOA@?$CFs?3?5running?5self?9test?5for?5auth?5f@ 00523fac     libsrtp-i386-win32-vc8-debug:auth.obj
 0003:00014fe0       ??_C@_06KDGDAFPH@cipher?$AA@ 00523fe0     libsrtp-i386-win32-vc8-debug:cipher.obj
 0003:00014fe8       ??_C@_0CA@EAJGEBOP@?$CFs?3?5random?5test?5case?5?$CFd?5failed?6?$AA@ 00523fe8     libsrtp-i386-win32-vc8-debug:cipher.obj
 0003:00015010       ??_C@_0BG@NMIIDDNI@?$CFs?3?5plaintext?$FL2?$FN?3?5?$CFs?6?$AA@ 00524010     libsrtp-i386-win32-vc8-debug:cipher.obj
 0003:0001502c       ??_C@_0CB@OOAIJLO@?$CFs?3?5random?5plaintext?5length?5?$CFd?6?6@ 0052402c     libsrtp-i386-win32-vc8-debug:cipher.obj
 0003:00015054       ??_C@_0BE@MABNCJMD@?$CFs?3?5p?5expected?3?5?$CFs?6?$AA@ 00524054     libsrtp-i386-win32-vc8-debug:cipher.obj
 0003:0001506c       ??_C@_0BE@JGANLHMD@?$CFs?3?5p?5computed?3?5?$CFs?6?$AA@ 0052406c     libsrtp-i386-win32-vc8-debug:cipher.obj
 0003:00015084       ??_C@_0BF@GOBFCCEB@?$CFs?3?5plaintext?3?5?5?5?$CFs?6?$AA@ 00524084     libsrtp-i386-win32-vc8-debug:cipher.obj
 0003:000150a0       ??_C@_0BH@EDJDPICD@?$CFs?3?5ciphertext?3?5?5?5?5?$CFs?6?$AA@ 005240a0     libsrtp-i386-win32-vc8-debug:cipher.obj
 0003:000150bc       ??_C@_0BI@IEPFOPNP@?$CFs?3?5testing?5decryption?6?$AA@ 005240bc     libsrtp-i386-win32-vc8-debug:cipher.obj
 0003:000150d8       ??_C@_0BE@PPCKDKP@?$CFs?3?5c?5expected?3?5?$CFs?6?$AA@ 005240d8     libsrtp-i386-win32-vc8-debug:cipher.obj
 0003:000150f0       ??_C@_0BE@FJOCDNKP@?$CFs?3?5c?5computed?3?5?$CFs?6?$AA@ 005240f0     libsrtp-i386-win32-vc8-debug:cipher.obj
 0003:00015108       ??_C@_0BK@FFAGFACF@?$CFs?3?5?$CIfailure?5at?5byte?5?$CFd?$CJ?6?$AA@ 00524108     libsrtp-i386-win32-vc8-debug:cipher.obj
 0003:00015128       ??_C@_0BG@LLNGMAPJ@?$CFs?3?5ciphertext?3?5?5?5?$CFs?6?$AA@ 00524128     libsrtp-i386-win32-vc8-debug:cipher.obj
 0003:00015144       ??_C@_0BG@IGPMAAHP@?$CFs?3?5plaintext?3?5?5?5?5?$CFs?6?$AA@ 00524144     libsrtp-i386-win32-vc8-debug:cipher.obj
 0003:00015160       ??_C@_0BI@DMHBCEPE@?$CFs?3?5testing?5encryption?6?$AA@ 00524160     libsrtp-i386-win32-vc8-debug:cipher.obj
 0003:0001517c       ??_C@_0CF@FLDNHEPF@?$CFs?3?5running?5self?9test?5for?5cipher@ 0052417c     libsrtp-i386-win32-vc8-debug:cipher.obj
 0003:000151a8       ??_C@_0L@NBBBLMAJ@hmac?5sha?91?$AA@ 005241a8     libsrtp-i386-win32-vc8-debug:hmac.obj
 0003:000151b8       ??_C@_0CN@FDNDBNFI@?$CFs?3?5?5?5?5?5?5?5?5?5?5?5?5?5?5?5?5?5?5?5?5?5?5?5?5?5?5?5ta@ 005241b8     libsrtp-i386-win32-vc8-debug:hmac.obj
 0003:000151f0       ??_C@_0CN@KBEHBKDH@?$CFs?3?5allocating?5auth?5func?5with?5ke@ 005241f0     libsrtp-i386-win32-vc8-debug:hmac.obj
 0003:00015228       ??_C@_0O@PJECJPIJ@?$CFs?3?5ipad?3?5?$CFs?6?$AA@ 00524228     libsrtp-i386-win32-vc8-debug:hmac.obj
 0003:00015238       ??_C@_0P@JHGAOEEF@?$CFs?3?5input?3?5?$CFs?6?$AA@ 00524238     libsrtp-i386-win32-vc8-debug:hmac.obj
 0003:0001524c       ??_C@_0BA@NKCNJNLN@?$CFs?3?5output?3?5?$CFs?6?$AA@ 0052424c     libsrtp-i386-win32-vc8-debug:hmac.obj
 0003:00015260       ??_C@_0BM@JABNBLDM@?$CFs?3?5intermediate?5state?3?5?$CFs?6?$AA@ 00524260     libsrtp-i386-win32-vc8-debug:hmac.obj
 0003:00015284       ??_C@_07DPHFMMFN@aes?5cbc?$AA@ 00524284     libsrtp-i386-win32-vc8-debug:aes_cbc.obj
 0003:00015290       ??_C@_0BC@JDOKDHF@?$CFs?3?5outblock?3?5?$CFs?6?$AA@ 00524290     libsrtp-i386-win32-vc8-debug:aes_cbc.obj
 0003:000152a8       ??_C@_0BC@OKGIACPM@?$CFs?3?5inblock?3?5?5?$CFs?6?$AA@ 005242a8     libsrtp-i386-win32-vc8-debug:aes_cbc.obj
 0003:000152c0       ??_C@_0M@IBNAAFBJ@?$CFs?3?5iv?3?5?$CFs?6?$AA@ 005242c0     libsrtp-i386-win32-vc8-debug:aes_cbc.obj
 0003:000152d0       ??_C@_0BO@HCJFKKEE@?$CFs?3?5initializing?5null?5cipher?6?$AA@ 005242d0     libsrtp-i386-win32-vc8-debug:null_cipher.obj
 0003:000152f4       ??_C@_09LCMAEBCF@stat?5test?$AA@ 005242f4     libsrtp-i386-win32-vc8-debug:stat.obj
 0003:00015300       ??_C@_0BD@GAOMHCBM@?$CFs?3?5bit?5count?3?5?$CFd?6?$AA@ 00524300     libsrtp-i386-win32-vc8-debug:stat.obj
 0003:00015318       __real@404715c28f5c28f6    00524318     libsrtp-i386-win32-vc8-debug:stat.obj
 0003:00015328       __real@400147ae147ae148    00524328     libsrtp-i386-win32-vc8-debug:stat.obj
 0003:00015334       ??_C@_0BF@CHHGEAGD@?$CFs?3?5poker?5test?3?5?$CFf?6?6?$AA@ 00524334     libsrtp-i386-win32-vc8-debug:stat.obj
 0003:00015350       __real@40b3880000000000    00524350     libsrtp-i386-win32-vc8-debug:stat.obj
 0003:00015360       __real@3f6a36e2eb1c432d    00524360     libsrtp-i386-win32-vc8-debug:stat.obj
 0003:0001536c       ??_C@_0BC@BLEGIAEL@?$CFs?3?5?5?5gaps?$FL?$FN?3?5?$CFd?6?$AA@ 0052436c     libsrtp-i386-win32-vc8-debug:stat.obj
 0003:00015384       ??_C@_0BC@KILFBMLF@?$CFs?3?5?5?5runs?$FL?$FN?3?5?$CFd?6?$AA@ 00524384     libsrtp-i386-win32-vc8-debug:stat.obj
 0003:0001539c       ??_C@_0P@POGGHKML@?$CFs?3?5runs?5test?6?$AA@ 0052439c     libsrtp-i386-win32-vc8-debug:stat.obj
 0003:000153b0       ??_C@_0BG@BMIBNCBB@?$CFs?3?5?$DO25?5gaps?5?$CI2?$CJ?3?5?$CFd?6?$AA@ 005243b0     libsrtp-i386-win32-vc8-debug:stat.obj
 0003:000153cc       ??_C@_0BG@GPAHHCLO@?$CFs?3?5?$DO25?5runs?5?$CI2?$CJ?3?5?$CFd?6?$AA@ 005243cc     libsrtp-i386-win32-vc8-debug:stat.obj
 0003:000153e8       ??_C@_0BC@NJGIDECN@?$CFs?3?5?$DO25?5gaps?3?5?$CFd?6?$AA@ 005243e8     libsrtp-i386-win32-vc8-debug:stat.obj
 0003:00015400       ??_C@_0BC@IAPCEOOF@?$CFs?3?5?$DO25?5runs?3?5?$CFd?6?$AA@ 00524400     libsrtp-i386-win32-vc8-debug:stat.obj
 0003:00015418       ??_C@_0BN@GAPDDPKH@?$CFs?3?5passed?5random?5stat?5test?6?$AA@ 00524418     libsrtp-i386-win32-vc8-debug:stat.obj
 0003:0001543c       ??_C@_0BP@FICCAFLM@?$CFs?3?5stat?3?5failed?5run?1gap?5test?6?$AA@ 0052443c     libsrtp-i386-win32-vc8-debug:stat.obj
 0003:00015464       ??_C@_0BN@GPPMGOKK@?$CFs?3?5stat?3?5failed?5poker?5test?6?$AA@ 00524464     libsrtp-i386-win32-vc8-debug:stat.obj
 0003:00015488       ??_C@_0BK@EBGHFECB@?$CFs?3?5stat?3?5poker?5test?3?5?$CFf?6?$AA@ 00524488     libsrtp-i386-win32-vc8-debug:stat.obj
 0003:000154a8       ??_C@_0CC@OEPLDONG@?$CFs?3?5stat?3?5failed?5monobit?5test?5?$CFd@ 005244a8     libsrtp-i386-win32-vc8-debug:stat.obj
 0003:000154d0       ??_C@_0BJ@LDNJNIDO@?$CFs?3?5stat?3?5bit?5count?3?5?$CFd?6?$AA@ 005244d0     libsrtp-i386-win32-vc8-debug:stat.obj
 0003:000154f0       ??_C@_0BG@NKOONLJG@?$CFs?3?5?$DO25?5gaps?5?$CI4?$CJ?3?5?$CFd?6?$AA@ 005244f0     libsrtp-i386-win32-vc8-debug:stat.obj
 0003:0001550c       ??_C@_0BG@KJGIHLDJ@?$CFs?3?5?$DO25?5runs?5?$CI4?$CJ?3?5?$CFd?6?$AA@ 0052450c     libsrtp-i386-win32-vc8-debug:stat.obj
 0003:00015528       ??_C@_0BG@NACLNCIP@?$CFs?3?5?$DO25?5gaps?5?$CI3?$CJ?3?5?$CFd?6?$AA@ 00524528     libsrtp-i386-win32-vc8-debug:stat.obj
 0003:00015544       ??_C@_0BG@KDKNHCCA@?$CFs?3?5?$DO25?5runs?5?$CI3?$CJ?3?5?$CFd?6?$AA@ 00524544     libsrtp-i386-win32-vc8-debug:stat.obj
 0003:00015560       ??_C@_0CB@CCDIJIAM@?$CFs?3?5couldn?8t?5get?5rand?5bytes?3?5?$CFd?6@ 00524560     libsrtp-i386-win32-vc8-debug:stat.obj
 0003:00015588       ??_C@_0CH@JEBAOIDL@?$CFs?3?5failed?5stat?5test?5?$CItry?5number@ 00524588     libsrtp-i386-win32-vc8-debug:stat.obj
 0003:000155b8       ??_C@_05BPJLFPNI@sha?91?$AA@ 005245b8     libsrtp-i386-win32-vc8-debug:sha1.obj
 0003:000155c0       ??_C@_0CG@KGMPNKKF@?$CFs?3?5?$CIupdate?$CJ?5not?5running?5sha1_co@ 005245c0     libsrtp-i386-win32-vc8-debug:sha1.obj
 0003:000155f0       ??_C@_0CC@GKOIIHOG@?$CFs?3?5?$CIupdate?$CJ?5running?5sha1_core?$CI?$CJ@ 005245f0     libsrtp-i386-win32-vc8-debug:sha1.obj
 0003:00015618       ??_C@_0CH@HCINMGOM@?$CFs?3?5?$CIfinal?$CJ?5running?5sha1_core?$CI?$CJ?5@ 00524618     libsrtp-i386-win32-vc8-debug:sha1.obj
 0003:00015648       ??_C@_0CB@KIPIFMFH@?$CFs?3?5?$CIfinal?$CJ?5running?5sha1_core?$CI?$CJ?6@ 00524648     libsrtp-i386-win32-vc8-debug:sha1.obj
 0003:00015670       ??_C@_1BAE@CBLKKPB@?$AA?$CI?$AA?5?$AA?$CI?$AA_?$AAS?$AAt?$AAr?$AAe?$AAa?$AAm?$AA?9?$AA?$DO?$AA_?$AAf?$AAl?$AAa?$AAg?$AA?5?$AA?$CG?$AA?5?$AA_?$AAI?$AAO?$AAS?$AAT?$AAR?$AAG?$AA?$CJ?$AA?5?$AA?$HM?$AA?$HM?$AA?5@ 00524670     LIBCMTD:fgets.obj
 0003:000157a8       ??_C@_1CA@EHPEFHFN@?$AA?$CI?$AA?5?$AAs?$AAt?$AAr?$AA?5?$AA?$CB?$AA?$DN?$AA?5?$AAN?$AAU?$AAL?$AAL?$AA?5?$AA?$CJ?$AA?$AA@ 005247a8     LIBCMTD:fgets.obj
 0003:000157d0       ??_C@_1BO@CLMMCNLO@?$AA?$CI?$AA?5?$AAc?$AAo?$AAu?$AAn?$AAt?$AA?5?$AA?$DO?$AA?$DN?$AA?5?$AA0?$AA?5?$AA?$CJ?$AA?$AA@ 005247d0     LIBCMTD:fgets.obj
 0003:000157f4       ??_C@_1M@BEMABAL@?$AAf?$AAg?$AAe?$AAt?$AAs?$AA?$AA@ 005247f4     LIBCMTD:fgets.obj
 0003:00015804       ??_C@_1BA@OJDNOBAC@?$AAf?$AAg?$AAe?$AAt?$AAs?$AA?4?$AAc?$AA?$AA@ 00524804     LIBCMTD:fgets.obj
 0003:00015818       ??_C@_1EK@KICPAPCG@?$AA?$CI?$AA?5?$AAs?$AAt?$AAr?$AAi?$AAn?$AAg?$AA?5?$AA?$CB?$AA?$DN?$AA?5?$AAN?$AAU?$AAL?$AAL?$AA?5?$AA?$CJ?$AA?5?$AA?$HM?$AA?$HM?$AA?5?$AA?$CI?$AA?5?$AAc?$AAo?$AAu?$AAn?$AAt?$AA?5?$AA?$DN?$AA?$DN@ 00524818     LIBCMTD:fgets.obj
 0003:00015870       ??_C@_07PNHPCIEC@_file?4c?$AA@ 00524870     LIBCMTD:_file.obj
 0003:0001587c       ??_C@_15IABLJNFO@?$AA?6?$AA?6?$AA?$AA@ 0052487c     LIBCMTD:wassert.obj
 0003:00015884       ??_C@_13LBAGMAIH@?$AA?6?$AA?$AA@ 00524884     LIBCMTD:wassert.obj
 0003:00015888       ??_C@_17LGKOMLJ@?$AA?4?$AA?4?$AA?4?$AA?$AA@ 00524888     LIBCMTD:wassert.obj
 0003:00015898       ??_C@_1EK@MBDPDCGA@?$AAM?$AAi?$AAc?$AAr?$AAo?$AAs?$AAo?$AAf?$AAt?$AA?5?$AAV?$AAi?$AAs?$AAu?$AAa?$AAl?$AA?5?$AAC?$AA?$CL?$AA?$CL?$AA?5?$AAR?$AAu?$AAn?$AAt?$AAi?$AAm?$AAe?$AA?5?$AAL?$AAi?$AAb@ 00524898     LIBCMTD:wassert.obj
 0003:000158f0       ??_C@_1HK@POCJMFGK@?$AA?$CI?$AAP?$AAr?$AAe?$AAs?$AAs?$AA?5?$AAR?$AAe?$AAt?$AAr?$AAy?$AA?5?$AAt?$AAo?$AA?5?$AAd?$AAe?$AAb?$AAu?$AAg?$AA?5?$AAt?$AAh?$AAe?$AA?5?$AAa?$AAp?$AAp?$AAl?$AAi?$AAc@ 005248f0     LIBCMTD:wassert.obj
 0003:00015988       ??_C@_1LO@HBAMOOPN@?$AAw?$AAc?$AAs?$AAc?$AAa?$AAt?$AA_?$AAs?$AA?$CI?$AAa?$AAs?$AAs?$AAe?$AAr?$AAt?$AAb?$AAu?$AAf?$AA?0?$AA?5?$AA?$CI?$AA6?$AA0?$AA?5?$AA?$CK?$AA?5?$AA9?$AA?$CJ?$AA?0?$AA?5?$AAL?$AA?$CC@ 00524988     LIBCMTD:wassert.obj
 0003:00015a70       ??_C@_1FG@GMPCGFKH@?$AAw?$AAc?$AAs?$AAc?$AAa?$AAt?$AA_?$AAs?$AA?$CI?$AAa?$AAs?$AAs?$AAe?$AAr?$AAt?$AAb?$AAu?$AAf?$AA?0?$AA?5?$AA?$CI?$AA6?$AA0?$AA?5?$AA?$CK?$AA?5?$AA9?$AA?$CJ?$AA?0?$AA?5?$AAd?$AAb@ 00524a70     LIBCMTD:wassert.obj
 0003:00015ad8       ??_C@_1OA@EGMLFBHJ@?$AAF?$AAo?$AAr?$AA?5?$AAi?$AAn?$AAf?$AAo?$AAr?$AAm?$AAa?$AAt?$AAi?$AAo?$AAn?$AA?5?$AAo?$AAn?$AA?5?$AAh?$AAo?$AAw?$AA?5?$AAy?$AAo?$AAu?$AAr?$AA?5?$AAp?$AAr?$AAo?$AAg@ 00524ad8     LIBCMTD:wassert.obj
 0003:00015be8       ??_C@_1BCO@FMFFDPPF@?$AAw?$AAc?$AAs?$AAc?$AAa?$AAt?$AA_?$AAs?$AA?$CI?$AAa?$AAs?$AAs?$AAe?$AAr?$AAt?$AAb?$AAu?$AAf?$AA?0?$AA?5?$AA?$CI?$AA6?$AA0?$AA?5?$AA?$CK?$AA?5?$AA9?$AA?$CJ?$AA?0?$AA?5?$AAL?$AA?$CC@ 00524be8     LIBCMTD:wassert.obj
 0003:00015d58       ??_C@_1EM@MBEKCGIC@?$AAw?$AAc?$AAs?$AAc?$AAa?$AAt?$AA_?$AAs?$AA?$CI?$AA?5?$AAa?$AAs?$AAs?$AAe?$AAr?$AAt?$AAb?$AAu?$AAf?$AA?0?$AA?5?$AA?$CI?$AA6?$AA0?$AA?5?$AA?$CK?$AA?5?$AA9?$AA?$CJ?$AA?0?$AA?5?$AAe@ 00524d58     LIBCMTD:wassert.obj
 0003:00015db8       ??_C@_1CHM@CEIMNDLH@?$AAw?$AAc?$AAs?$AAn?$AAc?$AAa?$AAt?$AA_?$AAs?$AA?$CI?$AA?5?$AAa?$AAs?$AAs?$AAe?$AAr?$AAt?$AAb?$AAu?$AAf?$AA?0?$AA?5?$AA?$CI?$AA6?$AA0?$AA?5?$AA?$CK?$AA?5?$AA9?$AA?$CJ?$AA?0?$AA?5@ 00524db8     LIBCMTD:wassert.obj
 0003:000160b4       ??_C@_1BK@PEDCIPMA@?$AAE?$AAx?$AAp?$AAr?$AAe?$AAs?$AAs?$AAi?$AAo?$AAn?$AA?3?$AA?5?$AA?$AA@ 005250b4     LIBCMTD:wassert.obj
 0003:000160d8       ??_C@_1GC@HOBBPFHJ@?$AAw?$AAc?$AAs?$AAc?$AAa?$AAt?$AA_?$AAs?$AA?$CI?$AA?5?$AAa?$AAs?$AAs?$AAe?$AAr?$AAt?$AAb?$AAu?$AAf?$AA?0?$AA?5?$AA?$CI?$AA6?$AA0?$AA?5?$AA?$CK?$AA?5?$AA9?$AA?$CJ?$AA?0?$AA?5?$AAL@ 005250d8     LIBCMTD:wassert.obj
 0003:00016150       ??_C@_1KG@CFEIMPNH@?$AA_?$AAi?$AAt?$AAo?$AAw?$AA_?$AAs?$AA?$CI?$AA?5?$AAl?$AAi?$AAn?$AAe?$AAn?$AAo?$AA?0?$AA?5?$AAa?$AAs?$AAs?$AAe?$AAr?$AAt?$AAb?$AAu?$AAf?$AA?5?$AA?$CL?$AA?5?$AAw?$AAc?$AAs@ 00525150     LIBCMTD:wassert.obj
 0003:00016218       ??_C@_1O@KCAFKHJE@?$AAL?$AAi?$AAn?$AAe?$AA?3?$AA?5?$AA?$AA@ 00525218     LIBCMTD:wassert.obj
 0003:00016228       ??_C@_1FG@NHDGJLMI@?$AAw?$AAc?$AAs?$AAc?$AAa?$AAt?$AA_?$AAs?$AA?$CI?$AA?5?$AAa?$AAs?$AAs?$AAe?$AAr?$AAt?$AAb?$AAu?$AAf?$AA?0?$AA?5?$AA?$CI?$AA6?$AA0?$AA?5?$AA?$CK?$AA?5?$AA9?$AA?$CJ?$AA?0?$AA?5?$AAL@ 00525228     LIBCMTD:wassert.obj
 0003:00016290       ??_C@_1FE@IIFBBPFI@?$AAw?$AAc?$AAs?$AAc?$AAa?$AAt?$AA_?$AAs?$AA?$CI?$AA?5?$AAa?$AAs?$AAs?$AAe?$AAr?$AAt?$AAb?$AAu?$AAf?$AA?0?$AA?5?$AA?$CI?$AA6?$AA0?$AA?5?$AA?$CK?$AA?5?$AA9?$AA?$CJ?$AA?0?$AA?5?$AAf@ 00525290     LIBCMTD:wassert.obj
 0003:000162f8       ??_C@_1IC@CFFJBMAD@?$AAw?$AAc?$AAs?$AAc?$AAa?$AAt?$AA_?$AAs?$AA?$CI?$AA?5?$AAa?$AAs?$AAs?$AAe?$AAr?$AAt?$AAb?$AAu?$AAf?$AA?0?$AA?5?$AA?$CI?$AA6?$AA0?$AA?5?$AA?$CK?$AA?5?$AA9?$AA?$CJ?$AA?0?$AA?5?$AAp@ 005252f8     LIBCMTD:wassert.obj
 0003:00016398       ??_C@_1HG@OJJMBIKO@?$AAw?$AAc?$AAs?$AAn?$AAc?$AAa?$AAt?$AA_?$AAs?$AA?$CI?$AA?5?$AAa?$AAs?$AAs?$AAe?$AAr?$AAt?$AAb?$AAu?$AAf?$AA?0?$AA?5?$AA?$CI?$AA6?$AA0?$AA?5?$AA?$CK?$AA?5?$AA9?$AA?$CJ?$AA?0?$AA?5@ 00525398     LIBCMTD:wassert.obj
 0003:00016428       ??_C@_1GO@BIHLMMND@?$AAw?$AAc?$AAs?$AAn?$AAc?$AAa?$AAt?$AA_?$AAs?$AA?$CI?$AA?5?$AAa?$AAs?$AAs?$AAe?$AAr?$AAt?$AAb?$AAu?$AAf?$AA?0?$AA?5?$AA?$CI?$AA6?$AA0?$AA?5?$AA?$CK?$AA?5?$AA9?$AA?$CJ?$AA?0?$AA?5@ 00525428     LIBCMTD:wassert.obj
 0003:000164b0       ??_C@_1FO@IJLLDBEB@?$AAw?$AAc?$AAs?$AAc?$AAa?$AAt?$AA_?$AAs?$AA?$CI?$AA?5?$AAa?$AAs?$AAs?$AAe?$AAr?$AAt?$AAb?$AAu?$AAf?$AA?0?$AA?5?$AA?$CI?$AA6?$AA0?$AA?5?$AA?$CK?$AA?5?$AA9?$AA?$CJ?$AA?0?$AA?5?$AAp@ 005254b0     LIBCMTD:wassert.obj
 0003:00016520       ??_C@_1FG@CLEECKIJ@?$AAw?$AAc?$AAs?$AAc?$AAa?$AAt?$AA_?$AAs?$AA?$CI?$AA?5?$AAa?$AAs?$AAs?$AAe?$AAr?$AAt?$AAb?$AAu?$AAf?$AA?0?$AA?5?$AA?$CI?$AA6?$AA0?$AA?5?$AA?$CK?$AA?5?$AA9?$AA?$CJ?$AA?0?$AA?5?$AAd@ 00525520     LIBCMTD:wassert.obj
 0003:00016588       ??_C@_1GG@PMHOPJKA@?$AAw?$AAc?$AAs?$AAn?$AAc?$AAa?$AAt?$AA_?$AAs?$AA?$CI?$AA?5?$AAa?$AAs?$AAs?$AAe?$AAr?$AAt?$AAb?$AAu?$AAf?$AA?0?$AA?5?$AA?$CI?$AA6?$AA0?$AA?5?$AA?$CK?$AA?5?$AA9?$AA?$CJ?$AA?0?$AA?5@ 00525588     LIBCMTD:wassert.obj
 0003:00016604       ??_C@_1O@HEMHKNDC@?$AAF?$AAi?$AAl?$AAe?$AA?3?$AA?5?$AA?$AA@ 00525604     LIBCMTD:wassert.obj
 0003:00016618       ??_C@_1FG@HIDBOJF@?$AAw?$AAc?$AAs?$AAc?$AAa?$AAt?$AA_?$AAs?$AA?$CI?$AA?5?$AAa?$AAs?$AAs?$AAe?$AAr?$AAt?$AAb?$AAu?$AAf?$AA?0?$AA?5?$AA?$CI?$AA6?$AA0?$AA?5?$AA?$CK?$AA?5?$AA9?$AA?$CJ?$AA?0?$AA?5?$AAL@ 00525618     LIBCMTD:wassert.obj
 0003:00016680       ??_C@_1FC@FFKGGIKO@?$AAw?$AAc?$AAs?$AAc?$AAa?$AAt?$AA_?$AAs?$AA?$CI?$AA?5?$AAa?$AAs?$AAs?$AAe?$AAr?$AAt?$AAb?$AAu?$AAf?$AA?0?$AA?5?$AA?$CI?$AA6?$AA0?$AA?5?$AA?$CK?$AA?5?$AA9?$AA?$CJ?$AA?0?$AA?5?$AAn@ 00525680     LIBCMTD:wassert.obj
 0003:000166e8       ??_C@_1EK@BDNABPEK@?$AAw?$AAc?$AAs?$AAc?$AAa?$AAt?$AA_?$AAs?$AA?$CI?$AA?5?$AAa?$AAs?$AAs?$AAe?$AAr?$AAt?$AAb?$AAu?$AAf?$AA?0?$AA?5?$AA?$CI?$AA6?$AA0?$AA?5?$AA?$CK?$AA?5?$AA9?$AA?$CJ?$AA?0?$AA?5?$AAp@ 005256e8     LIBCMTD:wassert.obj
 0003:00016740       ??_C@_1HK@JKBDGMGN@?$AAw?$AAc?$AAs?$AAn?$AAc?$AAp?$AAy?$AA_?$AAs?$AA?$CI?$AA?5?$AAp?$AAc?$AAh?$AA?0?$AA?5?$AA?$CI?$AA2?$AA6?$AA0?$AA?5?$AA?$CL?$AA?5?$AA1?$AA?$CJ?$AA?5?$AA?9?$AA?5?$AA?$CI?$AAp?$AAc?$AAh@ 00525740     LIBCMTD:wassert.obj
 0003:000167d4       ??_C@_1CO@EAEJAADC@?$AA?$DM?$AAp?$AAr?$AAo?$AAg?$AAr?$AAa?$AAm?$AA?5?$AAn?$AAa?$AAm?$AAe?$AA?5?$AAu?$AAn?$AAk?$AAn?$AAo?$AAw?$AAn?$AA?$DO?$AA?$AA@ 005257d4     LIBCMTD:wassert.obj
 0003:00016810       ??_C@_1HA@EPFCONEE@?$AAw?$AAc?$AAs?$AAc?$AAp?$AAy?$AA_?$AAs?$AA?$CI?$AA?5?$AAp?$AAr?$AAo?$AAg?$AAn?$AAa?$AAm?$AAe?$AA?0?$AA?5?$AA2?$AA6?$AA0?$AA?5?$AA?$CL?$AA?5?$AA1?$AA?0?$AA?5?$AAL?$AA?$CC?$AA?$DM@ 00525810     LIBCMTD:wassert.obj
 0003:00016898       ??_C@_1BE@PHKBBGE@?$AAP?$AAr?$AAo?$AAg?$AAr?$AAa?$AAm?$AA?3?$AA?5?$AA?$AA@ 00525898     LIBCMTD:wassert.obj
 0003:000168b0       ??_C@_1FM@LKICECBD@?$AAw?$AAc?$AAs?$AAc?$AAa?$AAt?$AA_?$AAs?$AA?$CI?$AA?5?$AAa?$AAs?$AAs?$AAe?$AAr?$AAt?$AAb?$AAu?$AAf?$AA?0?$AA?5?$AA?$CI?$AA6?$AA0?$AA?5?$AA?$CK?$AA?5?$AA9?$AA?$CJ?$AA?0?$AA?5?$AAL@ 005258b0     LIBCMTD:wassert.obj
 0003:00016920       ??_C@_1FI@JIGMFG@?$AAw?$AAc?$AAs?$AAc?$AAa?$AAt?$AA_?$AAs?$AA?$CI?$AA?5?$AAa?$AAs?$AAs?$AAe?$AAr?$AAt?$AAb?$AAu?$AAf?$AA?0?$AA?5?$AA?$CI?$AA6?$AA0?$AA?5?$AA?$CK?$AA?5?$AA9?$AA?$CJ?$AA?0?$AA?5?$AAd@ 00525920     LIBCMTD:wassert.obj
 0003:0001698c       ??_C@_1CE@OJBNHDMO@?$AAA?$AAs?$AAs?$AAe?$AAr?$AAt?$AAi?$AAo?$AAn?$AA?5?$AAf?$AAa?$AAi?$AAl?$AAe?$AAd?$AA?$CB?$AA?$AA@ 0052598c     LIBCMTD:wassert.obj
 0003:000169b8       ??_C@_1GM@EFCJNBAA@?$AAw?$AAc?$AAs?$AAc?$AAp?$AAy?$AA_?$AAs?$AA?$CI?$AA?5?$AAa?$AAs?$AAs?$AAe?$AAr?$AAt?$AAb?$AAu?$AAf?$AA?0?$AA?5?$AA?$CI?$AA6?$AA0?$AA?5?$AA?$CK?$AA?5?$AA9?$AA?$CJ?$AA?0?$AA?5?$AAL@ 005259b8     LIBCMTD:wassert.obj
 0003:00016a3c       ??_C@_0CG@KNFFOMBO@Filename?5cannot?5be?5displayed?5on?5@ 00525a3c     LIBCMTD:wassert.obj
 0003:00016a70       ??_C@_1IG@IGPDOJOE@?$AAs?$AAt?$AAr?$AAc?$AAp?$AAy?$AA_?$AAs?$AA?$CI?$AAa?$AAe?$AAx?$AAp?$AAr?$AA?0?$AA?5?$AA?$CI?$AA6?$AA0?$AA?5?$AA?$CK?$AA?5?$AA9?$AA?$CJ?$AA?0?$AA?5?$AA?$CC?$AAF?$AAi?$AAl?$AAe?$AAn@ 00525a70     LIBCMTD:wassert.obj
 0003:00016b10       ??_C@_1EK@EDAIPDBP@?$AAs?$AAt?$AAr?$AAc?$AAa?$AAt?$AA_?$AAs?$AA?$CI?$AAa?$AAf?$AAi?$AAl?$AAe?$AAn?$AAa?$AAm?$AAe?$AA?0?$AA?5?$AA?$CI?$AA6?$AA0?$AA?5?$AA?$CK?$AA?5?$AA9?$AA?$CJ?$AA?0?$AA?5?$AA?$CC?$AA?4@ 00525b10     LIBCMTD:wassert.obj
 0003:00016b68       ??_C@_1IK@MDEEAGJC@?$AAw?$AAc?$AAs?$AAt?$AAo?$AAm?$AAb?$AAs?$AA_?$AAs?$AA?$CI?$AA?$CI?$AA?$CI?$AAv?$AAo?$AAi?$AAd?$AA?5?$AA?$CK?$AA?$CJ?$AA0?$AA?$CJ?$AA?0?$AA?5?$AAa?$AAf?$AAi?$AAl?$AAe?$AAn?$AAa?$AAm@ 00525b68     LIBCMTD:wassert.obj
 0003:00016c10       ??_C@_0CI@FDIHEIE@Expression?5cannot?5be?5displayed?5o@ 00525c10     LIBCMTD:wassert.obj
 0003:00016c40       ??_C@_1IK@ONGNJJEH@?$AAs?$AAt?$AAr?$AAc?$AAp?$AAy?$AA_?$AAs?$AA?$CI?$AAa?$AAe?$AAx?$AAp?$AAr?$AA?0?$AA?5?$AA?$CI?$AA6?$AA0?$AA?5?$AA?$CK?$AA?5?$AA9?$AA?$CJ?$AA?0?$AA?5?$AA?$CC?$AAE?$AAx?$AAp?$AAr?$AAe@ 00525c40     LIBCMTD:wassert.obj
 0003:00016ce8       ??_C@_03KHICJKCI@?4?4?4?$AA@ 00525ce8     LIBCMTD:wassert.obj
 0003:00016cf0       ??_C@_1EC@IFDALDOK@?$AAs?$AAt?$AAr?$AAc?$AAa?$AAt?$AA_?$AAs?$AA?$CI?$AAa?$AAe?$AAx?$AAp?$AAr?$AA?0?$AA?5?$AA?$CI?$AA6?$AA0?$AA?5?$AA?$CK?$AA?5?$AA9?$AA?$CJ?$AA?0?$AA?5?$AA?$CC?$AA?4?$AA?4?$AA?4?$AA?$CC?$AA?$CJ@ 00525cf0     LIBCMTD:wassert.obj
 0003:00016d40       ??_C@_1HK@ENOPLEGF@?$AAw?$AAc?$AAs?$AAt?$AAo?$AAm?$AAb?$AAs?$AA_?$AAs?$AA?$CI?$AA?$CI?$AA?$CI?$AAv?$AAo?$AAi?$AAd?$AA?5?$AA?$CK?$AA?$CJ?$AA0?$AA?$CJ?$AA?0?$AA?5?$AAa?$AAe?$AAx?$AAp?$AAr?$AA?0?$AA?5?$AA?$CI@ 00525d40     LIBCMTD:wassert.obj
 0003:00016dd4       ??_C@_1BC@LNOOMFNA@?$AA_?$AAw?$AAa?$AAs?$AAs?$AAe?$AAr?$AAt?$AA?$AA@ 00525dd4     LIBCMTD:wassert.obj
 0003:00016df0       ??_C@_1GA@PJFCHOLB@?$AAf?$AA?3?$AA?2?$AAs?$AAp?$AA?2?$AAv?$AAc?$AAt?$AAo?$AAo?$AAl?$AAs?$AA?2?$AAc?$AAr?$AAt?$AA_?$AAb?$AAl?$AAd?$AA?2?$AAs?$AAe?$AAl?$AAf?$AA_?$AAx?$AA8?$AA6?$AA?2?$AAc@ 00525df0     LIBCMTD:wassert.obj
 0003:00016e64       ??_C@_19OHLFMNEA@?$AAp?$AAu?$AAt?$AAs?$AA?$AA@ 00525e64     LIBCMTD:puts.obj
 0003:00016e70       ??_C@_1O@LBIKEMKD@?$AAp?$AAu?$AAt?$AAs?$AA?4?$AAc?$AA?$AA@ 00525e70     LIBCMTD:puts.obj
 0003:00016e80       ??_C@_1CC@OLIJCKA@?$AA?$CI?$AAs?$AAt?$AAr?$AAi?$AAn?$AAg?$AA?5?$AA?$CB?$AA?$DN?$AA?5?$AAN?$AAU?$AAL?$AAL?$AA?$CJ?$AA?$AA@ 00525e80     LIBCMTD:puts.obj
 0003:00016ea8       ??_C@_1EC@FABAOFFO@?$AA?$CI?$AAc?$AAo?$AAu?$AAn?$AAt?$AA?5?$AA?$DN?$AA?$DN?$AA?5?$AA0?$AA?$CJ?$AA?5?$AA?$HM?$AA?$HM?$AA?5?$AA?$CI?$AAs?$AAt?$AAr?$AAi?$AAn?$AAg?$AA?5?$AA?$CB?$AA?$DN?$AA?5?$AAN?$AAU?$AAL?$AAL?$AA?$CJ@ 00525ea8     LIBCMTD:snprintf.obj
 0003:00016ef8       ??_C@_1BE@CHNFPLHD@?$AA_?$AAs?$AAn?$AAp?$AAr?$AAi?$AAn?$AAt?$AAf?$AA?$AA@ 00525ef8     LIBCMTD:snprintf.obj
 0003:00016f10       ??_C@_1GC@GHEPACJN@?$AAf?$AA?3?$AA?2?$AAs?$AAp?$AA?2?$AAv?$AAc?$AAt?$AAo?$AAo?$AAl?$AAs?$AA?2?$AAc?$AAr?$AAt?$AA_?$AAb?$AAl?$AAd?$AA?2?$AAs?$AAe?$AAl?$AAf?$AA_?$AAx?$AA8?$AA6?$AA?2?$AAc@ 00525f10     LIBCMTD:snprintf.obj
 0003:00016f88       ??_C@_1CC@MGIEJOME@?$AA?$CI?$AAf?$AAo?$AAr?$AAm?$AAa?$AAt?$AA?5?$AA?$CB?$AA?$DN?$AA?5?$AAN?$AAU?$AAL?$AAL?$AA?$CJ?$AA?$AA@ 00525f88     LIBCMTD:snprintf.obj
 0003:00016fb0       ??_C@_1BA@KBJJGFFE@?$AAs?$AAp?$AAr?$AAi?$AAn?$AAt?$AAf?$AA?$AA@ 00525fb0     LIBCMTD:sprintf.obj
 0003:00016fc4       ??_C@_1BE@BPBEAPLI@?$AAs?$AAp?$AAr?$AAi?$AAn?$AAt?$AAf?$AA?4?$AAc?$AA?$AA@ 00525fc4     LIBCMTD:sprintf.obj
 0003:00016fdc       ?ProcessDetach@NativeDll@<CrtImplementationDetails>@@0IB 00525fdc     LIBCMTD:stricmp.obj
 0003:00016fe0       ?ProcessAttach@NativeDll@<CrtImplementationDetails>@@0IB 00525fe0     LIBCMTD:stricmp.obj
 0003:00016fe4       ?ThreadAttach@NativeDll@<CrtImplementationDetails>@@0IB 00525fe4     LIBCMTD:stricmp.obj
 0003:00016fe8       ?ThreadDetach@NativeDll@<CrtImplementationDetails>@@0IB 00525fe8     LIBCMTD:stricmp.obj
 0003:00016fec       ?ProcessVerifier@NativeDll@<CrtImplementationDetails>@@0IB 00525fec     LIBCMTD:stricmp.obj
 0003:00016ff0       ??_C@_1BI@DCHLDCPP@?$AAs?$AAr?$AAc?$AA?5?$AA?$CB?$AA?$DN?$AA?5?$AAN?$AAU?$AAL?$AAL?$AA?$AA@ 00525ff0     LIBCMTD:stricmp.obj
 0003:0001700c       ??_C@_1BG@GLLONOEH@?$AA_?$AAs?$AAt?$AAr?$AAi?$AAc?$AAm?$AAp?$AA_?$AAl?$AA?$AA@ 0052600c     LIBCMTD:stricmp.obj
 0003:00017028       ??_C@_1BE@OLHMELNO@?$AAs?$AAt?$AAr?$AAi?$AAc?$AAm?$AAp?$AA?4?$AAc?$AA?$AA@ 00526028     LIBCMTD:stricmp.obj
 0003:00017040       ??_C@_1BI@GKKCBDMD@?$AAd?$AAs?$AAt?$AA?5?$AA?$CB?$AA?$DN?$AA?5?$AAN?$AAU?$AAL?$AAL?$AA?$AA@ 00526040     LIBCMTD:stricmp.obj
 0003:0001705c       ??_C@_1BC@JLGKKIIG@?$AA_?$AAs?$AAt?$AAr?$AAi?$AAc?$AAm?$AAp?$AA?$AA@ 0052605c     LIBCMTD:stricmp.obj
 0003:00017074       __FPinit                   00526074     LIBCMTD:fpinit.obj
 0003:00017078       __FPmtinit                 00526078     LIBCMTD:fpinit.obj
 0003:0001707c       __FPmtterm                 0052607c     LIBCMTD:fpinit.obj
 0003:00017084       ??_C@_1CC@JLPHKJPH@?$AAc?$AAo?$AAu?$AAn?$AAt?$AA?5?$AA?$DM?$AA?$DN?$AA?5?$AAI?$AAN?$AAT?$AA_?$AAM?$AAA?$AAX?$AA?$AA@ 00526084     LIBCMTD:strnicmp.obj
 0003:000170ac       ??_C@_1BI@BJLEPLEF@?$AA_?$AAs?$AAt?$AAr?$AAn?$AAi?$AAc?$AAm?$AAp?$AA_?$AAl?$AA?$AA@ 005260ac     LIBCMTD:strnicmp.obj
 0003:000170c8       ??_C@_1BG@DAODMAPG@?$AAs?$AAt?$AAr?$AAn?$AAi?$AAc?$AAm?$AAp?$AA?4?$AAc?$AA?$AA@ 005260c8     LIBCMTD:strnicmp.obj
 0003:000170e4       ??_C@_1BE@BHJDFFNA@?$AA_?$AAs?$AAt?$AAr?$AAn?$AAi?$AAc?$AAm?$AAp?$AA?$AA@ 005260e4     LIBCMTD:strnicmp.obj
 0003:000170fc       ??_C@_1BK@FHMHFMNL@?$AA_?$AAv?$AAs?$AAn?$AAp?$AAr?$AAi?$AAn?$AAt?$AAf?$AA_?$AAl?$AA?$AA@ 005260fc     LIBCMTD:vsnprint.obj
 0003:00017120       ??_C@_1GE@LHHNFABB@?$AAf?$AA?3?$AA?2?$AAs?$AAp?$AA?2?$AAv?$AAc?$AAt?$AAo?$AAo?$AAl?$AAs?$AA?2?$AAc?$AAr?$AAt?$AA_?$AAb?$AAl?$AAd?$AA?2?$AAs?$AAe?$AAl?$AAf?$AA_?$AAx?$AA8?$AA6?$AA?2?$AAc@ 00526120     LIBCMTD:vsnprint.obj
 0003:00017198       ??_C@_06PJIGMIJB@Client?$AA@ 00526198     LIBCMTD:dbgheap.obj
 0003:000171a0       ??_C@_06KMEJCCGM@Ignore?$AA@ 005261a0     LIBCMTD:dbgheap.obj
 0003:000171a8       ??_C@_03OGPFLFLO@CRT?$AA@  005261a8     LIBCMTD:dbgheap.obj
 0003:000171ac       ??_C@_06EFAGIKOH@Normal?$AA@ 005261ac     LIBCMTD:dbgheap.obj
 0003:000171b4       ??_C@_04HJMOFLDF@Free?$AA@ 005261b4     LIBCMTD:dbgheap.obj
 0003:000171d4       ??_C@_0DC@JEMAGEKG@Error?3?5memory?5allocation?3?5bad?5me@ 005261d4     LIBCMTD:dbgheap.obj
 0003:00017210       ??_C@_0CF@BICKFLAF@Invalid?5allocation?5size?3?5?$CFIu?5byt@ 00526210     LIBCMTD:dbgheap.obj
 0003:0001723c       ??_C@_0CB@CCLOLAHO@Client?5hook?5allocation?5failure?4?6@ 0052623c     LIBCMTD:dbgheap.obj
 0003:00017264       ??_C@_0DF@BBEGIFEK@Client?5hook?5allocation?5failure?5a@ 00526264     LIBCMTD:dbgheap.obj
 0003:000172a4       ??_C@_1BE@DOFBOBGF@?$AAd?$AAb?$AAg?$AAh?$AAe?$AAa?$AAp?$AA?4?$AAc?$AA?$AA@ 005262a4     LIBCMTD:dbgheap.obj
 0003:000172bc       ??_C@_1CE@LJFEPPMP@?$AA_?$AAC?$AAr?$AAt?$AAC?$AAh?$AAe?$AAc?$AAk?$AAM?$AAe?$AAm?$AAo?$AAr?$AAy?$AA?$CI?$AA?$CJ?$AA?$AA@ 005262bc     LIBCMTD:dbgheap.obj
 0003:000172e8       ??_C@_1BI@MIPBBENM@?$AA_?$AAc?$AAa?$AAl?$AAl?$AAo?$AAc?$AA_?$AAd?$AAb?$AAg?$AA?$AA@ 005262e8     LIBCMTD:dbgheap.obj
 0003:00017304       ??_C@_1DO@MEOGCGBN@?$AA?$CI?$AA_?$AAH?$AAE?$AAA?$AAP?$AA_?$AAM?$AAA?$AAX?$AAR?$AAE?$AAQ?$AA?5?$AA?1?$AA?5?$AAn?$AAN?$AAu?$AAm?$AA?$CJ?$AA?5?$AA?$DO?$AA?$DN?$AA?5?$AAn?$AAS?$AAi?$AAz?$AAe?$AA?$AA@ 00526304     LIBCMTD:dbgheap.obj
 0003:00017350       ??_C@_1DE@KOOKLFBB@?$AA_?$AAp?$AAF?$AAi?$AAr?$AAs?$AAt?$AAB?$AAl?$AAo?$AAc?$AAk?$AA?5?$AA?$DN?$AA?$DN?$AA?5?$AAp?$AAO?$AAl?$AAd?$AAB?$AAl?$AAo?$AAc?$AAk?$AA?$AA@ 00526350     LIBCMTD:dbgheap.obj
 0003:00017390       ??_C@_1DC@GEFKNOOL@?$AA_?$AAp?$AAL?$AAa?$AAs?$AAt?$AAB?$AAl?$AAo?$AAc?$AAk?$AA?5?$AA?$DN?$AA?$DN?$AA?5?$AAp?$AAO?$AAl?$AAd?$AAB?$AAl?$AAo?$AAc?$AAk?$AA?$AA@ 00526390     LIBCMTD:dbgheap.obj
 0003:000173d0       ??_C@_1GE@PCKLOLAO@?$AAf?$AAR?$AAe?$AAa?$AAl?$AAl?$AAo?$AAc?$AA?5?$AA?$HM?$AA?$HM?$AA?5?$AA?$CI?$AA?$CB?$AAf?$AAR?$AAe?$AAa?$AAl?$AAl?$AAo?$AAc?$AA?5?$AA?$CG?$AA?$CG?$AA?5?$AAp?$AAN?$AAe?$AAw?$AAB?$AAl@ 005263d0     LIBCMTD:dbgheap.obj
 0003:00017448       ??_C@_1IK@DCPKDGNH@?$AAp?$AAO?$AAl?$AAd?$AAB?$AAl?$AAo?$AAc?$AAk?$AA?9?$AA?$DO?$AAn?$AAL?$AAi?$AAn?$AAe?$AA?5?$AA?$DN?$AA?$DN?$AA?5?$AAI?$AAG?$AAN?$AAO?$AAR?$AAE?$AA_?$AAL?$AAI?$AAN?$AAE?$AA?5@ 00526448     LIBCMTD:dbgheap.obj
 0003:000174f0       ??_C@_1EE@GFOPCECE@?$AA_?$AAC?$AAr?$AAt?$AAI?$AAs?$AAV?$AAa?$AAl?$AAi?$AAd?$AAH?$AAe?$AAa?$AAp?$AAP?$AAo?$AAi?$AAn?$AAt?$AAe?$AAr?$AA?$CI?$AAp?$AAU?$AAs?$AAe?$AAr?$AAD?$AAa?$AAt?$AAa@ 005264f0     LIBCMTD:dbgheap.obj
 0003:00017548       ??_C@_0EM@LGFLMAGJ@The?5Block?5at?50x?$CFp?5was?5allocated?5@ 00526548     LIBCMTD:dbgheap.obj
 0003:000175a8       ??_C@_0FA@EFEIGJKG@Error?3?5memory?5allocation?3?5bad?5me@ 005265a8     LIBCMTD:dbgheap.obj
 0003:00017608       ??_C@_0ED@GPCPBAGP@Invalid?5allocation?5size?3?5?$CFIu?5byt@ 00526608     LIBCMTD:dbgheap.obj
 0003:00017658       ??_C@_0CE@DOFMDOL@Client?5hook?5re?9allocation?5failur@ 00526658     LIBCMTD:dbgheap.obj
 0003:00017684       ??_C@_0DI@KKJPDPGM@Client?5hook?5re?9allocation?5failur@ 00526684     LIBCMTD:dbgheap.obj
 0003:000176c8       ??_C@_1BM@OKFKJCEN@?$AA_?$AAr?$AAe?$AAc?$AAa?$AAl?$AAl?$AAo?$AAc?$AA_?$AAd?$AAb?$AAg?$AA?$AA@ 005266c8     LIBCMTD:dbgheap.obj
 0003:000176ec       ??_C@_1DO@GOKJCEHJ@?$AA?$CI?$AA_?$AAH?$AAE?$AAA?$AAP?$AA_?$AAM?$AAA?$AAX?$AAR?$AAE?$AAQ?$AA?5?$AA?1?$AA?5?$AAc?$AAo?$AAu?$AAn?$AAt?$AA?$CJ?$AA?5?$AA?$DO?$AA?$DN?$AA?5?$AAs?$AAi?$AAz?$AAe?$AA?$AA@ 005266ec     LIBCMTD:dbgheap.obj
 0003:00017738       ??_C@_1BI@HAPNGHDP@?$AA_?$AAe?$AAx?$AAp?$AAa?$AAn?$AAd?$AA_?$AAd?$AAb?$AAg?$AA?$AA@ 00526738     LIBCMTD:dbgheap.obj
 0003:00017754       ??_C@_1CE@CJACEFBA@?$AAp?$AAU?$AAs?$AAe?$AAr?$AAD?$AAa?$AAt?$AAa?$AA?5?$AA?$CB?$AA?$DN?$AA?5?$AAN?$AAU?$AAL?$AAL?$AA?$AA@ 00526754     LIBCMTD:dbgheap.obj
 0003:00017780       ??_C@_1CM@MMAADDMD@?$AA_?$AAp?$AAF?$AAi?$AAr?$AAs?$AAt?$AAB?$AAl?$AAo?$AAc?$AAk?$AA?5?$AA?$DN?$AA?$DN?$AA?5?$AAp?$AAH?$AAe?$AAa?$AAd?$AA?$AA@ 00526780     LIBCMTD:dbgheap.obj
 0003:000177b4       ??_C@_1CK@DMAGEMBG@?$AA_?$AAp?$AAL?$AAa?$AAs?$AAt?$AAB?$AAl?$AAo?$AAc?$AAk?$AA?5?$AA?$DN?$AA?$DN?$AA?5?$AAp?$AAH?$AAe?$AAa?$AAd?$AA?$AA@ 005267b4     LIBCMTD:dbgheap.obj
 0003:000177e8       ??_C@_1DM@ODCJIDCP@?$AAp?$AAH?$AAe?$AAa?$AAd?$AA?9?$AA?$DO?$AAn?$AAB?$AAl?$AAo?$AAc?$AAk?$AAU?$AAs?$AAe?$AA?5?$AA?$DN?$AA?$DN?$AA?5?$AAn?$AAB?$AAl?$AAo?$AAc?$AAk?$AAU?$AAs?$AAe?$AA?$AA@ 005267e8     LIBCMTD:dbgheap.obj
 0003:00017830       ??_C@_1HK@HPCBMDFG@?$AAp?$AAH?$AAe?$AAa?$AAd?$AA?9?$AA?$DO?$AAn?$AAL?$AAi?$AAn?$AAe?$AA?5?$AA?$DN?$AA?$DN?$AA?5?$AAI?$AAG?$AAN?$AAO?$AAR?$AAE?$AA_?$AAL?$AAI?$AAN?$AAE?$AA?5?$AA?$CG?$AA?$CG?$AA?5?$AAp@ 00526830     LIBCMTD:dbgheap.obj
 0003:000178c8       ??_C@_0IG@LEMBDCJK@HEAP?5CORRUPTION?5DETECTED?3?5after?5@ 005268c8     LIBCMTD:dbgheap.obj
 0003:00017968       ??_C@_0KE@MBMNHHHN@HEAP?5CORRUPTION?5DETECTED?3?5after?5@ 00526968     LIBCMTD:dbgheap.obj
 0003:00017a30       ??_C@_0IK@PJCGLBOB@HEAP?5CORRUPTION?5DETECTED?3?5before@ 00526a30     LIBCMTD:dbgheap.obj
 0003:00017ad8       ??_C@_0KI@JGFOHMEB@HEAP?5CORRUPTION?5DETECTED?3?5before@ 00526ad8     LIBCMTD:dbgheap.obj
 0003:00017ba8       ??_C@_1EO@LHDAJOCM@?$AA_?$AAB?$AAL?$AAO?$AAC?$AAK?$AA_?$AAT?$AAY?$AAP?$AAE?$AA_?$AAI?$AAS?$AA_?$AAV?$AAA?$AAL?$AAI?$AAD?$AA?$CI?$AAp?$AAH?$AAe?$AAa?$AAd?$AA?9?$AA?$DO?$AAn?$AAB?$AAl?$AAo@ 00526ba8     LIBCMTD:dbgheap.obj
 0003:00017c08       ??_C@_0BL@KEIPLFAC@Client?5hook?5free?5failure?4?6?$AA@ 00526c08     LIBCMTD:dbgheap.obj
 0003:00017c28       ??_C@_0EJ@HEIBCIMJ@The?5Block?5at?50x?$CFp?5was?5allocated?5@ 00526c28     LIBCMTD:dbgheap.obj
 0003:00017c80       ??_C@_1BG@MBKOGDLD@?$AA_?$AAm?$AAs?$AAi?$AAz?$AAe?$AA_?$AAd?$AAb?$AAg?$AA?$AA@ 00526c80     LIBCMTD:dbgheap.obj
 0003:00017c9c       ??_C@_0CI@JMLBEDHJ@?$CFhs?5located?5at?50x?$CFp?5is?5?$CFIu?5bytes@ 00526c9c     LIBCMTD:dbgheap.obj
 0003:00017cd0       ??_C@_0EG@DGJMPDBH@?$CFhs?5located?5at?50x?$CFp?5is?5?$CFIu?5bytes@ 00526cd0     LIBCMTD:dbgheap.obj
 0003:00017d28       ??_C@_0IC@BBJIOOJH@HEAP?5CORRUPTION?5DETECTED?3?5on?5top@ 00526d28     LIBCMTD:dbgheap.obj
 0003:00017dc8       ??_C@_0KA@IHNJJKPL@HEAP?5CORRUPTION?5DETECTED?3?5on?5top@ 00526dc8     LIBCMTD:dbgheap.obj
 0003:00017e88       ??_C@_07OHKEFPKJ@DAMAGED?$AA@ 00526e88     LIBCMTD:dbgheap.obj
 0003:00017e94       ??_C@_0CL@HNNNMKMJ@_heapchk?5fails?5with?5unknown?5retu@ 00526e94     LIBCMTD:dbgheap.obj
 0003:00017ec8       ??_C@_0CC@MFFCHFHO@_heapchk?5fails?5with?5_HEAPBADPTR?4@ 00526ec8     LIBCMTD:dbgheap.obj
 0003:00017ef0       ??_C@_0CC@MJGLGBDG@_heapchk?5fails?5with?5_HEAPBADEND?4@ 00526ef0     LIBCMTD:dbgheap.obj
 0003:00017f18       ??_C@_0CD@CPKEAPBD@_heapchk?5fails?5with?5_HEAPBADNODE@ 00526f18     LIBCMTD:dbgheap.obj
 0003:00017f44       ??_C@_0CE@MKKHMBMK@_heapchk?5fails?5with?5_HEAPBADBEGI@ 00526f44     LIBCMTD:dbgheap.obj
 0003:00017f70       ??_C@_1BO@GJFDNMNF@?$AA_?$AAC?$AAr?$AAt?$AAS?$AAe?$AAt?$AAD?$AAb?$AAg?$AAF?$AAl?$AAa?$AAg?$AA?$AA@ 00526f70     LIBCMTD:dbgheap.obj
 0003:00017f98       ??_C@_1BHO@NNANJNF@?$AA?$CI?$AAf?$AAN?$AAe?$AAw?$AAB?$AAi?$AAt?$AAs?$AA?$DN?$AA?$DN?$AA_?$AAC?$AAR?$AAT?$AAD?$AAB?$AAG?$AA_?$AAR?$AAE?$AAP?$AAO?$AAR?$AAT?$AA_?$AAF?$AAL?$AAA?$AAG?$AA?$CJ?$AA?5@ 00526f98     LIBCMTD:dbgheap.obj
 0003:00018164       ??_C@_1DE@GJCKCKEC@?$AA_?$AAC?$AAr?$AAt?$AAD?$AAo?$AAF?$AAo?$AAr?$AAA?$AAl?$AAl?$AAC?$AAl?$AAi?$AAe?$AAn?$AAt?$AAO?$AAb?$AAj?$AAe?$AAc?$AAt?$AAs?$AA?$AA@ 00527164     LIBCMTD:dbgheap.obj
 0003:000181a4       ??_C@_1BI@CJGCEEDL@?$AAp?$AAf?$AAn?$AA?5?$AA?$CB?$AA?$DN?$AA?5?$AAN?$AAU?$AAL?$AAL?$AA?$AA@ 005271a4     LIBCMTD:dbgheap.obj
 0003:000181c0       ??_C@_1CG@DGPPLLPG@?$AA_?$AAg?$AAe?$AAt?$AA_?$AAo?$AAs?$AAv?$AAe?$AAr?$AA?$CI?$AA?$CG?$AAo?$AAs?$AAv?$AAe?$AAr?$AA?$CJ?$AA?$AA@ 005271c0     LIBCMTD:dbgheap.obj
 0003:000181f0       ??_C@_1CO@JHPAACDJ@?$AA_?$AAC?$AAr?$AAt?$AAI?$AAs?$AAV?$AAa?$AAl?$AAi?$AAd?$AAH?$AAe?$AAa?$AAp?$AAP?$AAo?$AAi?$AAn?$AAt?$AAe?$AAr?$AA?$AA@ 005271f0     LIBCMTD:dbgheap.obj
 0003:00018228       ??_C@_0CB@EAAIGELO@Bad?5memory?5block?5found?5at?50x?$CFp?4?6@ 00527228     LIBCMTD:dbgheap.obj
 0003:00018250       ??_C@_0DP@LEFMFBOD@Bad?5memory?5block?5found?5at?50x?$CFp?4?6@ 00527250     LIBCMTD:dbgheap.obj
 0003:0001829c       ??_C@_1CE@NJJKELF@?$AA_?$AAC?$AAr?$AAt?$AAM?$AAe?$AAm?$AAC?$AAh?$AAe?$AAc?$AAk?$AAp?$AAo?$AAi?$AAn?$AAt?$AA?$AA@ 0052729c     LIBCMTD:dbgheap.obj
 0003:000182c8       ??_C@_1BM@MIMANDHC@?$AAs?$AAt?$AAa?$AAt?$AAe?$AA?5?$AA?$CB?$AA?$DN?$AA?5?$AAN?$AAU?$AAL?$AAL?$AA?$AA@ 005272c8     LIBCMTD:dbgheap.obj
 0003:000182ec       ??_C@_1CC@DFPEDFBP@?$AAn?$AAe?$AAw?$AAS?$AAt?$AAa?$AAt?$AAe?$AA?5?$AA?$CB?$AA?$DN?$AA?5?$AAN?$AAU?$AAL?$AAL?$AA?$AA@ 005272ec     LIBCMTD:dbgheap.obj
 0003:00018314       ??_C@_1CC@DHPFEMMN@?$AAo?$AAl?$AAd?$AAS?$AAt?$AAa?$AAt?$AAe?$AA?5?$AA?$CB?$AA?$DN?$AA?5?$AAN?$AAU?$AAL?$AAL?$AA?$AA@ 00527314     LIBCMTD:dbgheap.obj
 0003:0001833c       ??_C@_1CE@PDIENACM@?$AA_?$AAC?$AAr?$AAt?$AAM?$AAe?$AAm?$AAD?$AAi?$AAf?$AAf?$AAe?$AAr?$AAe?$AAn?$AAc?$AAe?$AA?$AA@ 0052733c     LIBCMTD:dbgheap.obj
 0003:00018368       ??_C@_0BH@GFGKJDCO@Object?5dump?5complete?4?6?$AA@ 00527368     LIBCMTD:dbgheap.obj
 0003:00018384       ??_C@_0DA@MDLBNIBM@crt?5block?5at?50x?$CFp?0?5subtype?5?$CFx?0?5?$CF@ 00527384     LIBCMTD:dbgheap.obj
 0003:000183c0       ??_C@_0CH@FAGDDGPN@normal?5block?5at?50x?$CFp?0?5?$CFIu?5bytes?5@ 005273c0     LIBCMTD:dbgheap.obj
 0003:000183f0       ??_C@_0DD@GHNAAKBB@client?5block?5at?50x?$CFp?0?5subtype?5?$CFx@ 005273f0     LIBCMTD:dbgheap.obj
 0003:00018430       ??_C@_06PKLGBFGM@?$HL?$CFld?$HN?5?$AA@ 00527430     LIBCMTD:dbgheap.obj
 0003:00018438       ??_C@_0L@JMEFFCCJ@?$CFhs?$CI?$CFd?$CJ?5?3?5?$AA@ 00527438     LIBCMTD:dbgheap.obj
 0003:00018448       ??_C@_0BE@OIEFNFL@?$CDFile?5Error?$CD?$CI?$CFd?$CJ?5?3?5?$AA@ 00527448     LIBCMTD:dbgheap.obj
 0003:00018460       ??_C@_0BE@KCIPKCIA@Dumping?5objects?5?9?$DO?6?$AA@ 00527460     LIBCMTD:dbgheap.obj
 0003:00018478       ??_C@_0BA@HJBKCELP@?5Data?3?5?$DM?$CFs?$DO?5?$CFs?6?$AA@ 00527478     LIBCMTD:dbgheap.obj
 0003:0001848c       ??_C@_1BI@KALLJECN@?$AA?$CI?$AA?$CK?$AA_?$AAe?$AAr?$AAr?$AAn?$AAo?$AA?$CI?$AA?$CJ?$AA?$CJ?$AA?$AA@ 0052748c     LIBCMTD:dbgheap.obj
 0003:000184a8       ??_C@_1CG@LPFIACGM@?$AA_?$AAp?$AAr?$AAi?$AAn?$AAt?$AAM?$AAe?$AAm?$AAB?$AAl?$AAo?$AAc?$AAk?$AAD?$AAa?$AAt?$AAa?$AA?$AA@ 005274a8     LIBCMTD:dbgheap.obj
 0003:000184d8       ??_C@_05MKKEDADM@?$CF?42X?5?$AA@ 005274d8     LIBCMTD:dbgheap.obj
 0003:000184e0       ??_C@_0BI@JBFPOEJA@Detected?5memory?5leaks?$CB?6?$AA@ 005274e0     LIBCMTD:dbgheap.obj
 0003:000184fc       ??_C@_0BP@DEDHGGGI@Total?5allocations?3?5?$CFId?5bytes?4?6?$AA@ 005274fc     LIBCMTD:dbgheap.obj
 0003:00018524       ??_C@_0CB@BLHDAFNE@Largest?5number?5used?3?5?$CFId?5bytes?4?6@ 00527524     LIBCMTD:dbgheap.obj
 0003:0001854c       ??_C@_0BO@DACNIABB@?$CFId?5bytes?5in?5?$CFId?5?$CFhs?5Blocks?4?6?$AA@ 0052754c     LIBCMTD:dbgheap.obj
 0003:00018570       ??_C@_1CM@MPNIBKGK@?$AA_?$AAC?$AAr?$AAt?$AAM?$AAe?$AAm?$AAD?$AAu?$AAm?$AAp?$AAS?$AAt?$AAa?$AAt?$AAi?$AAs?$AAt?$AAi?$AAc?$AAs?$AA?$AA@ 00527570     LIBCMTD:dbgheap.obj
 0003:000185a4       ??_C@_1DK@LFLKFPDA@?$AAo?$AAf?$AAf?$AAs?$AAe?$AAt?$AA?5?$AA?$DN?$AA?$DN?$AA?5?$AA0?$AA?5?$AA?$HM?$AA?$HM?$AA?5?$AAo?$AAf?$AAf?$AAs?$AAe?$AAt?$AA?5?$AA?$DM?$AA?5?$AAs?$AAi?$AAz?$AAe?$AA?$AA@ 005275a4     LIBCMTD:dbgheap.obj
 0003:000185ec       ??_C@_1DG@DONCJBBJ@?$AA_?$AAa?$AAl?$AAi?$AAg?$AAn?$AAe?$AAd?$AA_?$AAo?$AAf?$AAf?$AAs?$AAe?$AAt?$AA_?$AAm?$AAa?$AAl?$AAl?$AAo?$AAc?$AA_?$AAd?$AAb?$AAg?$AA?$AA@ 005275ec     LIBCMTD:dbgheap.obj
 0003:0001862c       ??_C@_1CE@NPMGPNNP@?$AAI?$AAS?$AA_?$AA2?$AA_?$AAP?$AAO?$AAW?$AA_?$AAN?$AA?$CI?$AAa?$AAl?$AAi?$AAg?$AAn?$AA?$CJ?$AA?$AA@ 0052762c     LIBCMTD:dbgheap.obj
 0003:00018658       ??_C@_1DI@NINIKFFK@?$AA_?$AAa?$AAl?$AAi?$AAg?$AAn?$AAe?$AAd?$AA_?$AAo?$AAf?$AAf?$AAs?$AAe?$AAt?$AA_?$AAr?$AAe?$AAa?$AAl?$AAl?$AAo?$AAc?$AA_?$AAd?$AAb?$AAg?$AA?$AA@ 00527658     LIBCMTD:dbgheap.obj
 0003:0001869c       ??_C@_0DL@PGHMMKNE@Damage?5before?50x?$CFp?5which?5was?5all@ 0052769c     LIBCMTD:dbgheap.obj
 0003:000186e8       ??_C@_0EI@NDNJMAJK@The?5block?5at?50x?$CFp?5was?5not?5alloca@ 005276e8     LIBCMTD:dbgheap.obj
 0003:00018740       ??_C@_1DK@MMLHIFFH@?$AA_?$AAa?$AAl?$AAi?$AAg?$AAn?$AAe?$AAd?$AA_?$AAo?$AAf?$AAf?$AAs?$AAe?$AAt?$AA_?$AAr?$AAe?$AAc?$AAa?$AAl?$AAl?$AAo?$AAc?$AA_?$AAd?$AAb?$AAg?$AA?$AA@ 00527740     LIBCMTD:dbgheap.obj
 0003:00018788       ??_C@_0EF@PGELACII@The?5block?5at?50x?$CFp?5was?5not?5alloca@ 00527788     LIBCMTD:dbgheap.obj
 0003:000187dc       ??_C@_1CG@CEGMHIMN@?$AA_?$AAa?$AAl?$AAi?$AAg?$AAn?$AAe?$AAd?$AA_?$AAm?$AAs?$AAi?$AAz?$AAe?$AA_?$AAd?$AAb?$AAg?$AA?$AA@ 005277dc     LIBCMTD:dbgheap.obj
 0003:0001880c       ??_C@_1CC@MOBIKHH@?$AAm?$AAe?$AAm?$AAb?$AAl?$AAo?$AAc?$AAk?$AA?5?$AA?$CB?$AA?$DN?$AA?5?$AAN?$AAU?$AAL?$AAL?$AA?$AA@ 0052780c     LIBCMTD:dbgheap.obj
 0003:00018834       ??_C@_1O@GKDHFACN@?$AAp?$AAr?$AAi?$AAn?$AAt?$AAf?$AA?$AA@ 00527834     LIBCMTD:printf.obj
 0003:00018844       ??_C@_1BC@BHLBENIK@?$AAp?$AAr?$AAi?$AAn?$AAt?$AAf?$AA?4?$AAc?$AA?$AA@ 00527844     LIBCMTD:printf.obj
 0003:000188c0       ??_C@_0P@MIGLKIOC@CorExitProcess?$AA@ 005278c0     LIBCMTD:crt0dat.obj
 0003:000188d4       ??_C@_0M@MBOPBNBK@mscoree?4dll?$AA@ 005278d4     LIBCMTD:crt0dat.obj
 0003:000188e4       ??_C@_1BO@PCPNBEJP@?$AA_?$AAo?$AAs?$AAp?$AAl?$AAa?$AAt?$AAf?$AAo?$AAr?$AAm?$AA?$CB?$AA?$DN?$AA0?$AA?$AA@ 005278e4     LIBCMTD:crt0dat.obj
 0003:00018908       ??_C@_1CA@HBJLODAG@?$AA_?$AAg?$AAe?$AAt?$AA_?$AAo?$AAs?$AAp?$AAl?$AAa?$AAt?$AAf?$AAo?$AAr?$AAm?$AA?$AA@ 00527908     LIBCMTD:crt0dat.obj
 0003:00018930       ??_C@_1BE@DFOEAGLM@?$AAc?$AAr?$AAt?$AA0?$AAd?$AAa?$AAt?$AA?4?$AAc?$AA?$AA@ 00527930     LIBCMTD:crt0dat.obj
 0003:00018948       ??_C@_1BO@LKEBEKJP@?$AAp?$AAV?$AAa?$AAl?$AAu?$AAe?$AA?5?$AA?$CB?$AA?$DN?$AA?5?$AAN?$AAU?$AAL?$AAL?$AA?$AA@ 00527948     LIBCMTD:crt0dat.obj
 0003:0001896c       ??_C@_1BG@OLMEODBO@?$AA_?$AAg?$AAe?$AAt?$AA_?$AAo?$AAs?$AAv?$AAe?$AAr?$AA?$AA@ 0052796c     LIBCMTD:crt0dat.obj
 0003:00018988       ??_C@_1BI@EHCOONPO@?$AA_?$AAg?$AAe?$AAt?$AA_?$AAw?$AAi?$AAn?$AAv?$AAe?$AAr?$AA?$AA@ 00527988     LIBCMTD:crt0dat.obj
 0003:000189a4       ??_C@_1BM@MHJHOJPG@?$AA_?$AAg?$AAe?$AAt?$AA_?$AAw?$AAi?$AAn?$AAm?$AAa?$AAj?$AAo?$AAr?$AA?$AA@ 005279a4     LIBCMTD:crt0dat.obj
 0003:000189c8       ??_C@_1BM@FAAKKHPI@?$AA_?$AAg?$AAe?$AAt?$AA_?$AAw?$AAi?$AAn?$AAm?$AAi?$AAn?$AAo?$AAr?$AA?$AA@ 005279c8     LIBCMTD:crt0dat.obj
 0003:000189ec       ??_C@_1CC@CDIPMFPD@?$AA_?$AAw?$AAp?$AAg?$AAm?$AAp?$AAt?$AAr?$AA?5?$AA?$CB?$AA?$DN?$AA?5?$AAN?$AAU?$AAL?$AAL?$AA?$AA@ 005279ec     LIBCMTD:crt0dat.obj
 0003:00018a14       ??_C@_1BK@PNLDCCDP@?$AA_?$AAg?$AAe?$AAt?$AA_?$AAw?$AAp?$AAg?$AAm?$AAp?$AAt?$AAr?$AA?$AA@ 00527a14     LIBCMTD:crt0dat.obj
 0003:00018a34       ??_C@_1CA@BBNAFCKO@?$AA_?$AAp?$AAg?$AAm?$AAp?$AAt?$AAr?$AA?5?$AA?$CB?$AA?$DN?$AA?5?$AAN?$AAU?$AAL?$AAL?$AA?$AA@ 00527a34     LIBCMTD:crt0dat.obj
 0003:00018a5c       ??_C@_1BI@COAAPHJK@?$AA_?$AAg?$AAe?$AAt?$AA_?$AAp?$AAg?$AAm?$AAp?$AAt?$AAr?$AA?$AA@ 00527a5c     LIBCMTD:crt0dat.obj
 0003:00018a78       ??_C@_1BA@IIKEPOGH@?$AA_?$AAf?$AAi?$AAl?$AAb?$AAu?$AAf?$AA?$AA@ 00527a78     LIBCMTD:_filbuf.obj
 0003:00018a8c       ??_C@_1BE@CEJGNPDE@?$AA_?$AAf?$AAi?$AAl?$AAb?$AAu?$AAf?$AA?4?$AAc?$AA?$AA@ 00527a8c     LIBCMTD:_filbuf.obj
 0003:00018aa4       ??_C@_1BI@MFCLPIBM@?$AAs?$AAt?$AAr?$AA?5?$AA?$CB?$AA?$DN?$AA?5?$AAN?$AAU?$AAL?$AAL?$AA?$AA@ 00527aa4     LIBCMTD:_filbuf.obj
 0003:00018ac0       ??_C@_08MAFBHINM@ioinit?4c?$AA@ 00527ac0     LIBCMTD:ioinit.obj
 0003:00018acc       ??_C@_1BA@JGHIEKKM@?$AA_?$AAf?$AAi?$AAl?$AAe?$AAn?$AAo?$AA?$AA@ 00527acc     LIBCMTD:fileno.obj
 0003:00018ae0       ??_C@_1BC@FBGAHIFN@?$AAf?$AAi?$AAl?$AAe?$AAn?$AAo?$AA?4?$AAc?$AA?$AA@ 00527ae0     LIBCMTD:fileno.obj
 0003:00018af8       ??_C@_1CC@FADMNIL@?$AA?$CI?$AAs?$AAt?$AAr?$AAe?$AAa?$AAm?$AA?5?$AA?$CB?$AA?$DN?$AA?5?$AAN?$AAU?$AAL?$AAL?$AA?$CJ?$AA?$AA@ 00527af8     LIBCMTD:fileno.obj
 0003:00018b20       ??_C@_1BG@KCMPBBDK@?$AA_?$AAg?$AAe?$AAt?$AA_?$AAe?$AAr?$AAr?$AAn?$AAo?$AA?$AA@ 00527b20     LIBCMTD:dosmap.obj
 0003:00018b3c       ??_C@_1BC@GFJPPMFE@?$AAd?$AAo?$AAs?$AAm?$AAa?$AAp?$AA?4?$AAc?$AA?$AA@ 00527b3c     LIBCMTD:dosmap.obj
 0003:00018b54       ??_C@_1BM@INIPHHDD@?$AA_?$AAg?$AAe?$AAt?$AA_?$AAd?$AAo?$AAs?$AAe?$AAr?$AAr?$AAn?$AAo?$AA?$AA@ 00527b54     LIBCMTD:dosmap.obj
 0003:00018b78       ??_C@_1CC@CGHMNGDG@?$AAA?$AAs?$AAs?$AAe?$AAr?$AAt?$AAi?$AAo?$AAn?$AA?5?$AAF?$AAa?$AAi?$AAl?$AAe?$AAd?$AA?$AA@ 00527b78     LIBCMTD:dbgrptw.obj
 0003:00018ba0       ??_C@_1M@ILHOPKA@?$AAE?$AAr?$AAr?$AAo?$AAr?$AA?$AA@ 00527ba0     LIBCMTD:dbgrptw.obj
 0003:00018bb0       ??_C@_1BA@GLMCNLEM@?$AAW?$AAa?$AAr?$AAn?$AAi?$AAn?$AAg?$AA?$AA@ 00527bb0     LIBCMTD:dbgrptw.obj
 0003:00018bc4       ??_C@_0DA@HAFNAKMA@f?3?2sp?2vctools?2crt_bld?2self_x86?2c@ 00527bc4     LIBCMTD:dbgrptw.obj
 0003:00018c00       ??_C@_1FI@PHIAFFHM@?$AA?$CI?$AA?$CC?$AAT?$AAh?$AAe?$AA?5?$AAh?$AAo?$AAo?$AAk?$AA?5?$AAf?$AAu?$AAn?$AAc?$AAt?$AAi?$AAo?$AAn?$AA?5?$AAi?$AAs?$AA?5?$AAn?$AAo?$AAt?$AA?5?$AAi?$AAn?$AA?5?$AAt?$AAh@ 00527c00     LIBCMTD:dbgrptw.obj
 0003:00018c6c       ??_C@_1CG@JBJEFOCM@?$AAp?$AAf?$AAn?$AAN?$AAe?$AAw?$AAH?$AAo?$AAo?$AAk?$AA?5?$AA?$CB?$AA?$DN?$AA?5?$AAN?$AAU?$AAL?$AAL?$AA?$AA@ 00527c6c     LIBCMTD:dbgrptw.obj
 0003:00018c9c       ??_C@_1CI@IIHEAKEI@?$AA_?$AAC?$AAr?$AAt?$AAS?$AAe?$AAt?$AAR?$AAe?$AAp?$AAo?$AAr?$AAt?$AAH?$AAo?$AAo?$AAk?$AAW?$AA2?$AA?$AA@ 00527c9c     LIBCMTD:dbgrptw.obj
 0003:00018cd0       ??_C@_1GA@FGIMNHGA@?$AAf?$AA?3?$AA?2?$AAs?$AAp?$AA?2?$AAv?$AAc?$AAt?$AAo?$AAo?$AAl?$AAs?$AA?2?$AAc?$AAr?$AAt?$AA_?$AAb?$AAl?$AAd?$AA?2?$AAs?$AAe?$AAl?$AAf?$AA_?$AAx?$AA8?$AA6?$AA?2?$AAc@ 00527cd0     LIBCMTD:dbgrptw.obj
 0003:00018d48       ??_C@_1HI@OFEHGPPC@?$AAm?$AAo?$AAd?$AAe?$AA?5?$AA?$DN?$AA?$DN?$AA?5?$AA_?$AAC?$AAR?$AAT?$AA_?$AAR?$AAP?$AAT?$AAH?$AAO?$AAO?$AAK?$AA_?$AAI?$AAN?$AAS?$AAT?$AAA?$AAL?$AAL?$AA?5?$AA?$HM?$AA?$HM?$AA?5@ 00527d48     LIBCMTD:dbgrptw.obj
 0003:00018dd8       ??_C@_0DP@GNPEPHJD@_CrtDbgReport?3?5String?5too?5long?5o@ 00527dd8     LIBCMTD:dbgrptw.obj
 0003:00018e28       ??_C@_1LI@CIHKNEBA@?$AAs?$AAt?$AAr?$AAc?$AAp?$AAy?$AA_?$AAs?$AA?$CI?$AAs?$AAz?$AAa?$AAF?$AAo?$AAr?$AAm?$AAa?$AAt?$AA?0?$AA?5?$AA4?$AA0?$AA9?$AA6?$AA?0?$AA?5?$AA?$CC?$AA_?$AAC?$AAr?$AAt?$AAD@ 00527e28     LIBCMTD:dbgrptw.obj
 0003:00018f08       ??_C@_1GO@BIBJILHL@?$AAw?$AAc?$AAs?$AAt?$AAo?$AAm?$AAb?$AAs?$AA_?$AAs?$AA?$CI?$AA0?$AA?0?$AA?5?$AAs?$AAz?$AAa?$AAF?$AAo?$AAr?$AAm?$AAa?$AAt?$AA?0?$AA?5?$AA4?$AA0?$AA9?$AA6?$AA?0?$AA?5?$AAs@ 00527f08     LIBCMTD:dbgrptw.obj
 0003:00018f90       ??_C@_1IK@NOIOPCJD@?$AAs?$AAt?$AAr?$AAc?$AAp?$AAy?$AA_?$AAs?$AA?$CI?$AAs?$AAz?$AAa?$AAM?$AAo?$AAd?$AAu?$AAl?$AAe?$AA?0?$AA?5?$AA4?$AA0?$AA9?$AA6?$AA?0?$AA?5?$AA?$CC?$AAE?$AAx?$AAp?$AAr?$AAe@ 00527f90     LIBCMTD:dbgrptw.obj
 0003:00019038       ??_C@_1GO@EIJIKMJN@?$AAw?$AAc?$AAs?$AAt?$AAo?$AAm?$AAb?$AAs?$AA_?$AAs?$AA?$CI?$AA0?$AA?0?$AA?5?$AAs?$AAz?$AAa?$AAM?$AAo?$AAd?$AAu?$AAl?$AAe?$AA?0?$AA?5?$AA4?$AA0?$AA9?$AA6?$AA?0?$AA?5?$AAs@ 00528038     LIBCMTD:dbgrptw.obj
 0003:000190c0       ??_C@_1IG@KNLLJKPP@?$AAs?$AAt?$AAr?$AAc?$AAp?$AAy?$AA_?$AAs?$AA?$CI?$AAs?$AAz?$AAa?$AAF?$AAi?$AAl?$AAe?$AA?0?$AA?5?$AA4?$AA0?$AA9?$AA6?$AA?0?$AA?5?$AA?$CC?$AAE?$AAx?$AAp?$AAr?$AAe?$AAs?$AAs@ 005280c0     LIBCMTD:dbgrptw.obj
 0003:00019160       ??_C@_1DO@CNMELOIB@?$AAs?$AAt?$AAr?$AAc?$AAa?$AAt?$AA_?$AAs?$AA?$CI?$AAs?$AAz?$AAa?$AAF?$AAi?$AAl?$AAe?$AA?0?$AA?5?$AA4?$AA0?$AA9?$AA6?$AA?0?$AA?5?$AA?$CC?$AA?4?$AA?4?$AA?4?$AA?$CC?$AA?$CJ?$AA?$AA@ 00528160     LIBCMTD:dbgrptw.obj
 0003:000191b0       ??_C@_1GG@OHDJJHOI@?$AAw?$AAc?$AAs?$AAt?$AAo?$AAm?$AAb?$AAs?$AA_?$AAs?$AA?$CI?$AA0?$AA?0?$AA?5?$AAs?$AAz?$AAa?$AAF?$AAi?$AAl?$AAe?$AA?0?$AA?5?$AA4?$AA0?$AA9?$AA6?$AA?0?$AA?5?$AAs?$AAz?$AAF@ 005281b0     LIBCMTD:dbgrptw.obj
 0003:0001922c       ??_C@_1DK@NLBDKACM@?$AA_?$AAg?$AAe?$AAt?$AA_?$AAo?$AAs?$AAp?$AAl?$AAa?$AAt?$AAf?$AAo?$AAr?$AAm?$AA?$CI?$AA?$CG?$AAo?$AAs?$AAp?$AAl?$AAa?$AAt?$AAf?$AAo?$AAr?$AAm?$AA?$CJ?$AA?$AA@ 0052822c     LIBCMTD:dbgrptw.obj
 0003:00019274       ??_C@_1CA@KLAOOAPJ@?$AA_?$AAC?$AAr?$AAt?$AAD?$AAb?$AAg?$AAR?$AAe?$AAp?$AAo?$AAr?$AAt?$AAW?$AAV?$AA?$AA@ 00528274     LIBCMTD:dbgrptw.obj
 0003:000192a0       ??_C@_1EG@PEOEAKBB@?$AAM?$AAi?$AAc?$AAr?$AAo?$AAs?$AAo?$AAf?$AAt?$AA?5?$AAV?$AAi?$AAs?$AAu?$AAa?$AAl?$AA?5?$AAC?$AA?$CL?$AA?$CL?$AA?5?$AAD?$AAe?$AAb?$AAu?$AAg?$AA?5?$AAL?$AAi?$AAb?$AAr?$AAa@ 005282a0     LIBCMTD:dbgrptw.obj
 0003:000192f8       ??_C@_1FG@BBOLDHGF@?$AA_?$AAC?$AAr?$AAt?$AAD?$AAb?$AAg?$AAR?$AAe?$AAp?$AAo?$AAr?$AAt?$AA?3?$AA?5?$AAS?$AAt?$AAr?$AAi?$AAn?$AAg?$AA?5?$AAt?$AAo?$AAo?$AA?5?$AAl?$AAo?$AAn?$AAg?$AA?5?$AAo@ 005282f8     LIBCMTD:dbgrptw.obj
 0003:00019360       ??_C@_1JI@EACPGHID@?$AAw?$AAc?$AAs?$AAc?$AAp?$AAy?$AA_?$AAs?$AA?$CI?$AAs?$AAz?$AAO?$AAu?$AAt?$AAM?$AAe?$AAs?$AAs?$AAa?$AAg?$AAe?$AA?0?$AA?5?$AA4?$AA0?$AA9?$AA6?$AA?0?$AA?5?$AAL?$AA?$CC?$AA_@ 00528360     LIBCMTD:dbgrptw.obj
 0003:00019418       ??_C@_1KK@MEFMPOLM@?$AAD?$AAe?$AAb?$AAu?$AAg?$AA?5?$AA?$CF?$AAs?$AA?$CB?$AA?6?$AA?6?$AAP?$AAr?$AAo?$AAg?$AAr?$AAa?$AAm?$AA?3?$AA?5?$AA?$CF?$AAs?$AA?$CF?$AAs?$AA?$CF?$AAs?$AA?$CF?$AAs?$AA?$CF?$AAs?$AA?$CF?$AAs@ 00528418     LIBCMTD:dbgrptw.obj
 0003:000194e4       ??_C@_1BE@CGCJKGHI@?$AA?6?$AAM?$AAo?$AAd?$AAu?$AAl?$AAe?$AA?3?$AA?5?$AA?$AA@ 005284e4     LIBCMTD:dbgrptw.obj
 0003:000194fc       ??_C@_1BA@LNHECFIM@?$AA?6?$AAF?$AAi?$AAl?$AAe?$AA?3?$AA?5?$AA?$AA@ 005284fc     LIBCMTD:dbgrptw.obj
 0003:00019510       ??_C@_1BA@GLLGCPCK@?$AA?6?$AAL?$AAi?$AAn?$AAe?$AA?3?$AA?5?$AA?$AA@ 00528510     LIBCMTD:dbgrptw.obj
 0003:00019524       ??_C@_11LOCGONAA@?$AA?$AA@ 00528524     LIBCMTD:dbgrptw.obj
 0003:00019528       ??_C@_1OG@PMPPFHAF@?$AA?6?$AA?6?$AAF?$AAo?$AAr?$AA?5?$AAi?$AAn?$AAf?$AAo?$AAr?$AAm?$AAa?$AAt?$AAi?$AAo?$AAn?$AA?5?$AAo?$AAn?$AA?5?$AAh?$AAo?$AAw?$AA?5?$AAy?$AAo?$AAu?$AAr?$AA?5?$AAp?$AAr@ 00528528     LIBCMTD:dbgrptw.obj
 0003:00019640       ??_C@_1JM@GKDPCMEA@?$AAw?$AAc?$AAs?$AAn?$AAc?$AAp?$AAy?$AA_?$AAs?$AA?$CI?$AAs?$AAz?$AAS?$AAh?$AAo?$AAr?$AAt?$AAP?$AAr?$AAo?$AAg?$AAN?$AAa?$AAm?$AAe?$AA?0?$AA?5?$AA2?$AA6?$AA0?$AA?5?$AA?9@ 00528640     LIBCMTD:dbgrptw.obj
 0003:00019700       ??_C@_1GI@DEDNNLCI@?$AAw?$AAc?$AAs?$AAc?$AAp?$AAy?$AA_?$AAs?$AA?$CI?$AAs?$AAz?$AAE?$AAx?$AAe?$AAN?$AAa?$AAm?$AAe?$AA?0?$AA?5?$AA2?$AA6?$AA0?$AA?0?$AA?5?$AAL?$AA?$CC?$AA?$DM?$AAp?$AAr?$AAo?$AAg@ 00528700     LIBCMTD:dbgrptw.obj
 0003:0001977c       ??_C@_1CI@PGJIFDEK@?$AA_?$AA_?$AAc?$AAr?$AAt?$AAM?$AAe?$AAs?$AAs?$AAa?$AAg?$AAe?$AAW?$AAi?$AAn?$AAd?$AAo?$AAw?$AAW?$AA?$AA@ 0052877c     LIBCMTD:dbgrptw.obj
 0003:000197ac       ??_C@_07CKDBCAPD@mlock?4c?$AA@ 005287ac     LIBCMTD:mlock.obj
 0003:000197b8       ??_C@_1O@EJLDHPPL@?$AAs?$AAi?$AAg?$AAn?$AAa?$AAl?$AA?$AA@ 005287b8     LIBCMTD:winsig.obj
 0003:000197c8       ??_C@_1BC@KDODBONJ@?$AAw?$AAi?$AAn?$AAs?$AAi?$AAg?$AA?4?$AAc?$AA?$AA@ 005287c8     LIBCMTD:winsig.obj
 0003:000197e0       ??_C@_1DO@MLNEDKGB@?$AA?$CI?$AA?$CC?$AAI?$AAn?$AAv?$AAa?$AAl?$AAi?$AAd?$AA?5?$AAs?$AAi?$AAg?$AAn?$AAa?$AAl?$AA?5?$AAo?$AAr?$AA?5?$AAe?$AAr?$AAr?$AAo?$AAr?$AA?$CC?$AA?0?$AA?5?$AA0?$AA?$CJ?$AA?$AA@ 005287e0     LIBCMTD:winsig.obj
 0003:0001982c       ??_C@_08FKHPDPAC@winsig?4c?$AA@ 0052882c     LIBCMTD:winsig.obj
 0003:00019838       ??_C@_1M@DMJEIKHL@?$AAr?$AAa?$AAi?$AAs?$AAe?$AA?$AA@ 00528838     LIBCMTD:winsig.obj
 0003:00019848       ??_C@_1DC@OIOKIELJ@?$AA_?$AAg?$AAe?$AAt?$AA_?$AAw?$AAi?$AAn?$AAm?$AAa?$AAj?$AAo?$AAr?$AA?$CI?$AA?$CG?$AAw?$AAi?$AAn?$AAm?$AAa?$AAj?$AAo?$AAr?$AA?$CJ?$AA?$AA@ 00528848     LIBCMTD:crtmboxw.obj
 0003:00019884       ??_C@_0BI@DFKBFLJE@GetProcessWindowStation?$AA@ 00528884     LIBCMTD:crtmboxw.obj
 0003:000198a0       ??_C@_0BK@DEKFELLI@GetUserObjectInformationW?$AA@ 005288a0     LIBCMTD:crtmboxw.obj
 0003:000198c0       ??_C@_1CC@LBPMICNL@?$AA_?$AA_?$AAc?$AAr?$AAt?$AAM?$AAe?$AAs?$AAs?$AAa?$AAg?$AAe?$AAB?$AAo?$AAx?$AAW?$AA?$AA@ 005288c0     LIBCMTD:crtmboxw.obj
 0003:000198e8       ??_C@_1GC@HLBFDAED@?$AAf?$AA?3?$AA?2?$AAs?$AAp?$AA?2?$AAv?$AAc?$AAt?$AAo?$AAo?$AAl?$AAs?$AA?2?$AAc?$AAr?$AAt?$AA_?$AAb?$AAl?$AAd?$AA?2?$AAs?$AAe?$AAl?$AAf?$AA_?$AAx?$AA8?$AA6?$AA?2?$AAc@ 005288e8     LIBCMTD:crtmboxw.obj
 0003:00019960       ??_C@_0BD@HHGDFDBJ@GetLastActivePopup?$AA@ 00528960     LIBCMTD:crtmboxw.obj
 0003:00019978       ??_C@_0BA@HNOPNCHB@GetActiveWindow?$AA@ 00528978     LIBCMTD:crtmboxw.obj
 0003:0001998c       ??_C@_0M@DLDCCGNP@MessageBoxW?$AA@ 0052898c     LIBCMTD:crtmboxw.obj
 0003:0001999c       ??_C@_1BG@GOEBHBDC@?$AAU?$AAS?$AAE?$AAR?$AA3?$AA2?$AA?4?$AAD?$AAL?$AAL?$AA?$AA@ 0052899c     LIBCMTD:crtmboxw.obj
 0003:000199b8       ??_C@_1CM@HABGDNLJ@?$AAl?$AAe?$AAn?$AAg?$AAt?$AAh?$AA?5?$AA?$DM?$AA?5?$AAs?$AAi?$AAz?$AAe?$AAI?$AAn?$AAT?$AAC?$AAh?$AAa?$AAr?$AAs?$AA?$AA@ 005289b8     LIBCMTD:xtows.obj
 0003:000199ec       ??_C@_1DE@PCJGDBBD@?$AA2?$AA?5?$AA?$DM?$AA?$DN?$AA?5?$AAr?$AAa?$AAd?$AAi?$AAx?$AA?5?$AA?$CG?$AA?$CG?$AA?5?$AAr?$AAa?$AAd?$AAi?$AAx?$AA?5?$AA?$DM?$AA?$DN?$AA?5?$AA3?$AA6?$AA?$AA@ 005289ec     LIBCMTD:xtows.obj
 0003:00019a30       ??_C@_1FA@MKGGAGEI@?$AAs?$AAi?$AAz?$AAe?$AAI?$AAn?$AAT?$AAC?$AAh?$AAa?$AAr?$AAs?$AA?5?$AA?$DO?$AA?5?$AA?$CI?$AAs?$AAi?$AAz?$AAe?$AA_?$AAt?$AA?$CJ?$AA?$CI?$AAi?$AAs?$AA_?$AAn?$AAe?$AAg?$AA?5?$AA?$DP@ 00528a30     LIBCMTD:xtows.obj
 0003:00019a90       ??_C@_1CC@JNJFIMGE@?$AAs?$AAi?$AAz?$AAe?$AAI?$AAn?$AAT?$AAC?$AAh?$AAa?$AAr?$AAs?$AA?5?$AA?$DO?$AA?5?$AA0?$AA?$AA@ 00528a90     LIBCMTD:xtows.obj
 0003:00019ab8       ??_C@_1O@NCBFODOE@?$AAx?$AAt?$AAo?$AAw?$AA_?$AAs?$AA?$AA@ 00528ab8     LIBCMTD:xtows.obj
 0003:00019ac8       ??_C@_1FM@LINCFGBD@?$AAf?$AA?3?$AA?2?$AAs?$AAp?$AA?2?$AAv?$AAc?$AAt?$AAo?$AAo?$AAl?$AAs?$AA?2?$AAc?$AAr?$AAt?$AA_?$AAb?$AAl?$AAd?$AA?2?$AAs?$AAe?$AAl?$AAf?$AA_?$AAx?$AA8?$AA6?$AA?2?$AAc@ 00528ac8     LIBCMTD:xtows.obj
 0003:00019b38       ??_C@_1BI@ICGGMGLK@?$AAb?$AAu?$AAf?$AA?5?$AA?$CB?$AA?$DN?$AA?5?$AAN?$AAU?$AAL?$AAL?$AA?$AA@ 00528b38     LIBCMTD:xtows.obj
 0003:00019b54       ??_C@_1BC@HDEJCFPB@?$AAx?$AA6?$AA4?$AAt?$AAo?$AAw?$AA_?$AAs?$AA?$AA@ 00528b54     LIBCMTD:xtows.obj
 0003:00019b6c       ??_C@_1DM@MADKGDLO@?$AA?$CI?$AAL?$AA?$CC?$AAB?$AAu?$AAf?$AAf?$AAe?$AAr?$AA?5?$AAi?$AAs?$AA?5?$AAt?$AAo?$AAo?$AA?5?$AAs?$AAm?$AAa?$AAl?$AAl?$AA?$CC?$AA?5?$AA?$CG?$AA?$CG?$AA?5?$AA0?$AA?$CJ?$AA?$AA@ 00528b6c     LIBCMTD:wcsncat_s.obj
 0003:00019bb4       ??_C@_1CI@HCPHDDLE@?$AAB?$AAu?$AAf?$AAf?$AAe?$AAr?$AA?5?$AAi?$AAs?$AA?5?$AAt?$AAo?$AAo?$AA?5?$AAs?$AAm?$AAa?$AAl?$AAl?$AA?$AA@ 00528bb4     LIBCMTD:wcsncat_s.obj
 0003:00019be8       ??_C@_1FA@MJKDNFFB@?$AA?$CI?$AAL?$AA?$CC?$AAS?$AAt?$AAr?$AAi?$AAn?$AAg?$AA?5?$AAi?$AAs?$AA?5?$AAn?$AAo?$AAt?$AA?5?$AAn?$AAu?$AAl?$AAl?$AA?5?$AAt?$AAe?$AAr?$AAm?$AAi?$AAn?$AAa?$AAt?$AAe?$AAd@ 00528be8     LIBCMTD:wcsncat_s.obj
 0003:00019c48       ??_C@_1DM@FHLMIEG@?$AAS?$AAt?$AAr?$AAi?$AAn?$AAg?$AA?5?$AAi?$AAs?$AA?5?$AAn?$AAo?$AAt?$AA?5?$AAn?$AAu?$AAl?$AAl?$AA?5?$AAt?$AAe?$AAr?$AAm?$AAi?$AAn?$AAa?$AAt?$AAe?$AAd?$AA?$AA@ 00528c48     LIBCMTD:wcsncat_s.obj
 0003:00019c90       ??_C@_1CG@OFBJMIGJ@?$AA?$CI?$AA?$CI?$AA?$CI?$AA_?$AAS?$AAr?$AAc?$AA?$CJ?$AA?$CJ?$AA?$CJ?$AA?5?$AA?$CB?$AA?$DN?$AA?5?$AAN?$AAU?$AAL?$AAL?$AA?$AA@ 00528c90     LIBCMTD:wcsncat_s.obj
 0003:00019cc0       ??_C@_1BE@KPKIKKCF@?$AAw?$AAc?$AAs?$AAn?$AAc?$AAa?$AAt?$AA_?$AAs?$AA?$AA@ 00528cc0     LIBCMTD:wcsncat_s.obj
 0003:00019cd8       ??_C@_1GK@ECHLEFPM@?$AAF?$AA?3?$AA?2?$AAS?$AAP?$AA?2?$AAv?$AAc?$AAt?$AAo?$AAo?$AAl?$AAs?$AA?2?$AAc?$AAr?$AAt?$AA_?$AAb?$AAl?$AAd?$AA?2?$AAS?$AAE?$AAL?$AAF?$AA_?$AAX?$AA8?$AA6?$AA?2?$AAc@ 00528cd8     LIBCMTD:wcsncat_s.obj
 0003:00019d58       ??_C@_1FC@PFMLEHKI@?$AA?$CI?$AA?$CI?$AA_?$AAD?$AAs?$AAt?$AA?$CJ?$AA?$CJ?$AA?5?$AA?$CB?$AA?$DN?$AA?5?$AAN?$AAU?$AAL?$AAL?$AA?5?$AA?$CG?$AA?$CG?$AA?5?$AA?$CI?$AA?$CI?$AA_?$AAS?$AAi?$AAz?$AAe?$AAI?$AAn?$AAW?$AAo?$AAr@ 00528d58     LIBCMTD:wcsncat_s.obj
 0003:00019dbc       ??_C@_1BE@PMMBFFCC@?$AAw?$AAc?$AAs?$AAn?$AAc?$AAp?$AAy?$AA_?$AAs?$AA?$AA@ 00528dbc     LIBCMTD:wcsncpy_s.obj
 0003:00019dd8       ??_C@_1GK@IKMAONFM@?$AAF?$AA?3?$AA?2?$AAS?$AAP?$AA?2?$AAv?$AAc?$AAt?$AAo?$AAo?$AAl?$AAs?$AA?2?$AAc?$AAr?$AAt?$AA_?$AAb?$AAl?$AAd?$AA?2?$AAS?$AAE?$AAL?$AAF?$AA_?$AAX?$AA8?$AA6?$AA?2?$AAc@ 00528dd8     LIBCMTD:wcsncpy_s.obj
 0003:00019e58       ??_C@_1BC@PLIEPKPJ@?$AAw?$AAc?$AAs?$AAc?$AAa?$AAt?$AA_?$AAs?$AA?$AA@ 00528e58     LIBCMTD:wcscat_s.obj
 0003:00019e70       ??_C@_1GI@HANKOOAN@?$AAF?$AA?3?$AA?2?$AAS?$AAP?$AA?2?$AAv?$AAc?$AAt?$AAo?$AAo?$AAl?$AAs?$AA?2?$AAc?$AAr?$AAt?$AA_?$AAb?$AAl?$AAd?$AA?2?$AAS?$AAE?$AAL?$AAF?$AA_?$AAX?$AA8?$AA6?$AA?2?$AAc@ 00528e70     LIBCMTD:wcscat_s.obj
 0003:00019eec       ??_C@_1BC@KIONAFPO@?$AAw?$AAc?$AAs?$AAc?$AAp?$AAy?$AA_?$AAs?$AA?$AA@ 00528eec     LIBCMTD:wcscpy_s.obj
 0003:00019f08       ??_C@_1GI@LIGBEGKN@?$AAF?$AA?3?$AA?2?$AAS?$AAP?$AA?2?$AAv?$AAc?$AAt?$AAo?$AAo?$AAl?$AAs?$AA?2?$AAc?$AAr?$AAt?$AA_?$AAb?$AAl?$AAd?$AA?2?$AAS?$AAE?$AAL?$AAF?$AA_?$AAX?$AA8?$AA6?$AA?2?$AAc@ 00528f08     LIBCMTD:wcscpy_s.obj
 0003:00019f84       ??_C@_1BC@BHLPNJBO@?$AAf?$AAw?$AAp?$AAr?$AAi?$AAn?$AAt?$AAf?$AA?$AA@ 00528f84     LIBCMTD:fwprintf.obj
 0003:00019f9c       ??_C@_1BG@MGCFCFAI@?$AAf?$AAw?$AAp?$AAr?$AAi?$AAn?$AAt?$AAf?$AA?4?$AAc?$AA?$AA@ 00528f9c     LIBCMTD:fwprintf.obj
 0003:00019fb8       ??_C@_1BM@JMKHIAHP@?$AA?$CI?$AAs?$AAt?$AAr?$AA?5?$AA?$CB?$AA?$DN?$AA?5?$AAN?$AAU?$AAL?$AAL?$AA?$CJ?$AA?$AA@ 00528fb8     LIBCMTD:fwprintf.obj
 0003:00019fdc       ??_C@_09KGBNCNDN@setvbuf?4c?$AA@ 00528fdc     LIBCMTD:setvbuf.obj
 0003:00019fe8       ??_C@_1EG@IJNJIDNB@?$AA?$CI?$AA?$CI?$AA2?$AA?5?$AA?$DM?$AA?$DN?$AA?5?$AAs?$AAi?$AAz?$AAe?$AA?$CJ?$AA?5?$AA?$CG?$AA?$CG?$AA?5?$AA?$CI?$AAs?$AAi?$AAz?$AAe?$AA?5?$AA?$DM?$AA?$DN?$AA?5?$AAI?$AAN?$AAT?$AA_?$AAM?$AAA?$AAX@ 00528fe8     LIBCMTD:setvbuf.obj
 0003:0001a040       ??_C@_1HC@CBFEDAGG@?$AA?$CI?$AAt?$AAy?$AAp?$AAe?$AA?5?$AA?$DN?$AA?$DN?$AA?5?$AA_?$AAI?$AAO?$AAN?$AAB?$AAF?$AA?$CJ?$AA?5?$AA?$HM?$AA?$HM?$AA?5?$AA?$CI?$AAt?$AAy?$AAp?$AAe?$AA?5?$AA?$DN?$AA?$DN?$AA?5?$AA_?$AAI?$AAO@ 00529040     LIBCMTD:setvbuf.obj
 0003:0001a0c8       ??_C@_1BA@OGODIODK@?$AAs?$AAe?$AAt?$AAv?$AAb?$AAu?$AAf?$AA?$AA@ 005290c8     LIBCMTD:setvbuf.obj
 0003:0001a0dc       ??_C@_1BE@FMDCPFIG@?$AAs?$AAe?$AAt?$AAv?$AAb?$AAu?$AAf?$AA?4?$AAc?$AA?$AA@ 005290dc     LIBCMTD:setvbuf.obj
 0003:0001a0f4       ??_C@_1CA@LFDHAMEM@?$AA_?$AAs?$AAe?$AAt?$AA_?$AAe?$AAr?$AAr?$AAo?$AAr?$AA_?$AAm?$AAo?$AAd?$AAe?$AA?$AA@ 005290f4     LIBCMTD:errmode.obj
 0003:0001a11c       ??_C@_1BE@FFANBHLE@?$AAe?$AAr?$AAr?$AAm?$AAo?$AAd?$AAe?$AA?4?$AAc?$AA?$AA@ 0052911c     LIBCMTD:errmode.obj
 0003:0001a134       ??_C@_1DE@BCNCAIK@?$AA?$CI?$AA?$CC?$AAI?$AAn?$AAv?$AAa?$AAl?$AAi?$AAd?$AA?5?$AAe?$AAr?$AAr?$AAo?$AAr?$AA_?$AAm?$AAo?$AAd?$AAe?$AA?$CC?$AA?0?$AA?5?$AA0?$AA?$CJ?$AA?$AA@ 00529134     LIBCMTD:errmode.obj
 0003:0001a174       ??_C@_02PHMGELLB@?6?6?$AA@ 00529174     LIBCMTD:assert.obj
 0003:0001a178       ??_C@_01EEMJAFIK@?6?$AA@   00529178     LIBCMTD:assert.obj
 0003:0001a17c       ??_C@_0CF@GOGNBNAK@Microsoft?5Visual?5C?$CL?$CL?5Runtime?5Lib@ 0052917c     LIBCMTD:assert.obj
 0003:0001a1a8       ??_C@_0DN@EBBNMLME@?$CIPress?5Retry?5to?5debug?5the?5applic@ 005291a8     LIBCMTD:assert.obj
 0003:0001a1f8       ??_C@_1LM@PPELICOO@?$AAs?$AAt?$AAr?$AAc?$AAa?$AAt?$AA_?$AAs?$AA?$CI?$AAa?$AAs?$AAs?$AAe?$AAr?$AAt?$AAb?$AAu?$AAf?$AA?0?$AA?5?$AA?$CI?$AA6?$AA0?$AA?5?$AA?$CK?$AA?5?$AA9?$AA?$CJ?$AA?0?$AA?5?$AA?$CC?$AA?$CI@ 005291f8     LIBCMTD:assert.obj
 0003:0001a2e0       ??_C@_1FG@FPMGDMJC@?$AAs?$AAt?$AAr?$AAc?$AAa?$AAt?$AA_?$AAs?$AA?$CI?$AAa?$AAs?$AAs?$AAe?$AAr?$AAt?$AAb?$AAu?$AAf?$AA?0?$AA?5?$AA?$CI?$AA6?$AA0?$AA?5?$AA?$CK?$AA?5?$AA9?$AA?$CJ?$AA?0?$AA?5?$AAd?$AAb@ 005292e0     LIBCMTD:assert.obj
 0003:0001a348       ??_C@_0HA@OJHAGA@For?5information?5on?5how?5your?5prog@ 00529348     LIBCMTD:assert.obj
 0003:0001a3d0       ??_C@_1BCK@FOGOPFPO@?$AAs?$AAt?$AAr?$AAc?$AAa?$AAt?$AA_?$AAs?$AA?$CI?$AAa?$AAs?$AAs?$AAe?$AAr?$AAt?$AAb?$AAu?$AAf?$AA?0?$AA?5?$AA?$CI?$AA6?$AA0?$AA?5?$AA?$CK?$AA?5?$AA9?$AA?$CJ?$AA?0?$AA?5?$AA?$CC?$AAF@ 005293d0     LIBCMTD:assert.obj
 0003:0001a538       ??_C@_1EM@ENNCDANH@?$AAs?$AAt?$AAr?$AAc?$AAa?$AAt?$AA_?$AAs?$AA?$CI?$AA?5?$AAa?$AAs?$AAs?$AAe?$AAr?$AAt?$AAb?$AAu?$AAf?$AA?0?$AA?5?$AA?$CI?$AA6?$AA0?$AA?5?$AA?$CK?$AA?5?$AA9?$AA?$CJ?$AA?0?$AA?5?$AAe@ 00529538     LIBCMTD:assert.obj
 0003:0001a598       ??_C@_1CHK@HNOMNMBD@?$AA_?$AAm?$AAb?$AAs?$AAn?$AAb?$AAc?$AAa?$AAt?$AA_?$AAs?$AA?$CI?$AA?5?$AAa?$AAs?$AAs?$AAe?$AAr?$AAt?$AAb?$AAu?$AAf?$AA?0?$AA?5?$AA?$CI?$AA6?$AA0?$AA?5?$AA?$CK?$AA?5?$AA9?$AA?$CJ@ 00529598     LIBCMTD:assert.obj
 0003:0001a890       ??_C@_0N@MEECIJGN@Expression?3?5?$AA@ 00529890     LIBCMTD:assert.obj
 0003:0001a8a0       ??_C@_1GA@GHECLIPG@?$AAs?$AAt?$AAr?$AAc?$AAa?$AAt?$AA_?$AAs?$AA?$CI?$AA?5?$AAa?$AAs?$AAs?$AAe?$AAr?$AAt?$AAb?$AAu?$AAf?$AA?0?$AA?5?$AA?$CI?$AA6?$AA0?$AA?5?$AA?$CK?$AA?5?$AA9?$AA?$CJ?$AA?0?$AA?5?$AA?$CC@ 005298a0     LIBCMTD:assert.obj
 0003:0001a918       ??_C@_1KG@MJEHKFDP@?$AA_?$AAi?$AAt?$AAo?$AAa?$AA_?$AAs?$AA?$CI?$AA?5?$AAl?$AAi?$AAn?$AAe?$AAn?$AAo?$AA?0?$AA?5?$AAa?$AAs?$AAs?$AAe?$AAr?$AAt?$AAb?$AAu?$AAf?$AA?5?$AA?$CL?$AA?5?$AAs?$AAt?$AAr@ 00529918     LIBCMTD:assert.obj
 0003:0001a9e0       ??_C@_06FIEBOLOH@Line?3?5?$AA@ 005299e0     LIBCMTD:assert.obj
 0003:0001a9e8       ??_C@_1FE@EHMPHKDB@?$AAs?$AAt?$AAr?$AAc?$AAa?$AAt?$AA_?$AAs?$AA?$CI?$AA?5?$AAa?$AAs?$AAs?$AAe?$AAr?$AAt?$AAb?$AAu?$AAf?$AA?0?$AA?5?$AA?$CI?$AA6?$AA0?$AA?5?$AA?$CK?$AA?5?$AA9?$AA?$CJ?$AA?0?$AA?5?$AA?$CC@ 005299e8     LIBCMTD:assert.obj
 0003:0001aa50       ??_C@_1FE@BELKICLD@?$AAs?$AAt?$AAr?$AAc?$AAa?$AAt?$AA_?$AAs?$AA?$CI?$AA?5?$AAa?$AAs?$AAs?$AAe?$AAr?$AAt?$AAb?$AAu?$AAf?$AA?0?$AA?5?$AA?$CI?$AA6?$AA0?$AA?5?$AA?$CK?$AA?5?$AA9?$AA?$CJ?$AA?0?$AA?5?$AAf@ 00529a50     LIBCMTD:assert.obj
 0003:0001aab8       ??_C@_1IC@IABENIAD@?$AAs?$AAt?$AAr?$AAc?$AAa?$AAt?$AA_?$AAs?$AA?$CI?$AA?5?$AAa?$AAs?$AAs?$AAe?$AAr?$AAt?$AAb?$AAu?$AAf?$AA?0?$AA?5?$AA?$CI?$AA6?$AA0?$AA?5?$AA?$CK?$AA?5?$AA9?$AA?$CJ?$AA?0?$AA?5?$AAp@ 00529ab8     LIBCMTD:assert.obj
 0003:0001ab58       ??_C@_1HK@LJCIAEID@?$AA_?$AAm?$AAb?$AAs?$AAn?$AAb?$AAc?$AAa?$AAt?$AA_?$AAs?$AA?$CI?$AA?5?$AAa?$AAs?$AAs?$AAe?$AAr?$AAt?$AAb?$AAu?$AAf?$AA?0?$AA?5?$AA?$CI?$AA6?$AA0?$AA?5?$AA?$CK?$AA?5?$AA9?$AA?$CJ@ 00529b58     LIBCMTD:assert.obj
 0003:0001abf0       ??_C@_1HC@NNJOOJHD@?$AA_?$AAm?$AAb?$AAs?$AAn?$AAb?$AAc?$AAa?$AAt?$AA_?$AAs?$AA?$CI?$AA?5?$AAa?$AAs?$AAs?$AAe?$AAr?$AAt?$AAb?$AAu?$AAf?$AA?0?$AA?5?$AA?$CI?$AA6?$AA0?$AA?5?$AA?$CK?$AA?5?$AA9?$AA?$CJ@ 00529bf0     LIBCMTD:assert.obj
 0003:0001ac78       ??_C@_1FO@ILLBEHNB@?$AAs?$AAt?$AAr?$AAc?$AAa?$AAt?$AA_?$AAs?$AA?$CI?$AA?5?$AAa?$AAs?$AAs?$AAe?$AAr?$AAt?$AAb?$AAu?$AAf?$AA?0?$AA?5?$AA?$CI?$AA6?$AA0?$AA?5?$AA?$CK?$AA?5?$AA9?$AA?$CJ?$AA?0?$AA?5?$AAp@ 00529c78     LIBCMTD:assert.obj
 0003:0001ace8       ??_C@_1FG@BIHAHDLM@?$AAs?$AAt?$AAr?$AAc?$AAa?$AAt?$AA_?$AAs?$AA?$CI?$AA?5?$AAa?$AAs?$AAs?$AAe?$AAr?$AAt?$AAb?$AAu?$AAf?$AA?0?$AA?5?$AA?$CI?$AA6?$AA0?$AA?5?$AA?$CK?$AA?5?$AA9?$AA?$CJ?$AA?0?$AA?5?$AAd@ 00529ce8     LIBCMTD:assert.obj
 0003:0001ad50       ??_C@_1GK@LELDAJFN@?$AA_?$AAm?$AAb?$AAs?$AAn?$AAb?$AAc?$AAa?$AAt?$AA_?$AAs?$AA?$CI?$AA?5?$AAa?$AAs?$AAs?$AAe?$AAr?$AAt?$AAb?$AAu?$AAf?$AA?0?$AA?5?$AA?$CI?$AA6?$AA0?$AA?5?$AA?$CK?$AA?5?$AA9?$AA?$CJ@ 00529d50     LIBCMTD:assert.obj
 0003:0001add0       ??_C@_06IGPBOHMJ@File?3?5?$AA@ 00529dd0     LIBCMTD:assert.obj
 0003:0001add8       ??_C@_1FE@JHHKPPGM@?$AAs?$AAt?$AAr?$AAc?$AAa?$AAt?$AA_?$AAs?$AA?$CI?$AA?5?$AAa?$AAs?$AAs?$AAe?$AAr?$AAt?$AAb?$AAu?$AAf?$AA?0?$AA?5?$AA?$CI?$AA6?$AA0?$AA?5?$AA?$CK?$AA?5?$AA9?$AA?$CJ?$AA?0?$AA?5?$AA?$CC@ 00529dd8     LIBCMTD:assert.obj
 0003:0001ae40       ??_C@_1FC@HGJOLIGH@?$AAs?$AAt?$AAr?$AAc?$AAa?$AAt?$AA_?$AAs?$AA?$CI?$AA?5?$AAa?$AAs?$AAs?$AAe?$AAr?$AAt?$AAb?$AAu?$AAf?$AA?0?$AA?5?$AA?$CI?$AA6?$AA0?$AA?5?$AA?$CK?$AA?5?$AA9?$AA?$CJ?$AA?0?$AA?5?$AAn@ 00529e40     LIBCMTD:assert.obj
 0003:0001aea8       ??_C@_1EK@HNKCAGGP@?$AAs?$AAt?$AAr?$AAc?$AAa?$AAt?$AA_?$AAs?$AA?$CI?$AA?5?$AAa?$AAs?$AAs?$AAe?$AAr?$AAt?$AAb?$AAu?$AAf?$AA?0?$AA?5?$AA?$CI?$AA6?$AA0?$AA?5?$AA?$CK?$AA?5?$AA9?$AA?$CJ?$AA?0?$AA?5?$AAp@ 00529ea8     LIBCMTD:assert.obj
 0003:0001af00       ??_C@_1HO@DGLFHLNC@?$AA_?$AAm?$AAb?$AAs?$AAn?$AAb?$AAc?$AAp?$AAy?$AA_?$AAs?$AA?$CI?$AA?5?$AAp?$AAc?$AAh?$AA?0?$AA?5?$AA?$CI?$AA2?$AA6?$AA0?$AA?5?$AA?$CL?$AA?5?$AA1?$AA?$CJ?$AA?5?$AA?9?$AA?5?$AA?$CI?$AAp@ 00529f00     LIBCMTD:assert.obj
 0003:0001af98       ??_C@_0BH@DNAGHKFM@?$DMprogram?5name?5unknown?$DO?$AA@ 00529f98     LIBCMTD:assert.obj
 0003:0001afb8       ??_C@_1GO@MKBPHEIL@?$AAs?$AAt?$AAr?$AAc?$AAp?$AAy?$AA_?$AAs?$AA?$CI?$AA?5?$AAp?$AAr?$AAo?$AAg?$AAn?$AAa?$AAm?$AAe?$AA?0?$AA?5?$AA2?$AA6?$AA0?$AA?5?$AA?$CL?$AA?5?$AA1?$AA?0?$AA?5?$AA?$CC?$AA?$DM?$AAp@ 00529fb8     LIBCMTD:assert.obj
 0003:0001b03c       ??_C@_09KLGCKDOD@Program?3?5?$AA@ 0052a03c     LIBCMTD:assert.obj
 0003:0001b048       ??_C@_1FK@JLNGAFHA@?$AAs?$AAt?$AAr?$AAc?$AAa?$AAt?$AA_?$AAs?$AA?$CI?$AA?5?$AAa?$AAs?$AAs?$AAe?$AAr?$AAt?$AAb?$AAu?$AAf?$AA?0?$AA?5?$AA?$CI?$AA6?$AA0?$AA?5?$AA?$CK?$AA?5?$AA9?$AA?$CJ?$AA?0?$AA?5?$AA?$CC@ 0052a048     LIBCMTD:assert.obj
 0003:0001b0b8       ??_C@_1FI@LABOHEIE@?$AAs?$AAt?$AAr?$AAc?$AAa?$AAt?$AA_?$AAs?$AA?$CI?$AA?5?$AAa?$AAs?$AAs?$AAe?$AAr?$AAt?$AAb?$AAu?$AAf?$AA?0?$AA?5?$AA?$CI?$AA6?$AA0?$AA?5?$AA?$CK?$AA?5?$AA9?$AA?$CJ?$AA?0?$AA?5?$AAd@ 0052a0b8     LIBCMTD:assert.obj
 0003:0001b124       ??_C@_0BC@LAIDCHCH@Assertion?5failed?$CB?$AA@ 0052a124     LIBCMTD:assert.obj
 0003:0001b140       ??_C@_1GK@MEIIIEKC@?$AAs?$AAt?$AAr?$AAc?$AAp?$AAy?$AA_?$AAs?$AA?$CI?$AA?5?$AAa?$AAs?$AAs?$AAe?$AAr?$AAt?$AAb?$AAu?$AAf?$AA?0?$AA?5?$AA?$CI?$AA6?$AA0?$AA?5?$AA?$CK?$AA?5?$AA9?$AA?$CJ?$AA?0?$AA?5?$AA?$CC@ 0052a140     LIBCMTD:assert.obj
 0003:0001b1c0       ??_C@_1BA@DADDCNOK@?$AA_?$AAa?$AAs?$AAs?$AAe?$AAr?$AAt?$AA?$AA@ 0052a1c0     LIBCMTD:assert.obj
 0003:0001b1d4       ??_C@_1BC@IOLPDCAK@?$AAa?$AAs?$AAs?$AAe?$AAr?$AAt?$AA?4?$AAc?$AA?$AA@ 0052a1d4     LIBCMTD:assert.obj
 0003:0001b1ec       ??_C@_1BC@CFJEPFGF@?$AAs?$AAt?$AAr?$AAc?$AAp?$AAy?$AA_?$AAs?$AA?$AA@ 0052a1ec     LIBCMTD:strcpy_s.obj
 0003:0001b208       ??_C@_1FC@NCPEPIBI@?$AA?$CI?$AA?$CI?$AA_?$AAD?$AAs?$AAt?$AA?$CJ?$AA?$CJ?$AA?5?$AA?$CB?$AA?$DN?$AA?5?$AAN?$AAU?$AAL?$AAL?$AA?5?$AA?$CG?$AA?$CG?$AA?5?$AA?$CI?$AA?$CI?$AA_?$AAS?$AAi?$AAz?$AAe?$AAI?$AAn?$AAB?$AAy?$AAt@ 0052a208     LIBCMTD:strcpy_s.obj
 0003:0001b26c       ??_C@_1BC@HGPNAKGC@?$AAs?$AAt?$AAr?$AAc?$AAa?$AAt?$AA_?$AAs?$AA?$AA@ 0052a26c     LIBCMTD:strcat_s.obj
 0003:0001b284       ??_C@_1BK@CMPKHPEC@?$AAn?$AA?5?$AA?$DM?$AA?$DN?$AA?5?$AAI?$AAN?$AAT?$AA_?$AAM?$AAA?$AAX?$AA?$AA@ 0052a284     LIBCMTD:wcstombs.obj
 0003:0001b2a4       ??_C@_1CG@LLJCAOHF@?$AA_?$AAw?$AAc?$AAs?$AAt?$AAo?$AAm?$AAb?$AAs?$AA_?$AAl?$AA_?$AAh?$AAe?$AAl?$AAp?$AAe?$AAr?$AA?$AA@ 0052a2a4     LIBCMTD:wcstombs.obj
 0003:0001b2d4       ??_C@_1BG@POHBKINF@?$AAw?$AAc?$AAs?$AAt?$AAo?$AAm?$AAb?$AAs?$AA?4?$AAc?$AA?$AA@ 0052a2d4     LIBCMTD:wcstombs.obj
 0003:0001b2f0       ??_C@_1BK@OIBENBPM@?$AAp?$AAw?$AAc?$AAs?$AA?5?$AA?$CB?$AA?$DN?$AA?5?$AAN?$AAU?$AAL?$AAL?$AA?$AA@ 0052a2f0     LIBCMTD:wcstombs.obj
 0003:0001b310       ??_C@_1CM@KEOGBFLI@?$AAs?$AAi?$AAz?$AAe?$AAI?$AAn?$AAB?$AAy?$AAt?$AAe?$AAs?$AA?5?$AA?$DO?$AA?5?$AAr?$AAe?$AAt?$AAs?$AAi?$AAz?$AAe?$AA?$AA@ 0052a310     LIBCMTD:wcstombs.obj
 0003:0001b344       ??_C@_1BM@BDMCLLDL@?$AA_?$AAw?$AAc?$AAs?$AAt?$AAo?$AAm?$AAb?$AAs?$AA_?$AAs?$AA_?$AAl?$AA?$AA@ 0052a344     LIBCMTD:wcstombs.obj
 0003:0001b368       ??_C@_1IM@MFGKHGBP@?$AA?$CI?$AAd?$AAs?$AAt?$AA?5?$AA?$CB?$AA?$DN?$AA?5?$AAN?$AAU?$AAL?$AAL?$AA?5?$AA?$CG?$AA?$CG?$AA?5?$AAs?$AAi?$AAz?$AAe?$AAI?$AAn?$AAB?$AAy?$AAt?$AAe?$AAs?$AA?5?$AA?$DO?$AA?5?$AA0?$AA?$CJ@ 0052a368     LIBCMTD:wcstombs.obj
 0003:0001b410       ??_C@_1CE@IGKFIJFD@?$AA_?$AAv?$AAs?$AAw?$AAp?$AAr?$AAi?$AAn?$AAt?$AAf?$AA_?$AAh?$AAe?$AAl?$AAp?$AAe?$AAr?$AA?$AA@ 0052a410     LIBCMTD:vswprnc.obj
 0003:0001b440       ??_C@_1GE@ICPDLGGP@?$AAf?$AA?3?$AA?2?$AAs?$AAp?$AA?2?$AAv?$AAc?$AAt?$AAo?$AAo?$AAl?$AAs?$AA?2?$AAc?$AAr?$AAt?$AA_?$AAb?$AAl?$AAd?$AA?2?$AAs?$AAe?$AAl?$AAf?$AA_?$AAx?$AA8?$AA6?$AA?2?$AAc@ 0052a440     LIBCMTD:vswprnc.obj
 0003:0001b4b8       ??_C@_1DA@HPBFKMEB@?$AA?$CI?$AA?$CC?$AAB?$AAu?$AAf?$AAf?$AAe?$AAr?$AA?5?$AAt?$AAo?$AAo?$AA?5?$AAs?$AAm?$AAa?$AAl?$AAl?$AA?$CC?$AA?0?$AA?5?$AA0?$AA?$CJ?$AA?$AA@ 0052a4b8     LIBCMTD:vswprnc.obj
 0003:0001b4f8       ??_C@_1EE@MPCHJFGP@?$AAs?$AAt?$AAr?$AAi?$AAn?$AAg?$AA?5?$AA?$CB?$AA?$DN?$AA?5?$AAN?$AAU?$AAL?$AAL?$AA?5?$AA?$CG?$AA?$CG?$AA?5?$AAs?$AAi?$AAz?$AAe?$AAI?$AAn?$AAW?$AAo?$AAr?$AAd?$AAs?$AA?5?$AA?$DO?$AA?5@ 0052a4f8     LIBCMTD:vswprnc.obj
 0003:0001b54c       ??_C@_1BO@OALHJLCI@?$AA_?$AAv?$AAs?$AAw?$AAp?$AAr?$AAi?$AAn?$AAt?$AAf?$AA_?$AAs?$AA_?$AAl?$AA?$AA@ 0052a54c     LIBCMTD:vswprnc.obj
 0003:0001b570       ??_C@_1BO@MLMCMBKN@?$AAf?$AAo?$AAr?$AAm?$AAa?$AAt?$AA?5?$AA?$CB?$AA?$DN?$AA?5?$AAN?$AAU?$AAL?$AAL?$AA?$AA@ 0052a570     LIBCMTD:vswprnc.obj
 0003:0001b594       ??_C@_1CA@BKFKMJFF@?$AA_?$AAv?$AAs?$AAn?$AAw?$AAp?$AAr?$AAi?$AAn?$AAt?$AAf?$AA_?$AAs?$AA_?$AAl?$AA?$AA@ 0052a594     LIBCMTD:vswprnc.obj
 0003:0001b5bc       ??_C@_09IFKHNCOH@_sftbuf?4c?$AA@ 0052a5bc     LIBCMTD:_sftbuf.obj
 0003:0001b5c8       ??_C@_1BE@DFMOKHKL@?$AA_?$AAs?$AAf?$AAt?$AAb?$AAu?$AAf?$AA?4?$AAc?$AA?$AA@ 0052a5c8     LIBCMTD:_sftbuf.obj
 0003:0001b5e0       ??_C@_1CO@KCKAACMI@?$AAf?$AAl?$AAa?$AAg?$AA?5?$AA?$DN?$AA?$DN?$AA?5?$AA0?$AA?5?$AA?$HM?$AA?$HM?$AA?5?$AAf?$AAl?$AAa?$AAg?$AA?5?$AA?$DN?$AA?$DN?$AA?5?$AA1?$AA?$AA@ 0052a5e0     LIBCMTD:_sftbuf.obj
 0003:0001b618       ??_C@_1HO@MLMGPAFH@?$AA?$CI?$AA?$CC?$AAi?$AAn?$AAc?$AAo?$AAn?$AAs?$AAi?$AAs?$AAt?$AAe?$AAn?$AAt?$AA?5?$AAI?$AAO?$AAB?$AA?5?$AAf?$AAi?$AAe?$AAl?$AAd?$AAs?$AA?$CC?$AA?0?$AA?5?$AAs?$AAt?$AAr?$AAe@ 0052a618     LIBCMTD:_flsbuf.obj
 0003:0001b6b0       ??_C@_1BE@GOOJIKLI@?$AA_?$AAf?$AAl?$AAs?$AAb?$AAu?$AAf?$AA?4?$AAc?$AA?$AA@ 0052a6b0     LIBCMTD:_flsbuf.obj
 0003:0001b6c8       ??_C@_1O@KLNKIMAP@?$AAf?$AAw?$AAr?$AAi?$AAt?$AAe?$AA?$AA@ 0052a6c8     LIBCMTD:fwrite.obj
 0003:0001b6d8       ??_C@_1BC@JOKKJJOM@?$AAf?$AAw?$AAr?$AAi?$AAt?$AAe?$AA?4?$AAc?$AA?$AA@ 0052a6d8     LIBCMTD:fwrite.obj
 0003:0001b6f0       ??_C@_1LG@DCNDJCHK@?$AA?$CI?$AA?$CC?$AAI?$AAn?$AAc?$AAo?$AAn?$AAs?$AAi?$AAs?$AAt?$AAe?$AAn?$AAt?$AA?5?$AAS?$AAt?$AAr?$AAe?$AAa?$AAm?$AA?5?$AAC?$AAo?$AAu?$AAn?$AAt?$AA?4?$AA?5?$AAF?$AAl?$AAu@ 0052a6f0     LIBCMTD:fwrite.obj
 0003:0001b7cc       ??_C@_1DC@FHEPNAPF@?$AAn?$AAu?$AAm?$AA?5?$AA?$DM?$AA?$DN?$AA?5?$AA?$CI?$AAS?$AAI?$AAZ?$AAE?$AA_?$AAM?$AAA?$AAX?$AA?5?$AA?1?$AA?5?$AAs?$AAi?$AAz?$AAe?$AA?$CJ?$AA?$AA@ 0052a7cc     LIBCMTD:fwrite.obj
 0003:0001b808       ??_C@_1CC@CGFEEBMC@?$AA?$CI?$AAb?$AAu?$AAf?$AAf?$AAe?$AAr?$AA?5?$AA?$CB?$AA?$DN?$AA?5?$AAN?$AAU?$AAL?$AAL?$AA?$CJ?$AA?$AA@ 0052a808     LIBCMTD:fwrite.obj
 0003:0001b830       ??_C@_1BO@JGPKCBCE@?$AA_?$AAf?$AAw?$AAr?$AAi?$AAt?$AAe?$AA_?$AAn?$AAo?$AAl?$AAo?$AAc?$AAk?$AA?$AA@ 0052a830     LIBCMTD:fwrite.obj
 0003:0001b858       ??_C@_1FE@CEHLKAHD@?$AAi?$AAb?$AAa?$AAs?$AAe?$AA?5?$AA?$DN?$AA?$DN?$AA?5?$AA0?$AA?5?$AA?$HM?$AA?$HM?$AA?5?$AA?$CI?$AA2?$AA?5?$AA?$DM?$AA?$DN?$AA?5?$AAi?$AAb?$AAa?$AAs?$AAe?$AA?5?$AA?$CG?$AA?$CG?$AA?5?$AAi?$AAb?$AAa@ 0052a858     LIBCMTD:strtol.obj
 0003:0001b8bc       ??_C@_1BA@LOLAMAJG@?$AAs?$AAt?$AAr?$AAt?$AAo?$AAx?$AAl?$AA?$AA@ 0052a8bc     LIBCMTD:strtol.obj
 0003:0001b8d0       ??_C@_1BC@CPINJNMH@?$AAs?$AAt?$AAr?$AAt?$AAo?$AAl?$AA?4?$AAc?$AA?$AA@ 0052a8d0     LIBCMTD:strtol.obj
 0003:0001b8e8       ??_C@_1BK@LAOAACLJ@?$AAn?$AAp?$AAt?$AAr?$AA?5?$AA?$CB?$AA?$DN?$AA?5?$AAN?$AAU?$AAL?$AAL?$AA?$AA@ 0052a8e8     LIBCMTD:strtol.obj
 0003:0001b908       ??_C@_1BA@BMMDEPNE@?$AAs?$AAt?$AAr?$AAt?$AAo?$AAx?$AAq?$AA?$AA@ 0052a908     LIBCMTD:strtoq.obj
 0003:0001b91c       ??_C@_1BC@MIDDLJDN@?$AAs?$AAt?$AAr?$AAt?$AAo?$AAq?$AA?4?$AAc?$AA?$AA@ 0052a91c     LIBCMTD:strtoq.obj
 0003:0001b940       ??_C@_1DE@MMOGFGHF@?$AAs?$AAt?$AAr?$AAc?$AAp?$AAy?$AA_?$AAs?$AA?$CI?$AA?$CK?$AAe?$AAn?$AAv?$AA?0?$AA?5?$AAc?$AAc?$AAh?$AAa?$AAr?$AAs?$AA?0?$AA?5?$AAp?$AA?$CJ?$AA?$AA@ 0052a940     LIBCMTD:stdenvp.obj
 0003:0001b980       ??_C@_1BC@GHMCNHHL@?$AA_?$AAs?$AAe?$AAt?$AAe?$AAn?$AAv?$AAp?$AA?$AA@ 0052a980     LIBCMTD:stdenvp.obj
 0003:0001b998       ??_C@_1BE@DFNOPGHI@?$AAs?$AAt?$AAd?$AAe?$AAn?$AAv?$AAp?$AA?4?$AAc?$AA?$AA@ 0052a998     LIBCMTD:stdenvp.obj
 0003:0001b9b0       ??_C@_09HCDLHOJP@stdenvp?4c?$AA@ 0052a9b0     LIBCMTD:stdenvp.obj
 0003:0001b9bc       ??_C@_09IKILHJIC@stdargv?4c?$AA@ 0052a9bc     LIBCMTD:stdargv.obj
 0003:0001b9c8       ??_C@_07BPGNOCOG@a_env?4c?$AA@ 0052a9c8     LIBCMTD:a_env.obj
 0003:0001b9d4       ??_C@_0O@NLDKAIKN@EncodePointer?$AA@ 0052a9d4     LIBCMTD:tidtable.obj
 0003:0001b9e4       ??_C@_0N@NHGLKGEC@KERNEL32?4DLL?$AA@ 0052a9e4     LIBCMTD:tidtable.obj
 0003:0001b9f4       ??_C@_07EPKMNAGK@?4mixcrt?$AA@ 0052a9f4     LIBCMTD:tidtable.obj
 0003:0001ba00       ??_C@_0O@KBPMFGHI@DecodePointer?$AA@ 0052aa00     LIBCMTD:tidtable.obj
 0003:0001ba10       ??_C@_0L@JKCACIOJ@tidtable?4c?$AA@ 0052aa10     LIBCMTD:tidtable.obj
 0003:0001ba20       ??_C@_07PEJMOBNF@FlsFree?$AA@ 0052aa20     LIBCMTD:tidtable.obj
 0003:0001ba2c       ??_C@_0M@JCPCPOEF@FlsSetValue?$AA@ 0052aa2c     LIBCMTD:tidtable.obj
 0003:0001ba3c       ??_C@_0M@GDNOONDI@FlsGetValue?$AA@ 0052aa3c     LIBCMTD:tidtable.obj
 0003:0001ba4c       ??_C@_08KNHFBNJ@FlsAlloc?$AA@ 0052aa4c     LIBCMTD:tidtable.obj
 0003:0001ba58       ??_C@_1BM@DKJOGMJM@?$AA_?$AA_?$AAh?$AAe?$AAa?$AAp?$AA_?$AAs?$AAe?$AAl?$AAe?$AAc?$AAt?$AA?$AA@ 0052aa58     LIBCMTD:heapinit.obj
 0003:0001ba7c       ??_C@_1BG@INAAHHLF@?$AAh?$AAe?$AAa?$AAp?$AAi?$AAn?$AAi?$AAt?$AA?4?$AAc?$AA?$AA@ 0052aa7c     LIBCMTD:heapinit.obj
 0003:0001ba98       ??_C@_1BC@DENNNKIM@?$AA_?$AAc?$AAr?$AAt?$AAh?$AAe?$AAa?$AAp?$AA?$AA@ 0052aa98     LIBCMTD:heapinit.obj
 0003:0001bab0       ??_C@_0P@GGKDKEEG@runtime?5error?5?$AA@ 0052aab0     LIBCMTD:crt0msg.obj
 0003:0001bac4       ??_C@_0O@MJNIPGOH@TLOSS?5error?$AN?6?$AA@ 0052aac4     LIBCMTD:crt0msg.obj
 0003:0001bad4       ??_C@_0N@BONNPDHF@SING?5error?$AN?6?$AA@ 0052aad4     LIBCMTD:crt0msg.obj
 0003:0001bae4       ??_C@_0P@MBDAJNE@DOMAIN?5error?$AN?6?$AA@ 0052aae4     LIBCMTD:crt0msg.obj
 0003:0001baf8       ??_C@_0BFB@HKKMCDOL@R6034?$AN?6An?5application?5has?5made?5a@ 0052aaf8     LIBCMTD:crt0msg.obj
 0003:0001bc90       ??_C@_0PH@EPAFIJ@R6033?$AN?6?9?5Attempt?5to?5use?5MSIL?5cod@ 0052ac90     LIBCMTD:crt0msg.obj
 0003:0001bdb8       ??_C@_0DD@BKEEABMM@R6032?$AN?6?9?5not?5enough?5space?5for?5lo@ 0052adb8     LIBCMTD:crt0msg.obj
 0003:0001bdf8       ??_C@_0GD@OFKILIED@R6031?$AN?6?9?5Attempt?5to?5initialize?5t@ 0052adf8     LIBCMTD:crt0msg.obj
 0003:0001be70       ??_C@_0BP@LPMHJOKI@R6030?$AN?6?9?5CRT?5not?5initialized?$AN?6?$AA@ 0052ae70     LIBCMTD:crt0msg.obj
 0003:0001be98       ??_C@_0CF@KJDAIALP@R6028?$AN?6?9?5unable?5to?5initialize?5he@ 0052ae98     LIBCMTD:crt0msg.obj
 0003:0001bec4       ??_C@_0DF@GAKBPDFP@R6027?$AN?6?9?5not?5enough?5space?5for?5lo@ 0052aec4     LIBCMTD:crt0msg.obj
 0003:0001bf04       ??_C@_0DF@IBLNNAIG@R6026?$AN?6?9?5not?5enough?5space?5for?5st@ 0052af04     LIBCMTD:crt0msg.obj
 0003:0001bf44       ??_C@_0CG@IOHKGFNJ@R6025?$AN?6?9?5pure?5virtual?5function?5c@ 0052af44     LIBCMTD:crt0msg.obj
 0003:0001bf74       ??_C@_0DF@JIJJFJDC@R6024?$AN?6?9?5not?5enough?5space?5for?5_o@ 0052af74     LIBCMTD:crt0msg.obj
 0003:0001bfb4       ??_C@_0CJ@EGEJHFME@R6019?$AN?6?9?5unable?5to?5open?5console?5@ 0052afb4     LIBCMTD:crt0msg.obj
 0003:0001bfe8       ??_C@_0CB@GNHNIELH@R6018?$AN?6?9?5unexpected?5heap?5error?$AN?6@ 0052afe8     LIBCMTD:crt0msg.obj
 0003:0001c010       ??_C@_0CN@FOLDKNG@R6017?$AN?6?9?5unexpected?5multithread?5@ 0052b010     LIBCMTD:crt0msg.obj
 0003:0001c048       ??_C@_0CM@FAHFJNHO@R6016?$AN?6?9?5not?5enough?5space?5for?5th@ 0052b048     LIBCMTD:crt0msg.obj
 0003:0001c080       ??_C@_0JG@LBKMGKLD@?$AN?6This?5application?5has?5requested@ 0052b080     LIBCMTD:crt0msg.obj
 0003:0001c134       ??_C@_0CM@FLCNIPKK@R6009?$AN?6?9?5not?5enough?5space?5for?5en@ 0052b134     LIBCMTD:crt0msg.obj
 0003:0001c168       ??_C@_0CK@KMMJOAPP@R6008?$AN?6?9?5not?5enough?5space?5for?5ar@ 0052b168     LIBCMTD:crt0msg.obj
 0003:0001c19c       ??_C@_0CN@LEKKICBM@R6002?$AN?6?9?5floating?5point?5support?5@ 0052b19c     LIBCMTD:crt0msg.obj
 0003:0001c1d8       ??_C@_1KC@JBIKIPNF@?$AAs?$AAt?$AAr?$AAc?$AAa?$AAt?$AA_?$AAs?$AA?$CI?$AAo?$AAu?$AAt?$AAm?$AAs?$AAg?$AA?0?$AA?5?$AA?$CI?$AAs?$AAi?$AAz?$AAe?$AAo?$AAf?$AA?$CI?$AAo?$AAu?$AAt?$AAm?$AAs?$AAg?$AA?$CJ@ 0052b1d8     LIBCMTD:crt0msg.obj
 0003:0001c2a0       ??_C@_1HO@POLIDBMF@?$AAs?$AAt?$AAr?$AAc?$AAa?$AAt?$AA_?$AAs?$AA?$CI?$AAo?$AAu?$AAt?$AAm?$AAs?$AAg?$AA?0?$AA?5?$AA?$CI?$AAs?$AAi?$AAz?$AAe?$AAo?$AAf?$AA?$CI?$AAo?$AAu?$AAt?$AAm?$AAs?$AAg?$AA?$CJ@ 0052b2a0     LIBCMTD:crt0msg.obj
 0003:0001c338       ??_C@_1HG@CJJGKFHK@?$AAs?$AAt?$AAr?$AAn?$AAc?$AAp?$AAy?$AA_?$AAs?$AA?$CI?$AAp?$AAc?$AAh?$AA?0?$AA?5?$AAp?$AAr?$AAo?$AAg?$AAn?$AAa?$AAm?$AAe?$AA_?$AAs?$AAi?$AAz?$AAe?$AA?5?$AA?9?$AA?5?$AA?$CI@ 0052b338     LIBCMTD:crt0msg.obj
 0003:0001c3c8       ??_C@_1HI@FOOPEDMH@?$AAs?$AAt?$AAr?$AAc?$AAp?$AAy?$AA_?$AAs?$AA?$CI?$AAp?$AAr?$AAo?$AAg?$AAn?$AAa?$AAm?$AAe?$AA?0?$AA?5?$AAp?$AAr?$AAo?$AAg?$AAn?$AAa?$AAm?$AAe?$AA_?$AAs?$AAi?$AAz?$AAe@ 0052b3c8     LIBCMTD:crt0msg.obj
 0003:0001c458       ??_C@_0BK@OFGJDLJJ@Runtime?5Error?$CB?6?6Program?3?5?$AA@ 0052b458     LIBCMTD:crt0msg.obj
 0003:0001c478       ??_C@_1KM@NKKPELHG@?$AAs?$AAt?$AAr?$AAc?$AAp?$AAy?$AA_?$AAs?$AA?$CI?$AAo?$AAu?$AAt?$AAm?$AAs?$AAg?$AA?0?$AA?5?$AA?$CI?$AAs?$AAi?$AAz?$AAe?$AAo?$AAf?$AA?$CI?$AAo?$AAu?$AAt?$AAm?$AAs?$AAg?$AA?$CJ@ 0052b478     LIBCMTD:crt0msg.obj
 0003:0001c548       ??_C@_1BI@EAHMBMEC@?$AA_?$AAN?$AAM?$AAS?$AAG?$AA_?$AAW?$AAR?$AAI?$AAT?$AAE?$AA?$AA@ 0052b548     LIBCMTD:crt0msg.obj
 0003:0001c564       ??_C@_1BE@HJCCFLDA@?$AAc?$AAr?$AAt?$AA0?$AAm?$AAs?$AAg?$AA?4?$AAc?$AA?$AA@ 0052b564     LIBCMTD:crt0msg.obj
 0003:0001c57c       ??_C@_1O@CEDCILHN@?$AA?$CI?$AAn?$AAu?$AAl?$AAl?$AA?$CJ?$AA?$AA@ 0052b57c     LIBCMTD:output.obj
 0003:0001c58c       ??_C@_06OJHGLDPL@?$CInull?$CJ?$AA@ 0052b58c     LIBCMTD:output.obj
 0003:0001c598       ___lookuptable             0052b598     LIBCMTD:output.obj
 0003:0001c604       ??_C@_08MEPFMIND@output?4c?$AA@ 0052b604     LIBCMTD:output.obj
 0003:0001c610       ??_C@_1EK@PNGFDECN@?$AA?$CI?$AA?$CC?$AA?8?$AAn?$AA?8?$AA?5?$AAf?$AAo?$AAr?$AAm?$AAa?$AAt?$AA?5?$AAs?$AAp?$AAe?$AAc?$AAi?$AAf?$AAi?$AAe?$AAr?$AA?5?$AAd?$AAi?$AAs?$AAa?$AAb?$AAl?$AAe?$AAd?$AA?$CC@ 0052b610     LIBCMTD:output.obj
 0003:0001c668       ??_C@_1CC@IFFHEMNF@?$AA?$CI?$AAc?$AAh?$AA?5?$AA?$CB?$AA?$DN?$AA?5?$AA_?$AAT?$AA?$CI?$AA?8?$AA?2?$AA0?$AA?8?$AA?$CJ?$AA?$CJ?$AA?$AA@ 0052b668     LIBCMTD:output.obj
 0003:0001c690       ??_C@_1BE@IONLIDNC@?$AA_?$AAo?$AAu?$AAt?$AAp?$AAu?$AAt?$AA_?$AAl?$AA?$AA@ 0052b690     LIBCMTD:output.obj
 0003:0001c6a8       ??_C@_1BC@NHKJGCDC@?$AAo?$AAu?$AAt?$AAp?$AAu?$AAt?$AA?4?$AAc?$AA?$AA@ 0052b6a8     LIBCMTD:output.obj
 0003:0001c6c0       ??_C@_1BI@IGILPKD@?$AA_?$AAv?$AAs?$AAp?$AAr?$AAi?$AAn?$AAt?$AAf?$AA_?$AAl?$AA?$AA@ 0052b6c0     LIBCMTD:vsprintf.obj
 0003:0001c6dc       ??_C@_1BG@CBDPIEBA@?$AAv?$AAs?$AAp?$AAr?$AAi?$AAn?$AAt?$AAf?$AA?4?$AAc?$AA?$AA@ 0052b6dc     LIBCMTD:vsprintf.obj
 0003:0001c6f8       ??_C@_1CE@HMKDJHB@?$AA_?$AAv?$AAs?$AAc?$AAp?$AAr?$AAi?$AAn?$AAt?$AAf?$AA_?$AAh?$AAe?$AAl?$AAp?$AAe?$AAr?$AA?$AA@ 0052b6f8     LIBCMTD:vsprintf.obj
 0003:0001c724       ??_C@_1CE@PCFPEIFI@?$AA_?$AAv?$AAs?$AAn?$AAp?$AAr?$AAi?$AAn?$AAt?$AAf?$AA_?$AAh?$AAe?$AAl?$AAp?$AAe?$AAr?$AA?$AA@ 0052b724     LIBCMTD:vsnprnc.obj
 0003:0001c750       ??_C@_1EE@OKCKIGFK@?$AAs?$AAt?$AAr?$AAi?$AAn?$AAg?$AA?5?$AA?$CB?$AA?$DN?$AA?5?$AAN?$AAU?$AAL?$AAL?$AA?5?$AA?$CG?$AA?$CG?$AA?5?$AAs?$AAi?$AAz?$AAe?$AAI?$AAn?$AAB?$AAy?$AAt?$AAe?$AAs?$AA?5?$AA?$DO?$AA?5@ 0052b750     LIBCMTD:vsnprnc.obj
 0003:0001c7a4       ??_C@_1BM@BLJALHEF@?$AA_?$AAv?$AAs?$AAp?$AAr?$AAi?$AAn?$AAt?$AAf?$AA_?$AAs?$AA_?$AAl?$AA?$AA@ 0052b7a4     LIBCMTD:vsnprnc.obj
 0003:0001c7c8       ??_C@_1BO@MMPELNIM@?$AA_?$AAv?$AAs?$AAn?$AAp?$AAr?$AAi?$AAn?$AAt?$AAf?$AA_?$AAs?$AA_?$AAl?$AA?$AA@ 0052b7c8     LIBCMTD:vsnprnc.obj
 0003:0001c7ec       ??_C@_09KJLOAKHC@mbctype?4c?$AA@ 0052b7ec     LIBCMTD:mbctype.obj
 0003:0001c7f8       ??_C@_07LCBHPJJN@LC_TIME?$AA@ 0052b7f8     LIBCMTD:setlocal.obj
 0003:0001c804       ??_C@_0L@DLHIECNL@LC_NUMERIC?$AA@ 0052b804     LIBCMTD:setlocal.obj
 0003:0001c814       ??_C@_0M@MIENIKLA@LC_MONETARY?$AA@ 0052b814     LIBCMTD:setlocal.obj
 0003:0001c824       ??_C@_08EADHIDAD@LC_CTYPE?$AA@ 0052b824     LIBCMTD:setlocal.obj
 0003:0001c830       ??_C@_0L@KFJHEKIK@LC_COLLATE?$AA@ 0052b830     LIBCMTD:setlocal.obj
 0003:0001c840       ??_C@_06NEFDFEKB@LC_ALL?$AA@ 0052b840     LIBCMTD:setlocal.obj
 0003:0001c848       ___lc_category             0052b848     LIBCMTD:setlocal.obj
 0003:0001c938       ??_C@_1BG@PFHEEGCP@?$AAs?$AAe?$AAt?$AAl?$AAo?$AAc?$AAa?$AAl?$AA?4?$AAc?$AA?$AA@ 0052b938     LIBCMTD:setlocal.obj
 0003:0001c958       ??_C@_1BKC@GGIENNAK@?$AA?$CI?$AA?$CI?$AAp?$AAt?$AAl?$AAo?$AAc?$AAi?$AA?9?$AA?$DO?$AAl?$AAc?$AA_?$AAc?$AAa?$AAt?$AAe?$AAg?$AAo?$AAr?$AAy?$AA?$FL?$AAc?$AAa?$AAt?$AAe?$AAg?$AAo?$AAr?$AAy?$AA?$FN?$AA?4@ 0052b958     LIBCMTD:setlocal.obj
 0003:0001cb50       ??_C@_1CI@FGIONOJM@?$AA_?$AAc?$AAo?$AAn?$AAf?$AAi?$AAg?$AAt?$AAh?$AAr?$AAe?$AAa?$AAd?$AAl?$AAo?$AAc?$AAa?$AAl?$AAe?$AA?$AA@ 0052bb50     LIBCMTD:setlocal.obj
 0003:0001cb80       ??_C@_1GA@LDEGDKD@?$AA?$CI?$AA?$CC?$AAI?$AAn?$AAv?$AAa?$AAl?$AAi?$AAd?$AA?5?$AAp?$AAa?$AAr?$AAa?$AAm?$AAe?$AAt?$AAe?$AAr?$AA?5?$AAf?$AAo?$AAr?$AA?5?$AA_?$AAc?$AAo?$AAn?$AAf?$AAi?$AAg?$AAt@ 0052bb80     LIBCMTD:setlocal.obj
 0003:0001cbf4       ??_C@_0L@LEECJGMI@setlocal?4c?$AA@ 0052bbf4     LIBCMTD:setlocal.obj
 0003:0001cc04       ??_C@_1BE@DBJGBOJC@?$AAs?$AAe?$AAt?$AAl?$AAo?$AAc?$AAa?$AAl?$AAe?$AA?$AA@ 0052bc04     LIBCMTD:setlocal.obj
 0003:0001cc20       ??_C@_1FG@OHLFEKMC@?$AAL?$AAC?$AA_?$AAM?$AAI?$AAN?$AA?5?$AA?$DM?$AA?$DN?$AA?5?$AA_?$AAc?$AAa?$AAt?$AAe?$AAg?$AAo?$AAr?$AAy?$AA?5?$AA?$CG?$AA?$CG?$AA?5?$AA_?$AAc?$AAa?$AAt?$AAe?$AAg?$AAo?$AAr?$AAy@ 0052bc20     LIBCMTD:setlocal.obj
 0003:0001cc88       ??_C@_1IA@PFIKKKFB@?$AAs?$AAt?$AAr?$AAn?$AAc?$AAp?$AAy?$AA_?$AAs?$AA?$CI?$AAl?$AAc?$AAt?$AAe?$AAm?$AAp?$AA?0?$AA?5?$AA?$CI?$AAs?$AAi?$AAz?$AAe?$AAo?$AAf?$AA?$CI?$AAl?$AAc?$AAt?$AAe?$AAm?$AAp@ 0052bc88     LIBCMTD:setlocal.obj
 0003:0001cd24       ??_C@_1CE@OFNHIOO@?$AA_?$AAs?$AAe?$AAt?$AAl?$AAo?$AAc?$AAa?$AAl?$AAe?$AA_?$AAn?$AAo?$AAl?$AAo?$AAc?$AAk?$AA?$AA@ 0052bd24     LIBCMTD:setlocal.obj
 0003:0001cd50       ??_C@_02BALPLPBG@?$DN?$DL?$AA@ 0052bd50     LIBCMTD:setlocal.obj
 0003:0001cd58       ??_C@_1GO@JALHLJEH@?$AAs?$AAt?$AAr?$AAc?$AAp?$AAy?$AA_?$AAs?$AA?$CI?$AAp?$AAc?$AAh?$AA?5?$AA?$CL?$AA?5?$AAs?$AAi?$AAz?$AAe?$AAo?$AAf?$AA?$CI?$AAi?$AAn?$AAt?$AA?$CJ?$AA?0?$AA?5?$AAc?$AAc?$AAh?$AA?5@ 0052bd58     LIBCMTD:setlocal.obj
 0003:0001cddc       ??_C@_1CG@IEFIICPK@?$AA_?$AAs?$AAe?$AAt?$AAl?$AAo?$AAc?$AAa?$AAl?$AAe?$AA_?$AAs?$AAe?$AAt?$AA_?$AAc?$AAa?$AAt?$AA?$AA@ 0052bddc     LIBCMTD:setlocal.obj
 0003:0001ce0c       ??_C@_1DA@GDKKLCLM@?$AAs?$AAt?$AAr?$AAc?$AAa?$AAt?$AA_?$AAs?$AA?$CI?$AAp?$AAc?$AAh?$AA?0?$AA?5?$AAc?$AAc?$AAh?$AA?0?$AA?5?$AA?$CC?$AA?$DL?$AA?$CC?$AA?$CJ?$AA?$AA@ 0052be0c     LIBCMTD:setlocal.obj
 0003:0001ce48       ??_C@_1CG@NNFIJLDA@?$AA_?$AAs?$AAe?$AAt?$AAl?$AAo?$AAc?$AAa?$AAl?$AAe?$AA_?$AAg?$AAe?$AAt?$AA_?$AAa?$AAl?$AAl?$AA?$AA@ 0052be48     LIBCMTD:setlocal.obj
 0003:0001ce78       ??_C@_01NEMOKFLO@?$DN?$AA@ 0052be78     LIBCMTD:setlocal.obj
 0003:0001ce80       ??_C@_1FA@MHAOOIBO@?$AAs?$AAt?$AAr?$AAc?$AAp?$AAy?$AA_?$AAs?$AA?$CI?$AAo?$AAu?$AAt?$AAp?$AAu?$AAt?$AA?0?$AA?5?$AAs?$AAi?$AAz?$AAe?$AAI?$AAn?$AAC?$AAh?$AAa?$AAr?$AAs?$AA?0?$AA?5?$AAc?$AAa@ 0052be80     LIBCMTD:setlocal.obj
 0003:0001cee0       ??_C@_1IA@ONNFOEDA@?$AAs?$AAt?$AAr?$AAn?$AAc?$AAp?$AAy?$AA_?$AAs?$AA?$CI?$AAc?$AAa?$AAc?$AAh?$AAe?$AAi?$AAn?$AA?0?$AA?5?$AAc?$AAa?$AAc?$AAh?$AAe?$AAi?$AAn?$AAS?$AAi?$AAz?$AAe?$AA?0?$AA?5@ 0052bee0     LIBCMTD:setlocal.obj
 0003:0001cf7c       ??_C@_01GFHCPBMG@C?$AA@    0052bf7c     LIBCMTD:setlocal.obj
 0003:0001cf80       ??_C@_1EG@MOMHKOD@?$AAs?$AAt?$AAr?$AAc?$AAp?$AAy?$AA_?$AAs?$AA?$CI?$AAo?$AAu?$AAt?$AAp?$AAu?$AAt?$AA?0?$AA?5?$AAs?$AAi?$AAz?$AAe?$AAI?$AAn?$AAC?$AAh?$AAa?$AAr?$AAs?$AA?0?$AA?5?$AA?$CC?$AAC@ 0052bf80     LIBCMTD:setlocal.obj
 0003:0001cfd4       ??_C@_1BM@OIIBLEFG@?$AA_?$AAe?$AAx?$AAp?$AAa?$AAn?$AAd?$AAl?$AAo?$AAc?$AAa?$AAl?$AAe?$AA?$AA@ 0052bfd4     LIBCMTD:setlocal.obj
 0003:0001cff8       ??_C@_1BGM@IJDLABMC@?$AAs?$AAt?$AAr?$AAc?$AAa?$AAt?$AA_?$AAs?$AA?$CI?$AAo?$AAu?$AAt?$AAs?$AAt?$AAr?$AA?0?$AA?5?$AAs?$AAi?$AAz?$AAe?$AAI?$AAn?$AAB?$AAy?$AAt?$AAe?$AAs?$AA?0?$AA?5?$AA?$CI?$AA?5@ 0052bff8     LIBCMTD:setlocal.obj
 0003:0001d1ac       ??_C@_1BC@PIABMDIP@?$AA_?$AAs?$AAt?$AAr?$AAc?$AAa?$AAt?$AAs?$AA?$AA@ 0052c1ac     LIBCMTD:setlocal.obj
 0003:0001d1c8       ??_C@_1MM@NOPMGFHF@?$AAs?$AAt?$AAr?$AAn?$AAc?$AAp?$AAy?$AA_?$AAs?$AA?$CI?$AAn?$AAa?$AAm?$AAe?$AAs?$AA?9?$AA?$DO?$AAs?$AAz?$AAC?$AAo?$AAd?$AAe?$AAP?$AAa?$AAg?$AAe?$AA?0?$AA?5?$AA?$CI?$AAs?$AAi@ 0052c1c8     LIBCMTD:setlocal.obj
 0003:0001d2c0       ??_C@_1MG@PHNILIAG@?$AAs?$AAt?$AAr?$AAn?$AAc?$AAp?$AAy?$AA_?$AAs?$AA?$CI?$AAn?$AAa?$AAm?$AAe?$AAs?$AA?9?$AA?$DO?$AAs?$AAz?$AAC?$AAo?$AAu?$AAn?$AAt?$AAr?$AAy?$AA?0?$AA?5?$AA?$CI?$AAs?$AAi?$AAz@ 0052c2c0     LIBCMTD:setlocal.obj
 0003:0001d3b0       ??_C@_1MM@BFEECMAF@?$AAs?$AAt?$AAr?$AAn?$AAc?$AAp?$AAy?$AA_?$AAs?$AA?$CI?$AAn?$AAa?$AAm?$AAe?$AAs?$AA?9?$AA?$DO?$AAs?$AAz?$AAL?$AAa?$AAn?$AAg?$AAu?$AAa?$AAg?$AAe?$AA?0?$AA?5?$AA?$CI?$AAs?$AAi@ 0052c3b0     LIBCMTD:setlocal.obj
 0003:0001d4a4       ??_C@_03EGDHDPFD@_?4?0?$AA@ 0052c4a4     LIBCMTD:setlocal.obj
 0003:0001d4a8       ??_C@_1NG@FMOPGKGG@?$AAs?$AAt?$AAr?$AAn?$AAc?$AAp?$AAy?$AA_?$AAs?$AA?$CI?$AAn?$AAa?$AAm?$AAe?$AAs?$AA?9?$AA?$DO?$AAs?$AAz?$AAC?$AAo?$AAd?$AAe?$AAP?$AAa?$AAg?$AAe?$AA?0?$AA?5?$AA?$CI?$AAs?$AAi@ 0052c4a8     LIBCMTD:setlocal.obj
 0003:0001d5a8       ??_C@_1BK@CBMMLAGJ@?$AA_?$AA_?$AAl?$AAc?$AA_?$AAs?$AAt?$AAr?$AAt?$AAo?$AAl?$AAc?$AA?$AA@ 0052c5a8     LIBCMTD:setlocal.obj
 0003:0001d5c8       ??_C@_01LFCBOECM@?4?$AA@   0052c5c8     LIBCMTD:setlocal.obj
 0003:0001d5cc       ??_C@_01IDAFKMJL@_?$AA@    0052c5cc     LIBCMTD:setlocal.obj
 0003:0001d5d0       ??_C@_1HC@IBDBLKCB@?$AAs?$AAt?$AAr?$AAc?$AAp?$AAy?$AA_?$AAs?$AA?$CI?$AAl?$AAo?$AAc?$AAa?$AAl?$AAe?$AA?0?$AA?5?$AAs?$AAi?$AAz?$AAe?$AAI?$AAn?$AAB?$AAy?$AAt?$AAe?$AAs?$AA?0?$AA?5?$AA?$CI?$AAc@ 0052c5d0     LIBCMTD:setlocal.obj
 0003:0001d658       ??_C@_1BK@FGDJDEPG@?$AA_?$AA_?$AAl?$AAc?$AA_?$AAl?$AAc?$AAt?$AAo?$AAs?$AAt?$AAr?$AA?$AA@ 0052c658     LIBCMTD:setlocal.obj
 0003:0001d678       ??_C@_1BE@CEKCJJBD@?$AAi?$AAs?$AAc?$AAt?$AAy?$AAp?$AAe?$AA?4?$AAc?$AA?$AA@ 0052c678     LIBCMTD:isctype.obj
 0003:0001d690       ??_C@_1DC@BPLPALML@?$AA?$CI?$AAu?$AAn?$AAs?$AAi?$AAg?$AAn?$AAe?$AAd?$AA?$CJ?$AA?$CI?$AAc?$AA?5?$AA?$CL?$AA?5?$AA1?$AA?$CJ?$AA?5?$AA?$DM?$AA?$DN?$AA?5?$AA2?$AA5?$AA6?$AA?$AA@ 0052c690     LIBCMTD:isctype.obj
 0003:0001d6d0       ??_C@_1GE@KOCFNGPB@?$AA_?$AAc?$AAo?$AAn?$AAt?$AAr?$AAo?$AAl?$AAf?$AAp?$AA_?$AAs?$AA?$CI?$AA?$CI?$AA?$CI?$AAv?$AAo?$AAi?$AAd?$AA?5?$AA?$CK?$AA?$CJ?$AA0?$AA?$CJ?$AA?0?$AA?5?$AA0?$AAx?$AA0?$AA0?$AA0?$AA1@ 0052c6d0     LIBCMTD:fp8.obj
 0003:0001d748       ??_C@_1CK@JMKHCBEI@?$AA_?$AAs?$AAe?$AAt?$AAd?$AAe?$AAf?$AAa?$AAu?$AAl?$AAt?$AAp?$AAr?$AAe?$AAc?$AAi?$AAs?$AAi?$AAo?$AAn?$AA?$AA@ 0052c748     LIBCMTD:fp8.obj
 0003:0001d77c       ??_C@_1BI@DMMHIADH@?$AAi?$AAn?$AAt?$AAe?$AAl?$AA?2?$AAf?$AAp?$AA8?$AA?4?$AAc?$AA?$AA@ 0052c77c     LIBCMTD:fp8.obj
 0003:0001d798       __real@4150017ec0000000    0052c798     LIBCMTD:testfdiv.obj
 0003:0001d7a8       __real@4147ffff80000000    0052c7a8     LIBCMTD:testfdiv.obj
 0003:0001d7b4       ??_C@_0BK@NHEOCAHP@IsProcessorFeaturePresent?$AA@ 0052c7b4     LIBCMTD:testfdiv.obj
 0003:0001d7d4       ??_C@_08CPNIBGIE@KERNEL32?$AA@ 0052c7d4     LIBCMTD:testfdiv.obj
 0003:0001d7e0       ??_C@_1CA@CBMNPEO@?$AAs?$AAi?$AAz?$AAe?$AAI?$AAn?$AAB?$AAy?$AAt?$AAe?$AAs?$AA?5?$AA?$DO?$AA?5?$AA0?$AA?$AA@ 0052c7e0     LIBCMTD:cvt.obj
 0003:0001d808       ??_C@_1BC@INKAPMHI@?$AA_?$AAc?$AAf?$AAt?$AAo?$AAe?$AA_?$AAl?$AA?$AA@ 0052c808     LIBCMTD:cvt.obj
 0003:0001d820       ??_C@_1M@BMJONBHG@?$AAc?$AAv?$AAt?$AA?4?$AAc?$AA?$AA@ 0052c820     LIBCMTD:cvt.obj
 0003:0001d830       ??_C@_05KLBDPFGC@e?$CL000?$AA@ 0052c830     LIBCMTD:cvt.obj
 0003:0001d838       ??_C@_1LE@EOIFGNCJ@?$AAs?$AAt?$AAr?$AAc?$AAp?$AAy?$AA_?$AAs?$AA?$CI?$AAp?$AA?0?$AA?5?$AA?$CI?$AAs?$AAi?$AAz?$AAe?$AAI?$AAn?$AAB?$AAy?$AAt?$AAe?$AAs?$AA?5?$AA?$DN?$AA?$DN?$AA?5?$AA?$CI?$AAs?$AAi?$AAz@ 0052c838     LIBCMTD:cvt.obj
 0003:0001d910       ??_C@_1HE@NACBNDPP@?$AAs?$AAi?$AAz?$AAe?$AAI?$AAn?$AAB?$AAy?$AAt?$AAe?$AAs?$AA?5?$AA?$DO?$AA?5?$AA?$CI?$AAs?$AAi?$AAz?$AAe?$AA_?$AAt?$AA?$CJ?$AA?$CI?$AA3?$AA?5?$AA?$CL?$AA?5?$AA?$CI?$AAn?$AAd?$AAe?$AAc@ 0052c910     LIBCMTD:cvt.obj
 0003:0001d99c       ??_C@_1BE@OLBNEILL@?$AA_?$AAc?$AAf?$AAt?$AAo?$AAe?$AA2?$AA_?$AAl?$AA?$AA@ 0052c99c     LIBCMTD:cvt.obj
 0003:0001d9b8       ??_C@_1FC@IKIMAMJB@?$AAs?$AAi?$AAz?$AAe?$AAI?$AAn?$AAB?$AAy?$AAt?$AAe?$AAs?$AA?5?$AA?$DO?$AA?5?$AA?$CI?$AAs?$AAi?$AAz?$AAe?$AA_?$AAt?$AA?$CJ?$AA?$CI?$AA1?$AA?5?$AA?$CL?$AA?5?$AA4?$AA?5?$AA?$CL?$AA?5?$AAn@ 0052c9b8     LIBCMTD:cvt.obj
 0003:0001da1c       ??_C@_1BC@JOKPCIC@?$AA_?$AAc?$AAf?$AAt?$AAo?$AAa?$AA_?$AAl?$AA?$AA@ 0052ca1c     LIBCMTD:cvt.obj
 0003:0001da34       ??_C@_1BC@DCPPLJL@?$AA_?$AAc?$AAf?$AAt?$AAo?$AAf?$AA_?$AAl?$AA?$AA@ 0052ca34     LIBCMTD:cvt.obj
 0003:0001da4c       ??_C@_1BE@CKPDLI@?$AA_?$AAc?$AAf?$AAt?$AAo?$AAf?$AA2?$AA_?$AAl?$AA?$AA@ 0052ca4c     LIBCMTD:cvt.obj
 0003:0001da64       ??_C@_1BC@MPIFPLAF@?$AA_?$AAc?$AAf?$AAt?$AAo?$AAg?$AA_?$AAl?$AA?$AA@ 0052ca64     LIBCMTD:cvt.obj
 0003:0001e4f8       __DEFAULT_CW_in_mem        0052d4f8     LIBCMTD:common.obj
 0003:0001e4fa       __pi_by_2_to_61            0052d4fa     LIBCMTD:common.obj
 0003:0001e58c       ??_C@_1BI@OINOOFEA@?$AAh?$AAa?$AAn?$AAd?$AAl?$AAe?$AAr?$AA?4?$AAc?$AAp?$AAp?$AA?$AA@ 0052d58c     LIBCMTD:handler.obj
 0003:0001e5a8       ??_C@_1BC@JLLICHIC@?$AAp?$AAn?$AAh?$AA?5?$AA?$DN?$AA?$DN?$AA?5?$AA0?$AA?$AA@ 0052d5a8     LIBCMTD:handler.obj
 0003:0001e5c0       ??_C@_0BB@NAGLCMLI@Assertion?5Failed?$AA@ 0052d5c0     LIBCMTD:dbgrpt.obj
 0003:0001e5d4       ??_C@_07KGMMFLDN@Warning?$AA@ 0052d5d4     LIBCMTD:dbgrpt.obj
 0003:0001e5e0       ??_C@_08ODMAMGBE@dbgrpt?4c?$AA@ 0052d5e0     LIBCMTD:dbgrpt.obj
 0003:0001e5ec       ??_C@_1CG@GNMJDMIO@?$AA_?$AAC?$AAr?$AAt?$AAS?$AAe?$AAt?$AAR?$AAe?$AAp?$AAo?$AAr?$AAt?$AAH?$AAo?$AAo?$AAk?$AA2?$AA?$AA@ 0052d5ec     LIBCMTD:dbgrpt.obj
 0003:0001e61c       ??_C@_1BC@CBGBJLNL@?$AAd?$AAb?$AAg?$AAr?$AAp?$AAt?$AA?4?$AAc?$AA?$AA@ 0052d61c     LIBCMTD:dbgrpt.obj
 0003:0001e634       ??_C@_0CD@EBCGLDDL@Microsoft?5Visual?5C?$CL?$CL?5Debug?5Libra@ 0052d634     LIBCMTD:dbgrpt.obj
 0003:0001e660       ??_C@_0CL@EACFGMNB@_CrtDbgReport?3?5String?5too?5long?5o@ 0052d660     LIBCMTD:dbgrpt.obj
 0003:0001e698       ??_C@_1JG@CPKCIOEE@?$AAs?$AAt?$AAr?$AAc?$AAp?$AAy?$AA_?$AAs?$AA?$CI?$AAs?$AAz?$AAO?$AAu?$AAt?$AAM?$AAe?$AAs?$AAs?$AAa?$AAg?$AAe?$AA?0?$AA?5?$AA4?$AA0?$AA9?$AA6?$AA?0?$AA?5?$AA?$CC?$AA_?$AAC@ 0052d698     LIBCMTD:dbgrpt.obj
 0003:0001e750       ??_C@_0FF@CCONDJCB@Debug?5?$CFs?$CB?6?6Program?3?5?$CFs?$CFs?$CFs?$CFs?$CFs?$CFs@ 0052d750     LIBCMTD:dbgrpt.obj
 0003:0001e7b8       ??_C@_09OFBFHMBK@?6Module?3?5?$AA@ 0052d7b8     LIBCMTD:dbgrpt.obj
 0003:0001e7c4       ??_C@_07OPHPPLBG@?6File?3?5?$AA@ 0052d7c4     LIBCMTD:dbgrpt.obj
 0003:0001e7d0       ??_C@_07DBMPPHDI@?6Line?3?5?$AA@ 0052d7d0     LIBCMTD:dbgrpt.obj
 0003:0001e7e0       ??_C@_0HD@GNBNFCCL@?6?6For?5information?5on?5how?5your?5pr@ 0052d7e0     LIBCMTD:dbgrpt.obj
 0003:0001e870       ??_C@_1KA@GHPEDBGI@?$AA_?$AAm?$AAb?$AAs?$AAn?$AAb?$AAc?$AAp?$AAy?$AA_?$AAs?$AA?$CI?$AAs?$AAz?$AAS?$AAh?$AAo?$AAr?$AAt?$AAP?$AAr?$AAo?$AAg?$AAN?$AAa?$AAm?$AAe?$AA?0?$AA?5?$AA2?$AA6?$AA0@ 0052d870     LIBCMTD:dbgrpt.obj
 0003:0001e930       ??_C@_1GG@DLDHOIGE@?$AAs?$AAt?$AAr?$AAc?$AAp?$AAy?$AA_?$AAs?$AA?$CI?$AAs?$AAz?$AAE?$AAx?$AAe?$AAN?$AAa?$AAm?$AAe?$AA?0?$AA?5?$AA2?$AA6?$AA0?$AA?0?$AA?5?$AA?$CC?$AA?$DM?$AAp?$AAr?$AAo?$AAg?$AAr@ 0052d930     LIBCMTD:dbgrpt.obj
 0003:0001e9ac       ??_C@_1CI@IDOKFLAJ@?$AA_?$AA_?$AAc?$AAr?$AAt?$AAM?$AAe?$AAs?$AAs?$AAa?$AAg?$AAe?$AAW?$AAi?$AAn?$AAd?$AAo?$AAw?$AAA?$AA?$AA@ 0052d9ac     LIBCMTD:dbgrpt.obj
 0003:0001e9dc       ??_C@_1BK@JMCGJOCC@?$AA_?$AAe?$AAx?$AAp?$AAa?$AAn?$AAd?$AA_?$AAb?$AAa?$AAs?$AAe?$AA?$AA@ 0052d9dc     LIBCMTD:expand.obj
 0003:0001e9fc       ??_C@_1BC@OBICIAFI@?$AAe?$AAx?$AAp?$AAa?$AAn?$AAd?$AA?4?$AAc?$AA?$AA@ 0052d9fc     LIBCMTD:expand.obj
 0003:0001ea14       ??_C@_1BO@KFIJIAEA@?$AAp?$AAB?$AAl?$AAo?$AAc?$AAk?$AA?5?$AA?$CB?$AA?$DN?$AA?5?$AAN?$AAU?$AAL?$AAL?$AA?$AA@ 0052da14     LIBCMTD:expand.obj
 0003:0001ea38       ??_C@_1BO@EMPIBJGC@?$AA_?$AAr?$AAe?$AAc?$AAa?$AAl?$AAl?$AAo?$AAc?$AA_?$AAb?$AAa?$AAs?$AAe?$AA?$AA@ 0052da38     LIBCMTD:realloc.obj
 0003:0001ea5c       ??_C@_1BE@IAPDAHOE@?$AAr?$AAe?$AAa?$AAl?$AAl?$AAo?$AAc?$AA?4?$AAc?$AA?$AA@ 0052da5c     LIBCMTD:realloc.obj
 0003:0001ea74       ??_C@_1BC@IMNOJJAO@?$AAs?$AAb?$AAh?$AAe?$AAa?$AAp?$AA?4?$AAc?$AA?$AA@ 0052da74     LIBCMTD:sbheap.obj
 0003:0001ea90       ??_C@_1IC@MOGBEBCE@?$AA?$CI?$AAt?$AAh?$AAr?$AAe?$AAs?$AAh?$AAo?$AAl?$AAd?$AA?5?$AA?$DM?$AA?$DN?$AA?5?$AAM?$AAA?$AAX?$AA_?$AAA?$AAL?$AAL?$AAO?$AAC?$AA_?$AAD?$AAA?$AAT?$AAA?$AA_?$AAS?$AAI?$AAZ@ 0052da90     LIBCMTD:sbheap.obj
 0003:0001eb2c       ??_C@_1CG@BBFCGKBK@?$AA_?$AAs?$AAe?$AAt?$AA_?$AAs?$AAb?$AAh?$AA_?$AAt?$AAh?$AAr?$AAe?$AAs?$AAh?$AAo?$AAl?$AAd?$AA?$AA@ 0052db2c     LIBCMTD:sbheap.obj
 0003:0001eb60       ??_C@_1EC@DACAONFE@?$AAt?$AAh?$AAr?$AAe?$AAs?$AAh?$AAo?$AAl?$AAd?$AA?5?$AA?$DM?$AA?$DN?$AA?5?$AAM?$AAA?$AAX?$AA_?$AAA?$AAL?$AAL?$AAO?$AAC?$AA_?$AAD?$AAA?$AAT?$AAA?$AA_?$AAS?$AAI?$AAZ?$AAE@ 0052db60     LIBCMTD:sbheap.obj
 0003:0001ebb0       ??_C@_1BM@GFNECEDD@?$AA_?$AAs?$AAe?$AAt?$AA_?$AAa?$AAm?$AAb?$AAl?$AAk?$AAs?$AAi?$AAz?$AA?$AA@ 0052dbb0     LIBCMTD:sbheap.obj
 0003:0001ebd4       ??_C@_1DK@BKLENMLC@?$AA0?$AA?5?$AA?$DM?$AA?5?$AAs?$AAi?$AAz?$AAe?$AA?5?$AA?$CG?$AA?$CG?$AA?5?$AAs?$AAi?$AAz?$AAe?$AA?5?$AA?$DM?$AA?$DN?$AA?5?$AAU?$AAI?$AAN?$AAT?$AA_?$AAM?$AAA?$AAX?$AA?$AA@ 0052dbd4     LIBCMTD:sbheap.obj
 0003:0001ec1c       ??_C@_1BM@OFBCOJJF@?$AA_?$AAg?$AAe?$AAt?$AA_?$AAa?$AAm?$AAb?$AAl?$AAk?$AAs?$AAi?$AAz?$AA?$AA@ 0052dc1c     LIBCMTD:sbheap.obj
 0003:0001ec40       ??_C@_1BM@IELHFPPM@?$AAp?$AAS?$AAi?$AAz?$AAe?$AA?5?$AA?$CB?$AA?$DN?$AA?5?$AAN?$AAU?$AAL?$AAL?$AA?$AA@ 0052dc40     LIBCMTD:sbheap.obj
 0003:0001ec64       ??_C@_1BO@JGFPDJCP@?$AAv?$AAp?$AAr?$AAi?$AAn?$AAt?$AAf?$AA_?$AAh?$AAe?$AAl?$AAp?$AAe?$AAr?$AA?$AA@ 0052dc64     LIBCMTD:vprintf.obj
 0003:0001ec88       ??_C@_1BE@DEJONPKH@?$AAv?$AAp?$AAr?$AAi?$AAn?$AAt?$AAf?$AA?4?$AAc?$AA?$AA@ 0052dc88     LIBCMTD:vprintf.obj
 0003:0001f2a0       ??_C@_0L@KDOEJCKC@_nextafter?$AA@ 0052e2a0     LIBCMTD:fpexcept.obj
 0003:0001f2b0       ??_C@_05JGDBENOH@_logb?$AA@ 0052e2b0     LIBCMTD:fpexcept.obj
 0003:0001f2b8       ??_C@_03ONILCKOB@_yn?$AA@  0052e2b8     LIBCMTD:fpexcept.obj
 0003:0001f2bc       ??_C@_03NAKIGLHK@_y1?$AA@  0052e2bc     LIBCMTD:fpexcept.obj
 0003:0001f2c0       ??_C@_03MJLDFKDL@_y0?$AA@  0052e2c0     LIBCMTD:fpexcept.obj
 0003:0001f2c4       ??_C@_05GKKHEGJL@frexp?$AA@ 0052e2c4     LIBCMTD:fpexcept.obj
 0003:0001f2cc       ??_C@_04KEPJIHGP@fmod?$AA@ 0052e2cc     LIBCMTD:fpexcept.obj
 0003:0001f2d4       ??_C@_06MEIMCGCF@_hypot?$AA@ 0052e2d4     LIBCMTD:fpexcept.obj
 0003:0001f2dc       ??_C@_05KBKMEMPO@_cabs?$AA@ 0052e2dc     LIBCMTD:fpexcept.obj
 0003:0001f2e4       ??_C@_05CEJMAHNP@ldexp?$AA@ 0052e2e4     LIBCMTD:fpexcept.obj
 0003:0001f2ec       ??_C@_04EHEDPDJG@modf?$AA@ 0052e2ec     LIBCMTD:fpexcept.obj
 0003:0001f2f4       ??_C@_04ODHECPBC@fabs?$AA@ 0052e2f4     LIBCMTD:fpexcept.obj
 0003:0001f2fc       ??_C@_05PBJFFIGL@floor?$AA@ 0052e2fc     LIBCMTD:fpexcept.obj
 0003:0001f304       ??_C@_04GFPJNGEK@ceil?$AA@ 0052e304     LIBCMTD:fpexcept.obj
 0003:0001f30c       ??_C@_03IIINPABG@tan?$AA@  0052e30c     LIBCMTD:fpexcept.obj
 0003:0001f310       ??_C@_03LALBNOCG@cos?$AA@  0052e310     LIBCMTD:fpexcept.obj
 0003:0001f314       ??_C@_03BLEJJJBH@sin?$AA@  0052e314     LIBCMTD:fpexcept.obj
 0003:0001f318       ??_C@_04EIAKFFMI@sqrt?$AA@ 0052e318     LIBCMTD:fpexcept.obj
 0003:0001f320       ??_C@_05KNGEOGJB@atan2?$AA@ 0052e320     LIBCMTD:fpexcept.obj
 0003:0001f328       ??_C@_04MLLJIGOK@atan?$AA@ 0052e328     LIBCMTD:fpexcept.obj
 0003:0001f330       ??_C@_04PDIFKINK@acos?$AA@ 0052e330     LIBCMTD:fpexcept.obj
 0003:0001f338       ??_C@_04FIHNOPOL@asin?$AA@ 0052e338     LIBCMTD:fpexcept.obj
 0003:0001f340       ??_C@_04FJHINJAO@tanh?$AA@ 0052e340     LIBCMTD:fpexcept.obj
 0003:0001f348       ??_C@_04HPJJNFIM@cosh?$AA@ 0052e348     LIBCMTD:fpexcept.obj
 0003:0001f350       ??_C@_04COOMCNPB@sinh?$AA@ 0052e350     LIBCMTD:fpexcept.obj
 0003:0001f358       ??_C@_05HGHHAHAP@log10?$AA@ 0052e358     LIBCMTD:fpexcept.obj
 0003:0001f360       ??_C@_03MGHMBJCF@log?$AA@  0052e360     LIBCMTD:fpexcept.obj
 0003:0001f364       ??_C@_03JGHBODFD@pow?$AA@  0052e364     LIBCMTD:fpexcept.obj
 0003:0001f368       ??_C@_03KHJOGHMM@exp?$AA@  0052e368     LIBCMTD:fpexcept.obj
 0003:0001f3ec       ??_C@_05EOHGHCHD@exp10?$AA@ 0052e3ec     LIBCMTD:libm_error.obj
 0003:00024f8c       ??_C@_08GNMOIKDK@onexit?4c?$AA@ 00533f8c     LIBCMTD:onexit.obj
 0003:00024f98       ??_C@_0BC@JEAENNKH@SystemFunction036?$AA@ 00533f98     LIBCMTD:rand_s.obj
 0003:00024fb0       ??_C@_1GA@EBEDGGGB@?$AA?$CI?$AA?$CC?$AAr?$AAa?$AAn?$AAd?$AA_?$AAs?$AA?5?$AAi?$AAs?$AA?5?$AAn?$AAo?$AAt?$AA?5?$AAa?$AAv?$AAa?$AAi?$AAl?$AAa?$AAb?$AAl?$AAe?$AA?5?$AAo?$AAn?$AA?5?$AAt?$AAh?$AAi@ 00533fb0     LIBCMTD:rand_s.obj
 0003:00025024       ??_C@_0N@JJPEKNFO@ADVAPI32?4DLL?$AA@ 00534024     LIBCMTD:rand_s.obj
 0003:00025034       ??_C@_1O@IJGPPOGF@?$AAr?$AAa?$AAn?$AAd?$AA_?$AAs?$AA?$AA@ 00534034     LIBCMTD:rand_s.obj
 0003:00025044       ??_C@_1BC@NBJGCJKM@?$AAr?$AAa?$AAn?$AAd?$AA_?$AAs?$AA?4?$AAc?$AA?$AA@ 00534044     LIBCMTD:rand_s.obj
 0003:0002505c       ??_C@_1CK@GFDNDKK@?$AA_?$AAR?$AAa?$AAn?$AAd?$AAo?$AAm?$AAV?$AAa?$AAl?$AAu?$AAe?$AA?5?$AA?$CB?$AA?$DN?$AA?5?$AAN?$AAU?$AAL?$AAL?$AA?$AA@ 0053405c     LIBCMTD:rand_s.obj
 0003:00025090       ??_C@_1GO@NGIGJNHH@?$AAs?$AAt?$AAr?$AAn?$AAc?$AAp?$AAy?$AA_?$AAs?$AA?$CI?$AA?$CK?$AAs?$AAt?$AAr?$AAa?$AAd?$AAd?$AAr?$AAe?$AAs?$AAs?$AA?0?$AA?5?$AAo?$AAu?$AAt?$AAs?$AAi?$AAz?$AAe?$AA?0?$AA?5@ 00534090     LIBCMTD:inithelp.obj
 0003:00025114       ??_C@_1CA@KHHCPEI@?$AA_?$AA_?$AAg?$AAe?$AAt?$AAl?$AAo?$AAc?$AAa?$AAl?$AAe?$AAi?$AAn?$AAf?$AAo?$AA?$AA@ 00534114     LIBCMTD:inithelp.obj
 0003:0002513c       ??_C@_1BG@OFMEOKEA@?$AAi?$AAn?$AAi?$AAt?$AAh?$AAe?$AAl?$AAp?$AA?4?$AAc?$AA?$AA@ 0053413c     LIBCMTD:inithelp.obj
 0003:00025158       ??_C@_0L@DILIPMN@inithelp?4c?$AA@ 00534158     LIBCMTD:inithelp.obj
 0003:00025168       ??_C@_0CG@PKBDLMEO@InitializeCriticalSectionAndSpin@ 00534168     LIBCMTD:initcrit.obj
 0003:00025198       ??_C@_0N@MDJJJHMB@kernel32?4dll?$AA@ 00534198     LIBCMTD:initcrit.obj
 0003:000251a8       ??_C@_1DK@EGKDBLND@?$AA_?$AA_?$AAc?$AAr?$AAt?$AAI?$AAn?$AAi?$AAt?$AAC?$AAr?$AAi?$AAt?$AAS?$AAe?$AAc?$AAA?$AAn?$AAd?$AAS?$AAp?$AAi?$AAn?$AAC?$AAo?$AAu?$AAn?$AAt?$AA?$AA@ 005341a8     LIBCMTD:initcrit.obj
 0003:000251f0       ??_C@_1BG@LABPBAGA@?$AAi?$AAn?$AAi?$AAt?$AAc?$AAr?$AAi?$AAt?$AA?4?$AAc?$AA?$AA@ 005341f0     LIBCMTD:initcrit.obj
 0003:00025210       ??_C@_1JE@ECKHFIFP@?$AA?$CI?$AA?$CC?$AAI?$AAn?$AAv?$AAa?$AAl?$AAi?$AAd?$AA?5?$AAf?$AAi?$AAl?$AAe?$AA?5?$AAd?$AAe?$AAs?$AAc?$AAr?$AAi?$AAp?$AAt?$AAo?$AAr?$AA?4?$AA?5?$AAF?$AAi?$AAl?$AAe?$AA?5@ 00534210     LIBCMTD:read.obj
 0003:000252c4       ??_C@_1CC@HBLPFNKH@?$AA?$CI?$AAc?$AAn?$AAt?$AA?5?$AA?$DM?$AA?$DN?$AA?5?$AAI?$AAN?$AAT?$AA_?$AAM?$AAA?$AAX?$AA?$CJ?$AA?$AA@ 005342c4     LIBCMTD:read.obj
 0003:000252ec       ??_C@_1CM@OKGMMMDH@?$AA?$CI?$AA_?$AAo?$AAs?$AAf?$AAi?$AAl?$AAe?$AA?$CI?$AAf?$AAh?$AA?$CJ?$AA?5?$AA?$CG?$AA?5?$AAF?$AAO?$AAP?$AAE?$AAN?$AA?$CJ?$AA?$AA@ 005342ec     LIBCMTD:read.obj
 0003:00025320       ??_C@_1M@NHJOLLDM@?$AA_?$AAr?$AAe?$AAa?$AAd?$AA?$AA@ 00534320     LIBCMTD:read.obj
 0003:00025330       ??_C@_1O@OLAFBHGM@?$AAr?$AAe?$AAa?$AAd?$AA?4?$AAc?$AA?$AA@ 00534330     LIBCMTD:read.obj
 0003:00025340       ??_C@_1FO@LPCLHKGE@?$AA?$CI?$AAf?$AAh?$AA?5?$AA?$DO?$AA?$DN?$AA?5?$AA0?$AA?5?$AA?$CG?$AA?$CG?$AA?5?$AA?$CI?$AAu?$AAn?$AAs?$AAi?$AAg?$AAn?$AAe?$AAd?$AA?$CJ?$AAf?$AAh?$AA?5?$AA?$DM?$AA?5?$AA?$CI?$AAu?$AAn?$AAs?$AAi@ 00534340     LIBCMTD:read.obj
 0003:000253b0       ??_C@_06CNEIBCEN@read?4c?$AA@ 005343b0     LIBCMTD:read.obj
 0003:000253b8       ??_C@_1CC@EEOLPHGO@?$AA?$CI?$AA?$CI?$AAc?$AAn?$AAt?$AA?5?$AA?$CG?$AA?5?$AA1?$AA?$CJ?$AA?5?$AA?$DN?$AA?$DN?$AA?5?$AA0?$AA?$CJ?$AA?$AA@ 005343b8     LIBCMTD:read.obj
 0003:000253e0       ??_C@_1CG@OHLJHGGK@?$AA?$CI?$AAi?$AAn?$AAp?$AAu?$AAt?$AAb?$AAu?$AAf?$AA?5?$AA?$CB?$AA?$DN?$AA?5?$AAN?$AAU?$AAL?$AAL?$AA?$CJ?$AA?$AA@ 005343e0     LIBCMTD:read.obj
 0003:00025410       ??_C@_1BK@JJBHNDKJ@?$AA_?$AAr?$AAe?$AAa?$AAd?$AA_?$AAn?$AAo?$AAl?$AAo?$AAc?$AAk?$AA?$AA@ 00534410     LIBCMTD:read.obj
 0003:00025430       ??_C@_09PKAEMGHJ@_getbuf?4c?$AA@ 00534430     LIBCMTD:_getbuf.obj
 0003:0002543c       ??_C@_1BE@DJANJIEH@?$AA_?$AAg?$AAe?$AAt?$AAb?$AAu?$AAf?$AA?4?$AAc?$AA?$AA@ 0053443c     LIBCMTD:_getbuf.obj
 0003:00025458       ??_C@_1NK@LOFHIHFC@?$AAf?$AAM?$AAo?$AAd?$AAe?$AA?5?$AA?$DN?$AA?$DN?$AA?5?$AA_?$AAC?$AAR?$AAT?$AAD?$AAB?$AAG?$AA_?$AAR?$AAE?$AAP?$AAO?$AAR?$AAT?$AA_?$AAM?$AAO?$AAD?$AAE?$AA?5?$AA?$HM?$AA?$HM?$AA?5@ 00534458     LIBCMTD:dbgrptt.obj
 0003:00025560       ??_C@_1CE@FIHIECNJ@?$AA_?$AAC?$AAr?$AAt?$AAS?$AAe?$AAt?$AAR?$AAe?$AAp?$AAo?$AAr?$AAt?$AAM?$AAo?$AAd?$AAe?$AA?$AA@ 00534560     LIBCMTD:dbgrptt.obj
 0003:0002558c       ??_C@_1BE@FLKCNJCI@?$AAd?$AAb?$AAg?$AAr?$AAp?$AAt?$AAt?$AA?4?$AAc?$AA?$AA@ 0053458c     LIBCMTD:dbgrptt.obj
 0003:000255a8       ??_C@_1FA@IFFFOLDJ@?$AAn?$AAR?$AAp?$AAt?$AAT?$AAy?$AAp?$AAe?$AA?5?$AA?$DO?$AA?$DN?$AA?5?$AA0?$AA?5?$AA?$CG?$AA?$CG?$AA?5?$AAn?$AAR?$AAp?$AAt?$AAT?$AAy?$AAp?$AAe?$AA?5?$AA?$DM?$AA?5?$AA_?$AAC?$AAR?$AAT@ 005345a8     LIBCMTD:dbgrptt.obj
 0003:00025608       ??_C@_1CE@IKKEDCME@?$AA_?$AAC?$AAr?$AAt?$AAS?$AAe?$AAt?$AAR?$AAe?$AAp?$AAo?$AAr?$AAt?$AAF?$AAi?$AAl?$AAe?$AA?$AA@ 00534608     LIBCMTD:dbgrptt.obj
 0003:00025638       ??_C@_1HO@PJOFIKFE@?$AA_?$AAC?$AAr?$AAt?$AAD?$AAb?$AAg?$AAR?$AAe?$AAp?$AAo?$AAr?$AAt?$AA?3?$AA?5?$AAS?$AAt?$AAr?$AAi?$AAn?$AAg?$AA?5?$AAt?$AAo?$AAo?$AA?5?$AAl?$AAo?$AAn?$AAg?$AA?5?$AAo@ 00534638     LIBCMTD:dbgrptt.obj
 0003:000256d0       ??_C@_1MC@IGEECMDB@?$AAw?$AAc?$AAs?$AAc?$AAp?$AAy?$AA_?$AAs?$AA?$CI?$AAs?$AAz?$AAO?$AAu?$AAt?$AAM?$AAe?$AAs?$AAs?$AAa?$AAg?$AAe?$AA2?$AA?0?$AA?5?$AA4?$AA0?$AA9?$AA6?$AA?0?$AA?5?$AAL?$AA?$CC@ 005346d0     LIBCMTD:dbgrptt.obj
 0003:000257b8       ??_C@_1IM@OOKIFKOH@?$AAe?$AA?5?$AA?$DN?$AA?5?$AAm?$AAb?$AAs?$AAt?$AAo?$AAw?$AAc?$AAs?$AA_?$AAs?$AA?$CI?$AA?$CG?$AAr?$AAe?$AAt?$AA?0?$AA?5?$AAs?$AAz?$AAO?$AAu?$AAt?$AAM?$AAe?$AAs?$AAs?$AAa?$AAg@ 005347b8     LIBCMTD:dbgrptt.obj
 0003:00025860       ??_C@_1FI@IBIOIHEG@?$AAs?$AAt?$AAr?$AAc?$AAp?$AAy?$AA_?$AAs?$AA?$CI?$AAs?$AAz?$AAO?$AAu?$AAt?$AAM?$AAe?$AAs?$AAs?$AAa?$AAg?$AAe?$AA?0?$AA?5?$AA4?$AA0?$AA9?$AA6?$AA?0?$AA?5?$AAs?$AAz?$AAL@ 00534860     LIBCMTD:dbgrptt.obj
 0003:000258cc       ??_C@_0M@IPILFDFN@?$CFs?$CI?$CFd?$CJ?5?3?5?$CFs?$AA@ 005348cc     LIBCMTD:dbgrptt.obj
 0003:000258e0       ??_C@_1EI@LDHJEDO@?$AAs?$AAt?$AAr?$AAc?$AAa?$AAt?$AA_?$AAs?$AA?$CI?$AAs?$AAz?$AAL?$AAi?$AAn?$AAe?$AAM?$AAe?$AAs?$AAs?$AAa?$AAg?$AAe?$AA?0?$AA?5?$AA4?$AA0?$AA9?$AA6?$AA?0?$AA?5?$AA?$CC?$AA?2@ 005348e0     LIBCMTD:dbgrptt.obj
 0003:00025938       ??_C@_01LIIJDEN@?$AN?$AA@  00534938     LIBCMTD:dbgrptt.obj
 0003:00025940       ??_C@_1EI@CACDLAFK@?$AAs?$AAt?$AAr?$AAc?$AAa?$AAt?$AA_?$AAs?$AA?$CI?$AAs?$AAz?$AAL?$AAi?$AAn?$AAe?$AAM?$AAe?$AAs?$AAs?$AAa?$AAg?$AAe?$AA?0?$AA?5?$AA4?$AA0?$AA9?$AA6?$AA?0?$AA?5?$AA?$CC?$AA?2@ 00534940     LIBCMTD:dbgrptt.obj
 0003:00025998       ??_C@_1FK@NPGBPOFO@?$AAs?$AAt?$AAr?$AAc?$AAa?$AAt?$AA_?$AAs?$AA?$CI?$AAs?$AAz?$AAL?$AAi?$AAn?$AAe?$AAM?$AAe?$AAs?$AAs?$AAa?$AAg?$AAe?$AA?0?$AA?5?$AA4?$AA0?$AA9?$AA6?$AA?0?$AA?5?$AAs?$AAz@ 00534998     LIBCMTD:dbgrptt.obj
 0003:00025a08       ??_C@_1KK@GIGAEDMO@?$AAs?$AAt?$AAr?$AAc?$AAp?$AAy?$AA_?$AAs?$AA?$CI?$AAs?$AAz?$AAL?$AAi?$AAn?$AAe?$AAM?$AAe?$AAs?$AAs?$AAa?$AAg?$AAe?$AA?0?$AA?5?$AA4?$AA0?$AA9?$AA6?$AA?0?$AA?5?$AAs?$AAz@ 00534a08     LIBCMTD:dbgrptt.obj
 0003:00025ad4       ??_C@_0BD@CAENFOHP@Assertion?5failed?3?5?$AA@ 00534ad4     LIBCMTD:dbgrptt.obj
 0003:00025af0       ??_C@_1JI@GAALPGBM@?$AAs?$AAt?$AAr?$AAc?$AAp?$AAy?$AA_?$AAs?$AA?$CI?$AAs?$AAz?$AAU?$AAs?$AAe?$AAr?$AAM?$AAe?$AAs?$AAs?$AAa?$AAg?$AAe?$AA?0?$AA?5?$AA4?$AA0?$AA9?$AA6?$AA?0?$AA?5?$AA?$CC?$AA_@ 00534af0     LIBCMTD:dbgrptt.obj
 0003:00025ba8       ??_C@_07BHGABMGB@?0?5Line?5?$AA@ 00534ba8     LIBCMTD:dbgrptt.obj
 0003:00025bb4       ??_C@_0P@DFJNDPOP@?$DMfile?5unknown?$DO?$AA@ 00534bb4     LIBCMTD:dbgrptt.obj
 0003:00025bc8       ??_C@_0CG@BNGLOCEO@Second?5Chance?5Assertion?5Failed?3?5@ 00534bc8     LIBCMTD:dbgrptt.obj
 0003:00025bf8       ??_C@_1FA@JPHJBHEM@?$AA_?$AAi?$AAt?$AAo?$AAa?$AA_?$AAs?$AA?$CI?$AAn?$AAL?$AAi?$AAn?$AAe?$AA?0?$AA?5?$AAs?$AAz?$AAL?$AAi?$AAn?$AAe?$AAM?$AAe?$AAs?$AAs?$AAa?$AAg?$AAe?$AA?0?$AA?5?$AA4?$AA0@ 00534bf8     LIBCMTD:dbgrptt.obj
 0003:00025c58       ??_C@_1CA@KHJHLKA@?$AA_?$AAV?$AAC?$AAr?$AAt?$AAD?$AAb?$AAg?$AAR?$AAe?$AAp?$AAo?$AAr?$AAt?$AAA?$AA?$AA@ 00534c58     LIBCMTD:dbgrptt.obj
 0003:00025c80       ??_C@_1IE@CPGKIAGP@?$AAw?$AAc?$AAs?$AAt?$AAo?$AAm?$AAb?$AAs?$AA_?$AAs?$AA?$CI?$AA?$CG?$AAr?$AAe?$AAt?$AA?0?$AA?5?$AAs?$AAz?$AAa?$AAO?$AAu?$AAt?$AAM?$AAe?$AAs?$AAs?$AAa?$AAg?$AAe?$AA?0?$AA?5@ 00534c80     LIBCMTD:dbgrptt.obj
 0003:00025d20       ??_C@_1MA@LBAMNNOB@?$AAs?$AAt?$AAr?$AAc?$AAp?$AAy?$AA_?$AAs?$AA?$CI?$AAs?$AAz?$AAO?$AAu?$AAt?$AAM?$AAe?$AAs?$AAs?$AAa?$AAg?$AAe?$AA2?$AA?0?$AA?5?$AA4?$AA0?$AA9?$AA6?$AA?0?$AA?5?$AA?$CC?$AA_@ 00534d20     LIBCMTD:dbgrptt.obj
 0003:00025e08       ??_C@_1JC@EOAPFDLN@?$AAw?$AAc?$AAs?$AAt?$AAo?$AAm?$AAb?$AAs?$AA_?$AAs?$AA?$CI?$AA?$CI?$AA?$CI?$AAv?$AAo?$AAi?$AAd?$AA?5?$AA?$CK?$AA?$CJ?$AA0?$AA?$CJ?$AA?0?$AA?5?$AAs?$AAz?$AAO?$AAu?$AAt?$AAM?$AAe?$AAs@ 00534e08     LIBCMTD:dbgrptt.obj
 0003:00025eb8       ??_C@_1FI@DBAIJPJE@?$AAw?$AAc?$AAs?$AAc?$AAp?$AAy?$AA_?$AAs?$AA?$CI?$AAs?$AAz?$AAO?$AAu?$AAt?$AAM?$AAe?$AAs?$AAs?$AAa?$AAg?$AAe?$AA?0?$AA?5?$AA4?$AA0?$AA9?$AA6?$AA?0?$AA?5?$AAs?$AAz?$AAL@ 00534eb8     LIBCMTD:dbgrptt.obj
 0003:00025f24       ??_C@_1BI@JIDBEPIG@?$AA?$CF?$AAs?$AA?$CI?$AA?$CF?$AAd?$AA?$CJ?$AA?5?$AA?3?$AA?5?$AA?$CF?$AAs?$AA?$AA@ 00534f24     LIBCMTD:dbgrptt.obj
 0003:00025f40       ??_C@_1EK@PHCBEDKB@?$AAw?$AAc?$AAs?$AAc?$AAa?$AAt?$AA_?$AAs?$AA?$CI?$AAs?$AAz?$AAL?$AAi?$AAn?$AAe?$AAM?$AAe?$AAs?$AAs?$AAa?$AAg?$AAe?$AA?0?$AA?5?$AA4?$AA0?$AA9?$AA6?$AA?0?$AA?5?$AAL?$AA?$CC@ 00534f40     LIBCMTD:dbgrptt.obj
 0003:00025f98       ??_C@_13CMNBPIDO@?$AA?$AN?$AA?$AA@ 00534f98     LIBCMTD:dbgrptt.obj
 0003:00025fa0       ??_C@_1EK@NMDFGHMF@?$AAw?$AAc?$AAs?$AAc?$AAa?$AAt?$AA_?$AAs?$AA?$CI?$AAs?$AAz?$AAL?$AAi?$AAn?$AAe?$AAM?$AAe?$AAs?$AAs?$AAa?$AAg?$AAe?$AA?0?$AA?5?$AA4?$AA0?$AA9?$AA6?$AA?0?$AA?5?$AAL?$AA?$CC@ 00534fa0     LIBCMTD:dbgrptt.obj
 0003:00025ff8       ??_C@_1FK@HPADHBBD@?$AAw?$AAc?$AAs?$AAc?$AAa?$AAt?$AA_?$AAs?$AA?$CI?$AAs?$AAz?$AAL?$AAi?$AAn?$AAe?$AAM?$AAe?$AAs?$AAs?$AAa?$AAg?$AAe?$AA?0?$AA?5?$AA4?$AA0?$AA9?$AA6?$AA?0?$AA?5?$AAs?$AAz@ 00534ff8     LIBCMTD:dbgrptt.obj
 0003:00026068       ??_C@_1KO@DGAHENCH@?$AAw?$AAc?$AAs?$AAc?$AAp?$AAy?$AA_?$AAs?$AA?$CI?$AAs?$AAz?$AAL?$AAi?$AAn?$AAe?$AAM?$AAe?$AAs?$AAs?$AAa?$AAg?$AAe?$AA?0?$AA?5?$AA4?$AA0?$AA9?$AA6?$AA?0?$AA?5?$AAs?$AAz@ 00535068     LIBCMTD:dbgrptt.obj
 0003:00026138       ??_C@_1CG@FFFGGODN@?$AAA?$AAs?$AAs?$AAe?$AAr?$AAt?$AAi?$AAo?$AAn?$AA?5?$AAf?$AAa?$AAi?$AAl?$AAe?$AAd?$AA?3?$AA?5?$AA?$AA@ 00535138     LIBCMTD:dbgrptt.obj
 0003:00026168       ??_C@_1JK@KHFABAEO@?$AAw?$AAc?$AAs?$AAc?$AAp?$AAy?$AA_?$AAs?$AA?$CI?$AAs?$AAz?$AAU?$AAs?$AAe?$AAr?$AAM?$AAe?$AAs?$AAs?$AAa?$AAg?$AAe?$AA?0?$AA?5?$AA4?$AA0?$AA9?$AA6?$AA?0?$AA?5?$AAL?$AA?$CC@ 00535168     LIBCMTD:dbgrptt.obj
 0003:00026220       ??_C@_1BA@ELMMDCFC@?$AA?0?$AA?5?$AAL?$AAi?$AAn?$AAe?$AA?5?$AA?$AA@ 00535220     LIBCMTD:dbgrptt.obj
 0003:00026234       ??_C@_1BO@OCHMLCAG@?$AA?$DM?$AAf?$AAi?$AAl?$AAe?$AA?5?$AAu?$AAn?$AAk?$AAn?$AAo?$AAw?$AAn?$AA?$DO?$AA?$AA@ 00535234     LIBCMTD:dbgrptt.obj
 0003:00026258       ??_C@_1EM@MJFLEDMB@?$AAS?$AAe?$AAc?$AAo?$AAn?$AAd?$AA?5?$AAC?$AAh?$AAa?$AAn?$AAc?$AAe?$AA?5?$AAA?$AAs?$AAs?$AAe?$AAr?$AAt?$AAi?$AAo?$AAn?$AA?5?$AAF?$AAa?$AAi?$AAl?$AAe?$AAd?$AA?3?$AA?5@ 00535258     LIBCMTD:dbgrptt.obj
 0003:000262b8       ??_C@_1FA@CNLLOMHI@?$AA_?$AAi?$AAt?$AAo?$AAw?$AA_?$AAs?$AA?$CI?$AAn?$AAL?$AAi?$AAn?$AAe?$AA?0?$AA?5?$AAs?$AAz?$AAL?$AAi?$AAn?$AAe?$AAM?$AAe?$AAs?$AAs?$AAa?$AAg?$AAe?$AA?0?$AA?5?$AA4?$AA0@ 005352b8     LIBCMTD:dbgrptt.obj
 0003:00026318       ??_C@_1CA@HPALHDOD@?$AA_?$AAV?$AAC?$AAr?$AAt?$AAD?$AAb?$AAg?$AAR?$AAe?$AAp?$AAo?$AAr?$AAt?$AAW?$AA?$AA@ 00535318     LIBCMTD:dbgrptt.obj
 0003:00026340       ??_C@_1BE@BMIJMLDD@?$AA_?$AAs?$AAw?$AAp?$AAr?$AAi?$AAn?$AAt?$AAf?$AA?$AA@ 00535340     LIBCMTD:swprintf.obj
 0003:00026358       ??_C@_1BG@CEFLJIIJ@?$AAs?$AAw?$AAp?$AAr?$AAi?$AAn?$AAt?$AAf?$AA?4?$AAc?$AA?$AA@ 00535358     LIBCMTD:swprintf.obj
 0003:00026374       ??_C@_1O@EGMJNCOI@?$AAf?$AAc?$AAl?$AAo?$AAs?$AAe?$AA?$AA@ 00535374     LIBCMTD:fclose.obj
 0003:00026384       ??_C@_1BC@MHEDMIA@?$AAf?$AAc?$AAl?$AAo?$AAs?$AAe?$AA?4?$AAc?$AA?$AA@ 00535384     LIBCMTD:fclose.obj
 0003:0002639c       ??_C@_1BO@JINCABEC@?$AA_?$AAf?$AAc?$AAl?$AAo?$AAs?$AAe?$AA_?$AAn?$AAo?$AAl?$AAo?$AAc?$AAk?$AA?$AA@ 0053539c     LIBCMTD:fclose.obj
 0003:000263c0       ??_C@_1DG@LNNHNFHJ@?$AA?$CI?$AA_?$AAo?$AAs?$AAf?$AAi?$AAl?$AAe?$AA?$CI?$AAf?$AAi?$AAl?$AAe?$AAd?$AAe?$AAs?$AA?$CJ?$AA?5?$AA?$CG?$AA?5?$AAF?$AAO?$AAP?$AAE?$AAN?$AA?$CJ?$AA?$AA@ 005353c0     LIBCMTD:commit.obj
 0003:00026400       ??_C@_1BA@FLNMBBIM@?$AA_?$AAc?$AAo?$AAm?$AAm?$AAi?$AAt?$AA?$AA@ 00535400     LIBCMTD:commit.obj
 0003:00026414       ??_C@_1BC@LOAFNBNC@?$AAc?$AAo?$AAm?$AAm?$AAi?$AAt?$AA?4?$AAc?$AA?$AA@ 00535414     LIBCMTD:commit.obj
 0003:00026430       ??_C@_1HC@KFLBHHBC@?$AA?$CI?$AAf?$AAi?$AAl?$AAe?$AAd?$AAe?$AAs?$AA?5?$AA?$DO?$AA?$DN?$AA?5?$AA0?$AA?5?$AA?$CG?$AA?$CG?$AA?5?$AA?$CI?$AAu?$AAn?$AAs?$AAi?$AAg?$AAn?$AAe?$AAd?$AA?$CJ?$AAf?$AAi?$AAl?$AAe?$AAd@ 00535430     LIBCMTD:commit.obj
 0003:000264b8       ??_C@_1O@KOFKDHPL@?$AA_?$AAw?$AAr?$AAi?$AAt?$AAe?$AA?$AA@ 005354b8     LIBCMTD:write.obj
 0003:000264c8       ??_C@_1BA@PMLNGJCB@?$AAw?$AAr?$AAi?$AAt?$AAe?$AA?4?$AAc?$AA?$AA@ 005354c8     LIBCMTD:write.obj
 0003:000264dc       ??_C@_1BM@NCANHCIP@?$AA_?$AAw?$AAr?$AAi?$AAt?$AAe?$AA_?$AAn?$AAo?$AAl?$AAo?$AAc?$AAk?$AA?$AA@ 005354dc     LIBCMTD:write.obj
 0003:00026500       ??_C@_1BM@KFJLMBPG@?$AA?$CI?$AAb?$AAu?$AAf?$AA?5?$AA?$CB?$AA?$DN?$AA?5?$AAN?$AAU?$AAL?$AAL?$AA?$CJ?$AA?$AA@ 00535500     LIBCMTD:write.obj
 0003:00026524       ??_C@_0DA@FHGIAEAH@f?3?2sp?2vctools?2crt_bld?2self_x86?2c@ 00535524     LIBCMTD:woutput.obj
 0003:00026560       ??_C@_1BG@BBCDFOMA@?$AA_?$AAw?$AAo?$AAu?$AAt?$AAp?$AAu?$AAt?$AA_?$AAl?$AA?$AA@ 00535560     LIBCMTD:woutput.obj
 0003:00026580       ??_C@_1GA@KAEECOIJ@?$AAf?$AA?3?$AA?2?$AAs?$AAp?$AA?2?$AAv?$AAc?$AAt?$AAo?$AAo?$AAl?$AAs?$AA?2?$AAc?$AAr?$AAt?$AA_?$AAb?$AAl?$AAd?$AA?2?$AAs?$AAe?$AAl?$AAf?$AA_?$AAx?$AA8?$AA6?$AA?2?$AAc@ 00535580     LIBCMTD:woutput.obj
 0003:000265f4       ??_C@_1CC@MONNFDCM@?$AAv?$AAf?$AAw?$AAp?$AAr?$AAi?$AAn?$AAt?$AAf?$AA_?$AAh?$AAe?$AAl?$AAp?$AAe?$AAr?$AA?$AA@ 005355f4     LIBCMTD:vfwprint.obj
 0003:0002661c       ??_C@_1BG@NPPNBJFE@?$AAv?$AAf?$AAw?$AAp?$AAr?$AAi?$AAn?$AAt?$AA?4?$AAc?$AA?$AA@ 0053561c     LIBCMTD:vfwprint.obj
 0003:00026638       ??_C@_1BG@BCLADFND@?$AA_?$AAf?$AAr?$AAe?$AAe?$AAb?$AAu?$AAf?$AA?4?$AAc?$AA?$AA@ 00535638     LIBCMTD:_freebuf.obj
 0003:00026654       ??_C@_1BO@KIJENGPH@?$AAs?$AAt?$AAr?$AAe?$AAa?$AAm?$AA?5?$AA?$CB?$AA?$DN?$AA?5?$AAN?$AAU?$AAL?$AAL?$AA?$AA@ 00535654     LIBCMTD:_freebuf.obj
 0003:00026678       ??_C@_0BK@CIDNPOGP@GetUserObjectInformationA?$AA@ 00535678     LIBCMTD:crtmbox.obj
 0003:00026698       ??_C@_1CC@MEIOIKJI@?$AA_?$AA_?$AAc?$AAr?$AAt?$AAM?$AAe?$AAs?$AAs?$AAa?$AAg?$AAe?$AAB?$AAo?$AAx?$AAA?$AA?$AA@ 00535698     LIBCMTD:crtmbox.obj
 0003:000266c0       ??_C@_1BE@DEODNGG@?$AAc?$AAr?$AAt?$AAm?$AAb?$AAo?$AAx?$AA?4?$AAc?$AA?$AA@ 005356c0     LIBCMTD:crtmbox.obj
 0003:000266d8       ??_C@_0M@CHKKJDAI@MessageBoxA?$AA@ 005356d8     LIBCMTD:crtmbox.obj
 0003:000266e8       ??_C@_0L@NDEGIDAG@USER32?4DLL?$AA@ 005356e8     LIBCMTD:crtmbox.obj
 0003:000266f8       ??_C@_1O@GIMBNLEI@?$AAx?$AAt?$AAo?$AAa?$AA_?$AAs?$AA?$AA@ 005356f8     LIBCMTD:xtoas.obj
 0003:00026708       ??_C@_1BC@MJJNBNFN@?$AAx?$AA6?$AA4?$AAt?$AAo?$AAa?$AA_?$AAs?$AA?$AA@ 00535708     LIBCMTD:xtoas.obj
 0003:00026720       ??_C@_1BA@DNOHIGNM@?$AAf?$AAp?$AAr?$AAi?$AAn?$AAt?$AAf?$AA?$AA@ 00535720     LIBCMTD:fprintf.obj
 0003:00026734       ??_C@_1BE@NEFIHEIC@?$AAf?$AAp?$AAr?$AAi?$AAn?$AAt?$AAf?$AA?4?$AAc?$AA?$AA@ 00535734     LIBCMTD:fprintf.obj
 0003:00026750       ??_C@_1FK@LNCFKALM@?$AA?$CI?$AA?$CI?$AAs?$AAt?$AAa?$AAt?$AAe?$AA?5?$AA?$DN?$AA?$DN?$AA?5?$AAS?$AAT?$AA_?$AAN?$AAO?$AAR?$AAM?$AAA?$AAL?$AA?$CJ?$AA?5?$AA?$HM?$AA?$HM?$AA?5?$AA?$CI?$AAs?$AAt?$AAa?$AAt?$AAe?$AA?5@ 00535750     LIBCMTD:woutputs.obj
 0003:000267c0       ??_C@_1EE@DMAIGNBG@?$AA?$CI?$AA?$CC?$AAI?$AAn?$AAc?$AAo?$AAr?$AAr?$AAe?$AAc?$AAt?$AA?5?$AAf?$AAo?$AAr?$AAm?$AAa?$AAt?$AA?5?$AAs?$AAp?$AAe?$AAc?$AAi?$AAf?$AAi?$AAe?$AAr?$AA?$CC?$AA?0?$AA?5?$AA0@ 005357c0     LIBCMTD:woutputs.obj
 0003:00026814       ??_C@_1BK@ONMFGLDB@?$AA_?$AAw?$AAo?$AAu?$AAt?$AAp?$AAu?$AAt?$AA_?$AAs?$AA_?$AAl?$AA?$AA@ 00535814     LIBCMTD:woutputs.obj
 0003:00026838       ??_C@_1FK@BCPANIEK@?$AA?$CI?$AA?$CC?$AAM?$AAi?$AAs?$AAs?$AAi?$AAn?$AAg?$AA?5?$AAp?$AAo?$AAs?$AAi?$AAt?$AAi?$AAo?$AAn?$AA?5?$AAi?$AAn?$AA?5?$AAt?$AAh?$AAe?$AA?5?$AAf?$AAo?$AAr?$AAm?$AAa?$AAt@ 00535838     LIBCMTD:woutputp.obj
 0003:000268a8       ??_C@_1JC@OACKELNN@?$AA_?$AAt?$AAv?$AAa?$AAl?$AAi?$AAd?$AAa?$AAt?$AAe?$AA_?$AAp?$AAa?$AAr?$AAa?$AAm?$AA_?$AAr?$AAe?$AAu?$AAs?$AAe?$AA?$CI?$AA?$CG?$AAp?$AAo?$AAs?$AA_?$AAv?$AAa?$AAl?$AAu@ 005358a8     LIBCMTD:woutputp.obj
 0003:00026958       ??_C@_1IK@NBGDDCBN@?$AA_?$AAt?$AAv?$AAa?$AAl?$AAi?$AAd?$AAa?$AAt?$AAe?$AA_?$AAp?$AAa?$AAr?$AAa?$AAm?$AA_?$AAr?$AAe?$AAu?$AAs?$AAe?$AA?$CI?$AA?$CG?$AAp?$AAo?$AAs?$AA_?$AAv?$AAa?$AAl?$AAu@ 00535958     LIBCMTD:woutputp.obj
 0003:00026a00       ??_C@_1DG@GOHGNKHE@?$AAp?$AAa?$AAs?$AAs?$AA?5?$AA?$DN?$AA?$DN?$AA?5?$AAF?$AAO?$AAR?$AAM?$AAA?$AAT?$AA_?$AAO?$AAU?$AAT?$AAP?$AAU?$AAT?$AA_?$AAP?$AAA?$AAS?$AAS?$AA?$AA@ 00535a00     LIBCMTD:woutputp.obj
 0003:00026a40       ??_C@_1IM@DNGHAPLB@?$AA_?$AAt?$AAv?$AAa?$AAl?$AAi?$AAd?$AAa?$AAt?$AAe?$AA_?$AAp?$AAa?$AAr?$AAa?$AAm?$AA_?$AAr?$AAe?$AAu?$AAs?$AAe?$AA?$CI?$AA?$CG?$AAp?$AAo?$AAs?$AA_?$AAv?$AAa?$AAl?$AAu@ 00535a40     LIBCMTD:woutputp.obj
 0003:00026ae8       ??_C@_1IG@HJIMKDHC@?$AA_?$AAt?$AAv?$AAa?$AAl?$AAi?$AAd?$AAa?$AAt?$AAe?$AA_?$AAp?$AAa?$AAr?$AAa?$AAm?$AA_?$AAr?$AAe?$AAu?$AAs?$AAe?$AA?$CI?$AA?$CG?$AAp?$AAo?$AAs?$AA_?$AAv?$AAa?$AAl?$AAu@ 00535ae8     LIBCMTD:woutputp.obj
 0003:00026b88       ??_C@_1IG@FDCPLALG@?$AA_?$AAt?$AAv?$AAa?$AAl?$AAi?$AAd?$AAa?$AAt?$AAe?$AA_?$AAp?$AAa?$AAr?$AAa?$AAm?$AA_?$AAr?$AAe?$AAu?$AAs?$AAe?$AA?$CI?$AA?$CG?$AAp?$AAo?$AAs?$AA_?$AAv?$AAa?$AAl?$AAu@ 00535b88     LIBCMTD:woutputp.obj
 0003:00026c28       ??_C@_1EM@BNPHBBIA@?$AA?$CI?$AA?$CI?$AAt?$AAy?$AAp?$AAe?$AA_?$AAp?$AAo?$AAs?$AA?$DO?$AA?$DN?$AA0?$AA?$CJ?$AA?5?$AA?$CG?$AA?$CG?$AA?5?$AA?$CI?$AAt?$AAy?$AAp?$AAe?$AA_?$AAp?$AAo?$AAs?$AA?$DM?$AA_?$AAA?$AAR?$AAG@ 00535c28     LIBCMTD:woutputp.obj
 0003:00026c88       ??_C@_1IK@EIEPDKHJ@?$AA_?$AAt?$AAv?$AAa?$AAl?$AAi?$AAd?$AAa?$AAt?$AAe?$AA_?$AAp?$AAa?$AAr?$AAa?$AAm?$AA_?$AAr?$AAe?$AAu?$AAs?$AAe?$AA?$CI?$AA?$CG?$AAp?$AAo?$AAs?$AA_?$AAv?$AAa?$AAl?$AAu@ 00535c88     LIBCMTD:woutputp.obj
 0003:00026d30       ??_C@_1JG@JBJBOCFB@?$AA?$CI?$AA?$CI?$AAp?$AAr?$AAe?$AAc?$AAi?$AAs?$AA_?$AAp?$AAo?$AAs?$AA?5?$AA?$DO?$AA?$DN?$AA?5?$AA0?$AA?$CJ?$AA?5?$AA?$CG?$AA?$CG?$AA?5?$AA?$CI?$AA?$CK?$AAe?$AAn?$AAd?$AA_?$AAp?$AAo?$AAs?$AA?5@ 00535d30     LIBCMTD:woutputp.obj
 0003:00026de8       ??_C@_1II@PIPIMLPF@?$AA_?$AAt?$AAv?$AAa?$AAl?$AAi?$AAd?$AAa?$AAt?$AAe?$AA_?$AAp?$AAa?$AAr?$AAa?$AAm?$AA_?$AAr?$AAe?$AAu?$AAs?$AAe?$AA?$CI?$AA?$CG?$AAp?$AAo?$AAs?$AA_?$AAv?$AAa?$AAl?$AAu@ 00535de8     LIBCMTD:woutputp.obj
 0003:00026e90       ??_C@_1JE@NMBHOLFI@?$AA?$CI?$AA?$CI?$AAw?$AAi?$AAd?$AAt?$AAh?$AA_?$AAp?$AAo?$AAs?$AA?5?$AA?$DO?$AA?$DN?$AA?5?$AA0?$AA?$CJ?$AA?5?$AA?$CG?$AA?$CG?$AA?5?$AA?$CI?$AA?$CK?$AAe?$AAn?$AAd?$AA_?$AAp?$AAo?$AAs?$AA?5?$AA?$DN@ 00535e90     LIBCMTD:woutputp.obj
 0003:00026f48       ??_C@_1JC@PFJNKEIO@?$AA?$CI?$AA?$CI?$AAt?$AAy?$AAp?$AAe?$AA_?$AAp?$AAo?$AAs?$AA?5?$AA?$DO?$AA?$DN?$AA?5?$AA0?$AA?$CJ?$AA?5?$AA?$CG?$AA?$CG?$AA?5?$AA?$CI?$AA?$CK?$AAe?$AAn?$AAd?$AA_?$AAp?$AAo?$AAs?$AA?5?$AA?$DN?$AA?$DN@ 00535f48     LIBCMTD:woutputp.obj
 0003:00026ff8       ??_C@_1BK@GDEKGMNC@?$AA_?$AAw?$AAo?$AAu?$AAt?$AAp?$AAu?$AAt?$AA_?$AAp?$AA_?$AAl?$AA?$AA@ 00535ff8     LIBCMTD:woutputp.obj
 0003:00027018       ??_C@_1BA@LEBDGIHM@?$AA_?$AAi?$AAs?$AAa?$AAt?$AAt?$AAy?$AA?$AA@ 00536018     LIBCMTD:isatty.obj
 0003:0002702c       ??_C@_1BC@BPJEKAMC@?$AAi?$AAs?$AAa?$AAt?$AAt?$AAy?$AA?4?$AAc?$AA?$AA@ 0053602c     LIBCMTD:isatty.obj
 0003:00027044       ??_C@_1BE@KHFBJMNM@?$AA_?$AAl?$AAs?$AAe?$AAe?$AAk?$AAi?$AA6?$AA4?$AA?$AA@ 00536044     LIBCMTD:lseeki64.obj
 0003:0002705c       ??_C@_1BG@NGOGNEMB@?$AAl?$AAs?$AAe?$AAe?$AAk?$AAi?$AA6?$AA4?$AA?4?$AAc?$AA?$AA@ 0053605c     LIBCMTD:lseeki64.obj
 0003:00027078       ??_C@_1BE@NDMJHJJG@?$AAs?$AAt?$AAr?$AAn?$AAc?$AAp?$AAy?$AA_?$AAs?$AA?$AA@ 00536078     LIBCMTD:strncpy_s.obj
 0003:00027090       ??_C@_1BI@IEADNOHF@?$AA_?$AAw?$AAc?$AAt?$AAo?$AAm?$AAb?$AA_?$AAs?$AA_?$AAl?$AA?$AA@ 00536090     LIBCMTD:wctomb.obj
 0003:000270ac       ??_C@_1BC@KLMMEMGB@?$AAw?$AAc?$AAt?$AAo?$AAm?$AAb?$AA?4?$AAc?$AA?$AA@ 005360ac     LIBCMTD:wctomb.obj
 0003:000270c4       ??_C@_1CO@HFMIILNF@?$AAs?$AAi?$AAz?$AAe?$AAI?$AAn?$AAB?$AAy?$AAt?$AAe?$AAs?$AA?5?$AA?$DM?$AA?$DN?$AA?5?$AAI?$AAN?$AAT?$AA_?$AAM?$AAA?$AAX?$AA?$AA@ 005360c4     LIBCMTD:wctomb.obj
 0003:00027100       ??_C@_1IK@MHEDJAMK@?$AA_?$AAt?$AAv?$AAa?$AAl?$AAi?$AAd?$AAa?$AAt?$AAe?$AA_?$AAp?$AAa?$AAr?$AAa?$AAm?$AA_?$AAr?$AAe?$AAu?$AAs?$AAe?$AA?$CI?$AA?$CG?$AAp?$AAo?$AAs?$AA_?$AAv?$AAa?$AAl?$AAu@ 00536100     LIBCMTD:outputp.obj
 0003:000271a8       ??_C@_1BI@KANOLAMF@?$AA_?$AAo?$AAu?$AAt?$AAp?$AAu?$AAt?$AA_?$AAp?$AA_?$AAl?$AA?$AA@ 005361a8     LIBCMTD:outputp.obj
 0003:000271c8       ___lookuptable_s           005361c8     LIBCMTD:outputs.obj
 0003:00027234       ??_C@_1BI@COFBLHCG@?$AA_?$AAo?$AAu?$AAt?$AAp?$AAu?$AAt?$AA_?$AAs?$AA_?$AAl?$AA?$AA@ 00536234     LIBCMTD:outputs.obj
 0003:00027250       ??_C@_13NOLLCAOD@?$AA?$AA?$AA?$AA@ 00536250     LIBCMTD:a_map.obj
 0003:00027258       ??_C@_1GA@EDILLMMN@?$AAF?$AA?3?$AA?2?$AAS?$AAP?$AA?2?$AAv?$AAc?$AAt?$AAo?$AAo?$AAl?$AAs?$AA?2?$AAc?$AAr?$AAt?$AA_?$AAb?$AAl?$AAd?$AA?2?$AAS?$AAE?$AAL?$AAF?$AA_?$AAX?$AA8?$AA6?$AA?2?$AAc@ 00536258     LIBCMTD:a_map.obj
 0003:000272d0       ??_C@_1FE@KNPCCODH@?$AA?$CI?$AA?$CC?$AAC?$AAo?$AAr?$AAr?$AAu?$AAp?$AAt?$AAe?$AAd?$AA?5?$AAp?$AAo?$AAi?$AAn?$AAt?$AAe?$AAr?$AA?5?$AAp?$AAa?$AAs?$AAs?$AAe?$AAd?$AA?5?$AAt?$AAo?$AA?5?$AA_?$AAf@ 005362d0     LIBCMTD:a_map.obj
 0003:00027338       ___newctype                00536338     LIBCMTD:ctype.obj
 0003:00027638       __wctype                   00536638     LIBCMTD:ctype.obj
 0003:00027840       ___newclmap                00536840     LIBCMTD:ctype.obj
 0003:000279c0       ___newcumap                005369c0     LIBCMTD:ctype.obj
 0003:00027cdc       ??_C@_1BG@HHBAFOPB@?$AAi?$AAn?$AAi?$AAt?$AAt?$AAi?$AAm?$AAe?$AA?4?$AAc?$AA?$AA@ 00536cdc     LIBCMTD:inittime.obj
 0003:00027cf8       ??_C@_1EE@FDHCFDHN@?$AAp?$AAl?$AAo?$AAc?$AAi?$AA?9?$AA?$DO?$AAl?$AAc?$AA_?$AAt?$AAi?$AAm?$AAe?$AA_?$AAc?$AAu?$AAr?$AAr?$AA?9?$AA?$DO?$AAr?$AAe?$AAf?$AAc?$AAo?$AAu?$AAn?$AAt?$AA?5?$AA?$DO?$AA?5@ 00536cf8     LIBCMTD:inittime.obj
 0003:00027d4c       ??_C@_0L@IOJADHBB@inittime?4c?$AA@ 00536d4c     LIBCMTD:inittime.obj
 0003:00027d5c       ??_C@_1BE@EAFFGEEO@?$AAi?$AAn?$AAi?$AAt?$AAn?$AAu?$AAm?$AA?4?$AAc?$AA?$AA@ 00536d5c     LIBCMTD:initnum.obj
 0003:00027d74       ??_C@_1DM@IFKAINNE@?$AAp?$AAl?$AAo?$AAc?$AAi?$AA?9?$AA?$DO?$AAl?$AAc?$AAo?$AAn?$AAv?$AA_?$AAn?$AAu?$AAm?$AA_?$AAr?$AAe?$AAf?$AAc?$AAo?$AAu?$AAn?$AAt?$AA?5?$AA?$DO?$AA?5?$AA0?$AA?$AA@ 00536d74     LIBCMTD:initnum.obj
 0003:00027dbc       ??_C@_09MECGNAGI@initnum?4c?$AA@ 00536dbc     LIBCMTD:initnum.obj
 0003:00027dc8       ??_C@_1BE@IJMIKAHM@?$AAi?$AAn?$AAi?$AAt?$AAm?$AAo?$AAn?$AA?4?$AAc?$AA?$AA@ 00536dc8     LIBCMTD:initmon.obj
 0003:00027de0       ??_C@_1DM@GKAPAMDO@?$AAp?$AAl?$AAo?$AAc?$AAi?$AA?9?$AA?$DO?$AAl?$AAc?$AAo?$AAn?$AAv?$AA_?$AAm?$AAo?$AAn?$AA_?$AAr?$AAe?$AAf?$AAc?$AAo?$AAu?$AAn?$AAt?$AA?5?$AA?$DO?$AA?5?$AA0?$AA?$AA@ 00536de0     LIBCMTD:initmon.obj
 0003:00027e28       ??_C@_09HKFHICAL@initmon?4c?$AA@ 00536e28     LIBCMTD:initmon.obj
 0003:00027e34       ??_C@_1DG@NMBGBDM@?$AAp?$AAl?$AAo?$AAc?$AAi?$AA?9?$AA?$DO?$AAc?$AAt?$AAy?$AAp?$AAe?$AA1?$AA_?$AAr?$AAe?$AAf?$AAc?$AAo?$AAu?$AAn?$AAt?$AA?5?$AA?$DO?$AA?5?$AA0?$AA?$AA@ 00536e34     LIBCMTD:initctyp.obj
 0003:00027e74       ??_C@_1BG@PMMGDKJC@?$AAi?$AAn?$AAi?$AAt?$AAc?$AAt?$AAy?$AAp?$AA?4?$AAc?$AA?$AA@ 00536e74     LIBCMTD:initctyp.obj
 0003:00027e90       ??_C@_0L@GBAGBCPL@initctyp?4c?$AA@ 00536e90     LIBCMTD:initctyp.obj
 0003:00027ea0       ??_C@_08JCCMCCIL@HH?3mm?3ss?$AA@ 00536ea0     LIBCMTD:strftime.obj
 0003:00027eac       ??_C@_0BE@CKGJFCPC@dddd?0?5MMMM?5dd?0?5yyyy?$AA@ 00536eac     LIBCMTD:strftime.obj
 0003:00027ec4       ??_C@_08BPBNCDIB@MM?1dd?1yy?$AA@ 00536ec4     LIBCMTD:strftime.obj
 0003:00027ed0       ??_C@_02CJNFDJBF@PM?$AA@   00536ed0     LIBCMTD:strftime.obj
 0003:00027ed4       ??_C@_02DEDBPAFC@AM?$AA@   00536ed4     LIBCMTD:strftime.obj
 0003:00027ed8       ??_C@_08EDHMEBNP@December?$AA@ 00536ed8     LIBCMTD:strftime.obj
 0003:00027ee4       ??_C@_08HCHEGEOA@November?$AA@ 00536ee4     LIBCMTD:strftime.obj
 0003:00027ef0       ??_C@_07JJNFCEND@October?$AA@ 00536ef0     LIBCMTD:strftime.obj
 0003:00027efc       ??_C@_09BHHEALKD@September?$AA@ 00536efc     LIBCMTD:strftime.obj
 0003:00027f08       ??_C@_06LBBHFDDG@August?$AA@ 00536f08     LIBCMTD:strftime.obj
 0003:00027f10       ??_C@_04MIEPOIFP@July?$AA@ 00536f10     LIBCMTD:strftime.obj
 0003:00027f18       ??_C@_04CNLMGBGM@June?$AA@ 00536f18     LIBCMTD:strftime.obj
 0003:00027f20       ??_C@_05DMJDNLEJ@April?$AA@ 00536f20     LIBCMTD:strftime.obj
 0003:00027f28       ??_C@_05HPCKOFNC@March?$AA@ 00536f28     LIBCMTD:strftime.obj
 0003:00027f30       ??_C@_08GNJGEPFN@February?$AA@ 00536f30     LIBCMTD:strftime.obj
 0003:00027f3c       ??_C@_07CGJPFGJA@January?$AA@ 00536f3c     LIBCMTD:strftime.obj
 0003:00027f48       ??_C@_03MKABNOCG@Dec?$AA@  00536f48     LIBCMTD:strftime.obj
 0003:00027f4c       ??_C@_03JPJOFNIA@Nov?$AA@  00536f4c     LIBCMTD:strftime.obj
 0003:00027f50       ??_C@_03BMAOKBAD@Oct?$AA@  00536f50     LIBCMTD:strftime.obj
 0003:00027f54       ??_C@_03GGCAPAJC@Sep?$AA@  00536f54     LIBCMTD:strftime.obj
 0003:00027f58       ??_C@_03IFJFEIGA@Aug?$AA@  00536f58     LIBCMTD:strftime.obj
 0003:00027f5c       ??_C@_03LBGABGKK@Jul?$AA@  00536f5c     LIBCMTD:strftime.obj
 0003:00027f60       ??_C@_03IDFGHECI@Jun?$AA@  00536f60     LIBCMTD:strftime.obj
 0003:00027f64       ??_C@_03CNMDKL@May?$AA@    00536f64     LIBCMTD:strftime.obj
 0003:00027f68       ??_C@_03LEOLGMJP@Apr?$AA@  00536f68     LIBCMTD:strftime.obj
 0003:00027f6c       ??_C@_03ODNJBKGA@Mar?$AA@  00536f6c     LIBCMTD:strftime.obj
 0003:00027f70       ??_C@_03HJBDCHOM@Feb?$AA@  00536f70     LIBCMTD:strftime.obj
 0003:00027f74       ??_C@_03JIHJHPIE@Jan?$AA@  00536f74     LIBCMTD:strftime.obj
 0003:00027f78       ??_C@_08INBOOONO@Saturday?$AA@ 00536f78     LIBCMTD:strftime.obj
 0003:00027f84       ??_C@_06JECMNKMI@Friday?$AA@ 00536f84     LIBCMTD:strftime.obj
 0003:00027f8c       ??_C@_08HACCIKIA@Thursday?$AA@ 00536f8c     LIBCMTD:strftime.obj
 0003:00027f98       ??_C@_09DLIGFAKA@Wednesday?$AA@ 00536f98     LIBCMTD:strftime.obj
 0003:00027fa4       ??_C@_07BAAGCFCM@Tuesday?$AA@ 00536fa4     LIBCMTD:strftime.obj
 0003:00027fb0       ??_C@_06JLEDEDGH@Monday?$AA@ 00536fb0     LIBCMTD:strftime.obj
 0003:00027fb8       ??_C@_06OOPIFAJ@Sunday?$AA@ 00536fb8     LIBCMTD:strftime.obj
 0003:00027fc0       ??_C@_1FM@LPEPDBJF@?$AAs?$AAt?$AAr?$AAc?$AAp?$AAy?$AA_?$AAs?$AA?$CI?$AAs?$AA?0?$AA?5?$AA?$CI?$AAl?$AAe?$AAn?$AA?5?$AA?$CL?$AA?5?$AA1?$AA?$CJ?$AA?5?$AA?9?$AA?5?$AA?$CI?$AAs?$AA?5?$AA?9?$AA?5?$AAp?$AA?$CJ?$AA?0@ 00536fc0     LIBCMTD:strftime.obj
 0003:00028030       ??_C@_1GG@NAGHPCAA@?$AAs?$AAt?$AAr?$AAc?$AAp?$AAy?$AA_?$AAs?$AA?$CI?$AAs?$AA?0?$AA?5?$AA?$CI?$AAl?$AAe?$AAn?$AA?5?$AA?$CL?$AA?5?$AA1?$AA?$CJ?$AA?5?$AA?9?$AA?5?$AA?$CI?$AAs?$AA?5?$AA?9?$AA?5?$AAp?$AA?$CJ?$AA?0@ 00537030     LIBCMTD:strftime.obj
 0003:000280ac       ??_C@_1BG@LGACIFJI@?$AA_?$AAG?$AAe?$AAt?$AAd?$AAa?$AAy?$AAs?$AA_?$AAl?$AA?$AA@ 005370ac     LIBCMTD:strftime.obj
 0003:000280c8       ??_C@_1BG@EMNEMEKA@?$AAs?$AAt?$AAr?$AAf?$AAt?$AAi?$AAm?$AAe?$AA?4?$AAc?$AA?$AA@ 005370c8     LIBCMTD:strftime.obj
 0003:000280e4       ??_C@_0L@OCEOFAIF@strftime?4c?$AA@ 005370e4     LIBCMTD:strftime.obj
 0003:000280f8       ??_C@_1FO@IFFKPIEL@?$AAs?$AAt?$AAr?$AAc?$AAp?$AAy?$AA_?$AAs?$AA?$CI?$AAs?$AA?0?$AA?5?$AA?$CI?$AAl?$AAe?$AAn?$AA?5?$AA?$CL?$AA?5?$AA1?$AA?$CJ?$AA?5?$AA?9?$AA?5?$AA?$CI?$AAs?$AA?5?$AA?9?$AA?5?$AAp?$AA?$CJ?$AA?0@ 005370f8     LIBCMTD:strftime.obj
 0003:00028168       ??_C@_1GI@LNJDDNLK@?$AAs?$AAt?$AAr?$AAc?$AAp?$AAy?$AA_?$AAs?$AA?$CI?$AAs?$AA?0?$AA?5?$AA?$CI?$AAl?$AAe?$AAn?$AA?5?$AA?$CL?$AA?5?$AA1?$AA?$CJ?$AA?5?$AA?9?$AA?5?$AA?$CI?$AAs?$AA?5?$AA?9?$AA?5?$AAp?$AA?$CJ?$AA?0@ 00537168     LIBCMTD:strftime.obj
 0003:000281e4       ??_C@_1BK@IDMELNCB@?$AA_?$AAG?$AAe?$AAt?$AAm?$AAo?$AAn?$AAt?$AAh?$AAs?$AA_?$AAl?$AA?$AA@ 005371e4     LIBCMTD:strftime.obj
 0003:00028208       ??_C@_1FG@CJBIADLJ@?$AAs?$AAt?$AAr?$AAc?$AAp?$AAy?$AA_?$AAs?$AA?$CI?$AAs?$AA?0?$AA?5?$AAl?$AAe?$AAn?$AA?5?$AA?9?$AA?5?$AA?$CI?$AAs?$AA?5?$AA?9?$AA?5?$AAp?$AA?$CJ?$AA?0?$AA?5?$AAp?$AAt?$AA?9?$AA?$DO?$AAw@ 00537208     LIBCMTD:strftime.obj
 0003:00028270       ??_C@_1FI@PPIHCJGH@?$AAs?$AAt?$AAr?$AAc?$AAp?$AAy?$AA_?$AAs?$AA?$CI?$AAs?$AA?0?$AA?5?$AAl?$AAe?$AAn?$AA?5?$AA?9?$AA?5?$AA?$CI?$AAs?$AA?5?$AA?9?$AA?5?$AAp?$AA?$CJ?$AA?0?$AA?5?$AAp?$AAt?$AA?9?$AA?$DO?$AAw@ 00537270     LIBCMTD:strftime.obj
 0003:000282e0       ??_C@_1FI@GDNOPCGD@?$AAs?$AAt?$AAr?$AAc?$AAp?$AAy?$AA_?$AAs?$AA?$CI?$AAs?$AA?0?$AA?5?$AAl?$AAe?$AAn?$AA?5?$AA?9?$AA?5?$AA?$CI?$AAs?$AA?5?$AA?9?$AA?5?$AAp?$AA?$CJ?$AA?0?$AA?5?$AAp?$AAt?$AA?9?$AA?$DO?$AAw@ 005372e0     LIBCMTD:strftime.obj
 0003:00028350       ??_C@_1FA@MEHIJEIL@?$AAs?$AAt?$AAr?$AAc?$AAp?$AAy?$AA_?$AAs?$AA?$CI?$AAs?$AA?0?$AA?5?$AAl?$AAe?$AAn?$AA?5?$AA?9?$AA?5?$AA?$CI?$AAs?$AA?5?$AA?9?$AA?5?$AAp?$AA?$CJ?$AA?0?$AA?5?$AAp?$AAt?$AA?9?$AA?$DO?$AAa@ 00537350     LIBCMTD:strftime.obj
 0003:000283b0       ??_C@_1FA@INCJEBF@?$AAs?$AAt?$AAr?$AAc?$AAp?$AAy?$AA_?$AAs?$AA?$CI?$AAs?$AA?0?$AA?5?$AAl?$AAe?$AAn?$AA?5?$AA?9?$AA?5?$AA?$CI?$AAs?$AA?5?$AA?9?$AA?5?$AAp?$AA?$CJ?$AA?0?$AA?5?$AAp?$AAt?$AA?9?$AA?$DO?$AAa@ 005373b0     LIBCMTD:strftime.obj
 0003:00028410       ??_C@_1FC@BEAPAEGE@?$AAs?$AAt?$AAr?$AAc?$AAp?$AAy?$AA_?$AAs?$AA?$CI?$AAs?$AA?0?$AA?5?$AAl?$AAe?$AAn?$AA?5?$AA?9?$AA?5?$AA?$CI?$AAs?$AA?5?$AA?9?$AA?5?$AAp?$AA?$CJ?$AA?0?$AA?5?$AAp?$AAt?$AA?9?$AA?$DO?$AAm@ 00537410     LIBCMTD:strftime.obj
 0003:00028478       ??_C@_1FM@CHHONFED@?$AAs?$AAt?$AAr?$AAc?$AAp?$AAy?$AA_?$AAs?$AA?$CI?$AAs?$AA?0?$AA?5?$AAl?$AAe?$AAn?$AA?5?$AA?9?$AA?5?$AA?$CI?$AAs?$AA?5?$AA?9?$AA?5?$AAp?$AA?$CJ?$AA?0?$AA?5?$AAp?$AAt?$AA?9?$AA?$DO?$AAm@ 00537478     LIBCMTD:strftime.obj
 0003:000284e8       ??_C@_1FA@EBHJJADL@?$AAs?$AAt?$AAr?$AAc?$AAp?$AAy?$AA_?$AAs?$AA?$CI?$AAs?$AA?0?$AA?5?$AAl?$AAe?$AAn?$AA?5?$AA?9?$AA?5?$AA?$CI?$AAs?$AA?5?$AA?9?$AA?5?$AAp?$AA?$CJ?$AA?0?$AA?5?$AAp?$AAt?$AA?9?$AA?$DO?$AAw@ 005374e8     LIBCMTD:strftime.obj
 0003:00028548       ??_C@_1FK@ODMKEFLD@?$AAs?$AAt?$AAr?$AAc?$AAp?$AAy?$AA_?$AAs?$AA?$CI?$AAs?$AA?0?$AA?5?$AAl?$AAe?$AAn?$AA?5?$AA?9?$AA?5?$AA?$CI?$AAs?$AA?5?$AA?9?$AA?5?$AAp?$AA?$CJ?$AA?0?$AA?5?$AAp?$AAt?$AA?9?$AA?$DO?$AAw@ 00537548     LIBCMTD:strftime.obj
 0003:000285b4       ??_C@_1BK@MJNHIAGO@?$AA_?$AAG?$AAe?$AAt?$AAt?$AAn?$AAa?$AAm?$AAe?$AAs?$AA_?$AAl?$AA?$AA@ 005375b4     LIBCMTD:strftime.obj
 0003:000285d4       ??_C@_1M@HCOOECOK@?$AAF?$AAA?$AAL?$AAS?$AAE?$AA?$AA@ 005375d4     LIBCMTD:strftime.obj
 0003:000285e8       ??_C@_1HC@JGDOBCNK@?$AA?$CI?$AA?$CC?$AAI?$AAn?$AAv?$AAa?$AAl?$AAi?$AAd?$AA?5?$AAM?$AAB?$AAC?$AAS?$AA?5?$AAc?$AAh?$AAa?$AAr?$AAa?$AAc?$AAt?$AAe?$AAr?$AA?5?$AAs?$AAe?$AAq?$AAu?$AAe?$AAn?$AAc@ 005375e8     LIBCMTD:strftime.obj
 0003:00028670       ??_C@_1BG@CCBNLOOI@?$AAt?$AAi?$AAm?$AAe?$AAp?$AAt?$AAr?$AA?$CB?$AA?$DN?$AA0?$AA?$AA@ 00537670     LIBCMTD:strftime.obj
 0003:0002868c       ??_C@_1CG@MHIOFJLE@?$AA?$CI?$AA?5?$AAf?$AAo?$AAr?$AAm?$AAa?$AAt?$AA?5?$AA?$CB?$AA?$DN?$AA?5?$AAN?$AAU?$AAL?$AAL?$AA?5?$AA?$CJ?$AA?$AA@ 0053768c     LIBCMTD:strftime.obj
 0003:000286bc       ??_C@_1CC@IHEJKGMG@?$AA?$CI?$AA?5?$AAm?$AAa?$AAx?$AAs?$AAi?$AAz?$AAe?$AA?5?$AA?$CB?$AA?$DN?$AA?5?$AA0?$AA?5?$AA?$CJ?$AA?$AA@ 005376bc     LIBCMTD:strftime.obj
 0003:000286e4       ??_C@_1BI@ONBMGNNA@?$AA_?$AAS?$AAt?$AAr?$AAf?$AAt?$AAi?$AAm?$AAe?$AA_?$AAl?$AA?$AA@ 005376e4     LIBCMTD:strftime.obj
 0003:00028700       ??_C@_1CG@MPKJHDAA@?$AA?$CI?$AA?5?$AAs?$AAt?$AAr?$AAi?$AAn?$AAg?$AA?5?$AA?$CB?$AA?$DN?$AA?5?$AAN?$AAU?$AAL?$AAL?$AA?5?$AA?$CJ?$AA?$AA@ 00537700     LIBCMTD:strftime.obj
 0003:00028730       ??_C@_1EG@JNJKHKFI@?$AA?$CI?$AA?5?$AA?$CC?$AAI?$AAn?$AAv?$AAa?$AAl?$AAi?$AAd?$AA?5?$AAf?$AAo?$AAr?$AAm?$AAa?$AAt?$AA?5?$AAd?$AAi?$AAr?$AAe?$AAc?$AAt?$AAi?$AAv?$AAe?$AA?$CC?$AA?5?$AA?0?$AA?5?$AA0@ 00537730     LIBCMTD:strftime.obj
 0003:00028788       ??_C@_1HM@LBNGKIAD@?$AA?$CI?$AA?5?$AAt?$AAi?$AAm?$AAe?$AAp?$AAt?$AAr?$AA?9?$AA?$DO?$AAt?$AAm?$AA_?$AAy?$AAe?$AAa?$AAr?$AA?5?$AA?$DO?$AA?$DN?$AA?5?$AA?9?$AA1?$AA9?$AA0?$AA0?$AA?5?$AA?$CJ?$AA?5?$AA?$CG?$AA?$CG@ 00537788     LIBCMTD:strftime.obj
 0003:0002881c       ??_C@_1DC@NMCFBMJP@?$AA?$CI?$AA?5?$AAt?$AAi?$AAm?$AAe?$AAp?$AAt?$AAr?$AA?9?$AA?$DO?$AAt?$AAm?$AA_?$AAy?$AAe?$AAa?$AAr?$AA?5?$AA?$DO?$AA?$DN?$AA0?$AA?5?$AA?$CJ?$AA?$AA@ 0053781c     LIBCMTD:strftime.obj
 0003:00028858       ??_C@_1HC@HLKHIKOB@?$AA?$CI?$AA?5?$AA?$CI?$AA?5?$AAt?$AAi?$AAm?$AAe?$AAp?$AAt?$AAr?$AA?9?$AA?$DO?$AAt?$AAm?$AA_?$AAs?$AAe?$AAc?$AA?5?$AA?$DO?$AA?$DN?$AA0?$AA?5?$AA?$CJ?$AA?5?$AA?$CG?$AA?$CG?$AA?5?$AA?$CI?$AA?5?$AAt@ 00537858     LIBCMTD:strftime.obj
 0003:000288e0       ??_C@_1HC@IGKDPPHL@?$AA?$CI?$AA?5?$AA?$CI?$AA?5?$AAt?$AAi?$AAm?$AAe?$AAp?$AAt?$AAr?$AA?9?$AA?$DO?$AAt?$AAm?$AA_?$AAm?$AAi?$AAn?$AA?5?$AA?$DO?$AA?$DN?$AA0?$AA?5?$AA?$CJ?$AA?5?$AA?$CG?$AA?$CG?$AA?5?$AA?$CI?$AA?5?$AAt@ 005378e0     LIBCMTD:strftime.obj
 0003:00028968       ??_C@_1HI@HHCJCPE@?$AA?$CI?$AA?5?$AA?$CI?$AA?5?$AAt?$AAi?$AAm?$AAe?$AAp?$AAt?$AAr?$AA?9?$AA?$DO?$AAt?$AAm?$AA_?$AAy?$AAd?$AAa?$AAy?$AA?5?$AA?$DO?$AA?$DN?$AA0?$AA?5?$AA?$CJ?$AA?5?$AA?$CG?$AA?$CG?$AA?5?$AA?$CI?$AA?5@ 00537968     LIBCMTD:strftime.obj
 0003:000289f8       ??_C@_1HG@KCGGFLNI@?$AA?$CI?$AA?5?$AA?$CI?$AA?5?$AAt?$AAi?$AAm?$AAe?$AAp?$AAt?$AAr?$AA?9?$AA?$DO?$AAt?$AAm?$AA_?$AAh?$AAo?$AAu?$AAr?$AA?5?$AA?$DO?$AA?$DN?$AA0?$AA?5?$AA?$CJ?$AA?5?$AA?$CG?$AA?$CG?$AA?5?$AA?$CI?$AA?5@ 005379f8     LIBCMTD:strftime.obj
 0003:00028a88       ??_C@_1HG@NFHHOAD@?$AA?$CI?$AA?5?$AA?$CI?$AA?5?$AAt?$AAi?$AAm?$AAe?$AAp?$AAt?$AAr?$AA?9?$AA?$DO?$AAt?$AAm?$AA_?$AAm?$AAd?$AAa?$AAy?$AA?5?$AA?$DO?$AA?$DN?$AA1?$AA?5?$AA?$CJ?$AA?5?$AA?$CG?$AA?$CG?$AA?5?$AA?$CI?$AA?5@ 00537a88     LIBCMTD:strftime.obj
 0003:00028b18       ??_C@_1HC@OOAMILFB@?$AA?$CI?$AA?5?$AA?$CI?$AA?5?$AAt?$AAi?$AAm?$AAe?$AAp?$AAt?$AAr?$AA?9?$AA?$DO?$AAt?$AAm?$AA_?$AAm?$AAo?$AAn?$AA?5?$AA?$DO?$AA?$DN?$AA0?$AA?5?$AA?$CJ?$AA?5?$AA?$CG?$AA?$CG?$AA?5?$AA?$CI?$AA?5?$AAt@ 00537b18     LIBCMTD:strftime.obj
 0003:00028ba0       ??_C@_1BI@HBKPAJH@?$AA_?$AAe?$AAx?$AAp?$AAa?$AAn?$AAd?$AAt?$AAi?$AAm?$AAe?$AA?$AA@ 00537ba0     LIBCMTD:strftime.obj
 0003:00028bc0       ??_C@_1HE@BFLEOKFO@?$AA?$CI?$AA?5?$AA?$CI?$AA?5?$AAt?$AAi?$AAm?$AAe?$AAp?$AAt?$AAr?$AA?9?$AA?$DO?$AAt?$AAm?$AA_?$AAw?$AAd?$AAa?$AAy?$AA?5?$AA?$DO?$AA?$DN?$AA0?$AA?5?$AA?$CJ?$AA?5?$AA?$CG?$AA?$CG?$AA?5?$AA?$CI?$AA?5@ 00537bc0     LIBCMTD:strftime.obj
 0003:00028c50       ??_C@_1HG@PAEENAPO@?$AA?$CI?$AA?$CC?$AAI?$AAn?$AAv?$AAa?$AAl?$AAi?$AAd?$AA?5?$AAM?$AAB?$AAC?$AAS?$AA?5?$AAc?$AAh?$AAa?$AAr?$AAa?$AAc?$AAt?$AAe?$AAr?$AA?5?$AAs?$AAe?$AAq?$AAu?$AAe?$AAn?$AAc@ 00537c50     LIBCMTD:strftime.obj
 0003:00028ce0       ??_C@_1IE@EIDABBDG@?$AA?$CI?$AA?$CC?$AAI?$AAn?$AAv?$AAa?$AAl?$AAi?$AAd?$AA?5?$AAM?$AAB?$AAC?$AAS?$AA?5?$AAc?$AAh?$AAa?$AAr?$AAa?$AAc?$AAt?$AAe?$AAr?$AA?5?$AAs?$AAe?$AAq?$AAu?$AAe?$AAn?$AAc@ 00537ce0     LIBCMTD:strftime.obj
 0003:00028d80       ??_C@_03EBAPMIKO@a?1p?$AA@ 00537d80     LIBCMTD:strftime.obj
 0003:00028d84       ??_C@_05JAMEPDIN@am?1pm?$AA@ 00537d84     LIBCMTD:strftime.obj
 0003:00028d8c       ??_C@_0O@FMJNFNKE@united?9states?$AA@ 00537d8c     LIBCMTD:getqloc.obj
 0003:00028d9c       ??_C@_0P@NDHFFKCA@united?9kingdom?$AA@ 00537d9c     LIBCMTD:getqloc.obj
 0003:00028db0       ??_C@_0BC@HHDADLGF@trinidad?5?$CG?5tobago?$AA@ 00537db0     LIBCMTD:getqloc.obj
 0003:00028dc8       ??_C@_0M@IOAEBDAC@south?9korea?$AA@ 00537dc8     LIBCMTD:getqloc.obj
 0003:00028dd8       ??_C@_0N@FIELFKIJ@south?9africa?$AA@ 00537dd8     LIBCMTD:getqloc.obj
 0003:00028de8       ??_C@_0M@OPNDHCMC@south?5korea?$AA@ 00537de8     LIBCMTD:getqloc.obj
 0003:00028df8       ??_C@_0N@MDEOEPFI@south?5africa?$AA@ 00537df8     LIBCMTD:getqloc.obj
 0003:00028e08       ??_C@_06FKAPCJLB@slovak?$AA@ 00537e08     LIBCMTD:getqloc.obj
 0003:00028e10       ??_C@_0M@EFJANOAL@puerto?9rico?$AA@ 00537e10     LIBCMTD:getqloc.obj
 0003:00028e20       ??_C@_08PGOJKDAI@pr?9china?$AA@ 00537e20     LIBCMTD:getqloc.obj
 0003:00028e2c       ??_C@_08JHDOMCMI@pr?5china?$AA@ 00537e2c     LIBCMTD:getqloc.obj
 0003:00028e38       ??_C@_02JHCHFBLL@nz?$AA@   00537e38     LIBCMTD:getqloc.obj
 0003:00028e3c       ??_C@_0M@LINHDHKP@new?9zealand?$AA@ 00537e3c     LIBCMTD:getqloc.obj
 0003:00028e4c       ??_C@_09IIIPPBDB@hong?9kong?$AA@ 00537e4c     LIBCMTD:getqloc.obj
 0003:00028e58       ??_C@_07HJLCKBG@holland?$AA@ 00537e58     LIBCMTD:getqloc.obj
 0003:00028e64       ??_C@_0O@LEHGMHAG@great?5britain?$AA@ 00537e64     LIBCMTD:getqloc.obj
 0003:00028e74       ??_C@_07FACOMELA@england?$AA@ 00537e74     LIBCMTD:getqloc.obj
 0003:00028e80       ??_C@_05JIHCEICB@czech?$AA@ 00537e80     LIBCMTD:getqloc.obj
 0003:00028e88       ??_C@_05BBJOBLGB@china?$AA@ 00537e88     LIBCMTD:getqloc.obj
 0003:00028e90       ??_C@_07GPKPHICP@britain?$AA@ 00537e90     LIBCMTD:getqloc.obj
 0003:00028e9c       ??_C@_07MHIPBHMG@america?$AA@ 00537e9c     LIBCMTD:getqloc.obj
 0003:00028ea8       ??_C@_03KIALPMKC@usa?$AA@  00537ea8     LIBCMTD:getqloc.obj
 0003:00028eac       ??_C@_02FGJGKGGD@us?$AA@   00537eac     LIBCMTD:getqloc.obj
 0003:00028eb0       ??_C@_02NEINDODK@uk?$AA@   00537eb0     LIBCMTD:getqloc.obj
 0003:00028eb4       ??_C@_05JMPCFJFJ@swiss?$AA@ 00537eb4     LIBCMTD:getqloc.obj
 0003:00028ebc       ??_C@_0BA@HLOCPIOD@swedish?9finland?$AA@ 00537ebc     LIBCMTD:getqloc.obj
 0003:00028ed0       ??_C@_0BC@PKCNIABK@spanish?9venezuela?$AA@ 00537ed0     LIBCMTD:getqloc.obj
 0003:00028ee8       ??_C@_0BA@GBHHMIJI@spanish?9uruguay?$AA@ 00537ee8     LIBCMTD:getqloc.obj
 0003:00028efc       ??_C@_0BE@BHDOHPMC@spanish?9puerto?5rico?$AA@ 00537efc     LIBCMTD:getqloc.obj
 0003:00028f14       ??_C@_0N@KMOIDGGN@spanish?9peru?$AA@ 00537f14     LIBCMTD:getqloc.obj
 0003:00028f24       ??_C@_0BB@HMHLPGPH@spanish?9paraguay?$AA@ 00537f24     LIBCMTD:getqloc.obj
 0003:00028f38       ??_C@_0P@MCPKNGFD@spanish?9panama?$AA@ 00537f38     LIBCMTD:getqloc.obj
 0003:00028f4c       ??_C@_0BC@IHOHGAIL@spanish?9nicaragua?$AA@ 00537f4c     LIBCMTD:getqloc.obj
 0003:00028f64       ??_C@_0P@KLMJDNFJ@spanish?9modern?$AA@ 00537f64     LIBCMTD:getqloc.obj
 0003:00028f78       ??_C@_0BA@BPAPGBCM@spanish?9mexican?$AA@ 00537f78     LIBCMTD:getqloc.obj
 0003:00028f8c       ??_C@_0BB@PDECHHHE@spanish?9honduras?$AA@ 00537f8c     LIBCMTD:getqloc.obj
 0003:00028fa0       ??_C@_0BC@KLHKFGDB@spanish?9guatemala?$AA@ 00537fa0     LIBCMTD:getqloc.obj
 0003:00028fb8       ??_C@_0BE@MFOOKJAI@spanish?9el?5salvador?$AA@ 00537fb8     LIBCMTD:getqloc.obj
 0003:00028fd0       ??_C@_0BA@FCOKFPFC@spanish?9ecuador?$AA@ 00537fd0     LIBCMTD:getqloc.obj
 0003:00028fe4       ??_C@_0BL@PLMGIMOO@spanish?9dominican?5republic?$AA@ 00537fe4     LIBCMTD:getqloc.obj
 0003:00029004       ??_C@_0BD@HLGDNMHB@spanish?9costa?5rica?$AA@ 00538004     LIBCMTD:getqloc.obj
 0003:0002901c       ??_C@_0BB@PKCBKCPE@spanish?9colombia?$AA@ 0053801c     LIBCMTD:getqloc.obj
 0003:00029030       ??_C@_0O@MCBIJGNE@spanish?9chile?$AA@ 00538030     LIBCMTD:getqloc.obj
 0003:00029040       ??_C@_0BA@BEFEIGJJ@spanish?9bolivia?$AA@ 00538040     LIBCMTD:getqloc.obj
 0003:00029054       ??_C@_0BC@EMECMPD@spanish?9argentina?$AA@ 00538054     LIBCMTD:getqloc.obj
 0003:0002906c       ??_C@_0BF@EALFLENP@portuguese?9brazilian?$AA@ 0053806c     LIBCMTD:getqloc.obj
 0003:00029088       ??_C@_0BC@HBLEBLNN@norwegian?9nynorsk?$AA@ 00538088     LIBCMTD:getqloc.obj
 0003:000290a0       ??_C@_0BB@HMACDDCK@norwegian?9bokmal?$AA@ 005380a0     LIBCMTD:getqloc.obj
 0003:000290b4       ??_C@_09BAFFPPHE@norwegian?$AA@ 005380b4     LIBCMTD:getqloc.obj
 0003:000290c0       ??_C@_0O@EAJFJDFG@italian?9swiss?$AA@ 005380c0     LIBCMTD:getqloc.obj
 0003:000290d0       ??_C@_0O@CNOMPGD@irish?9english?$AA@ 005380d0     LIBCMTD:getqloc.obj
 0003:000290e0       ??_C@_0N@EDHBGCKG@german?9swiss?$AA@ 005380e0     LIBCMTD:getqloc.obj
 0003:000290f0       ??_C@_0BC@JACMHNBP@german?9luxembourg?$AA@ 005380f0     LIBCMTD:getqloc.obj
 0003:00029108       ??_C@_0BE@HBGMGFEG@german?9lichtenstein?$AA@ 00538108     LIBCMTD:getqloc.obj
 0003:00029120       ??_C@_0BA@HKKBIBKL@german?9austrian?$AA@ 00538120     LIBCMTD:getqloc.obj
 0003:00029134       ??_C@_0N@GCAEPEBK@french?9swiss?$AA@ 00538134     LIBCMTD:getqloc.obj
 0003:00029144       ??_C@_0BC@DJFJJCK@french?9luxembourg?$AA@ 00538144     LIBCMTD:getqloc.obj
 0003:0002915c       ??_C@_0BA@NNCEDFIC@french?9canadian?$AA@ 0053815c     LIBCMTD:getqloc.obj
 0003:00029170       ??_C@_0P@CMPOCLM@french?9belgian?$AA@ 00538170     LIBCMTD:getqloc.obj
 0003:00029184       ??_C@_0M@GHHDJOK@english?9usa?$AA@ 00538184     LIBCMTD:getqloc.obj
 0003:00029194       ??_C@_0L@PLDJKEIL@english?9us?$AA@ 00538194     LIBCMTD:getqloc.obj
 0003:000291a4       ??_C@_0L@HJCCDMNC@english?9uk?$AA@ 005381a4     LIBCMTD:getqloc.obj
 0003:000291b4       ??_C@_0BK@CKLIAGJB@english?9trinidad?5y?5tobago?$AA@ 005381b4     LIBCMTD:getqloc.obj
 0003:000291d4       ??_C@_0BF@JMJMGNNF@english?9south?5africa?$AA@ 005381d4     LIBCMTD:getqloc.obj
 0003:000291f0       ??_C@_0L@DKIIFDFD@english?9nz?$AA@ 005381f0     LIBCMTD:getqloc.obj
 0003:00029200       ??_C@_0BA@ONHGJCLH@english?9jamaica?$AA@ 00538200     LIBCMTD:getqloc.obj
 0003:00029214       ??_C@_0M@HJBGHOPO@english?9ire?$AA@ 00538214     LIBCMTD:getqloc.obj
 0003:00029224       ??_C@_0BC@LFEKMIFB@english?9caribbean?$AA@ 00538224     LIBCMTD:getqloc.obj
 0003:0002923c       ??_C@_0M@OLDPFKHI@english?9can?$AA@ 0053823c     LIBCMTD:getqloc.obj
 0003:0002924c       ??_C@_0P@OMDEHBMP@english?9belize?$AA@ 0053824c     LIBCMTD:getqloc.obj
 0003:00029260       ??_C@_0M@KFHFPFED@english?9aus?$AA@ 00538260     LIBCMTD:getqloc.obj
 0003:00029270       ??_C@_0BB@MNMBKDFE@english?9american?$AA@ 00538270     LIBCMTD:getqloc.obj
 0003:00029284       ??_C@_0O@KIDLNNBA@dutch?9belgian?$AA@ 00538284     LIBCMTD:getqloc.obj
 0003:00029294       ??_C@_0BE@JBKABBMH@chinese?9traditional?$AA@ 00538294     LIBCMTD:getqloc.obj
 0003:000292ac       ??_C@_0BC@MJJMPKCG@chinese?9singapore?$AA@ 005382ac     LIBCMTD:getqloc.obj
 0003:000292c4       ??_C@_0BD@FDKADDCP@chinese?9simplified?$AA@ 005382c4     LIBCMTD:getqloc.obj
 0003:000292dc       ??_C@_0BB@DBEFDDME@chinese?9hongkong?$AA@ 005382dc     LIBCMTD:getqloc.obj
 0003:000292f0       ??_C@_07DHNMFMCI@chinese?$AA@ 005382f0     LIBCMTD:getqloc.obj
 0003:000292fc       ??_C@_03FNDDCHI@chi?$AA@   005382fc     LIBCMTD:getqloc.obj
 0003:00029300       ??_C@_03BMMIADDJ@chh?$AA@  00538300     LIBCMTD:getqloc.obj
 0003:00029304       ??_C@_08OAIPJDGI@canadian?$AA@ 00538304     LIBCMTD:getqloc.obj
 0003:00029310       ??_C@_07HBPMNPNJ@belgian?$AA@ 00538310     LIBCMTD:getqloc.obj
 0003:0002931c       ??_C@_0L@OEKOPBEL@australian?$AA@ 0053831c     LIBCMTD:getqloc.obj
 0003:0002932c       ??_C@_0BB@MEIMBEDG@american?9english?$AA@ 0053832c     LIBCMTD:getqloc.obj
 0003:00029340       ??_C@_0BB@DFMDPDGB@american?5english?$AA@ 00538340     LIBCMTD:getqloc.obj
 0003:00029354       ??_C@_08IJLOKOLL@american?$AA@ 00538354     LIBCMTD:getqloc.obj
 0003:00029360       ___rg_language             00538360     LIBCMTD:getqloc.obj
 0003:000295d0       ___rg_country              005385d0     LIBCMTD:getqloc.obj
 0003:000296ac       ___rglangidNotDefault      005386ac     LIBCMTD:getqloc.obj
 0003:000296c4       ??_C@_0BC@NFIEMBLL@Norwegian?9Nynorsk?$AA@ 005386c4     LIBCMTD:getqloc.obj
 0003:000296e0       ??_C@_1OM@OECHDGCF@?$AAs?$AAt?$AAr?$AAc?$AAp?$AAy?$AA_?$AAs?$AA?$CI?$AAl?$AAp?$AAO?$AAu?$AAt?$AAS?$AAt?$AAr?$AA?9?$AA?$DO?$AAs?$AAz?$AAL?$AAa?$AAn?$AAg?$AAu?$AAa?$AAg?$AAe?$AA?0?$AA?5?$AA?$CI@ 005386e0     LIBCMTD:getqloc.obj
 0003:000297fc       ??_C@_1CO@NJACLALJ@?$AA_?$AA_?$AAg?$AAe?$AAt?$AA_?$AAq?$AAu?$AAa?$AAl?$AAi?$AAf?$AAi?$AAe?$AAd?$AA_?$AAl?$AAo?$AAc?$AAa?$AAl?$AAe?$AA?$AA@ 005387fc     LIBCMTD:getqloc.obj
 0003:00029834       ??_C@_1BE@GIJNDGB@?$AAg?$AAe?$AAt?$AAq?$AAl?$AAo?$AAc?$AA?4?$AAc?$AA?$AA@ 00538834     LIBCMTD:getqloc.obj
 0003:0002984c       ??_C@_03NFKLAGEF@OCP?$AA@  0053884c     LIBCMTD:getqloc.obj
 0003:00029850       ??_C@_03DFHEHBHG@ACP?$AA@  00538850     LIBCMTD:getqloc.obj
 0003:00029854       ??_C@_1BK@CDOALEA@?$AA_?$AAc?$AAo?$AAn?$AAt?$AAr?$AAo?$AAl?$AAf?$AAp?$AA_?$AAs?$AA?$AA@ 00538854     LIBCMTD:contrlfp.obj
 0003:00029874       ??_C@_1BG@MIJAHIEN@?$AAc?$AAo?$AAn?$AAt?$AAr?$AAl?$AAf?$AAp?$AA?4?$AAc?$AA?$AA@ 00538874     LIBCMTD:contrlfp.obj
 0003:00029890       ??_C@_1DG@JNDMIEJL@?$AA?$CI?$AA?$CC?$AAI?$AAn?$AAv?$AAa?$AAl?$AAi?$AAd?$AA?5?$AAi?$AAn?$AAp?$AAu?$AAt?$AA?5?$AAv?$AAa?$AAl?$AAu?$AAe?$AA?$CC?$AA?0?$AA?5?$AA0?$AA?$CJ?$AA?$AA@ 00538890     LIBCMTD:contrlfp.obj
 0003:000298d0       ??_C@_1BK@CLIEHFDF@?$AAp?$AAf?$AAl?$AAt?$AA?5?$AA?$CB?$AA?$DN?$AA?5?$AAN?$AAU?$AAL?$AAL?$AA?$AA@ 005388d0     LIBCMTD:_fptostr.obj
 0003:000298f0       ??_C@_1GM@CEDLGDDI@?$AAs?$AAi?$AAz?$AAe?$AAI?$AAn?$AAB?$AAy?$AAt?$AAe?$AAs?$AA?5?$AA?$DO?$AA?5?$AA?$CI?$AAs?$AAi?$AAz?$AAe?$AA_?$AAt?$AA?$CJ?$AA?$CI?$AA?$CI?$AAd?$AAi?$AAg?$AAi?$AAt?$AAs?$AA?5?$AA?$DO@ 005388f0     LIBCMTD:_fptostr.obj
 0003:00029974       ??_C@_1BC@OPALLEB@?$AA_?$AAf?$AAp?$AAt?$AAo?$AAs?$AAt?$AAr?$AA?$AA@ 00538974     LIBCMTD:_fptostr.obj
 0003:0002998c       ??_C@_1BG@NJCNOLI@?$AA_?$AAf?$AAp?$AAt?$AAo?$AAs?$AAt?$AAr?$AA?4?$AAc?$AA?$AA@ 0053898c     LIBCMTD:_fptostr.obj
 0003:000299a8       ??_C@_1FK@KODCOBKF@?$AAs?$AAt?$AAr?$AAc?$AAp?$AAy?$AA_?$AAs?$AA?$CI?$AAr?$AAe?$AAs?$AAu?$AAl?$AAt?$AAs?$AAt?$AAr?$AA?0?$AA?5?$AAr?$AAe?$AAs?$AAu?$AAl?$AAt?$AAs?$AAi?$AAz?$AAe?$AA?0?$AA?5@ 005389a8     LIBCMTD:cfout.obj
 0003:00029a14       ??_C@_1BC@BPMMEHLK@?$AA_?$AAf?$AAl?$AAt?$AAo?$AAu?$AAt?$AA2?$AA?$AA@ 00538a14     LIBCMTD:cfout.obj
 0003:00029a2c       ??_C@_1BA@BFLFHCE@?$AAc?$AAf?$AAo?$AAu?$AAt?$AA?4?$AAc?$AA?$AA@ 00538a2c     LIBCMTD:cfout.obj
 0003:00029a40       ??_C@_1CG@EBJECAJM@?$AA_?$AAs?$AAe?$AAt?$AA_?$AAo?$AAu?$AAt?$AAp?$AAu?$AAt?$AA_?$AAf?$AAo?$AAr?$AAm?$AAa?$AAt?$AA?$AA@ 00538a40     LIBCMTD:outputformat.obj
 0003:00029a70       ??_C@_1BO@GAIJFBKM@?$AAo?$AAu?$AAt?$AAp?$AAu?$AAt?$AAf?$AAo?$AAr?$AAm?$AAa?$AAt?$AA?4?$AAc?$AA?$AA@ 00538a70     LIBCMTD:outputformat.obj
 0003:00029a98       ??_C@_1EM@EGEEBJLG@?$AA?$CI?$AAo?$AAp?$AAt?$AAi?$AAo?$AAn?$AAs?$AA?5?$AA?$CG?$AA?5?$AA?$HO?$AA_?$AAT?$AAW?$AAO?$AA_?$AAD?$AAI?$AAG?$AAI?$AAT?$AA_?$AAE?$AAX?$AAP?$AAO?$AAN?$AAE?$AAN?$AAT?$AA?$CJ@ 00538a98     LIBCMTD:outputformat.obj
 0003:00029af8       __atan_table               00538af8     LIBCMTD:atan_table.obj
 0003:0002b7d8       ??_C@_09MGNHMPHC@osfinfo?4c?$AA@ 0053a7d8     LIBCMTD:osfinfo.obj
 0003:0002b7e4       ??_C@_1BO@EMBOBGKE@?$AA_?$AAg?$AAe?$AAt?$AA_?$AAo?$AAs?$AAf?$AAh?$AAa?$AAn?$AAd?$AAl?$AAe?$AA?$AA@ 0053a7e4     LIBCMTD:osfinfo.obj
 0003:0002b808       ??_C@_1BE@MIGAHMPD@?$AAo?$AAs?$AAf?$AAi?$AAn?$AAf?$AAo?$AA?4?$AAc?$AA?$AA@ 0053a808     LIBCMTD:osfinfo.obj
 0003:0002b820       ??_C@_1CG@JEHFHLNG@?$AA_?$AAm?$AAb?$AAs?$AAt?$AAo?$AAw?$AAc?$AAs?$AA_?$AAl?$AA_?$AAh?$AAe?$AAl?$AAp?$AAe?$AAr?$AA?$AA@ 0053a820     LIBCMTD:mbstowcs.obj
 0003:0002b850       ??_C@_1BG@KMBPFIPB@?$AAm?$AAb?$AAs?$AAt?$AAo?$AAw?$AAc?$AAs?$AA?4?$AAc?$AA?$AA@ 0053a850     LIBCMTD:mbstowcs.obj
 0003:0002b86c       ??_C@_1BE@EEKACIGI@?$AAs?$AA?5?$AA?$CB?$AA?$DN?$AA?5?$AAN?$AAU?$AAL?$AAL?$AA?$AA@ 0053a86c     LIBCMTD:mbstowcs.obj
 0003:0002b884       ??_C@_1CO@JNPEPJAL@?$AAr?$AAe?$AAt?$AAs?$AAi?$AAz?$AAe?$AA?5?$AA?$DM?$AA?$DN?$AA?5?$AAs?$AAi?$AAz?$AAe?$AAI?$AAn?$AAW?$AAo?$AAr?$AAd?$AAs?$AA?$AA@ 0053a884     LIBCMTD:mbstowcs.obj
 0003:0002b8bc       ??_C@_1BM@PHENIGHD@?$AA_?$AAm?$AAb?$AAs?$AAt?$AAo?$AAw?$AAc?$AAs?$AA_?$AAs?$AA_?$AAl?$AA?$AA@ 0053a8bc     LIBCMTD:mbstowcs.obj
 0003:0002b8e0       ??_C@_1JA@JKDFMOPO@?$AA?$CI?$AAp?$AAw?$AAc?$AAs?$AA?5?$AA?$DN?$AA?$DN?$AA?5?$AAN?$AAU?$AAL?$AAL?$AA?5?$AA?$CG?$AA?$CG?$AA?5?$AAs?$AAi?$AAz?$AAe?$AAI?$AAn?$AAW?$AAo?$AAr?$AAd?$AAs?$AA?5?$AA?$DN?$AA?$DN?$AA?5@ 0053a8e0     LIBCMTD:mbstowcs.obj
 0003:0002b98c       ??_C@_1BK@EPLNBKAK@?$AA_?$AAv?$AAs?$AAw?$AAp?$AAr?$AAi?$AAn?$AAt?$AAf?$AA_?$AAl?$AA?$AA@ 0053a98c     LIBCMTD:vswprint.obj
 0003:0002b9ac       ??_C@_1BG@BELBGCGO@?$AAv?$AAs?$AAw?$AAp?$AAr?$AAi?$AAn?$AAt?$AA?4?$AAc?$AA?$AA@ 0053a9ac     LIBCMTD:vswprint.obj
 0003:0002b9c8       ??_C@_1CG@IMMIEPNA@?$AA_?$AAv?$AAs?$AAc?$AAw?$AAp?$AAr?$AAi?$AAn?$AAt?$AAf?$AA_?$AAh?$AAe?$AAl?$AAp?$AAe?$AAr?$AA?$AA@ 0053a9c8     LIBCMTD:vswprint.obj
 0003:0002b9f8       ??_C@_1O@EDEJGJBM@?$AA_?$AAc?$AAl?$AAo?$AAs?$AAe?$AA?$AA@ 0053a9f8     LIBCMTD:close.obj
 0003:0002ba08       ??_C@_1BA@GOGDMMEN@?$AAc?$AAl?$AAo?$AAs?$AAe?$AA?4?$AAc?$AA?$AA@ 0053aa08     LIBCMTD:close.obj
 0003:0002ba1c       ??_C@_1BA@NGNGNDEP@?$AA_?$AAc?$AAp?$AAu?$AAt?$AAw?$AAs?$AA?$AA@ 0053aa1c     LIBCMTD:putwch.obj
 0003:0002ba30       ??_C@_1BC@HKEJKGAG@?$AAp?$AAu?$AAt?$AAw?$AAc?$AAh?$AA?4?$AAc?$AA?$AA@ 0053aa30     LIBCMTD:putwch.obj
 0003:0002ba48       ??_C@_1BC@MFKEFFNI@?$AAm?$AAb?$AAt?$AAo?$AAw?$AAc?$AA?4?$AAc?$AA?$AA@ 0053aa48     LIBCMTD:mbtowc.obj
 0003:0002ba60       ??_C@_1NC@EINCOKCO@?$AA_?$AAl?$AAo?$AAc?$AA_?$AAu?$AAp?$AAd?$AAa?$AAt?$AAe?$AA?4?$AAG?$AAe?$AAt?$AAL?$AAo?$AAc?$AAa?$AAl?$AAe?$AAT?$AA?$CI?$AA?$CJ?$AA?9?$AA?$DO?$AAl?$AAo?$AAc?$AAi?$AAn?$AAf@ 0053aa60     LIBCMTD:mbtowc.obj
 0003:0002bb5c       ??_C@_1O@HJNPHHHB@?$AAf?$AAp?$AAu?$AAt?$AAw?$AAc?$AA?$AA@ 0053ab5c     LIBCMTD:fputwc.obj
 0003:0002bb6c       ??_C@_1BC@LJHBJFMP@?$AAf?$AAp?$AAu?$AAt?$AAw?$AAc?$AA?4?$AAc?$AA?$AA@ 0053ab6c     LIBCMTD:fputwc.obj
 0003:0002bb84       ??_C@_1BM@BENFBNLI@?$AA_?$AAm?$AAb?$AAs?$AAn?$AAb?$AAc?$AAa?$AAt?$AA_?$AAs?$AA_?$AAl?$AA?$AA@ 0053ab84     LIBCMTD:mbsnbcat_s_l.obj
 0003:0002bba8       ??_C@_1GK@LCCDCHEO@?$AAF?$AA?3?$AA?2?$AAS?$AAP?$AA?2?$AAv?$AAc?$AAt?$AAo?$AAo?$AAl?$AAs?$AA?2?$AAc?$AAr?$AAt?$AA_?$AAb?$AAl?$AAd?$AA?2?$AAS?$AAE?$AAL?$AAF?$AA_?$AAX?$AA8?$AA6?$AA?2?$AAc@ 0053aba8     LIBCMTD:mbsnbcat_s_l.obj
 0003:0002bc28       ??_C@_1BM@HBMHMBEM@?$AA_?$AAm?$AAb?$AAs?$AAn?$AAb?$AAc?$AAp?$AAy?$AA_?$AAs?$AA_?$AAl?$AA?$AA@ 0053ac28     LIBCMTD:mbsnbcpy_s_l.obj
 0003:0002bc50       ??_C@_1GK@HKJIIPOO@?$AAF?$AA?3?$AA?2?$AAS?$AAP?$AA?2?$AAv?$AAc?$AAt?$AAo?$AAo?$AAl?$AAs?$AA?2?$AAc?$AAr?$AAt?$AA_?$AAb?$AAl?$AAd?$AA?2?$AAS?$AAE?$AAL?$AAF?$AA_?$AAX?$AA8?$AA6?$AA?2?$AAc@ 0053ac50     LIBCMTD:mbsnbcpy_s_l.obj
 0003:0002bcd0       ??_C@_1CA@OEHMHBJF@?$AAv?$AAf?$AAp?$AAr?$AAi?$AAn?$AAt?$AAf?$AA_?$AAh?$AAe?$AAl?$AAp?$AAe?$AAr?$AA?$AA@ 0053acd0     LIBCMTD:vfprintf.obj
 0003:0002bcf8       ??_C@_1BG@OKHDPPCK@?$AAv?$AAf?$AAp?$AAr?$AAi?$AAn?$AAt?$AAf?$AA?4?$AAc?$AA?$AA@ 0053acf8     LIBCMTD:vfprintf.obj
 0003:0002bd14       ??_C@_1BA@PCFLFGNC@?$AAw?$AAc?$AAs?$AAt?$AAo?$AAx?$AAl?$AA?$AA@ 0053ad14     LIBCMTD:wcstol.obj
 0003:0002bd28       ??_C@_1BC@KCPEGNFM@?$AAw?$AAc?$AAs?$AAt?$AAo?$AAl?$AA?4?$AAc?$AA?$AA@ 0053ad28     LIBCMTD:wcstol.obj
 0003:0002bd40       ??_C@_0BO@GNIAFIKK@Unknown?5Runtime?5Check?5Error?6?$AN?$AA@ 0053ad40     LIBCMTD:error.obj
 0003:0002bd64       ??_C@_0CM@NGINOKPC@Stack?5memory?5around?5_alloca?5was?5@ 0053ad64     LIBCMTD:error.obj
 0003:0002bd98       ??_C@_0DG@HKJMLLLP@A?5local?5variable?5was?5used?5before@ 0053ad98     LIBCMTD:error.obj
 0003:0002bdd8       ??_C@_0BN@FFOINMNJ@Stack?5memory?5was?5corrupted?6?$AN?$AA@ 0053add8     LIBCMTD:error.obj
 0003:0002be00       ??_C@_0BBN@GPMLNJCF@A?5cast?5to?5a?5smaller?5data?5type?5ha@ 0053ae00     LIBCMTD:error.obj
 0003:0002bf58       ??_C@_0NN@NGPKDKPD@The?5value?5of?5ESP?5was?5not?5properl@ 0053af58     LIBCMTD:error.obj
 0003:0002c104       ??_C@_0CA@IODNCDPG@Run?9Time?5Check?5Failure?5?$CD?$CFd?5?9?5?$CFs?$AA@ 0053b104     LIBCMTD:error.obj
 0003:0002c12c       ??_C@_0BE@GNBOBNCK@Unknown?5Module?5Name?$AA@ 0053b12c     LIBCMTD:error.obj
 0003:0002c144       ??_C@_0BB@PFFGGCJP@Unknown?5Filename?$AA@ 0053b144     LIBCMTD:error.obj
 0003:0002c158       ??_C@_1EA@NFKNIFJP@?$AAR?$AAu?$AAn?$AA?9?$AAT?$AAi?$AAm?$AAe?$AA?5?$AAC?$AAh?$AAe?$AAc?$AAk?$AA?5?$AAF?$AAa?$AAi?$AAl?$AAu?$AAr?$AAe?$AA?5?$AA?$CD?$AA?$CF?$AAd?$AA?5?$AA?9?$AA?5?$AA?$CF?$AAs?$AA?$AA@ 0053b158     LIBCMTD:error.obj
 0003:0002c1a8       ??_C@_1GM@OLMCBDMB@?$AAR?$AAu?$AAn?$AAt?$AAi?$AAm?$AAe?$AA?5?$AAC?$AAh?$AAe?$AAc?$AAk?$AA?5?$AAE?$AAr?$AAr?$AAo?$AAr?$AA?4?$AA?6?$AA?$AN?$AA?5?$AAU?$AAn?$AAa?$AAb?$AAl?$AAe?$AA?5?$AAt?$AAo@ 0053b1a8     LIBCMTD:error.obj
 0003:0002c22c       ??_C@_0CG@IAFNJNEE@Stack?5corrupted?5near?5unknown?5var@ 0053b22c     LIBCMTD:error.obj
 0003:0002c260       ??_C@_0EJ@LJKNEOLN@Stack?5area?5around?5_alloca?5memory@ 0053b260     LIBCMTD:error.obj
 0003:0002c2b8       ??_C@_02LLMPMKNF@?$DO?5?$AA@ 0053b2b8     LIBCMTD:error.obj
 0003:0002c2bc       ??_C@_0BC@KIBAILCI@?$CFs?$CFs?$CFp?$CFs?$CFld?$CFs?$CFd?$CFs?$AA@ 0053b2bc     LIBCMTD:error.obj
 0003:0002c2d8       ??_C@_0EI@CLEPFNGI@Stack?5area?5around?5_alloca?5memory@ 0053b2d8     LIBCMTD:error.obj
 0003:0002c330       ??_C@_0N@MHFFIMFG@?6Address?3?50x?$AA@ 0053b330     LIBCMTD:error.obj
 0003:0002c340       ??_C@_07DFDJCKFN@?6Size?3?5?$AA@ 0053b340     LIBCMTD:error.obj
 0003:0002c34c       ??_C@_0CK@DKGBICFE@?6Allocation?5number?5within?5this?5f@ 0053b34c     LIBCMTD:error.obj
 0003:0002c380       ??_C@_08OMAHNMHJ@?6Data?3?5?$DM?$AA@ 0053b380     LIBCMTD:error.obj
 0003:0002c38c       ??_C@_09FOPFMPEJ@wsprintfA?$AA@ 0053b38c     LIBCMTD:error.obj
 0003:0002c398       ??_C@_0L@GMPLCCII@user32?4dll?$AA@ 0053b398     LIBCMTD:error.obj
 0003:0002c3a8       ??_C@_0DE@OHJBPMBP@A?5variable?5is?5being?5used?5without@ 0053b3a8     LIBCMTD:error.obj
 0003:0002c3e8       ??_C@_0P@GHFPNOJB@bad?5allocation?$AA@ 0053b3e8     LIBCMTD:frame.obj
 0003:0002c3fc       __pDestructExceptionObject 0053b3fc     LIBCMTD:frame.obj
 0003:0002c400       ??_C@_0O@DPKOEFFH@bad?5exception?$AA@ 0053b400     LIBCMTD:frame.obj
 0003:0002c414       ??_7bad_exception@std@@6B@ 0053b414     LIBCMTD:frame.obj
 0003:0002c420       ??_C@_0L@KBNGFDKM@convrtcp?4c?$AA@ 0053b420     LIBCMTD:convrtcp.obj
 0003:0002c430       ___dnames                  0053b430     LIBCMTD:timeset.obj
 0003:0002c448       ___mnames                  0053b448     LIBCMTD:timeset.obj
 0003:0002c47c       ??_C@_1BM@FIMHBHEB@?$AA_?$AAg?$AAe?$AAt?$AA_?$AAd?$AAa?$AAy?$AAl?$AAi?$AAg?$AAh?$AAt?$AA?$AA@ 0053b47c     LIBCMTD:timeset.obj
 0003:0002c4a0       ??_C@_1BE@OINBFMF@?$AAt?$AAi?$AAm?$AAe?$AAs?$AAe?$AAt?$AA?4?$AAc?$AA?$AA@ 0053b4a0     LIBCMTD:timeset.obj
 0003:0002c4b8       ??_C@_1CI@MKJEHFPG@?$AA?$CI?$AA_?$AAD?$AAa?$AAy?$AAl?$AAi?$AAg?$AAh?$AAt?$AA?5?$AA?$CB?$AA?$DN?$AA?5?$AAN?$AAU?$AAL?$AAL?$AA?$CJ?$AA?$AA@ 0053b4b8     LIBCMTD:timeset.obj
 0003:0002c4e8       ??_C@_1BK@EMODDHEE@?$AA_?$AAg?$AAe?$AAt?$AA_?$AAd?$AAs?$AAt?$AAb?$AAi?$AAa?$AAs?$AA?$AA@ 0053b4e8     LIBCMTD:timeset.obj
 0003:0002c508       ??_C@_1EC@PKDJPAAB@?$AA?$CI?$AA_?$AAD?$AAa?$AAy?$AAl?$AAi?$AAg?$AAh?$AAt?$AA_?$AAs?$AAa?$AAv?$AAi?$AAn?$AAg?$AAs?$AA_?$AAb?$AAi?$AAa?$AAs?$AA?5?$AA?$CB?$AA?$DN?$AA?5?$AAN?$AAU?$AAL?$AAL?$AA?$CJ@ 0053b508     LIBCMTD:timeset.obj
 0003:0002c558       ??_C@_1BM@MGEAKPEJ@?$AA_?$AAg?$AAe?$AAt?$AA_?$AAt?$AAi?$AAm?$AAe?$AAz?$AAo?$AAn?$AAe?$AA?$AA@ 0053b558     LIBCMTD:timeset.obj
 0003:0002c57c       ??_C@_1CI@PODJJGAL@?$AA?$CI?$AA_?$AAT?$AAi?$AAm?$AAe?$AAz?$AAo?$AAn?$AAe?$AA?5?$AA?$CB?$AA?$DN?$AA?5?$AAN?$AAU?$AAL?$AAL?$AA?$CJ?$AA?$AA@ 0053b57c     LIBCMTD:timeset.obj
 0003:0002c5ac       ??_C@_1DG@HLGKANIP@?$AA_?$AAI?$AAn?$AAd?$AAe?$AAx?$AA?5?$AA?$DN?$AA?$DN?$AA?5?$AA0?$AA?5?$AA?$HM?$AA?$HM?$AA?5?$AA_?$AAI?$AAn?$AAd?$AAe?$AAx?$AA?5?$AA?$DN?$AA?$DN?$AA?5?$AA1?$AA?$AA@ 0053b5ac     LIBCMTD:timeset.obj
 0003:0002c5ec       ??_C@_1CK@GBKHKEI@?$AA_?$AAR?$AAe?$AAt?$AAu?$AAr?$AAn?$AAV?$AAa?$AAl?$AAu?$AAe?$AA?5?$AA?$CB?$AA?$DN?$AA?5?$AAN?$AAU?$AAL?$AAL?$AA?$AA@ 0053b5ec     LIBCMTD:timeset.obj
 0003:0002c620       ??_C@_1BI@BHCKCCFA@?$AA_?$AAg?$AAe?$AAt?$AA_?$AAt?$AAz?$AAn?$AAa?$AAm?$AAe?$AA?$AA@ 0053b620     LIBCMTD:timeset.obj
 0003:0002c640       ??_C@_1KA@POFLNEC@?$AA?$CI?$AA_?$AAB?$AAu?$AAf?$AAf?$AAe?$AAr?$AA?5?$AA?$CB?$AA?$DN?$AA?5?$AAN?$AAU?$AAL?$AAL?$AA?5?$AA?$CG?$AA?$CG?$AA?5?$AA_?$AAS?$AAi?$AAz?$AAe?$AAI?$AAn?$AAB?$AAy?$AAt?$AAe?$AAs@ 0053b640     LIBCMTD:timeset.obj
 0003:0002c700       ??_C@_1EA@GEPBEDLJ@?$AAs?$AAt?$AAr?$AAn?$AAc?$AAp?$AAy?$AA_?$AAs?$AA?$CI?$AAt?$AAz?$AAn?$AAa?$AAm?$AAe?$AA?$FL?$AA1?$AA?$FN?$AA?0?$AA?5?$AA6?$AA4?$AA?0?$AA?5?$AAT?$AAZ?$AA?0?$AA?5?$AA3?$AA?$CJ?$AA?$AA@ 0053b700     LIBCMTD:tzset.obj
 0003:0002c750       ??_C@_1EA@FIJBKALB@?$AAs?$AAt?$AAr?$AAn?$AAc?$AAp?$AAy?$AA_?$AAs?$AA?$CI?$AAt?$AAz?$AAn?$AAa?$AAm?$AAe?$AA?$FL?$AA0?$AA?$FN?$AA?0?$AA?5?$AA6?$AA4?$AA?0?$AA?5?$AAT?$AAZ?$AA?0?$AA?5?$AA3?$AA?$CJ?$AA?$AA@ 0053b750     LIBCMTD:tzset.obj
 0003:0002c7a0       ??_C@_1EK@MCAIMDPB@?$AAs?$AAt?$AAr?$AAc?$AAp?$AAy?$AA_?$AAs?$AA?$CI?$AAl?$AAa?$AAs?$AAt?$AAT?$AAZ?$AA?0?$AA?5?$AAs?$AAt?$AAr?$AAl?$AAe?$AAn?$AA?$CI?$AAT?$AAZ?$AA?$CJ?$AA?5?$AA?$CL?$AA?5?$AA1?$AA?0@ 0053b7a0     LIBCMTD:tzset.obj
 0003:0002c7f8       ??_C@_07LOOFNDIO@tzset?4c?$AA@ 0053b7f8     LIBCMTD:tzset.obj
 0003:0002c804       ??_C@_02CLFPBFFP@TZ?$AA@   0053b804     LIBCMTD:tzset.obj
 0003:0002c808       ??_C@_1CO@IMMOMMCB@?$AA_?$AAg?$AAe?$AAt?$AA_?$AAd?$AAs?$AAt?$AAb?$AAi?$AAa?$AAs?$AA?$CI?$AA?$CG?$AAd?$AAs?$AAt?$AAb?$AAi?$AAa?$AAs?$AA?$CJ?$AA?$AA@ 0053b808     LIBCMTD:tzset.obj
 0003:0002c840       ??_C@_1DC@MEHEMOPB@?$AA_?$AAg?$AAe?$AAt?$AA_?$AAd?$AAa?$AAy?$AAl?$AAi?$AAg?$AAh?$AAt?$AA?$CI?$AA?$CG?$AAd?$AAa?$AAy?$AAl?$AAi?$AAg?$AAh?$AAt?$AA?$CJ?$AA?$AA@ 0053b840     LIBCMTD:tzset.obj
 0003:0002c87c       ??_C@_1DC@CMKCHHFC@?$AA_?$AAg?$AAe?$AAt?$AA_?$AAt?$AAi?$AAm?$AAe?$AAz?$AAo?$AAn?$AAe?$AA?$CI?$AA?$CG?$AAt?$AAi?$AAm?$AAe?$AAz?$AAo?$AAn?$AAe?$AA?$CJ?$AA?$AA@ 0053b87c     LIBCMTD:tzset.obj
 0003:0002c8b8       ??_C@_1BM@IIODHMJC@?$AA_?$AAt?$AAz?$AAs?$AAe?$AAt?$AA_?$AAn?$AAo?$AAl?$AAo?$AAc?$AAk?$AA?$AA@ 0053b8b8     LIBCMTD:tzset.obj
 0003:0002c8dc       ??_C@_1BA@HIHOBNBL@?$AAt?$AAz?$AAs?$AAe?$AAt?$AA?4?$AAc?$AA?$AA@ 0053b8dc     LIBCMTD:tzset.obj
 0003:0002c8f0       ??_C@_1CA@GOLIIEDM@?$AA_?$AAi?$AAs?$AAi?$AAn?$AAd?$AAs?$AAt?$AA_?$AAn?$AAo?$AAl?$AAo?$AAc?$AAk?$AA?$AA@ 0053b8f0     LIBCMTD:tzset.obj
 0003:0002c918       ??_C@_1BA@GOCKIDGO@?$AAc?$AAv?$AAt?$AAd?$AAa?$AAt?$AAe?$AA?$AA@ 0053b918     LIBCMTD:tzset.obj
 0003:0002c92c       ?commonFlags@?1??_control87@@9@9 0053b92c     LIBCMTD:ieee87.obj
 0003:0002c930       ??_C@_1GO@OKJGOMCB@?$AA_?$AAc?$AAo?$AAn?$AAt?$AAr?$AAo?$AAl?$AAf?$AAp?$AA_?$AAs?$AA?$CI?$AA?$CI?$AA?$CI?$AAv?$AAo?$AAi?$AAd?$AA?5?$AA?$CK?$AA?$CJ?$AA0?$AA?$CJ?$AA?0?$AA?5?$AAn?$AAe?$AAw?$AAc?$AAt?$AAr@ 0053b930     LIBCMTD:ieee87.obj
 0003:0002c9b4       ??_C@_1BO@OFDNCLL@?$AA_?$AAs?$AAe?$AAt?$AA_?$AAc?$AAo?$AAn?$AAt?$AAr?$AAo?$AAl?$AAf?$AAp?$AA?$AA@ 0053b9b4     LIBCMTD:ieee87.obj
 0003:0002c9d8       ??_C@_1BM@PNOCKIGC@?$AAi?$AA3?$AA8?$AA6?$AA?2?$AAi?$AAe?$AAe?$AAe?$AA8?$AA7?$AA?4?$AAc?$AA?$AA@ 0053b9d8     LIBCMTD:ieee87.obj
 0003:0002c9fc       ??_C@_1BO@IHLJHOPI@?$AA_?$AA_?$AAs?$AAt?$AAr?$AAg?$AAt?$AAo?$AAl?$AAd?$AA1?$AA2?$AA_?$AAl?$AA?$AA@ 0053b9fc     LIBCMTD:strgtold.obj
 0003:0002ca20       ??_C@_1DE@JLGAJID@?$AA?4?$AA?4?$AA?1?$AAi?$AAn?$AAc?$AAl?$AAu?$AAd?$AAe?$AA?2?$AAs?$AAt?$AAr?$AAg?$AAt?$AAo?$AAl?$AAd?$AA1?$AA2?$AA?4?$AAi?$AAn?$AAl?$AA?$AA@ 0053ba20     LIBCMTD:strgtold.obj
 0003:0002ca60       ??_C@_1CA@MBDBOHIB@?$AA_?$AAL?$AAo?$AAc?$AAa?$AAl?$AAe?$AA?5?$AA?$CB?$AA?$DN?$AA?5?$AAN?$AAU?$AAL?$AAL?$AA?$AA@ 0053ba60     LIBCMTD:strgtold.obj
 0003:0002ca88       ??_C@_06IMKFLFPG@1?$CDQNAN?$AA@ 0053ba88     LIBCMTD:x10fout.obj
 0003:0002ca90       ??_C@_1EG@MCFPJJEM@?$AAs?$AAt?$AAr?$AAc?$AAp?$AAy?$AA_?$AAs?$AA?$CI?$AAf?$AAo?$AAs?$AA?9?$AA?$DO?$AAm?$AAa?$AAn?$AA?0?$AA?5?$AA2?$AA1?$AA?$CL?$AA1?$AA?0?$AA?5?$AA?$CC?$AA1?$AA?$CD?$AAQ?$AAN?$AAA?$AAN@ 0053ba90     LIBCMTD:x10fout.obj
 0003:0002cae4       ??_C@_05DNEBIAHO@1?$CDINF?$AA@ 0053bae4     LIBCMTD:x10fout.obj
 0003:0002caf0       ??_C@_1EE@ICBBBPAI@?$AAs?$AAt?$AAr?$AAc?$AAp?$AAy?$AA_?$AAs?$AA?$CI?$AAf?$AAo?$AAs?$AA?9?$AA?$DO?$AAm?$AAa?$AAn?$AA?0?$AA?5?$AA2?$AA1?$AA?$CL?$AA1?$AA?0?$AA?5?$AA?$CC?$AA1?$AA?$CD?$AAI?$AAN?$AAF?$AA?$CC@ 0053baf0     LIBCMTD:x10fout.obj
 0003:0002cb44       ??_C@_05PHHOCPM@1?$CDIND?$AA@ 0053bb44     LIBCMTD:x10fout.obj
 0003:0002cb50       ??_C@_1EE@MADEBIHF@?$AAs?$AAt?$AAr?$AAc?$AAp?$AAy?$AA_?$AAs?$AA?$CI?$AAf?$AAo?$AAs?$AA?9?$AA?$DO?$AAm?$AAa?$AAn?$AA?0?$AA?5?$AA2?$AA1?$AA?$CL?$AA1?$AA?0?$AA?5?$AA?$CC?$AA1?$AA?$CD?$AAI?$AAN?$AAD?$AA?$CC@ 0053bb50     LIBCMTD:x10fout.obj
 0003:0002cba4       ??_C@_06PGGFOGJG@1?$CDSNAN?$AA@ 0053bba4     LIBCMTD:x10fout.obj
 0003:0002cbb0       ??_C@_1EG@CDDBFNOB@?$AAs?$AAt?$AAr?$AAc?$AAp?$AAy?$AA_?$AAs?$AA?$CI?$AAf?$AAo?$AAs?$AA?9?$AA?$DO?$AAm?$AAa?$AAn?$AA?0?$AA?5?$AA2?$AA1?$AA?$CL?$AA1?$AA?0?$AA?5?$AA?$CC?$AA1?$AA?$CD?$AAS?$AAN?$AAA?$AAN@ 0053bbb0     LIBCMTD:x10fout.obj
 0003:0002cc04       ??_C@_1BI@ELMAAFLN@?$AA$?$AAI?$AA1?$AA0?$AA_?$AAO?$AAU?$AAT?$AAP?$AAU?$AAT?$AA?$AA@ 0053bc04     LIBCMTD:x10fout.obj
 0003:0002cc20       ??_C@_1BE@MNAKCECJ@?$AAx?$AA1?$AA0?$AAf?$AAo?$AAu?$AAt?$AA?4?$AAc?$AA?$AA@ 0053bc20     LIBCMTD:x10fout.obj
 0003:0002cc38       ??_C@_06GDENEHCP@CONIN$?$AA@ 0053bc38     LIBCMTD:initcon.obj
 0003:0002cc40       ??_C@_07GPDNMNG@CONOUT$?$AA@ 0053bc40     LIBCMTD:initcon.obj
 0003:0002cc50       ??_C@_1GC@BGLCIHJN@?$AAf?$AA?3?$AA?2?$AAs?$AAp?$AA?2?$AAv?$AAc?$AAt?$AAo?$AAo?$AAl?$AAs?$AA?2?$AAc?$AAr?$AAt?$AA_?$AAb?$AAl?$AAd?$AA?2?$AAs?$AAe?$AAl?$AAf?$AA_?$AAx?$AA8?$AA6?$AA?2?$AAc@ 0053bc50     LIBCMTD:_flswbuf.obj
 0003:0002ccc8       ??_C@_1BE@IAKAIGJB@?$AAs?$AAt?$AAr?$AAn?$AAc?$AAa?$AAt?$AA_?$AAs?$AA?$AA@ 0053bcc8     LIBCMTD:strncat_s.obj
 0003:0002cce0       ??_C@_0M@EKFFODEC@MSPDB80?4DLL?$AA@ 0053bce0     LIBCMTD:pdblkup.obj
 0003:0002ccf0       ??_C@_01KDCPPGHE@r?$AA@    0053bcf0     LIBCMTD:pdblkup.obj
 0003:0002ccf4       ??_C@_0BB@KCIACLNC@PDBOpenValidate5?$AA@ 0053bcf4     LIBCMTD:pdblkup.obj
 0003:0002cd08       ??_C@_0BF@BMIHBHCA@EnvironmentDirectory?$AA@ 0053bd08     LIBCMTD:pdblkup.obj
 0003:0002cd24       ??_C@_0CN@EAEOKKOC@SOFTWARE?2Microsoft?2VisualStudio?2@ 0053bd24     LIBCMTD:pdblkup.obj
 0003:0002cd5c       ??_C@_0M@HLOHPNFA@RegCloseKey?$AA@ 0053bd5c     LIBCMTD:pdblkup.obj
 0003:0002cd6c       ??_C@_0BB@HHEIPGME@RegQueryValueExA?$AA@ 0053bd6c     LIBCMTD:pdblkup.obj
 0003:0002cd80       ??_C@_0O@DCOGKJGG@RegOpenKeyExA?$AA@ 0053bd80     LIBCMTD:pdblkup.obj
 0003:0002cd90       ??_C@_0BP@OGBCLIBO@Stack?5around?5_alloca?5corrupted?$AA@ 0053bd90     LIBCMTD:userapi.obj
 0003:0002cdb8       ??_C@_0CK@CNLNOEPB@Local?5variable?5used?5before?5initi@ 0053bdb8     LIBCMTD:userapi.obj
 0003:0002cdec       ??_C@_0BI@CIGMDCBH@Stack?5memory?5corruption?$AA@ 0053bdec     LIBCMTD:userapi.obj
 0003:0002ce08       ??_C@_0CK@FEGOIOPB@Cast?5to?5smaller?5type?5causing?5los@ 0053be08     LIBCMTD:userapi.obj
 0003:0002ce3c       ??_C@_0BJ@HEGAHDFO@Stack?5pointer?5corruption?$AA@ 0053be3c     LIBCMTD:userapi.obj
 0003:0002cea0       ??_7type_info@@6B@         0053bea0     LIBCMTD:typinfo.obj
 0003:0002ceac       ??_7exception@std@@6B@     0053beac     LIBCMTD:stdexcpt.obj
 0003:0002ceb8       ??_C@_0BC@EOODALEL@Unknown?5exception?$AA@ 0053beb8     LIBCMTD:stdexcpt.obj
 0003:0002ced4       ??_7bad_cast@std@@6B@      0053bed4     LIBCMTD:stdexcpt.obj
 0003:0002cee4       ??_7bad_typeid@std@@6B@    0053bee4     LIBCMTD:stdexcpt.obj
 0003:0002cef4       ??_7__non_rtti_object@std@@6B@ 0053bef4     LIBCMTD:stdexcpt.obj
 0003:0002cf00       ??_C@_1BG@NDCBABF@?$AAd?$AAb?$AAg?$AAd?$AAe?$AAl?$AA?4?$AAc?$AAp?$AAp?$AA?$AA@ 0053bf00     LIBCMTD:dbgdel.obj
 0003:0002cf20       ??_C@_1FA@HILOOCMA@?$AA?$CI?$AA_?$AAt?$AAc?$AAs?$AAn?$AAl?$AAe?$AAn?$AA?$CI?$AAo?$AAp?$AAt?$AAi?$AAo?$AAn?$AA?0?$AA?5?$AA_?$AAM?$AAA?$AAX?$AA_?$AAE?$AAN?$AAV?$AA?$CJ?$AA?5?$AA?$DM?$AA?5?$AA_?$AAM@ 0053bf20     LIBCMTD:getenv.obj
 0003:0002cf80       ??_C@_1O@GMKGKCJO@?$AAg?$AAe?$AAt?$AAe?$AAn?$AAv?$AA?$AA@ 0053bf80     LIBCMTD:getenv.obj
 0003:0002cf90       ??_C@_1BC@CPAPBFCO@?$AAg?$AAe?$AAt?$AAe?$AAn?$AAv?$AA?4?$AAc?$AA?$AA@ 0053bf90     LIBCMTD:getenv.obj
 0003:0002cfa8       ??_C@_1CC@FKAOHHLO@?$AA?$CI?$AAo?$AAp?$AAt?$AAi?$AAo?$AAn?$AA?5?$AA?$CB?$AA?$DN?$AA?5?$AAN?$AAU?$AAL?$AAL?$AA?$CJ?$AA?$AA@ 0053bfa8     LIBCMTD:getenv.obj
 0003:0002cfd0       ??_C@_1GI@JBIFPFJH@?$AA_?$AAt?$AAc?$AAs?$AAn?$AAl?$AAe?$AAn?$AA?$CI?$AA?$CK?$AAs?$AAe?$AAa?$AAr?$AAc?$AAh?$AA?5?$AA?$CL?$AA?5?$AAl?$AAe?$AAn?$AAg?$AAt?$AAh?$AA?5?$AA?$CL?$AA?5?$AA1?$AA?0?$AA?5?$AA_@ 0053bfd0     LIBCMTD:getenv.obj
 0003:0002d050       ??_C@_1EI@HHOBPCFK@?$AAs?$AAt?$AAr?$AAc?$AAp?$AAy?$AA_?$AAs?$AA?$CI?$AAb?$AAu?$AAf?$AAf?$AAe?$AAr?$AA?0?$AA?5?$AAs?$AAi?$AAz?$AAe?$AAI?$AAn?$AAT?$AAC?$AAh?$AAa?$AAr?$AAs?$AA?0?$AA?5?$AAs@ 0053c050     LIBCMTD:getenv.obj
 0003:0002d0a8       ??_C@_1JM@NLPGJJPH@?$AA?$CI?$AAb?$AAu?$AAf?$AAf?$AAe?$AAr?$AA?5?$AA?$CB?$AA?$DN?$AA?5?$AAN?$AAU?$AAL?$AAL?$AA?5?$AA?$CG?$AA?$CG?$AA?5?$AAs?$AAi?$AAz?$AAe?$AAI?$AAn?$AAT?$AAC?$AAh?$AAa?$AAr?$AAs?$AA?5@ 0053c0a8     LIBCMTD:getenv.obj
 0003:0002d164       ??_C@_1CC@BAJKDIIF@?$AA_?$AAg?$AAe?$AAt?$AAe?$AAn?$AAv?$AA_?$AAs?$AA_?$AAh?$AAe?$AAl?$AAp?$AAe?$AAr?$AA?$AA@ 0053c164     LIBCMTD:getenv.obj
 0003:0002d18c       ??_C@_1CK@PIKDAOCL@?$AAp?$AAR?$AAe?$AAt?$AAu?$AAr?$AAn?$AAV?$AAa?$AAl?$AAu?$AAe?$AA?5?$AA?$CB?$AA?$DN?$AA?5?$AAN?$AAU?$AAL?$AAL?$AA?$AA@ 0053c18c     LIBCMTD:getenv.obj
 0003:0002d1c0       ??_C@_1DM@GNKNEGJO@?$AAs?$AAt?$AAr?$AAc?$AAp?$AAy?$AA_?$AAs?$AA?$CI?$AA?$CK?$AAp?$AAB?$AAu?$AAf?$AAf?$AAe?$AAr?$AA?0?$AA?5?$AAs?$AAi?$AAz?$AAe?$AA?0?$AA?5?$AAs?$AAt?$AAr?$AA?$CJ?$AA?$AA@ 0053c1c0     LIBCMTD:getenv.obj
 0003:0002d208       ??_C@_1CA@GDBKELOE@?$AAv?$AAa?$AAr?$AAn?$AAa?$AAm?$AAe?$AA?5?$AA?$CB?$AA?$DN?$AA?5?$AAN?$AAU?$AAL?$AAL?$AA?$AA@ 0053c208     LIBCMTD:getenv.obj
 0003:0002d230       ??_C@_1CC@KPLOPIEM@?$AA_?$AAd?$AAu?$AAp?$AAe?$AAn?$AAv?$AA_?$AAs?$AA_?$AAh?$AAe?$AAl?$AAp?$AAe?$AAr?$AA?$AA@ 0053c230     LIBCMTD:getenv.obj
 0003:0002d258       ??_C@_1CA@FHNFMDOJ@?$AAp?$AAB?$AAu?$AAf?$AAf?$AAe?$AAr?$AA?5?$AA?$CB?$AA?$DN?$AA?5?$AAN?$AAU?$AAL?$AAL?$AA?$AA@ 0053c258     LIBCMTD:getenv.obj
 0003:0002d280       ??_C@_1BI@JFCCCJAM@?$AAt?$AAy?$AAp?$AAn?$AAa?$AAm?$AAe?$AA?4?$AAc?$AAp?$AAp?$AA?$AA@ 0053c280     LIBCMTD:typname.obj
 0003:0002d29c       ??_C@_1CI@IDCGDBOP@?$AAp?$AAN?$AAo?$AAd?$AAe?$AA?9?$AA?$DO?$AAn?$AAe?$AAx?$AAt?$AA?5?$AA?$CB?$AA?$DN?$AA?5?$AAN?$AAU?$AAL?$AAL?$AA?$AA@ 0053c29c     LIBCMTD:typname.obj
 0003:0002d2d0       ??_C@_1JK@MLBKHELP@?$AAs?$AAt?$AAr?$AAc?$AAp?$AAy?$AA_?$AAs?$AA?5?$AA?$CI?$AA?$CI?$AAc?$AAh?$AAa?$AAr?$AA?5?$AA?$CK?$AA?$CJ?$AA?$CI?$AA?$CI?$AAt?$AAy?$AAp?$AAe?$AA_?$AAi?$AAn?$AAf?$AAo?$AA?5?$AA?$CK?$AA?$CJ@ 0053c2d0     LIBCMTD:typname.obj
 0003:0002d388       ??_C@_1CM@OOICDMK@?$AAt?$AAy?$AAp?$AAe?$AA_?$AAi?$AAn?$AAf?$AAo?$AA?3?$AA?3?$AA_?$AAN?$AAa?$AAm?$AAe?$AA_?$AAb?$AAa?$AAs?$AAe?$AA?$AA@ 0053c388     LIBCMTD:typname.obj
 0003:0002d3bc       ??_C@_1DO@OJJLFJPE@?$AAt?$AAy?$AAp?$AAe?$AA_?$AAi?$AAn?$AAf?$AAo?$AA?3?$AA?3?$AA_?$AAN?$AAa?$AAm?$AAe?$AA_?$AAb?$AAa?$AAs?$AAe?$AA_?$AAi?$AAn?$AAt?$AAe?$AAr?$AAn?$AAa?$AAl?$AA?$AA@ 0053c3bc     LIBCMTD:typname.obj
 0003:0002d408       ??_C@_1BG@GBJNMPFA@?$AAs?$AA2?$AA?5?$AA?$CB?$AA?$DN?$AA?5?$AAN?$AAU?$AAL?$AAL?$AA?$AA@ 0053c408     LIBCMTD:mbsnbico.obj
 0003:0002d424       ??_C@_1BM@FKNNDAHH@?$AA_?$AAm?$AAb?$AAs?$AAn?$AAb?$AAi?$AAc?$AAo?$AAl?$AAl?$AA_?$AAl?$AA?$AA@ 0053c424     LIBCMTD:mbsnbico.obj
 0003:0002d448       ??_C@_1BG@MHEMLGJO@?$AAm?$AAb?$AAs?$AAn?$AAb?$AAi?$AAc?$AAo?$AA?4?$AAc?$AA?$AA@ 0053c448     LIBCMTD:mbsnbico.obj
 0003:0002d464       ??_C@_1BG@MODEICJK@?$AAs?$AA1?$AA?5?$AA?$CB?$AA?$DN?$AA?5?$AAN?$AAU?$AAL?$AAL?$AA?$AA@ 0053c464     LIBCMTD:mbsnbico.obj
 0003:0002d480       ??_C@_0L@CELCHBFJ@wtombenv?4c?$AA@ 0053c480     LIBCMTD:wtombenv.obj
 0003:0002d490       ??_C@_0BK@CFCOFLF@?5Complete?5Object?5Locator?8?$AA@ 0053c490     LIBCMTD:undname.obj
 0003:0002d4b0       ??_C@_0BN@MECKDCOJ@?5Class?5Hierarchy?5Descriptor?8?$AA@ 0053c4b0     LIBCMTD:undname.obj
 0003:0002d4d4       ??_C@_0BD@LGICGFMM@?5Base?5Class?5Array?8?$AA@ 0053c4d4     LIBCMTD:undname.obj
 0003:0002d4ec       ??_C@_0BM@LDKODKLH@?5Base?5Class?5Descriptor?5at?5?$CI?$AA@ 0053c4ec     LIBCMTD:undname.obj
 0003:0002d510       ??_C@_0BC@DAFEJGAK@?5Type?5Descriptor?8?$AA@ 0053c510     LIBCMTD:undname.obj
 0003:0002d528       ??_C@_0BM@PMGGMLDN@?$GAlocal?5static?5thread?5guard?8?$AA@ 0053c528     LIBCMTD:undname.obj
 0003:0002d54c       ??_C@_0CL@FGIJHLCE@?$GAmanaged?5vector?5copy?5constructor@ 0053c54c     LIBCMTD:undname.obj
 0003:0002d580       ??_C@_0CJ@GJELGAMM@?$GAvector?5vbase?5copy?5constructor?5i@ 0053c580     LIBCMTD:undname.obj
 0003:0002d5b4       ??_C@_0CD@CGAJBKEJ@?$GAvector?5copy?5constructor?5iterato@ 0053c5b4     LIBCMTD:undname.obj
 0003:0002d5e0       ??_C@_0CB@PDBIFEP@?$GAdynamic?5atexit?5destructor?5for?5?8@ 0053c5e0     LIBCMTD:undname.obj
 0003:0002d608       ??_C@_0BL@CLIPGLGB@?$GAdynamic?5initializer?5for?5?8?$AA@ 0053c608     LIBCMTD:undname.obj
 0003:0002d628       ??_C@_0CM@FCBBDIGB@?$GAeh?5vector?5vbase?5copy?5constructo@ 0053c628     LIBCMTD:undname.obj
 0003:0002d65c       ??_C@_0CG@HLDDJMAG@?$GAeh?5vector?5copy?5constructor?5iter@ 0053c65c     LIBCMTD:undname.obj
 0003:0002d68c       ??_C@_0CF@IMGKMJNO@?$GAmanaged?5vector?5destructor?5itera@ 0053c68c     LIBCMTD:undname.obj
 0003:0002d6b8       ??_C@_0CG@CFDHKGGD@?$GAmanaged?5vector?5constructor?5iter@ 0053c6b8     LIBCMTD:undname.obj
 0003:0002d6e8       ??_C@_0BN@CKNJLHMB@?$GAplacement?5delete?$FL?$FN?5closure?8?$AA@ 0053c6e8     LIBCMTD:undname.obj
 0003:0002d70c       ??_C@_0BL@CNOONJFP@?$GAplacement?5delete?5closure?8?$AA@ 0053c70c     LIBCMTD:undname.obj
 0003:0002d72c       ??_C@_0P@HJKNJFNN@?$GAomni?5callsig?8?$AA@ 0053c72c     LIBCMTD:undname.obj
 0003:0002d740       ??_C@_09LBNFPBCA@?5delete?$FL?$FN?$AA@ 0053c740     LIBCMTD:undname.obj
 0003:0002d74c       ??_C@_06FHBGPFGH@?5new?$FL?$FN?$AA@ 0053c74c     LIBCMTD:undname.obj
 0003:0002d754       ??_C@_0CE@IIHCMGGL@?$GAlocal?5vftable?5constructor?5closu@ 0053c754     LIBCMTD:undname.obj
 0003:0002d780       ??_C@_0BA@KKLDJDLB@?$GAlocal?5vftable?8?$AA@ 0053c780     LIBCMTD:undname.obj
 0003:0002d794       ??_C@_05KHLCHHI@?$GARTTI?$AA@ 0053c794     LIBCMTD:undname.obj
 0003:0002d79c       ??_C@_03KLGMFNMG@?$GAEH?$AA@ 0053c79c     LIBCMTD:undname.obj
 0003:0002d7a0       ??_C@_0BA@KBCDOMBN@?$GAudt?5returning?8?$AA@ 0053c7a0     LIBCMTD:undname.obj
 0003:0002d7b4       ??_C@_0BL@LLKPOHJI@?$GAcopy?5constructor?5closure?8?$AA@ 0053c7b4     LIBCMTD:undname.obj
 0003:0002d7d4       ??_C@_0CH@OOJPLCPH@?$GAeh?5vector?5vbase?5constructor?5ite@ 0053c7d4     LIBCMTD:undname.obj
 0003:0002d804       ??_C@_0CA@GCEOPDGL@?$GAeh?5vector?5destructor?5iterator?8?$AA@ 0053c804     LIBCMTD:undname.obj
 0003:0002d82c       ??_C@_0CB@JONCMFFK@?$GAeh?5vector?5constructor?5iterator?8@ 0053c82c     LIBCMTD:undname.obj
 0003:0002d854       ??_C@_0BL@NILFHHPC@?$GAvirtual?5displacement?5map?8?$AA@ 0053c854     LIBCMTD:undname.obj
 0003:0002d874       ??_C@_0CE@IKBNEHA@?$GAvector?5vbase?5constructor?5iterat@ 0053c874     LIBCMTD:undname.obj
 0003:0002d8a0       ??_C@_0BN@LFPFMEDL@?$GAvector?5destructor?5iterator?8?$AA@ 0053c8a0     LIBCMTD:undname.obj
 0003:0002d8c4       ??_C@_0BO@PFGOCPJJ@?$GAvector?5constructor?5iterator?8?$AA@ 0053c8c4     LIBCMTD:undname.obj
 0003:0002d8e8       ??_C@_0BN@IMDCHIKM@?$GAscalar?5deleting?5destructor?8?$AA@ 0053c8e8     LIBCMTD:undname.obj
 0003:0002d90c       ??_C@_0BO@OBMKPJIG@?$GAdefault?5constructor?5closure?8?$AA@ 0053c90c     LIBCMTD:undname.obj
 0003:0002d930       ??_C@_0BN@DEGPLNFK@?$GAvector?5deleting?5destructor?8?$AA@ 0053c930     LIBCMTD:undname.obj
 0003:0002d954       ??_C@_0BD@JDLKDPAB@?$GAvbase?5destructor?8?$AA@ 0053c954     LIBCMTD:undname.obj
 0003:0002d96c       ??_C@_08OBABFOLI@?$GAstring?8?$AA@ 0053c96c     LIBCMTD:undname.obj
 0003:0002d978       ??_C@_0BF@KDPPACIK@?$GAlocal?5static?5guard?8?$AA@ 0053c978     LIBCMTD:undname.obj
 0003:0002d994       ??_C@_08LLFFHHDJ@?$GAtypeof?8?$AA@ 0053c994     LIBCMTD:undname.obj
 0003:0002d9a0       ??_C@_07FEEIOKP@?$GAvcall?8?$AA@ 0053c9a0     LIBCMTD:undname.obj
 0003:0002d9ac       ??_C@_09BLBHBJP@?$GAvbtable?8?$AA@ 0053c9ac     LIBCMTD:undname.obj
 0003:0002d9b8       ??_C@_09IFPLHPGF@?$GAvftable?8?$AA@ 0053c9b8     LIBCMTD:undname.obj
 0003:0002d9c4       ??_C@_02MHEGNOJ@?$FO?$DN?$AA@ 0053c9c4     LIBCMTD:undname.obj
 0003:0002d9c8       ??_C@_02DHLNPPGH@?$HM?$DN?$AA@ 0053c9c8     LIBCMTD:undname.obj
 0003:0002d9cc       ??_C@_02FGJGFEAB@?$CG?$DN?$AA@ 0053c9cc     LIBCMTD:undname.obj
 0003:0002d9d0       ??_C@_03CDNPDDLA@?$DM?$DM?$DN?$AA@ 0053c9d0     LIBCMTD:undname.obj
 0003:0002d9d4       ??_C@_03IKFCCPFF@?$DO?$DO?$DN?$AA@ 0053c9d4     LIBCMTD:undname.obj
 0003:0002d9d8       ??_C@_02FENAOKFI@?$CF?$DN?$AA@ 0053c9d8     LIBCMTD:undname.obj
 0003:0002d9dc       ??_C@_02FJEHGPIO@?1?$DN?$AA@ 0053c9dc     LIBCMTD:undname.obj
 0003:0002d9e0       ??_C@_02FKMDLLOA@?9?$DN?$AA@ 0053c9e0     LIBCMTD:undname.obj
 0003:0002d9e4       ??_C@_02FOEOMHFC@?$CL?$DN?$AA@ 0053c9e4     LIBCMTD:undname.obj
 0003:0002d9e8       ??_C@_02FPIMKNGF@?$CK?$DN?$AA@ 0053c9e8     LIBCMTD:undname.obj
 0003:0002d9ec       ??_C@_02NONPIBCD@?$HM?$HM?$AA@ 0053c9ec     LIBCMTD:undname.obj
 0003:0002d9f0       ??_C@_02PPKAJPJL@?$CG?$CG?$AA@ 0053c9f0     LIBCMTD:undname.obj
 0003:0002d9f4       ??_C@_01DNKMNLPK@?$HM?$AA@ 0053c9f4     LIBCMTD:undname.obj
 0003:0002d9f8       ??_C@_01JKBOJNNK@?$FO?$AA@ 0053c9f8     LIBCMTD:undname.obj
 0003:0002d9fc       ??_C@_01PJKLJHI@?$HO?$AA@  0053c9fc     LIBCMTD:undname.obj
 0003:0002da00       ??_C@_02HCKGKOFO@?$CI?$CJ?$AA@ 0053ca00     LIBCMTD:undname.obj
 0003:0002da04       ??_C@_01IHBHIGKO@?0?$AA@   0053ca04     LIBCMTD:undname.obj
 0003:0002da08       ??_C@_02EEKDKGMJ@?$DO?$DN?$AA@ 0053ca08     LIBCMTD:undname.obj
 0003:0002da0c       ??_C@_01PPODPGHN@?$DO?$AA@ 0053ca0c     LIBCMTD:undname.obj
 0003:0002da10       ??_C@_02EHCHHCKH@?$DM?$DN?$AA@ 0053ca10     LIBCMTD:undname.obj
 0003:0002da14       ??_C@_01MNNFJEPP@?$DM?$AA@ 0053ca14     LIBCMTD:undname.obj
 0003:0002da18       ??_C@_01FGNFDNOH@?$CF?$AA@ 0053ca18     LIBCMTD:undname.obj
 0003:0002da1c       ??_C@_03MNHNFDLC@?9?$DO?$CK?$AA@ 0053ca1c     LIBCMTD:undname.obj
 0003:0002da20       ??_C@_01HNPIGOCE@?$CG?$AA@ 0053ca20     LIBCMTD:undname.obj
 0003:0002da24       ??_C@_01MIFGBAGJ@?$CL?$AA@ 0053ca24     LIBCMTD:undname.obj
 0003:0002da28       ??_C@_02ECNGHCIF@?$CL?$CL?$AA@ 0053ca28     LIBCMTD:undname.obj
 0003:0002da2c       ??_C@_01NBENCBCI@?$CK?$AA@ 0053ca2c     LIBCMTD:undname.obj
 0003:0002da30       ??_C@_02HBOOOICD@?9?$DO?$AA@ 0053ca30     LIBCMTD:undname.obj
 0003:0002da34       ??_C@_08LHJFAFGD@operator?$AA@ 0053ca34     LIBCMTD:undname.obj
 0003:0002da40       ??_C@_02GPECMEKF@?$FL?$FN?$AA@ 0053ca40     LIBCMTD:undname.obj
 0003:0002da44       ??_C@_02FDNJECIE@?$CB?$DN?$AA@ 0053ca44     LIBCMTD:undname.obj
 0003:0002da48       ??_C@_02EGOFBIJA@?$DN?$DN?$AA@ 0053ca48     LIBCMTD:undname.obj
 0003:0002da4c       ??_C@_01DCLJPIOD@?$CB?$AA@ 0053ca4c     LIBCMTD:undname.obj
 0003:0002da50       ??_C@_02FODMEDOG@?$DM?$DM?$AA@ 0053ca50     LIBCMTD:undname.obj
 0003:0002da54       ??_C@_02GPIOPFAK@?$DO?$DO?$AA@ 0053ca54     LIBCMTD:undname.obj
 0003:0002da58       ??_C@_07FPCDHGMM@?5delete?$AA@ 0053ca58     LIBCMTD:undname.obj
 0003:0002da64       ??_C@_04NIHEBCM@?5new?$AA@ 0053ca64     LIBCMTD:undname.obj
 0003:0002da6c       ??_C@_0M@GFIIJFMG@__unaligned?$AA@ 0053ca6c     LIBCMTD:undname.obj
 0003:0002da7c       ??_C@_0L@PILCLIHE@__restrict?$AA@ 0053ca7c     LIBCMTD:undname.obj
 0003:0002da8c       ??_C@_07JOMMBBKO@__ptr64?$AA@ 0053ca8c     LIBCMTD:undname.obj
 0003:0002da98       ??_C@_09HIJEGCPM@__clrcall?$AA@ 0053ca98     LIBCMTD:undname.obj
 0003:0002daa4       ??_C@_0L@JMKHOMEK@__fastcall?$AA@ 0053caa4     LIBCMTD:undname.obj
 0003:0002dab4       ??_C@_0L@NPHFGOKO@__thiscall?$AA@ 0053cab4     LIBCMTD:undname.obj
 0003:0002dac4       ??_C@_09IFJBGAPI@__stdcall?$AA@ 0053cac4     LIBCMTD:undname.obj
 0003:0002dad0       ??_C@_08GHMPAG@__pascal?$AA@ 0053cad0     LIBCMTD:undname.obj
 0003:0002dadc       ??_C@_07KOLFKCDI@__cdecl?$AA@ 0053cadc     LIBCMTD:undname.obj
 0003:0002dae8       ??_C@_08EHJDFFNH@__based?$CI?$AA@ 0053cae8     LIBCMTD:undname.obj
 0003:0002dcc4       ??_C@_04HEJADOOB@CV?3?5?$AA@ 0053ccc4     LIBCMTD:undname.obj
 0003:0002dccc       ??_C@_02MOLJINC@?3?3?$AA@  0053cccc     LIBCMTD:undname.obj
 0003:0002dcd0       ??_C@_01GEODFPGF@?8?$AA@   0053ccd0     LIBCMTD:undname.obj
 0003:0002dcd4       ??_C@_01NLNLIGKH@?$GA?$AA@ 0053ccd4     LIBCMTD:undname.obj
 0003:0002dcd8       ??_C@_0O@KHGCOMHP@generic?9type?9?$AA@ 0053ccd8     LIBCMTD:undname.obj
 0003:0002dce8       ??_C@_0BE@JAEOCHPE@template?9parameter?9?$AA@ 0053cce8     LIBCMTD:undname.obj
 0003:0002dd00       ??_C@_02OHHJMEON@?8?8?$AA@ 0053cd00     LIBCMTD:undname.obj
 0003:0002dd04       ??_C@_0BG@JNJLAMPM@?$GAanonymous?5namespace?8?$AA@ 0053cd04     LIBCMTD:undname.obj
 0003:0002dd20       ??_C@_0BN@IBLMMFAP@?$GAnon?9type?9template?9parameter?$AA@ 0053cd20     LIBCMTD:undname.obj
 0003:0002dd44       ??_C@_0BE@EODMJLIF@?$GAtemplate?9parameter?$AA@ 0053cd44     LIBCMTD:undname.obj
 0003:0002dd5c       ??_C@_04GKJNKENE@void?$AA@ 0053cd5c     LIBCMTD:undname.obj
 0003:0002dd64       ??_C@_0M@DHNBOJMP@extern?5?$CCC?$CC?5?$AA@ 0053cd64     LIBCMTD:undname.obj
 0003:0002dd74       ??_C@_08KJLFOPNE@?$FLthunk?$FN?3?$AA@ 0053cd74     LIBCMTD:undname.obj
 0003:0002dd80       ??_C@_08GPDDCMKI@public?3?5?$AA@ 0053cd80     LIBCMTD:undname.obj
 0003:0002dd8c       ??_C@_0M@GAIFPFIP@protected?3?5?$AA@ 0053cd8c     LIBCMTD:undname.obj
 0003:0002dd9c       ??_C@_09LAPHOOG@private?3?5?$AA@ 0053cd9c     LIBCMTD:undname.obj
 0003:0002dda8       ??_C@_08NIEOINHE@virtual?5?$AA@ 0053cda8     LIBCMTD:undname.obj
 0003:0002ddb4       ??_C@_07PGOEDBHP@static?5?$AA@ 0053cdb4     LIBCMTD:undname.obj
 0003:0002ddc0       ??_C@_0DA@HGFJFBBE@?$GAtemplate?5static?5data?5member?5des@ 0053cdc0     LIBCMTD:undname.obj
 0003:0002ddfc       ??_C@_0DB@ILEFOCIJ@?$GAtemplate?5static?5data?5member?5con@ 0053cdfc     LIBCMTD:undname.obj
 0003:0002de38       ??_C@_0CB@KJDOOODE@?$GAlocal?5static?5destructor?5helper?8@ 0053ce38     LIBCMTD:undname.obj
 0003:0002de60       ??_C@_0L@HNGCOGAE@?$GAadjustor?$HL?$AA@ 0053ce60     LIBCMTD:undname.obj
 0003:0002de70       ??_C@_0L@GHPFDFH@?$GAvtordisp?$HL?$AA@ 0053ce70     LIBCMTD:undname.obj
 0003:0002de80       ??_C@_0N@CBHHHENL@?$GAvtordispex?$HL?$AA@ 0053ce80     LIBCMTD:undname.obj
 0003:0002de90       ??_C@_02IGFCGPIL@?$HN?8?$AA@ 0053ce90     LIBCMTD:undname.obj
 0003:0002de94       ??_C@_03OPGICMGF@?$HN?8?5?$AA@ 0053ce94     LIBCMTD:undname.obj
 0003:0002de98       ??_C@_02KCKGHPCA@?$CJ?5?$AA@ 0053ce98     LIBCMTD:undname.obj
 0003:0002de9c       ??_C@_05BEFAKPML@void?5?$AA@ 0053ce9c     LIBCMTD:undname.obj
 0003:0002dea4       ??_C@_08PABEKFH@volatile?$AA@ 0053cea4     LIBCMTD:undname.obj
 0003:0002deb0       ??_C@_0M@ELJOJFFH@?0?$DMellipsis?$DO?$AA@ 0053ceb0     LIBCMTD:undname.obj
 0003:0002dec0       ??_C@_04EENFHACM@?0?4?4?4?$AA@ 0053cec0     LIBCMTD:undname.obj
 0003:0002dec8       ??_C@_0L@EGPHHEKN@?$DMellipsis?$DO?$AA@ 0053cec8     LIBCMTD:undname.obj
 0003:0002ded8       ??_C@_07HDJPLPEK@?5throw?$CI?$AA@ 0053ced8     LIBCMTD:undname.obj
 0003:0002dee4       ??_C@_09EFNPDFFP@?5volatile?$AA@ 0053cee4     LIBCMTD:undname.obj
 0003:0002def0       ??_C@_05BNCCCJPP@const?$AA@ 0053cef0     LIBCMTD:undname.obj
 0003:0002def8       ??_C@_07EDHNAJHC@signed?5?$AA@ 0053cef8     LIBCMTD:undname.obj
 0003:0002df04       ??_C@_09EBBEKKIH@unsigned?5?$AA@ 0053cf04     LIBCMTD:undname.obj
 0003:0002df10       ??_C@_07NFANNNEC@UNKNOWN?$AA@ 0053cf10     LIBCMTD:undname.obj
 0003:0002df1c       ??_C@_06GCICPBLB@__w64?5?$AA@ 0053cf1c     LIBCMTD:undname.obj
 0003:0002df24       ??_C@_07CLGGIAMF@wchar_t?$AA@ 0053cf24     LIBCMTD:undname.obj
 0003:0002df30       ??_C@_08GAHOLHEO@__int128?$AA@ 0053cf30     LIBCMTD:undname.obj
 0003:0002df3c       ??_C@_07LFCOJCAC@__int64?$AA@ 0053cf3c     LIBCMTD:undname.obj
 0003:0002df48       ??_C@_07OFLPPHGP@__int32?$AA@ 0053cf48     LIBCMTD:undname.obj
 0003:0002df54       ??_C@_07ICFHOGAF@__int16?$AA@ 0053cf54     LIBCMTD:undname.obj
 0003:0002df60       ??_C@_06EBGKOKIG@__int8?$AA@ 0053cf60     LIBCMTD:undname.obj
 0003:0002df68       ??_C@_04DDKJGDCM@bool?$AA@ 0053cf68     LIBCMTD:undname.obj
 0003:0002df70       ??_C@_06BNJCAIGJ@double?$AA@ 0053cf70     LIBCMTD:undname.obj
 0003:0002df78       ??_C@_05CJIMAING@long?5?$AA@ 0053cf78     LIBCMTD:undname.obj
 0003:0002df80       ??_C@_05KNFBNCOH@float?$AA@ 0053cf80     LIBCMTD:undname.obj
 0003:0002df88       ??_C@_04GOKPGOLB@long?$AA@ 0053cf88     LIBCMTD:undname.obj
 0003:0002df90       ??_C@_03JBIPMCLC@int?$AA@  0053cf90     LIBCMTD:undname.obj
 0003:0002df94       ??_C@_05BFKKPKCG@short?$AA@ 0053cf94     LIBCMTD:undname.obj
 0003:0002df9c       ??_C@_04ENMBGAPA@char?$AA@ 0053cf9c     LIBCMTD:undname.obj
 0003:0002dfa4       ??_C@_05LJGMCFOG@enum?5?$AA@ 0053cfa4     LIBCMTD:undname.obj
 0003:0002dfac       ??_C@_0N@DLIEFKNA@cointerface?5?$AA@ 0053cfac     LIBCMTD:undname.obj
 0003:0002dfbc       ??_C@_08KOFANOFK@coclass?5?$AA@ 0053cfbc     LIBCMTD:undname.obj
 0003:0002dfc8       ??_C@_06LJBABKPM@class?5?$AA@ 0053cfc8     LIBCMTD:undname.obj
 0003:0002dfd0       ??_C@_07DIBCDNGL@struct?5?$AA@ 0053cfd0     LIBCMTD:undname.obj
 0003:0002dfdc       ??_C@_06MOJHIBMG@union?5?$AA@ 0053cfdc     LIBCMTD:undname.obj
 0003:0002dfe4       ??_C@_0P@GCIFDJCJ@?$GAunknown?5ecsu?8?$AA@ 0053cfe4     LIBCMTD:undname.obj
 0003:0002dff8       ??_C@_04LAHKHJMA@int?5?$AA@ 0053cff8     LIBCMTD:undname.obj
 0003:0002e000       ??_C@_06EHJMALKF@short?5?$AA@ 0053d000     LIBCMTD:undname.obj
 0003:0002e008       ??_C@_05CIHEBHNO@char?5?$AA@ 0053d008     LIBCMTD:undname.obj
 0003:0002e010       ??_C@_06LIJLOJAG@const?5?$AA@ 0053d010     LIBCMTD:undname.obj
 0003:0002e018       ??_C@_09GAIEOBLP@volatile?5?$AA@ 0053d018     LIBCMTD:undname.obj
 0003:0002e024       ??_C@_0O@GKABPPIF@cli?3?3pin_ptr?$DM?$AA@ 0053d024     LIBCMTD:undname.obj
 0003:0002e034       ??_C@_0M@EALIELKG@cli?3?3array?$DM?$AA@ 0053d034     LIBCMTD:undname.obj
 0003:0002e044       ??_C@_02GOGNNPBN@?$CJ?$FL?$AA@ 0053d044     LIBCMTD:undname.obj
 0003:0002e048       ??_C@_06EEGAIFAK@?$HLflat?$HN?$AA@ 0053d048     LIBCMTD:undname.obj
 0003:0002e050       ??_C@_02MDINNEEG@s?5?$AA@  0053d050     LIBCMTD:undname.obj
 0003:0002e054       ??_C@_05JIBOFOHK@?$HLfor?5?$AA@ 0053d054     LIBCMTD:undname.obj
 0003:0002e060       ??_7DNameNode@@6B@         0053d060     LIBCMTD:undname.obj
 0003:0002e074       ??_7charNode@@6B@          0053d074     LIBCMTD:undname.obj
 0003:0002e088       ??_7pcharNode@@6B@         0053d088     LIBCMTD:undname.obj
 0003:0002e09c       ??_7pDNameNode@@6B@        0053d09c     LIBCMTD:undname.obj
 0003:0002e0b0       ??_7DNameStatusNode@@6B@   0053d0b0     LIBCMTD:undname.obj
 0003:0002e0c0       ??_C@_04OKOHEJBO@?5?$DP?$DP?5?$AA@ 0053d0c0     LIBCMTD:undname.obj
 0003:0002e0c8       ??_C@_1BA@DGECELNE@?$AAa?$AA_?$AAc?$AAm?$AAp?$AA?4?$AAc?$AA?$AA@ 0053d0c8     LIBCMTD:a_cmp.obj
 0003:0002e0e0       ??_C@_1HK@ELDMAMK@?$AAc?$AAc?$AAh?$AAC?$AAo?$AAu?$AAn?$AAt?$AA1?$AA?$DN?$AA?$DN?$AA0?$AA?5?$AA?$CG?$AA?$CG?$AA?5?$AAc?$AAc?$AAh?$AAC?$AAo?$AAu?$AAn?$AAt?$AA2?$AA?$DN?$AA?$DN?$AA1?$AA?5?$AA?$HM?$AA?$HM?$AA?5@ 0053d0e0     LIBCMTD:a_cmp.obj
 0003:0002e174       ??_C@_1CC@CNADELFK@?$AA_?$AAs?$AAt?$AAr?$AAi?$AAn?$AAg?$AA2?$AA?5?$AA?$CB?$AA?$DN?$AA?5?$AAN?$AAU?$AAL?$AAL?$AA?$AA@ 0053d174     LIBCMTD:strnicol.obj
 0003:0002e19c       ??_C@_1BK@IOJEBPLP@?$AA_?$AAs?$AAt?$AAr?$AAn?$AAi?$AAc?$AAo?$AAl?$AAl?$AA_?$AAl?$AA?$AA@ 0053d19c     LIBCMTD:strnicol.obj
 0003:0002e1bc       ??_C@_1BG@BPACDEKP@?$AAs?$AAt?$AAr?$AAn?$AAi?$AAc?$AAo?$AAl?$AA?4?$AAc?$AA?$AA@ 0053d1bc     LIBCMTD:strnicol.obj
 0003:0002e1d8       ??_C@_1CC@ICKKAGJA@?$AA_?$AAs?$AAt?$AAr?$AAi?$AAn?$AAg?$AA1?$AA?5?$AA?$CB?$AA?$DN?$AA?5?$AAN?$AAU?$AAL?$AAL?$AA?$AA@ 0053d1d8     LIBCMTD:strnicol.obj
 0003:0002e200       ??_C@_1FG@OKIAKKPK@?$AAs?$AAt?$AAr?$AAc?$AAp?$AAy?$AA_?$AAs?$AA?$CI?$AAn?$AAa?$AAm?$AAe?$AA?0?$AA?5?$AAs?$AAt?$AAr?$AAl?$AAe?$AAn?$AA?$CI?$AAo?$AAp?$AAt?$AAi?$AAo?$AAn?$AA?$CJ?$AA?5?$AA?$CL?$AA?5@ 0053d200     LIBCMTD:setenv.obj
 0003:0002e268       ??_C@_1EI@GHDNAPMG@?$AA?$CI?$AA?$CC?$AAC?$AAR?$AAT?$AA?5?$AAL?$AAo?$AAg?$AAi?$AAc?$AA?5?$AAe?$AAr?$AAr?$AAo?$AAr?$AA?5?$AAd?$AAu?$AAr?$AAi?$AAn?$AAg?$AA?5?$AAs?$AAe?$AAt?$AAe?$AAn?$AAv?$AA?$CC@ 0053d268     LIBCMTD:setenv.obj
 0003:0002e2c0       ??_C@_08BMJILFKN@setenv?4c?$AA@ 0053d2c0     LIBCMTD:setenv.obj
 0003:0002e2d0       ??_C@_1FC@EEJIEIDF@?$AA_?$AAt?$AAc?$AAs?$AAn?$AAl?$AAe?$AAn?$AA?$CI?$AAe?$AAq?$AAu?$AAa?$AAl?$AA?5?$AA?$CL?$AA?5?$AA1?$AA?0?$AA?5?$AA_?$AAM?$AAA?$AAX?$AA_?$AAE?$AAN?$AAV?$AA?$CJ?$AA?5?$AA?$DM?$AA?5@ 0053d2d0     LIBCMTD:setenv.obj
 0003:0002e334       ??_C@_1DE@EEHFNNGH@?$AAe?$AAq?$AAu?$AAa?$AAl?$AA?5?$AA?9?$AA?5?$AAo?$AAp?$AAt?$AAi?$AAo?$AAn?$AA?5?$AA?$DM?$AA?5?$AA_?$AAM?$AAA?$AAX?$AA_?$AAE?$AAN?$AAV?$AA?$AA@ 0053d334     LIBCMTD:setenv.obj
 0003:0002e374       ??_C@_1BI@CDAFOAAL@?$AA_?$AA_?$AAc?$AAr?$AAt?$AAs?$AAe?$AAt?$AAe?$AAn?$AAv?$AA?$AA@ 0053d374     LIBCMTD:setenv.obj
 0003:0002e390       ??_C@_1BC@KAEJODA@?$AAs?$AAe?$AAt?$AAe?$AAn?$AAv?$AA?4?$AAc?$AA?$AA@ 0053d390     LIBCMTD:setenv.obj
 0003:0002e3a8       ??_C@_1CA@LMBEKBDN@?$AAp?$AAo?$AAp?$AAt?$AAi?$AAo?$AAn?$AA?5?$AA?$CB?$AA?$DN?$AA?5?$AAN?$AAU?$AAL?$AAL?$AA?$AA@ 0053d3a8     LIBCMTD:setenv.obj
 0003:0002e3d0       ??_C@_1FK@DNFLNPD@?$AAs?$AAt?$AAr?$AAc?$AAp?$AAy?$AA_?$AAs?$AA?$CI?$AA?$CK?$AAn?$AAe?$AAw?$AAe?$AAn?$AAv?$AAp?$AAt?$AAr?$AA?0?$AA?5?$AAe?$AAn?$AAv?$AAp?$AAt?$AAr?$AAS?$AAi?$AAz?$AAe?$AA?0@ 0053d3d0     LIBCMTD:setenv.obj
 0003:0002e43c       ??_C@_1BK@ECKIJLPM@?$AAc?$AAo?$AAp?$AAy?$AA_?$AAe?$AAn?$AAv?$AAi?$AAr?$AAo?$AAn?$AA?$AA@ 0053d43c     LIBCMTD:setenv.obj
 0003:0002e45c       ??_C@_1BE@JKKFLIKJ@?$AA_?$AAm?$AAb?$AAs?$AAc?$AAh?$AAr?$AA_?$AAl?$AA?$AA@ 0053d45c     LIBCMTD:mbschr.obj
 0003:0002e474       ??_C@_1BC@MDNHFJEJ@?$AAm?$AAb?$AAs?$AAc?$AAh?$AAr?$AA?4?$AAc?$AA?$AA@ 0053d474     LIBCMTD:mbschr.obj
 0003:0002e48c       ??_C@_1BO@JIBAMMGI@?$AAs?$AAt?$AAr?$AAi?$AAn?$AAg?$AA?5?$AA?$CB?$AA?$DN?$AA?5?$AAN?$AAU?$AAL?$AAL?$AA?$AA@ 0053d48c     LIBCMTD:mbschr.obj
 0003:0002e4b0       ??_C@_0BI@OMEMKBHH@Packet?5loss?5concealment?$AA@ 0053d4b0     pjmedia-audiodev-i386-win32-vc8-debug:audiodev.obj
 0003:0002e4cc       ??_C@_03NOPFEPFL@plg?$AA@  0053d4cc     pjmedia-audiodev-i386-win32-vc8-debug:audiodev.obj
 0003:0002e4d0       ??_C@_0BJ@MNDOFJGN@Comfort?5noise?5generation?$AA@ 0053d4d0     pjmedia-audiodev-i386-win32-vc8-debug:audiodev.obj
 0003:0002e4f0       ??_C@_03JPNNGDEE@cng?$AA@  0053d4f0     pjmedia-audiodev-i386-win32-vc8-debug:audiodev.obj
 0003:0002e4f4       ??_C@_0BJ@PEELNNPF@Voice?5activity?5detection?$AA@ 0053d4f4     pjmedia-audiodev-i386-win32-vc8-debug:audiodev.obj
 0003:0002e514       ??_C@_03NIGLNABH@vad?$AA@  0053d514     pjmedia-audiodev-i386-win32-vc8-debug:audiodev.obj
 0003:0002e518       ??_C@_0BM@PBLLADJD@Tail?5length?5setting?5for?5AEC?$AA@ 0053d518     pjmedia-audiodev-i386-win32-vc8-debug:audiodev.obj
 0003:0002e53c       ??_C@_08MKAPJCJE@aec?9tail?$AA@ 0053d53c     pjmedia-audiodev-i386-win32-vc8-debug:audiodev.obj
 0003:0002e548       ??_C@_0BM@HPDLGLFJ@Accoustic?5echo?5cancellation?$AA@ 0053d548     pjmedia-audiodev-i386-win32-vc8-debug:audiodev.obj
 0003:0002e56c       ??_C@_03FNONIBCK@aec?$AA@  0053d56c     pjmedia-audiodev-i386-win32-vc8-debug:audiodev.obj
 0003:0002e570       ??_C@_0P@JOFPIEJJ@Output?5routing?$AA@ 0053d570     pjmedia-audiodev-i386-win32-vc8-debug:audiodev.obj
 0003:0002e584       ??_C@_09IKMAGDNF@route?9out?$AA@ 0053d584     pjmedia-audiodev-i386-win32-vc8-debug:audiodev.obj
 0003:0002e590       ??_C@_0O@JDPFDDM@Input?5routing?$AA@ 0053d590     pjmedia-audiodev-i386-win32-vc8-debug:audiodev.obj
 0003:0002e5a0       ??_C@_08FPHJDLBG@route?9in?$AA@ 0053d5a0     pjmedia-audiodev-i386-win32-vc8-debug:audiodev.obj
 0003:0002e5ac       ??_C@_0N@GBEOEOEP@Output?5meter?$AA@ 0053d5ac     pjmedia-audiodev-i386-win32-vc8-debug:audiodev.obj
 0003:0002e5bc       ??_C@_09NKJLJGOJ@meter?9out?$AA@ 0053d5bc     pjmedia-audiodev-i386-win32-vc8-debug:audiodev.obj
 0003:0002e5c8       ??_C@_0M@NCGIGNPG@Input?5meter?$AA@ 0053d5c8     pjmedia-audiodev-i386-win32-vc8-debug:audiodev.obj
 0003:0002e5d8       ??_C@_08BPNDLGG@meter?9in?$AA@ 0053d5d8     pjmedia-audiodev-i386-win32-vc8-debug:audiodev.obj
 0003:0002e5e4       ??_C@_0BG@IBEHJHAD@Output?5volume?5setting?$AA@ 0053d5e4     pjmedia-audiodev-i386-win32-vc8-debug:audiodev.obj
 0003:0002e600       ??_C@_07LBFHFBAF@vol?9out?$AA@ 0053d600     pjmedia-audiodev-i386-win32-vc8-debug:audiodev.obj
 0003:0002e60c       ??_C@_0BF@CCEKOJAN@Input?5volume?5setting?$AA@ 0053d60c     pjmedia-audiodev-i386-win32-vc8-debug:audiodev.obj
 0003:0002e628       ??_C@_06KGGLCDDG@vol?9in?$AA@ 0053d628     pjmedia-audiodev-i386-win32-vc8-debug:audiodev.obj
 0003:0002e630       ??_C@_0CD@GAINMBC@Output?5latency?1buffer?5size?5setti@ 0053d630     pjmedia-audiodev-i386-win32-vc8-debug:audiodev.obj
 0003:0002e65c       ??_C@_0M@MBBBBCLJ@latency?9out?$AA@ 0053d65c     pjmedia-audiodev-i386-win32-vc8-debug:audiodev.obj
 0003:0002e66c       ??_C@_0CC@LIGOHOJN@Input?5latency?1buffer?5size?5settin@ 0053d66c     pjmedia-audiodev-i386-win32-vc8-debug:audiodev.obj
 0003:0002e694       ??_C@_0L@IKNMBADD@latency?9in?$AA@ 0053d694     pjmedia-audiodev-i386-win32-vc8-debug:audiodev.obj
 0003:0002e6a4       ??_C@_0BI@GGHCECPI@Extended?1non?9PCM?5format?$AA@ 0053d6a4     pjmedia-audiodev-i386-win32-vc8-debug:audiodev.obj
 0003:0002e6c0       ??_C@_07GBKCPIDJ@ext?9fmt?$AA@ 0053d6c0     pjmedia-audiodev-i386-win32-vc8-debug:audiodev.obj
 0003:0002e6cc       ??_C@_02HHFHKOHM@?$DP?$DP?$AA@ 0053d6cc     pjmedia-audiodev-i386-win32-vc8-debug:audiodev.obj
 0003:0002e6d0       ??_C@_0L@FGHHAHLM@audiodev?4c?$AA@ 0053d6d0     pjmedia-audiodev-i386-win32-vc8-debug:audiodev.obj
 0003:0002e6e0       ??_C@_0EF@NLCNMHAD@?$CFd?5device?$CIs?$CJ?5cannot?5be?5registere@ 0053d6e0     pjmedia-audiodev-i386-win32-vc8-debug:audiodev.obj
 0003:0002e734       ??_C@_1BM@DPBJELLN@?$AAa?$AAu?$AAd?$AA_?$AAs?$AAu?$AAb?$AAs?$AAy?$AAs?$AA?4?$AAp?$AAf?$AA?$AA@ 0053d734     pjmedia-audiodev-i386-win32-vc8-debug:audiodev.obj
 0003:0002e758       ??_C@_1EI@NEALAIDF@?$AAi?$AAn?$AAf?$AAo?$AA?5?$AA?$CG?$AA?$CG?$AA?5?$AAi?$AAd?$AA?$CB?$AA?$DN?$AAP?$AAJ?$AAM?$AAE?$AAD?$AAI?$AAA?$AA_?$AAA?$AAU?$AAD?$AA_?$AAI?$AAN?$AAV?$AAA?$AAL?$AAI?$AAD?$AA_@ 0053d758     pjmedia-audiodev-i386-win32-vc8-debug:audiodev.obj
 0003:0002e7b0       ??_C@_1HO@JDLGFBMB@?$AAd?$AA?3?$AA?2?$AAm?$AAy?$AAg?$AAi?$AAt?$AA?2?$AAp?$AAj?$AAp?$AAr?$AAo?$AAj?$AAe?$AAc?$AAt?$AA?9?$AA1?$AA?4?$AA4?$AA?2?$AAp?$AAj?$AAm?$AAe?$AAd?$AAi?$AAa?$AA?2?$AAs@ 0053d7b0     pjmedia-audiodev-i386-win32-vc8-debug:audiodev.obj
 0003:0002e848       ??_C@_1GG@CMJIPMBM@?$AA?$CK?$AAi?$AAd?$AA?$DO?$AA?$DN?$AA0?$AA?5?$AA?$CG?$AA?$CG?$AA?5?$AA?$CK?$AAi?$AAd?$AA?$DM?$AA?$CI?$AAi?$AAn?$AAt?$AA?$CJ?$AAa?$AAu?$AAd?$AA_?$AAs?$AAu?$AAb?$AAs?$AAy?$AAs?$AA?4?$AAd?$AAr@ 0053d848     pjmedia-audiodev-i386-win32-vc8-debug:audiodev.obj
 0003:0002e8c4       ??_C@_1DE@BIILPEEH@?$AAa?$AAu?$AAd?$AA_?$AAs?$AAu?$AAb?$AAs?$AAy?$AAs?$AA?4?$AAd?$AAr?$AAv?$AA?$FL?$AAd?$AAr?$AAv?$AA_?$AAi?$AAd?$AAx?$AA?$FN?$AA?4?$AAf?$AA?$AA@ 0053d8c4     pjmedia-audiodev-i386-win32-vc8-debug:audiodev.obj
 0003:0002e904       ??_C@_1DG@KGHCCJGJ@?$AAd?$AAr?$AAv?$AA_?$AAn?$AAa?$AAm?$AAe?$AA?5?$AA?$CG?$AA?$CG?$AA?5?$AAd?$AAe?$AAv?$AA_?$AAn?$AAa?$AAm?$AAe?$AA?5?$AA?$CG?$AA?$CG?$AA?5?$AAi?$AAd?$AA?$AA@ 0053d904     pjmedia-audiodev-i386-win32-vc8-debug:audiodev.obj
 0003:0002e948       ??_C@_1EK@DJOOKBNF@?$AAp?$AAa?$AAr?$AAa?$AAm?$AA?5?$AA?$CG?$AA?$CG?$AA?5?$AAi?$AAd?$AA?$CB?$AA?$DN?$AAP?$AAJ?$AAM?$AAE?$AAD?$AAI?$AAA?$AA_?$AAA?$AAU?$AAD?$AA_?$AAI?$AAN?$AAV?$AAA?$AAL?$AAI?$AAD@ 0053d948     pjmedia-audiodev-i386-win32-vc8-debug:audiodev.obj
 0003:0002e9a0       ??_C@_1IE@FJNJJMDO@?$AA?$CI?$AAp?$AAa?$AAr?$AAa?$AAm?$AA?4?$AAd?$AAi?$AAr?$AA?5?$AA?$CB?$AA?$DN?$AA?5?$AAP?$AAJ?$AAM?$AAE?$AAD?$AAI?$AAA?$AA_?$AAD?$AAI?$AAR?$AA_?$AAE?$AAN?$AAC?$AAO?$AAD?$AAI@ 0053d9a0     pjmedia-audiodev-i386-win32-vc8-debug:audiodev.obj
 0003:0002ea40       ??_C@_1CC@LOOLMMAJ@?$AAf?$AA?5?$AA?$CB?$AA?$DN?$AA?5?$AA?$CI?$AA?$CI?$AAv?$AAo?$AAi?$AAd?$AA?5?$AA?$CK?$AA?$CJ?$AA0?$AA?$CJ?$AA?$AA@ 0053da40     pjmedia-audiodev-i386-win32-vc8-debug:audiodev.obj
 0003:0002ea68       ??_C@_1NI@MGDONOEB@?$AAp?$AAr?$AAm?$AA?9?$AA?$DO?$AAd?$AAi?$AAr?$AA?$DN?$AA?$DN?$AAP?$AAJ?$AAM?$AAE?$AAD?$AAI?$AAA?$AA_?$AAD?$AAI?$AAR?$AA_?$AAE?$AAN?$AAC?$AAO?$AAD?$AAI?$AAN?$AAG?$AA?5?$AA?$HM@ 0053da68     pjmedia-audiodev-i386-win32-vc8-debug:audiodev.obj
 0003:0002eb6c       ??_C@_1DM@JABAMPOD@?$AAp?$AAr?$AAm?$AA?5?$AA?$CG?$AA?$CG?$AA?5?$AAp?$AAr?$AAm?$AA?9?$AA?$DO?$AAd?$AAi?$AAr?$AA?5?$AA?$CG?$AA?$CG?$AA?5?$AAp?$AA_?$AAa?$AAu?$AAd?$AA_?$AAs?$AAt?$AAr?$AAm?$AA?$AA@ 0053db6c     pjmedia-audiodev-i386-win32-vc8-debug:audiodev.obj
 0003:0002ebb4       ??_C@_1BM@GLEMCIF@?$AAs?$AAt?$AAr?$AAm?$AA?5?$AA?$CG?$AA?$CG?$AA?5?$AAp?$AAa?$AAr?$AAa?$AAm?$AA?$AA@ 0053dbb4     pjmedia-audiodev-i386-win32-vc8-debug:audiodev.obj
 0003:0002ebd8       ??_C@_04CPNMDOAK@WMME?$AA@ 0053dbd8     pjmedia-audiodev-i386-win32-vc8-debug:wmme_dev.obj
 0003:0002ebe0       ??_C@_0CA@NLJGEGOG@?5dev_id?5?$CFd?3?5?$CFs?5?5?$CIin?$DN?$CFd?0?5out?$DN?$CFd?$CJ?$AA@ 0053dbe0     pjmedia-audiodev-i386-win32-vc8-debug:wmme_dev.obj
 0003:0002ec08       ??_C@_0CE@ELPIODDO@WMME?5initialized?0?5found?5?$CFd?5devic@ 0053dc08     pjmedia-audiodev-i386-win32-vc8-debug:wmme_dev.obj
 0003:0002ec34       ??_C@_0L@HHCCMOGO@wmme_dev?4c?$AA@ 0053dc34     pjmedia-audiodev-i386-win32-vc8-debug:wmme_dev.obj
 0003:0002ec44       ??_C@_0BM@OMJMEAMB@WMME?5found?5no?5sound?5devices?$AA@ 0053dc44     pjmedia-audiodev-i386-win32-vc8-debug:wmme_dev.obj
 0003:0002ec68       ??_C@_0M@KBHHDDLP@Wave?5mapper?$AA@ 0053dc68     pjmedia-audiodev-i386-win32-vc8-debug:wmme_dev.obj
 0003:0002ec78       ??_C@_1CM@DCIMFEME@?$AAi?$AAn?$AAd?$AAe?$AAx?$AA?5?$AA?$DM?$AA?5?$AAw?$AAf?$AA?9?$AA?$DO?$AAd?$AAe?$AAv?$AA_?$AAc?$AAo?$AAu?$AAn?$AAt?$AA?$AA@ 0053dc78     pjmedia-audiodev-i386-win32-vc8-debug:wmme_dev.obj
 0003:0002ecb0       ??_C@_1HO@MBFKLDAG@?$AAd?$AA?3?$AA?2?$AAm?$AAy?$AAg?$AAi?$AAt?$AA?2?$AAp?$AAj?$AAp?$AAr?$AAo?$AAj?$AAe?$AAc?$AAt?$AA?9?$AA1?$AA?4?$AA4?$AA?2?$AAp?$AAj?$AAm?$AAe?$AAd?$AAi?$AAa?$AA?2?$AAs@ 0053dcb0     pjmedia-audiodev-i386-win32-vc8-debug:wmme_dev.obj
 0003:0002ed48       ??_C@_04ODOGNMHC@wmme?$AA@ 0053dd48     pjmedia-audiodev-i386-win32-vc8-debug:wmme_dev.obj
 0003:0002ed50       ??_C@_1CI@KPEGEECM@?$AAp?$AAo?$AAo?$AAl?$AA?5?$AA?$CB?$AA?$DN?$AA?5?$AA?$CI?$AA?$CI?$AAv?$AAo?$AAi?$AAd?$AA?5?$AA?$CK?$AA?$CJ?$AA0?$AA?$CJ?$AA?$AA@ 0053dd50     pjmedia-audiodev-i386-win32-vc8-debug:wmme_dev.obj
 0003:0002ed80       ??_C@_08MOOOBPLB@wmme?9dev?$AA@ 0053dd80     pjmedia-audiodev-i386-win32-vc8-debug:wmme_dev.obj
 0003:0002ed90       ??_C@_0HB@MKIBCFPJ@?5WaveAPI?5Sound?5player?5?$CC?$CFs?$CC?5initi@ 0053dd90     pjmedia-audiodev-i386-win32-vc8-debug:wmme_dev.obj
 0003:0002ee18       ??_C@_1EE@KABDJHEG@?$AAp?$AAr?$AAm?$AA?9?$AA?$DO?$AAp?$AAl?$AAa?$AAy?$AA_?$AAi?$AAd?$AA?5?$AA?$DM?$AA?5?$AA?$CI?$AAi?$AAn?$AAt?$AA?$CJ?$AAw?$AAf?$AA?9?$AA?$DO?$AAd?$AAe?$AAv?$AA_?$AAc?$AAo?$AAu?$AAn@ 0053de18     pjmedia-audiodev-i386-win32-vc8-debug:wmme_dev.obj
 0003:0002ee6c       ??_C@_03CCLNCNJA@PCM?$AA@  0053de6c     pjmedia-audiodev-i386-win32-vc8-debug:wmme_dev.obj
 0003:0002ee70       ??_C@_0HD@PIICIPL@?5WaveAPI?5Sound?5recorder?5?$CC?$CFs?$CC?5ini@ 0053de70     pjmedia-audiodev-i386-win32-vc8-debug:wmme_dev.obj
 0003:0002ef00       ??_C@_1EC@CICBGNKJ@?$AAp?$AAr?$AAm?$AA?9?$AA?$DO?$AAr?$AAe?$AAc?$AA_?$AAi?$AAd?$AA?5?$AA?$DM?$AA?5?$AA?$CI?$AAi?$AAn?$AAt?$AA?$CJ?$AAw?$AAf?$AA?9?$AA?$DO?$AAd?$AAe?$AAv?$AA_?$AAc?$AAo?$AAu?$AAn?$AAt@ 0053df00     pjmedia-audiodev-i386-win32-vc8-debug:wmme_dev.obj
 0003:0002ef50       ??_C@_0BI@BEJPJEBJ@WMME?3?5thread?5stopping?4?4?$AA@ 0053df50     pjmedia-audiodev-i386-win32-vc8-debug:wmme_dev.obj
 0003:0002ef6c       ??_C@_1DI@LANCDOGM@?$AA?$CB?$AA?$CC?$AAF?$AAr?$AAa?$AAm?$AAe?$AA?5?$AAt?$AAy?$AAp?$AAe?$AA?5?$AAn?$AAo?$AAt?$AA?5?$AAs?$AAu?$AAp?$AAp?$AAo?$AAr?$AAt?$AAe?$AAd?$AA?$CC?$AA?$AA@ 0053df6c     pjmedia-audiodev-i386-win32-vc8-debug:wmme_dev.obj
 0003:0002efb0       ??_C@_0BJ@JGIOJGMH@Frame?5type?5not?5supported?$AA@ 0053dfb0     pjmedia-audiodev-i386-win32-vc8-debug:wmme_dev.obj
 0003:0002efd0       ??_C@_1BG@DEEBDKCH@?$AAs?$AAt?$AAr?$AAm?$AA?5?$AA?$CG?$AA?$CG?$AA?5?$AAp?$AAi?$AA?$AA@ 0053dfd0     pjmedia-audiodev-i386-win32-vc8-debug:wmme_dev.obj
 0003:0002efec       ??_C@_1BE@IKBALJHE@?$AAs?$AA?5?$AA?$CG?$AA?$CG?$AA?5?$AAp?$AAv?$AAa?$AAl?$AA?$AA@ 0053dfec     pjmedia-audiodev-i386-win32-vc8-debug:wmme_dev.obj
 0003:0002f004       ??_C@_0BM@NKDLICNM@WMME?5capture?5stream?5started?$AA@ 0053e004     pjmedia-audiodev-i386-win32-vc8-debug:wmme_dev.obj
 0003:0002f028       ??_C@_0BN@MNACKNIN@WMME?5playback?5stream?5started?$AA@ 0053e028     pjmedia-audiodev-i386-win32-vc8-debug:wmme_dev.obj
 0003:0002f04c       ??_C@_0BM@KCHDOGNE@Stopped?5WMME?5capture?5stream?$AA@ 0053e04c     pjmedia-audiodev-i386-win32-vc8-debug:wmme_dev.obj
 0003:0002f070       ??_C@_0BN@FMJNHCPG@Stopped?5WMME?5playback?5stream?$AA@ 0053e070     pjmedia-audiodev-i386-win32-vc8-debug:wmme_dev.obj
 0003:0002f094       ??_C@_1CM@EEPLMOAE@?$AAs?$AAt?$AAr?$AAe?$AAa?$AAm?$AA?5?$AA?$CB?$AA?$DN?$AA?5?$AA?$CI?$AA?$CI?$AAv?$AAo?$AAi?$AAd?$AA?5?$AA?$CK?$AA?$CJ?$AA0?$AA?$CJ?$AA?$AA@ 0053e094     pjmedia-audiodev-i386-win32-vc8-debug:wmme_dev.obj
 0003:0002f0c8       ??_C@_0DE@LJJGJIEF@Bad?5audio?5latency?5setting?5?$CIPJMED@ 0053e0c8     pjmedia-audiodev-i386-win32-vc8-debug:errno.obj
 0003:0002f108       ??_C@_0DN@BLAJILEA@Invalid?5audio?5device?5sample?5form@ 0053e108     pjmedia-audiodev-i386-win32-vc8-debug:errno.obj
 0003:0002f154       ??_C@_0DM@JKDJGBNG@Bad?5or?5invalid?5audio?5device?5form@ 0053e154     pjmedia-audiodev-i386-win32-vc8-debug:errno.obj
 0003:0002f1a0       ??_C@_0ED@PLJALPOA@Invalid?5or?5unsupported?5audio?5dev@ 0053e1a0     pjmedia-audiodev-i386-win32-vc8-debug:errno.obj
 0003:0002f1f0       ??_C@_0DO@NMIGLFFA@Invalid?5or?5unsupported?5audio?5cap@ 0053e1f0     pjmedia-audiodev-i386-win32-vc8-debug:errno.obj
 0003:0002f23c       ??_C@_0CP@JIPJOIMB@Audio?5device?5not?5ready?5?$CIPJMEDIA_@ 0053e23c     pjmedia-audiodev-i386-win32-vc8-debug:errno.obj
 0003:0002f274       ??_C@_0DM@DPDKGMIE@Unable?5to?5find?5default?5audio?5dev@ 0053e274     pjmedia-audiodev-i386-win32-vc8-debug:errno.obj
 0003:0002f2bc       ??_C@_0CM@LOPLLMHO@Found?5no?5audio?5devices?5?$CIPJMEDIA_@ 0053e2bc     pjmedia-audiodev-i386-win32-vc8-debug:errno.obj
 0003:0002f2f0       ??_C@_0CL@NCBJPCNF@Invalid?5audio?5device?5?$CIPJMEDIA_EA@ 0053e2f0     pjmedia-audiodev-i386-win32-vc8-debug:errno.obj
 0003:0002f324       ??_C@_0DE@DOHCBKFK@Audio?5subsystem?5not?5initialized?5@ 0053e324     pjmedia-audiodev-i386-win32-vc8-debug:errno.obj
 0003:0002f364       ??_C@_0DG@FEDKLOFB@Unknown?5error?5from?5audio?5driver?5@ 0053e364     pjmedia-audiodev-i386-win32-vc8-debug:errno.obj
 0003:0002f3a4       ??_C@_0DC@MHBBCDGM@Unspecified?5audio?5device?5error?5?$CI@ 0053e3a4     pjmedia-audiodev-i386-win32-vc8-debug:errno.obj
 0003:0002f454       ??_C@_0CC@MFOJNIAN@Unknown?5pjmedia?9audiodev?5error?5?$CF@ 0053e454     pjmedia-audiodev-i386-win32-vc8-debug:errno.obj
 0003:0002f47c       ??_C@_0BJ@GMHLEOAL@MMSYSTEM?5native?5error?5?$CFd?$AA@ 0053e47c     pjmedia-audiodev-i386-win32-vc8-debug:errno.obj
 0003:0002fdfc       ??_R4bad_exception@std@@6B@ 0053edfc     LIBCMTD:frame.obj
 0003:0002fe14       ??_R3bad_exception@std@@8  0053ee14     LIBCMTD:frame.obj
 0003:0002fe28       ??_R2bad_exception@std@@8  0053ee28     LIBCMTD:frame.obj
 0003:0002fe34       ??_R1A@?0A@EA@bad_exception@std@@8 0053ee34     LIBCMTD:frame.obj
 0003:0002fe58       ??_R1A@?0A@EA@exception@std@@8 0053ee58     LIBCMTD:frame.obj
 0003:0002fe7c       ??_R3exception@std@@8      0053ee7c     LIBCMTD:frame.obj
 0003:0002fe90       ??_R2exception@std@@8      0053ee90     LIBCMTD:frame.obj
 0003:0002fe98       ??_R4type_info@@6B@        0053ee98     LIBCMTD:typinfo.obj
 0003:0002feb0       ??_R3type_info@@8          0053eeb0     LIBCMTD:typinfo.obj
 0003:0002fec4       ??_R2type_info@@8          0053eec4     LIBCMTD:typinfo.obj
 0003:0002fecc       ??_R1A@?0A@EA@type_info@@8 0053eecc     LIBCMTD:typinfo.obj
 0003:0002fef0       ??_R4exception@std@@6B@    0053eef0     LIBCMTD:stdexcpt.obj
 0003:0002ff08       ??_R4bad_cast@std@@6B@     0053ef08     LIBCMTD:stdexcpt.obj
 0003:0002ff20       ??_R3bad_cast@std@@8       0053ef20     LIBCMTD:stdexcpt.obj
 0003:0002ff34       ??_R2bad_cast@std@@8       0053ef34     LIBCMTD:stdexcpt.obj
 0003:0002ff40       ??_R1A@?0A@EA@bad_cast@std@@8 0053ef40     LIBCMTD:stdexcpt.obj
 0003:0002ff64       ??_R4bad_typeid@std@@6B@   0053ef64     LIBCMTD:stdexcpt.obj
 0003:0002ff7c       ??_R3bad_typeid@std@@8     0053ef7c     LIBCMTD:stdexcpt.obj
 0003:0002ff90       ??_R2bad_typeid@std@@8     0053ef90     LIBCMTD:stdexcpt.obj
 0003:0002ff9c       ??_R1A@?0A@EA@bad_typeid@std@@8 0053ef9c     LIBCMTD:stdexcpt.obj
 0003:0002ffc0       ??_R4__non_rtti_object@std@@6B@ 0053efc0     LIBCMTD:stdexcpt.obj
 0003:0002ffd8       ??_R3__non_rtti_object@std@@8 0053efd8     LIBCMTD:stdexcpt.obj
 0003:0002ffec       ??_R2__non_rtti_object@std@@8 0053efec     LIBCMTD:stdexcpt.obj
 0003:0002fffc       ??_R1A@?0A@EA@__non_rtti_object@std@@8 0053effc     LIBCMTD:stdexcpt.obj
 0003:00030020       ??_R4DNameNode@@6B@        0053f020     LIBCMTD:undname.obj
 0003:00030038       ??_R3DNameNode@@8          0053f038     LIBCMTD:undname.obj
 0003:0003004c       ??_R2DNameNode@@8          0053f04c     LIBCMTD:undname.obj
 0003:00030054       ??_R1A@?0A@EA@DNameNode@@8 0053f054     LIBCMTD:undname.obj
 0003:00030078       ??_R4charNode@@6B@         0053f078     LIBCMTD:undname.obj
 0003:00030090       ??_R3charNode@@8           0053f090     LIBCMTD:undname.obj
 0003:000300a4       ??_R2charNode@@8           0053f0a4     LIBCMTD:undname.obj
 0003:000300b0       ??_R1A@?0A@EA@charNode@@8  0053f0b0     LIBCMTD:undname.obj
 0003:000300d4       ??_R4pcharNode@@6B@        0053f0d4     LIBCMTD:undname.obj
 0003:000300ec       ??_R3pcharNode@@8          0053f0ec     LIBCMTD:undname.obj
 0003:00030100       ??_R2pcharNode@@8          0053f100     LIBCMTD:undname.obj
 0003:0003010c       ??_R1A@?0A@EA@pcharNode@@8 0053f10c     LIBCMTD:undname.obj
 0003:00030130       ??_R4pDNameNode@@6B@       0053f130     LIBCMTD:undname.obj
 0003:00030148       ??_R3pDNameNode@@8         0053f148     LIBCMTD:undname.obj
 0003:0003015c       ??_R2pDNameNode@@8         0053f15c     LIBCMTD:undname.obj
 0003:00030168       ??_R1A@?0A@EA@pDNameNode@@8 0053f168     LIBCMTD:undname.obj
 0003:0003018c       ??_R4DNameStatusNode@@6B@  0053f18c     LIBCMTD:undname.obj
 0003:000301a4       ??_R3DNameStatusNode@@8    0053f1a4     LIBCMTD:undname.obj
 0003:000301b8       ??_R2DNameStatusNode@@8    0053f1b8     LIBCMTD:undname.obj
 0003:000301c4       ??_R1A@?0A@EA@DNameStatusNode@@8 0053f1c4     LIBCMTD:undname.obj
 0003:00030300       ___rtc_iaa                 0053f300     LIBCMTD:initsect.obj
 0003:00030404       ___rtc_izz                 0053f404     LIBCMTD:initsect.obj
 0003:00030508       ___rtc_taa                 0053f508     LIBCMTD:initsect.obj
 0003:0003060c       ___rtc_tzz                 0053f60c     LIBCMTD:initsect.obj
 0003:00031170       __TI2?AVbad_exception@std@@ 00540170     LIBCMTD:frame.obj
 0003:00031184       __CTA2?AVbad_exception@std@@ 00540184     LIBCMTD:frame.obj
 0003:00031194       __CT??_R0?AVbad_exception@std@@@8??0bad_exception@std@@QAE@ABV01@@Z12 00540194     LIBCMTD:frame.obj
 0003:000311b4       __CT??_R0?AVexception@std@@@8??0exception@std@@QAE@ABV01@@Z12 005401b4     LIBCMTD:frame.obj
 0004:00000e5c       _pjmedia_add_rtpmap_for_static_pt 00541e5c     pjmedia-i386-win32-vc8-debug:endpoint.obj
 0004:00000e60       ?__LINE__Var@?1??pjmedia_endpt_create@@9@9 00541e60     pjmedia-i386-win32-vc8-debug:endpoint.obj
 0004:00000e64       ?__LINE__Var@?1??pjmedia_endpt_destroy@@9@9 00541e64     pjmedia-i386-win32-vc8-debug:endpoint.obj
 0004:00000e68       ?__LINE__Var@?1??pjmedia_endpt_get_ioqueue@@9@9 00541e68     pjmedia-i386-win32-vc8-debug:endpoint.obj
 0004:00000e6c       ?__LINE__Var@?1??pjmedia_endpt_get_thread_count@@9@9 00541e6c     pjmedia-i386-win32-vc8-debug:endpoint.obj
 0004:00000e70       ?__LINE__Var@?1??pjmedia_endpt_get_thread@@9@9 00541e70     pjmedia-i386-win32-vc8-debug:endpoint.obj
 0004:00000e74       ?__LINE__Var@?1??pjmedia_endpt_create_pool@@9@9 00541e74     pjmedia-i386-win32-vc8-debug:endpoint.obj
 0004:00000e78       ?__LINE__Var@?1??pjmedia_endpt_create_sdp@@9@9 00541e78     pjmedia-i386-win32-vc8-debug:endpoint.obj
 0004:00000eac       ?__LINE__Var@?1??pjmedia_port_get_frame@@9@9 00541eac     pjmedia-i386-win32-vc8-debug:port.obj
 0004:00000eb0       ?__LINE__Var@?1??pjmedia_port_put_frame@@9@9 00541eb0     pjmedia-i386-win32-vc8-debug:port.obj
 0004:00000eb4       ?__LINE__Var@?1??pjmedia_port_destroy@@9@9 00541eb4     pjmedia-i386-win32-vc8-debug:port.obj
 0004:00000eb8       ?__LINE__Var@?1??pjmedia_wav_writer_port_create@@9@9 00541eb8     pjmedia-i386-win32-vc8-debug:wav_writer.obj
 0004:00000ebc       ?__LINE__Var@?1??pjmedia_wav_writer_port_get_pos@@9@9 00541ebc     pjmedia-i386-win32-vc8-debug:wav_writer.obj
 0004:00000ec0       ?__LINE__Var@?1??pjmedia_wav_writer_port_set_cb@@9@9 00541ec0     pjmedia-i386-win32-vc8-debug:wav_writer.obj
 0004:00000ec4       ?__LINE__Var@?1??file_put_frame@@9@9@7e0258f0 00541ec4     pjmedia-i386-win32-vc8-debug:wav_writer.obj
 0004:00000ec8       ?__LINE__Var@?1??file_on_destroy@@9@9@7e0258f0 00541ec8     pjmedia-i386-win32-vc8-debug:wav_writer.obj
 0004:00000ecc       ?__LINE__Var@?1??pjmedia_wav_player_port_create@@9@9 00541ecc     pjmedia-i386-win32-vc8-debug:wav_player.obj
 0004:00000ed0       ?__LINE__Var@?1??pjmedia_wav_player_get_len@@9@9 00541ed0     pjmedia-i386-win32-vc8-debug:wav_player.obj
 0004:00000ed4       ?__LINE__Var@?1??pjmedia_wav_player_port_set_pos@@9@9 00541ed4     pjmedia-i386-win32-vc8-debug:wav_player.obj
 0004:00000ed8       ?__LINE__Var@?1??pjmedia_wav_player_port_get_pos@@9@9 00541ed8     pjmedia-i386-win32-vc8-debug:wav_player.obj
 0004:00000edc       ?__LINE__Var@?1??pjmedia_wav_player_set_eof_cb@@9@9 00541edc     pjmedia-i386-win32-vc8-debug:wav_player.obj
 0004:00000ee0       ?__LINE__Var@?1??file_get_frame@@9@9@57e5f0a6 00541ee0     pjmedia-i386-win32-vc8-debug:wav_player.obj
 0004:00000ee4       ?__LINE__Var@?1??file_on_destroy@@9@9@57e5f0a6 00541ee4     pjmedia-i386-win32-vc8-debug:wav_player.obj
 0004:00000ee8       ?__LINE__Var@?1??pjmedia_codec_mgr_init@@9@9 00541ee8     pjmedia-i386-win32-vc8-debug:codec.obj
 0004:00000eec       ?__LINE__Var@?1??pjmedia_codec_mgr_destroy@@9@9 00541eec     pjmedia-i386-win32-vc8-debug:codec.obj
 0004:00000ef0       ?__LINE__Var@?1??pjmedia_codec_mgr_register_factory@@9@9 00541ef0     pjmedia-i386-win32-vc8-debug:codec.obj
 0004:00000ef4       ?__LINE__Var@?1??pjmedia_codec_mgr_unregister_factory@@9@9 00541ef4     pjmedia-i386-win32-vc8-debug:codec.obj
 0004:00000ef8       ?__LINE__Var@?1??pjmedia_codec_mgr_enum_codecs@@9@9 00541ef8     pjmedia-i386-win32-vc8-debug:codec.obj
 0004:00000efc       ?__LINE__Var@?1??pjmedia_codec_mgr_get_codec_info@@9@9 00541efc     pjmedia-i386-win32-vc8-debug:codec.obj
 0004:00000f00       ?__LINE__Var@?1??pjmedia_codec_info_to_id@@9@9 00541f00     pjmedia-i386-win32-vc8-debug:codec.obj
 0004:00000f04       ?__LINE__Var@?1??pjmedia_codec_mgr_find_codecs_by_id@@9@9 00541f04     pjmedia-i386-win32-vc8-debug:codec.obj
 0004:00000f08       ?__LINE__Var@?1??pjmedia_codec_mgr_set_codec_priority@@9@9 00541f08     pjmedia-i386-win32-vc8-debug:codec.obj
 0004:00000f0c       ?__LINE__Var@?1??pjmedia_codec_mgr_alloc_codec@@9@9 00541f0c     pjmedia-i386-win32-vc8-debug:codec.obj
 0004:00000f10       ?__LINE__Var@?1??pjmedia_codec_mgr_get_default_param@@9@9 00541f10     pjmedia-i386-win32-vc8-debug:codec.obj
 0004:00000f14       ?__LINE__Var@?1??pjmedia_codec_mgr_set_default_param@@9@9 00541f14     pjmedia-i386-win32-vc8-debug:codec.obj
 0004:00000f18       ?__LINE__Var@?1??pjmedia_codec_mgr_dealloc_codec@@9@9 00541f18     pjmedia-i386-win32-vc8-debug:codec.obj
 0004:00000f1c       ?__LINE__Var@?1??pjmedia_sdp_attr_create@@9@9 00541f1c     pjmedia-i386-win32-vc8-debug:sdp.obj
 0004:00000f20       ?__LINE__Var@?1??pjmedia_sdp_attr_clone@@9@9 00541f20     pjmedia-i386-win32-vc8-debug:sdp.obj
 0004:00000f24       ?__LINE__Var@?1??pjmedia_sdp_attr_add@@9@9 00541f24     pjmedia-i386-win32-vc8-debug:sdp.obj
 0004:00000f28       ?__LINE__Var@?1??pjmedia_sdp_attr_remove_all@@9@9 00541f28     pjmedia-i386-win32-vc8-debug:sdp.obj
 0004:00000f2c       ?__LINE__Var@?1??pjmedia_sdp_attr_remove@@9@9 00541f2c     pjmedia-i386-win32-vc8-debug:sdp.obj
 0004:00000f30       ?__LINE__Var@?1??pjmedia_sdp_attr_get_rtpmap@@9@9 00541f30     pjmedia-i386-win32-vc8-debug:sdp.obj
 0004:00000f34       ?__LINE__Var@?1??pjmedia_sdp_attr_get_fmtp@@9@9 00541f34     pjmedia-i386-win32-vc8-debug:sdp.obj
 0004:00000f38       ?__LINE__Var@?1??pjmedia_sdp_attr_get_rtcp@@9@9 00541f38     pjmedia-i386-win32-vc8-debug:sdp.obj
 0004:00000f3c       ?__LINE__Var@?1??pjmedia_sdp_attr_create_rtcp@@9@9 00541f3c     pjmedia-i386-win32-vc8-debug:sdp.obj
 0004:00000f40       ?__LINE__Var@?1??pjmedia_sdp_attr_to_rtpmap@@9@9 00541f40     pjmedia-i386-win32-vc8-debug:sdp.obj
 0004:00000f44       ?__LINE__Var@?1??pjmedia_sdp_rtpmap_to_attr@@9@9 00541f44     pjmedia-i386-win32-vc8-debug:sdp.obj
 0004:00000f48       ?__LINE__Var@?1??pjmedia_sdp_media_clone@@9@9 00541f48     pjmedia-i386-win32-vc8-debug:sdp.obj
 0004:00000f4c       ?__LINE__Var@?1??pjmedia_sdp_media_find_attr@@9@9 00541f4c     pjmedia-i386-win32-vc8-debug:sdp.obj
 0004:00000f50       ?__LINE__Var@?1??pjmedia_sdp_media_find_attr2@@9@9 00541f50     pjmedia-i386-win32-vc8-debug:sdp.obj
 0004:00000f54       ?__LINE__Var@?1??pjmedia_sdp_parse@@9@9 00541f54     pjmedia-i386-win32-vc8-debug:sdp.obj
 0004:00000f58       ?__LINE__Var@?1??pjmedia_sdp_session_clone@@9@9 00541f58     pjmedia-i386-win32-vc8-debug:sdp.obj
 0004:00000f5c       ?__LINE__Var@?1??pjmedia_sdp_media_deactivate@@9@9 00541f5c     pjmedia-i386-win32-vc8-debug:sdp.obj
 0004:00000f60       ?__LINE__Var@?1??pjmedia_sdp_media_clone_deactivate@@9@9 00541f60     pjmedia-i386-win32-vc8-debug:sdp.obj
 0004:00000f64       ?__LINE__Var@?1??speex_aec_create@@9@9 00541f64     pjmedia-i386-win32-vc8-debug:echo_speex.obj
 0004:00000f68       ?__LINE__Var@?1??speex_aec_destroy@@9@9 00541f68     pjmedia-i386-win32-vc8-debug:echo_speex.obj
 0004:00000f6c       ?__LINE__Var@?1??speex_aec_cancel_echo@@9@9 00541f6c     pjmedia-i386-win32-vc8-debug:echo_speex.obj
 0004:00000f70       _state_names               00541f70     pjmedia-i386-win32-vc8-debug:echo_suppress.obj
 0004:00000f88       ?__LINE__Var@?1??echo_supp_create@@9@9 00541f88     pjmedia-i386-win32-vc8-debug:echo_suppress.obj
 0004:00000f8c       ?__LINE__Var@?1??echo_supp_cancel_echo@@9@9 00541f8c     pjmedia-i386-win32-vc8-debug:echo_suppress.obj
 0004:00000f90       ?__LINE__Var@?1??echo_supp_update@@9@9@a01e6b99 00541f90     pjmedia-i386-win32-vc8-debug:echo_suppress.obj
 0004:00000f94       ?__LINE__Var@?1??pjmedia_delay_buf_create@@9@9 00541f94     pjmedia-i386-win32-vc8-debug:delaybuf.obj
 0004:00000f98       ?__LINE__Var@?1??pjmedia_delay_buf_destroy@@9@9 00541f98     pjmedia-i386-win32-vc8-debug:delaybuf.obj
 0004:00000f9c       ?__LINE__Var@?1??pjmedia_delay_buf_put@@9@9 00541f9c     pjmedia-i386-win32-vc8-debug:delaybuf.obj
 0004:00000fa0       ?__LINE__Var@?1??shrink_buffer@@9@9@e0df072a 00541fa0     pjmedia-i386-win32-vc8-debug:delaybuf.obj
 0004:00000fa4       ?__LINE__Var@?1??pjmedia_delay_buf_get@@9@9 00541fa4     pjmedia-i386-win32-vc8-debug:delaybuf.obj
 0004:00000fa8       ?__LINE__Var@?1??pjmedia_delay_buf_reset@@9@9 00541fa8     pjmedia-i386-win32-vc8-debug:delaybuf.obj
 0004:000010d4       ?__LINE__Var@?1??pjmedia_srtp_setting_default@@9@9 005420d4     pjmedia-i386-win32-vc8-debug:transport_srtp.obj
 0004:000010d8       ?__LINE__Var@?1??pjmedia_transport_srtp_create@@9@9 005420d8     pjmedia-i386-win32-vc8-debug:transport_srtp.obj
 0004:000010dc       ?__LINE__Var@?1??pjmedia_transport_srtp_start@@9@9 005420dc     pjmedia-i386-win32-vc8-debug:transport_srtp.obj
 0004:000010e0       ?__LINE__Var@?1??pjmedia_transport_srtp_stop@@9@9 005420e0     pjmedia-i386-win32-vc8-debug:transport_srtp.obj
 0004:000010e4       ?__LINE__Var@?1??pjmedia_transport_srtp_get_member@@9@9 005420e4     pjmedia-i386-win32-vc8-debug:transport_srtp.obj
 0004:000010e8       ?__LINE__Var@?1??transport_get_info@@9@9@7d909500 005420e8     pjmedia-i386-win32-vc8-debug:transport_srtp.obj
 0004:000010ec       ?__LINE__Var@?1??transport_attach@@9@9@7d909500 005420ec     pjmedia-i386-win32-vc8-debug:transport_srtp.obj
 0004:000010f0       ?__LINE__Var@?1??transport_detach@@9@9@7d909500 005420f0     pjmedia-i386-win32-vc8-debug:transport_srtp.obj
 0004:000010f4       ?__LINE__Var@?1??transport_simulate_lost@@9@9@7d909500 005420f4     pjmedia-i386-win32-vc8-debug:transport_srtp.obj
 0004:000010f8       ?__LINE__Var@?1??transport_destroy@@9@9@7d909500 005420f8     pjmedia-i386-win32-vc8-debug:transport_srtp.obj
 0004:000010fc       ?__LINE__Var@?1??srtp_rtp_cb@@9@9@7d909500 005420fc     pjmedia-i386-win32-vc8-debug:transport_srtp.obj
 0004:00001100       ?__LINE__Var@?1??srtp_rtcp_cb@@9@9@7d909500 00542100     pjmedia-i386-win32-vc8-debug:transport_srtp.obj
 0004:00001104       ?__LINE__Var@?1??transport_media_create@@9@9@7d909500 00542104     pjmedia-i386-win32-vc8-debug:transport_srtp.obj
 0004:00001108       ?__LINE__Var@?1??transport_encode_sdp@@9@9@7d909500 00542108     pjmedia-i386-win32-vc8-debug:transport_srtp.obj
 0004:0000110c       ?__LINE__Var@?1??generate_crypto_attr_value@@9@9@7d909500 0054210c     pjmedia-i386-win32-vc8-debug:transport_srtp.obj
 0004:00001110       ?__LINE__Var@?1??transport_media_start@@9@9@7d909500 00542110     pjmedia-i386-win32-vc8-debug:transport_srtp.obj
 0004:00001114       ?__LINE__Var@?1??transport_media_stop@@9@9@7d909500 00542114     pjmedia-i386-win32-vc8-debug:transport_srtp.obj
 0004:00001118       ?__LINE__Var@?1??pjmedia_transport_srtp_decrypt_pkt@@9@9 00542118     pjmedia-i386-win32-vc8-debug:transport_srtp.obj
 0004:0000111c       ?__LINE__Var@?1??pjmedia_silence_det_create@@9@9 0054211c     pjmedia-i386-win32-vc8-debug:silencedet.obj
 0004:00001120       ?__LINE__Var@?1??pjmedia_silence_det_set_name@@9@9 00542120     pjmedia-i386-win32-vc8-debug:silencedet.obj
 0004:00001124       ?__LINE__Var@?1??pjmedia_silence_det_set_adaptive@@9@9 00542124     pjmedia-i386-win32-vc8-debug:silencedet.obj
 0004:00001128       ?__LINE__Var@?1??pjmedia_silence_det_set_fixed@@9@9 00542128     pjmedia-i386-win32-vc8-debug:silencedet.obj
 0004:0000112c       ?__LINE__Var@?1??pjmedia_silence_det_set_params@@9@9 0054212c     pjmedia-i386-win32-vc8-debug:silencedet.obj
 0004:00001130       ?__LINE__Var@?1??pjmedia_silence_det_disable@@9@9 00542130     pjmedia-i386-win32-vc8-debug:silencedet.obj
 0004:00001134       ?__LINE__Var@?1??pjmedia_silence_det_apply@@9@9 00542134     pjmedia-i386-win32-vc8-debug:silencedet.obj
 0004:00001138       ?__LINE__Var@?1??pjmedia_wsola_create@@9@9 00542138     pjmedia-i386-win32-vc8-debug:wsola.obj
 0004:0000113c       ?__LINE__Var@?1??pjmedia_wsola_set_max_expand@@9@9 0054213c     pjmedia-i386-win32-vc8-debug:wsola.obj
 0004:00001140       ?__LINE__Var@?1??pjmedia_wsola_reset@@9@9 00542140     pjmedia-i386-win32-vc8-debug:wsola.obj
 0004:00001144       ?__LINE__Var@?1??expand@@9@9@18710e2c 00542144     pjmedia-i386-win32-vc8-debug:wsola.obj
 0004:00001148       ?__LINE__Var@?1??pjmedia_wsola_discard@@9@9 00542148     pjmedia-i386-win32-vc8-debug:wsola.obj
 0004:0000114c       _pj_optind                 0054214c     pjlib-util-i386-win32-vc8-debug:getopt.obj
 0004:00001150       _pj_optopt                 00542150     pjlib-util-i386-win32-vc8-debug:getopt.obj
 0004:00001158       ?__LINE__Var@?1??pj_cis_add_range@@9@9 00542158     pjlib-util-i386-win32-vc8-debug:scanner.obj
 0004:0000115c       ?__LINE__Var@?1??pj_scan_init@@9@9 0054215c     pjlib-util-i386-win32-vc8-debug:scanner.obj
 0004:00001160       ?__LINE__Var@?1??pj_scan_fini@@9@9 00542160     pjlib-util-i386-win32-vc8-debug:scanner.obj
 0004:00001164       ?__LINE__Var@?1??pj_scan_get@@9@9 00542164     pjlib-util-i386-win32-vc8-debug:scanner.obj
 0004:00001168       ?__LINE__Var@?1??pj_scan_get_unescape@@9@9 00542168     pjlib-util-i386-win32-vc8-debug:scanner.obj
 0004:0000116c       ?__LINE__Var@?1??pj_scan_get_quotes@@9@9 0054216c     pjlib-util-i386-win32-vc8-debug:scanner.obj
 0004:00001170       ?__LINE__Var@?1??pj_base64_encode@@9@9 00542170     pjlib-util-i386-win32-vc8-debug:base64.obj
 0004:00001174       ?__LINE__Var@?1??pj_base64_decode@@9@9 00542174     pjlib-util-i386-win32-vc8-debug:base64.obj
 0004:00001178       ?__LINE__Var@?1??base256_char@@9@9@0920dabd 00542178     pjlib-util-i386-win32-vc8-debug:base64.obj
 0004:00001180       ?__LINE__Var@?1??pj_getpid@@9@9 00542180     pjlib-i386-win32-vc8-debug:os_core_win32.obj
 0004:00001184       ?__LINE__Var@?1??pj_thread_set_prio@@9@9 00542184     pjlib-i386-win32-vc8-debug:os_core_win32.obj
 0004:00001188       ?__LINE__Var@?1??pj_thread_get_os_handle@@9@9 00542188     pjlib-i386-win32-vc8-debug:os_core_win32.obj
 0004:0000118c       ?__LINE__Var@?1??pj_thread_register@@9@9 0054218c     pjlib-i386-win32-vc8-debug:os_core_win32.obj
 0004:00001190       ?__LINE__Var@?1??pj_thread_create@@9@9 00542190     pjlib-i386-win32-vc8-debug:os_core_win32.obj
 0004:00001194       ?__LINE__Var@?1??thread_main@@9@9@b730e761 00542194     pjlib-i386-win32-vc8-debug:os_core_win32.obj
 0004:00001198       ?__LINE__Var@?1??pj_thread_get_name@@9@9 00542198     pjlib-i386-win32-vc8-debug:os_core_win32.obj
 0004:0000119c       ?__LINE__Var@?1??pj_thread_resume@@9@9 0054219c     pjlib-i386-win32-vc8-debug:os_core_win32.obj
 0004:000011a0       ?__LINE__Var@?1??pj_thread_this@@9@9 005421a0     pjlib-i386-win32-vc8-debug:os_core_win32.obj
 0004:000011a4       ?__LINE__Var@?1??pj_thread_join@@9@9 005421a4     pjlib-i386-win32-vc8-debug:os_core_win32.obj
 0004:000011a8       ?__LINE__Var@?1??pj_thread_destroy@@9@9 005421a8     pjlib-i386-win32-vc8-debug:os_core_win32.obj
 0004:000011ac       ?__LINE__Var@?1??pj_thread_sleep@@9@9 005421ac     pjlib-i386-win32-vc8-debug:os_core_win32.obj
 0004:000011b0       ?__LINE__Var@?1??pj_thread_check_stack@@9@9 005421b0     pjlib-i386-win32-vc8-debug:os_core_win32.obj
 0004:000011b4       ?__LINE__Var@?1??pj_thread_get_stack_info@@9@9 005421b4     pjlib-i386-win32-vc8-debug:os_core_win32.obj
 0004:000011b8       ?__LINE__Var@?1??pj_atomic_destroy@@9@9 005421b8     pjlib-i386-win32-vc8-debug:os_core_win32.obj
 0004:000011bc       ?__LINE__Var@?1??pj_atomic_set@@9@9 005421bc     pjlib-i386-win32-vc8-debug:os_core_win32.obj
 0004:000011c0       ?__LINE__Var@?1??pj_atomic_get@@9@9 005421c0     pjlib-i386-win32-vc8-debug:os_core_win32.obj
 0004:000011c4       ?__LINE__Var@?1??pj_atomic_inc_and_get@@9@9 005421c4     pjlib-i386-win32-vc8-debug:os_core_win32.obj
 0004:000011c8       ?__LINE__Var@?1??pj_atomic_dec_and_get@@9@9 005421c8     pjlib-i386-win32-vc8-debug:os_core_win32.obj
 0004:000011cc       ?__LINE__Var@?1??pj_thread_local_alloc@@9@9 005421cc     pjlib-i386-win32-vc8-debug:os_core_win32.obj
 0004:000011d0       ?__LINE__Var@?1??pj_thread_local_free@@9@9 005421d0     pjlib-i386-win32-vc8-debug:os_core_win32.obj
 0004:000011d4       ?__LINE__Var@?1??init_mutex@@9@9@b730e761 005421d4     pjlib-i386-win32-vc8-debug:os_core_win32.obj
 0004:000011d8       ?__LINE__Var@?1??pj_mutex_create@@9@9 005421d8     pjlib-i386-win32-vc8-debug:os_core_win32.obj
 0004:000011dc       ?__LINE__Var@?1??pj_mutex_lock@@9@9 005421dc     pjlib-i386-win32-vc8-debug:os_core_win32.obj
 0004:000011e0       ?__LINE__Var@?1??pj_mutex_unlock@@9@9 005421e0     pjlib-i386-win32-vc8-debug:os_core_win32.obj
 0004:000011e4       ?__LINE__Var@?1??pj_mutex_trylock@@9@9 005421e4     pjlib-i386-win32-vc8-debug:os_core_win32.obj
 0004:000011e8       ?__LINE__Var@?1??pj_mutex_destroy@@9@9 005421e8     pjlib-i386-win32-vc8-debug:os_core_win32.obj
 0004:000011ec       ?__LINE__Var@?1??pj_rwmutex_create@@9@9 005421ec     pjlib-i386-win32-vc8-debug:os_core_win32.obj
 0004:000011f0       ?__LINE__Var@?1??pj_rwmutex_lock_read@@9@9 005421f0     pjlib-i386-win32-vc8-debug:os_core_win32.obj
 0004:000011f4       ?__LINE__Var@?1??pj_rwmutex_lock_write@@9@9 005421f4     pjlib-i386-win32-vc8-debug:os_core_win32.obj
 0004:000011f8       ?__LINE__Var@?1??pj_rwmutex_unlock_read@@9@9 005421f8     pjlib-i386-win32-vc8-debug:os_core_win32.obj
 0004:000011fc       ?__LINE__Var@?1??pj_rwmutex_unlock_write@@9@9 005421fc     pjlib-i386-win32-vc8-debug:os_core_win32.obj
 0004:00001200       ?__LINE__Var@?1??pj_rwmutex_destroy@@9@9 00542200     pjlib-i386-win32-vc8-debug:os_core_win32.obj
 0004:00001204       ?__LINE__Var@?1??pj_sem_create@@9@9 00542204     pjlib-i386-win32-vc8-debug:os_core_win32.obj
 0004:00001208       ?__LINE__Var@?1??pj_sem_wait@@9@9 00542208     pjlib-i386-win32-vc8-debug:os_core_win32.obj
 0004:0000120c       ?__LINE__Var@?1??pj_sem_wait_for@@9@9@b730e761 0054220c     pjlib-i386-win32-vc8-debug:os_core_win32.obj
 0004:00001210       ?__LINE__Var@?1??pj_sem_trywait@@9@9 00542210     pjlib-i386-win32-vc8-debug:os_core_win32.obj
 0004:00001214       ?__LINE__Var@?1??pj_sem_post@@9@9 00542214     pjlib-i386-win32-vc8-debug:os_core_win32.obj
 0004:00001218       ?__LINE__Var@?1??pj_sem_destroy@@9@9 00542218     pjlib-i386-win32-vc8-debug:os_core_win32.obj
 0004:0000121c       ?__LINE__Var@?1??pj_event_create@@9@9 0054221c     pjlib-i386-win32-vc8-debug:os_core_win32.obj
 0004:00001220       ?__LINE__Var@?1??pj_event_wait@@9@9 00542220     pjlib-i386-win32-vc8-debug:os_core_win32.obj
 0004:00001224       ?__LINE__Var@?1??pj_event_wait_for@@9@9@b730e761 00542224     pjlib-i386-win32-vc8-debug:os_core_win32.obj
 0004:00001228       ?__LINE__Var@?1??pj_event_trywait@@9@9 00542228     pjlib-i386-win32-vc8-debug:os_core_win32.obj
 0004:0000122c       ?__LINE__Var@?1??pj_event_set@@9@9 0054222c     pjlib-i386-win32-vc8-debug:os_core_win32.obj
 0004:00001230       ?__LINE__Var@?1??pj_event_pulse@@9@9 00542230     pjlib-i386-win32-vc8-debug:os_core_win32.obj
 0004:00001234       ?__LINE__Var@?1??pj_event_reset@@9@9 00542234     pjlib-i386-win32-vc8-debug:os_core_win32.obj
 0004:00001238       ?__LINE__Var@?1??pj_event_destroy@@9@9 00542238     pjlib-i386-win32-vc8-debug:os_core_win32.obj
 0004:0000123c       ?__LINE__Var@?1??pj_term_set_color@@9@9 0054223c     pjlib-i386-win32-vc8-debug:os_core_win32.obj
 0004:00001240       ?__LINE__Var@?1??pj_term_get_color@@9@9 00542240     pjlib-i386-win32-vc8-debug:os_core_win32.obj
 0004:00001294       ?__LINE__Var@?1??pj_caching_pool_init@@9@9 00542294     pjlib-i386-win32-vc8-debug:pool_caching.obj
 0004:00001298       ?__LINE__Var@?1??pj_caching_pool_destroy@@9@9 00542298     pjlib-i386-win32-vc8-debug:pool_caching.obj
 0004:0000129c       ?__LINE__Var@?1??cpool_create_pool@@9@9@5b1f4ce0 0054229c     pjlib-i386-win32-vc8-debug:pool_caching.obj
 0004:000012a0       ?__LINE__Var@?1??cpool_release_pool@@9@9@5b1f4ce0 005422a0     pjlib-i386-win32-vc8-debug:pool_caching.obj
 0004:000012a4       ?__LINE__Var@?1??pj_pool_allocate_find@@9@9 005422a4     pjlib-i386-win32-vc8-debug:pool.obj
 0004:000012a8       ?__LINE__Var@?1??pj_pool_create_block@@9@9@17398a00 005422a8     pjlib-i386-win32-vc8-debug:pool.obj
 0004:000012ac       ?__LINE__Var@?1??pj_pool_init_int@@9@9 005422ac     pjlib-i386-win32-vc8-debug:pool.obj
 0004:000012b0       ?__LINE__Var@?1??pj_pool_create_int@@9@9 005422b0     pjlib-i386-win32-vc8-debug:pool.obj
 0004:000012b4       ?__LINE__Var@?1??reset_pool@@9@9@17398a00 005422b4     pjlib-i386-win32-vc8-debug:pool.obj
 0004:00001334       ?__LINE__Var@?1??pj_log@@9@9 00542334     pjlib-i386-win32-vc8-debug:log.obj
 0004:00001338       _pj_pool_factory_default_policy 00542338     pjlib-i386-win32-vc8-debug:pool_policy_malloc.obj
 0004:0000134c       ?__LINE__Var@?1??default_block_alloc@@9@9@96a09bc9 0054234c     pjlib-i386-win32-vc8-debug:pool_policy_malloc.obj
 0004:00001350       ?__LINE__Var@?1??default_block_free@@9@9@96a09bc9 00542350     pjlib-i386-win32-vc8-debug:pool_policy_malloc.obj
 0004:00001354       ?__LINE__Var@?1??default_pool_callback@@9@9@96a09bc9 00542354     pjlib-i386-win32-vc8-debug:pool_policy_malloc.obj
 0004:00001358       ?__LINE__Var@?1??pj_register_strerror@@9@9 00542358     pjlib-i386-win32-vc8-debug:errno.obj
 0004:0000135c       ?__LINE__Var@?1??pj_strerror@@9@9 0054235c     pjlib-i386-win32-vc8-debug:errno.obj
 0004:00001360       ?__LINE__Var@?1??pj_ioqueue_set_lock@@9@9 00542360     pjlib-i386-win32-vc8-debug:ioqueue_select.obj
 0004:00001364       ?__LINE__Var@?1??pj_ioqueue_get_user_data@@9@9 00542364     pjlib-i386-win32-vc8-debug:ioqueue_select.obj
 0004:00001368       ?__LINE__Var@?1??pj_ioqueue_set_user_data@@9@9 00542368     pjlib-i386-win32-vc8-debug:ioqueue_select.obj
 0004:0000136c       ?__LINE__Var@?1??ioqueue_dispatch_write_event@@9@9 0054236c     pjlib-i386-win32-vc8-debug:ioqueue_select.obj
 0004:00001370       ?__LINE__Var@?1??ioqueue_dispatch_read_event@@9@9 00542370     pjlib-i386-win32-vc8-debug:ioqueue_select.obj
 0004:00001374       ?__LINE__Var@?1??pj_ioqueue_recv@@9@9 00542374     pjlib-i386-win32-vc8-debug:ioqueue_select.obj
 0004:00001378       ?__LINE__Var@?1??pj_ioqueue_recvfrom@@9@9 00542378     pjlib-i386-win32-vc8-debug:ioqueue_select.obj
 0004:0000137c       ?__LINE__Var@?1??pj_ioqueue_send@@9@9 0054237c     pjlib-i386-win32-vc8-debug:ioqueue_select.obj
 0004:00001380       ?__LINE__Var@?1??pj_ioqueue_sendto@@9@9 00542380     pjlib-i386-win32-vc8-debug:ioqueue_select.obj
 0004:00001384       ?__LINE__Var@?1??pj_ioqueue_accept@@9@9 00542384     pjlib-i386-win32-vc8-debug:ioqueue_select.obj
 0004:00001388       ?__LINE__Var@?1??pj_ioqueue_connect@@9@9 00542388     pjlib-i386-win32-vc8-debug:ioqueue_select.obj
 0004:0000138c       ?__LINE__Var@?1??pj_ioqueue_set_default_concurrency@@9@9 0054238c     pjlib-i386-win32-vc8-debug:ioqueue_select.obj
 0004:00001390       ?__LINE__Var@?1??pj_ioqueue_set_concurrency@@9@9 00542390     pjlib-i386-win32-vc8-debug:ioqueue_select.obj
 0004:00001394       ?__LINE__Var@?1??pj_ioqueue_create@@9@9 00542394     pjlib-i386-win32-vc8-debug:ioqueue_select.obj
 0004:00001398       ?__LINE__Var@?1??pj_ioqueue_destroy@@9@9 00542398     pjlib-i386-win32-vc8-debug:ioqueue_select.obj
 0004:0000139c       ?__LINE__Var@?1??pj_ioqueue_register_sock@@9@9 0054239c     pjlib-i386-win32-vc8-debug:ioqueue_select.obj
 0004:000013a0       ?__LINE__Var@?1??ioqueue_init_key@@9@9@8392aa3e 005423a0     pjlib-i386-win32-vc8-debug:ioqueue_select.obj
 0004:000013a4       ?__LINE__Var@?1??pj_ioqueue_unregister@@9@9 005423a4     pjlib-i386-win32-vc8-debug:ioqueue_select.obj
 0004:000013a8       ?__LINE__Var@?1??decrement_counter@@9@9@8392aa3e 005423a8     pjlib-i386-win32-vc8-debug:ioqueue_select.obj
 0004:000013ac       ?__LINE__Var@?1??ioqueue_remove_from_set@@9@9@8392aa3e 005423ac     pjlib-i386-win32-vc8-debug:ioqueue_select.obj
 0004:000013b0       ?__LINE__Var@?1??ioqueue_add_to_set@@9@9@8392aa3e 005423b0     pjlib-i386-win32-vc8-debug:ioqueue_select.obj
 0004:000013b4       ?__LINE__Var@?1??scan_closing_keys@@9@9@8392aa3e 005423b4     pjlib-i386-win32-vc8-debug:ioqueue_select.obj
 0004:000013b8       ?__LINE__Var@?1??pj_ioqueue_poll@@9@9 005423b8     pjlib-i386-win32-vc8-debug:ioqueue_select.obj
 0004:000013bc       ?__LINE__Var@?1??pj_create_random_string@@9@9 005423bc     pjlib-i386-win32-vc8-debug:string.obj
 0004:000013c0       ?__LINE__Var@?1??pj_strtoul@@9@9 005423c0     pjlib-i386-win32-vc8-debug:string.obj
 0004:000013c4       ?__LINE__Var@?1??pj_strtoul2@@9@9 005423c4     pjlib-i386-win32-vc8-debug:string.obj
 0004:000013c8       ?__LINE__Var@?1??pj_utoa_pad@@9@9 005423c8     pjlib-i386-win32-vc8-debug:string.obj
 0004:000013cc       ?__LINE__Var@?1??pj_sockaddr_in_set_str_addr@@9@9 005423cc     pjlib-i386-win32-vc8-debug:sock_common.obj
 0004:000013d0       ?__LINE__Var@?1??pj_sockaddr_set_str_addr@@9@9 005423d0     pjlib-i386-win32-vc8-debug:sock_common.obj
 0004:000013d4       ?__LINE__Var@?1??pj_sockaddr_in_init@@9@9 005423d4     pjlib-i386-win32-vc8-debug:sock_common.obj
 0004:000013d8       ?__LINE__Var@?1??pj_sockaddr_init@@9@9 005423d8     pjlib-i386-win32-vc8-debug:sock_common.obj
 0004:000013dc       ?__LINE__Var@?1??pj_sockaddr_get_addr@@9@9 005423dc     pjlib-i386-win32-vc8-debug:sock_common.obj
 0004:000013e0       ?__LINE__Var@?1??pj_sockaddr_get_port@@9@9 005423e0     pjlib-i386-win32-vc8-debug:sock_common.obj
 0004:000013e4       ?__LINE__Var@?1??pj_sockaddr_get_addr_len@@9@9 005423e4     pjlib-i386-win32-vc8-debug:sock_common.obj
 0004:000013e8       ?__LINE__Var@?1??pj_sockaddr_get_len@@9@9 005423e8     pjlib-i386-win32-vc8-debug:sock_common.obj
 0004:000013ec       ?__LINE__Var@?1??pj_sockaddr_set_port@@9@9 005423ec     pjlib-i386-win32-vc8-debug:sock_common.obj
 0004:000013f0       ?__LINE__Var@?1??pj_sockaddr_parse2@@9@9 005423f0     pjlib-i386-win32-vc8-debug:sock_common.obj
 0004:000013f4       ?__LINE__Var@?1??pj_sockaddr_parse@@9@9 005423f4     pjlib-i386-win32-vc8-debug:sock_common.obj
 0004:000013f8       ?__LINE__Var@?1??pj_gethostip@@9@9 005423f8     pjlib-i386-win32-vc8-debug:sock_common.obj
 0004:000013fc       ?__LINE__Var@?1??pj_inet_aton@@9@9 005423fc     pjlib-i386-win32-vc8-debug:sock_bsd.obj
 0004:00001400       ?__LINE__Var@?1??pj_inet_pton@@9@9 00542400     pjlib-i386-win32-vc8-debug:sock_bsd.obj
 0004:00001404       ?__LINE__Var@?1??pj_inet_ntop@@9@9 00542404     pjlib-i386-win32-vc8-debug:sock_bsd.obj
 0004:00001408       ?__LINE__Var@?1??pj_gethostname@@9@9 00542408     pjlib-i386-win32-vc8-debug:sock_bsd.obj
 0004:0000140c       ?__LINE__Var@?1??pj_sock_socket@@9@9 0054240c     pjlib-i386-win32-vc8-debug:sock_bsd.obj
 0004:00001410       ?__LINE__Var@?1??pj_sock_bind@@9@9 00542410     pjlib-i386-win32-vc8-debug:sock_bsd.obj
 0004:00001414       ?__LINE__Var@?1??pj_sock_bind_in@@9@9 00542414     pjlib-i386-win32-vc8-debug:sock_bsd.obj
 0004:00001418       ?__LINE__Var@?1??pj_sock_close@@9@9 00542418     pjlib-i386-win32-vc8-debug:sock_bsd.obj
 0004:0000141c       ?__LINE__Var@?1??pj_sock_getpeername@@9@9 0054241c     pjlib-i386-win32-vc8-debug:sock_bsd.obj
 0004:00001420       ?__LINE__Var@?1??pj_sock_getsockname@@9@9 00542420     pjlib-i386-win32-vc8-debug:sock_bsd.obj
 0004:00001424       ?__LINE__Var@?1??pj_sock_send@@9@9 00542424     pjlib-i386-win32-vc8-debug:sock_bsd.obj
 0004:00001428       ?__LINE__Var@?1??pj_sock_sendto@@9@9 00542428     pjlib-i386-win32-vc8-debug:sock_bsd.obj
 0004:0000142c       ?__LINE__Var@?1??pj_sock_recv@@9@9 0054242c     pjlib-i386-win32-vc8-debug:sock_bsd.obj
 0004:00001430       ?__LINE__Var@?1??pj_sock_recvfrom@@9@9 00542430     pjlib-i386-win32-vc8-debug:sock_bsd.obj
 0004:00001434       ?__LINE__Var@?1??pj_sock_getsockopt@@9@9 00542434     pjlib-i386-win32-vc8-debug:sock_bsd.obj
 0004:00001438       ?__LINE__Var@?1??pj_sock_setsockopt@@9@9 00542438     pjlib-i386-win32-vc8-debug:sock_bsd.obj
 0004:0000143c       ?__LINE__Var@?1??pj_sock_connect@@9@9 0054243c     pjlib-i386-win32-vc8-debug:sock_bsd.obj
 0004:00001440       ?__LINE__Var@?1??pj_sock_shutdown@@9@9 00542440     pjlib-i386-win32-vc8-debug:sock_bsd.obj
 0004:00001444       ?__LINE__Var@?1??pj_sock_listen@@9@9 00542444     pjlib-i386-win32-vc8-debug:sock_bsd.obj
 0004:00001448       ?__LINE__Var@?1??pj_sock_accept@@9@9 00542448     pjlib-i386-win32-vc8-debug:sock_bsd.obj
 0004:0000144c       ?__LINE__Var@?1??pj_file_open@@9@9 0054244c     pjlib-i386-win32-vc8-debug:file_io_win32.obj
 0004:00001450       ?__LINE__Var@?1??pj_file_setpos@@9@9 00542450     pjlib-i386-win32-vc8-debug:file_io_win32.obj
 0004:00001454       ?__LINE__Var@?1??pj_file_exists@@9@9 00542454     pjlib-i386-win32-vc8-debug:file_access_win32.obj
 0004:00001458       ?__LINE__Var@?1??pj_file_size@@9@9 00542458     pjlib-i386-win32-vc8-debug:file_access_win32.obj
 0004:0000145c       ?__LINE__Var@?1??pj_file_delete@@9@9 0054245c     pjlib-i386-win32-vc8-debug:file_access_win32.obj
 0004:00001460       ?__LINE__Var@?1??pj_file_move@@9@9 00542460     pjlib-i386-win32-vc8-debug:file_access_win32.obj
 0004:00001464       ?__LINE__Var@?1??pj_file_getstat@@9@9 00542464     pjlib-i386-win32-vc8-debug:file_access_win32.obj
 0004:00001468       ?__LINE__Var@?1??pj_array_erase@@9@9 00542468     pjlib-i386-win32-vc8-debug:array.obj
 0004:00001470       ?__LINE__Var@?1??pj_throw_exception_@@9@9 00542470     pjlib-i386-win32-vc8-debug:except.obj
 0004:00001474       ?__LINE__Var@?1??pj_push_exception_handler_@@9@9 00542474     pjlib-i386-win32-vc8-debug:except.obj
 0004:00001478       ?__LINE__Var@?1??pj_exception_id_free@@9@9 00542478     pjlib-i386-win32-vc8-debug:except.obj
 0004:0000147c       ?__LINE__Var@?1??pj_exception_id_name@@9@9 0054247c     pjlib-i386-win32-vc8-debug:except.obj
 0004:000014c8       ?__LINE__Var@?1??create_mutex_lock@@9@9@2cb4e1dd 005424c8     pjlib-i386-win32-vc8-debug:lock.obj
 0004:000014cc       ?__LINE__Var@?1??pj_lock_create_null_mutex@@9@9 005424cc     pjlib-i386-win32-vc8-debug:lock.obj
 0004:000014d0       ?__LINE__Var@?1??pj_lock_create_semaphore@@9@9 005424d0     pjlib-i386-win32-vc8-debug:lock.obj
 0004:000014d4       ?__LINE__Var@?1??pj_lock_acquire@@9@9 005424d4     pjlib-i386-win32-vc8-debug:lock.obj
 0004:000014d8       ?__LINE__Var@?1??pj_lock_tryacquire@@9@9 005424d8     pjlib-i386-win32-vc8-debug:lock.obj
 0004:000014dc       ?__LINE__Var@?1??pj_lock_release@@9@9 005424dc     pjlib-i386-win32-vc8-debug:lock.obj
 0004:000014e0       ?__LINE__Var@?1??pj_lock_destroy@@9@9 005424e0     pjlib-i386-win32-vc8-debug:lock.obj
 0004:000014e8       _PJ_VERSION                005424e8     pjlib-i386-win32-vc8-debug:config.obj
 0004:00001504       ?__LINE__Var@?1??pj_generate_unique_string@@9@9 00542504     pjlib-i386-win32-vc8-debug:guid_win32.obj
 0004:0000150c       ?__LINE__Var@?1??pj_pool_create_on_buf@@9@9 0054250c     pjlib-i386-win32-vc8-debug:pool_buf.obj
 0004:00001510       ?__LINE__Var@?1??stack_alloc@@9@9@53ecbf0d 00542510     pjlib-i386-win32-vc8-debug:pool_buf.obj
 0004:00001514       ?__LINE__Var@?1??pj_log_write@@9@9 00542514     pjlib-i386-win32-vc8-debug:log_writer_stdout.obj
 0004:00001518       ?__LINE__Var@?1??platform_strerror@@9@9 00542518     pjlib-i386-win32-vc8-debug:os_error_win32.obj
 0004:0000151c       ?__LINE__Var@?1??PJ_FD_ZERO@@9@9 0054251c     pjlib-i386-win32-vc8-debug:sock_select.obj
 0004:00001520       ?__LINE__Var@?1??PJ_FD_SET@@9@9 00542520     pjlib-i386-win32-vc8-debug:sock_select.obj
 0004:00001524       ?__LINE__Var@?1??PJ_FD_CLR@@9@9 00542524     pjlib-i386-win32-vc8-debug:sock_select.obj
 0004:00001528       ?__LINE__Var@?1??PJ_FD_ISSET@@9@9 00542528     pjlib-i386-win32-vc8-debug:sock_select.obj
 0004:0000152c       ?__LINE__Var@?1??pj_sock_select@@9@9 0054252c     pjlib-i386-win32-vc8-debug:sock_select.obj
 0004:00001530       ?__LINE__Var@?1??pj_time_val_normalize@@9@9 00542530     pjlib-i386-win32-vc8-debug:types.obj
 0004:00001534       ?__LINE__Var@?1??pj_srand@@9@9 00542534     pjlib-i386-win32-vc8-debug:rand.obj
 0004:00001538       ?__LINE__Var@?1??pj_rand@@9@9 00542538     pjlib-i386-win32-vc8-debug:rand.obj
 0004:0000153c       ?__LINE__Var@?1??pj_gethostbyname@@9@9 0054253c     pjlib-i386-win32-vc8-debug:addr_resolv_sock.obj
 0004:00001540       ?__LINE__Var@?1??pj_getaddrinfo@@9@9 00542540     pjlib-i386-win32-vc8-debug:addr_resolv_sock.obj
 0004:00001544       ?__LINE__Var@?1??pj_enum_ip_interface@@9@9 00542544     pjlib-i386-win32-vc8-debug:ip_helper_win32.obj
 0004:00001548       ?__LINE__Var@?1??enum_ipv4_interface@@9@9@477ebd5e 00542548     pjlib-i386-win32-vc8-debug:ip_helper_win32.obj
 0004:0000154c       ?__LINE__Var@?1??pj_enum_ip_route@@9@9 0054254c     pjlib-i386-win32-vc8-debug:ip_helper_win32.obj
 0004:00001584       _mod_srtp                  00542584     libsrtp-i386-win32-vc8-debug:srtp.obj
 0004:00001598       _octet_weight              00542598     libsrtp-i386-win32-vc8-debug:datatypes.obj
 0004:00001a64       _mod_crypto_kernel         00542a64     libsrtp-i386-win32-vc8-debug:crypto_kernel.obj
 0004:00001a70       _mod_alloc                 00542a70     libsrtp-i386-win32-vc8-debug:alloc.obj
 0004:00001a7c       _err_level                 00542a7c     libsrtp-i386-win32-vc8-debug:srtp_err.obj
 0004:00001a80       _mod_aes_icm               00542a80     libsrtp-i386-win32-vc8-debug:aes_icm.obj
 0004:00001a88       _aes_icm_description       00542a88     libsrtp-i386-win32-vc8-debug:aes_icm.obj
 0004:00001aa4       _aes_icm_test_case_0_key   00542aa4     libsrtp-i386-win32-vc8-debug:aes_icm.obj
 0004:00001ac4       _aes_icm_test_case_0_ciphertext 00542ac4     libsrtp-i386-win32-vc8-debug:aes_icm.obj
 0004:00001ae4       _aes_icm_test_case_0       00542ae4     libsrtp-i386-win32-vc8-debug:aes_icm.obj
 0004:00001b04       _aes_icm                   00542b04     libsrtp-i386-win32-vc8-debug:aes_icm.obj
 0004:00001b50       _mod_auth                  00542b50     libsrtp-i386-win32-vc8-debug:auth.obj
 0004:00001b5c       _mod_cipher                00542b5c     libsrtp-i386-win32-vc8-debug:cipher.obj
 0004:00001b68       _mod_hmac                  00542b68     libsrtp-i386-win32-vc8-debug:hmac.obj
 0004:00001b70       _hmac_test_case_0_key      00542b70     libsrtp-i386-win32-vc8-debug:hmac.obj
 0004:00001b84       _hmac_test_case_0_data     00542b84     libsrtp-i386-win32-vc8-debug:hmac.obj
 0004:00001b8c       _hmac_test_case_0_tag      00542b8c     libsrtp-i386-win32-vc8-debug:hmac.obj
 0004:00001ba0       _hmac_test_case_0          00542ba0     libsrtp-i386-win32-vc8-debug:hmac.obj
 0004:00001bbc       _hmac_description          00542bbc     libsrtp-i386-win32-vc8-debug:hmac.obj
 0004:00001be0       _hmac                      00542be0     libsrtp-i386-win32-vc8-debug:hmac.obj
 0004:00001c28       _null_auth_description     00542c28     libsrtp-i386-win32-vc8-debug:null_auth.obj
 0004:00001c48       _null_auth                 00542c48     libsrtp-i386-win32-vc8-debug:null_auth.obj
 0004:00001c80       _mod_aes_cbc               00542c80     libsrtp-i386-win32-vc8-debug:aes_cbc.obj
 0004:00001c88       _aes_cbc_description       00542c88     libsrtp-i386-win32-vc8-debug:aes_cbc.obj
 0004:00001cb0       _aes_cbc_test_case_0_key   00542cb0     libsrtp-i386-win32-vc8-debug:aes_cbc.obj
 0004:00001cc0       _aes_cbc_test_case_0_plaintext 00542cc0     libsrtp-i386-win32-vc8-debug:aes_cbc.obj
 0004:00001d00       _aes_cbc_test_case_0_ciphertext 00542d00     libsrtp-i386-win32-vc8-debug:aes_cbc.obj
 0004:00001d50       _aes_cbc_test_case_0       00542d50     libsrtp-i386-win32-vc8-debug:aes_cbc.obj
 0004:00001d70       _aes_cbc_test_case_1_key   00542d70     libsrtp-i386-win32-vc8-debug:aes_cbc.obj
 0004:00001d80       _aes_cbc_test_case_1_plaintext 00542d80     libsrtp-i386-win32-vc8-debug:aes_cbc.obj
 0004:00001dc0       _aes_cbc_test_case_1_ciphertext 00542dc0     libsrtp-i386-win32-vc8-debug:aes_cbc.obj
 0004:00001e10       _aes_cbc_test_case_1_iv    00542e10     libsrtp-i386-win32-vc8-debug:aes_cbc.obj
 0004:00001e20       _aes_cbc_test_case_1       00542e20     libsrtp-i386-win32-vc8-debug:aes_cbc.obj
 0004:00001e40       _aes_cbc                   00542e40     libsrtp-i386-win32-vc8-debug:aes_cbc.obj
 0004:00001ecc       _null_cipher_description   00542ecc     libsrtp-i386-win32-vc8-debug:null_cipher.obj
 0004:00001ed8       _null_cipher               00542ed8     libsrtp-i386-win32-vc8-debug:null_cipher.obj
 0004:00001f0c       _mod_stat                  00542f0c     libsrtp-i386-win32-vc8-debug:stat.obj
 0004:000047ec       _mod_sha1                  005457ec     libsrtp-i386-win32-vc8-debug:sha1.obj
 0004:000047f4       _SHA_K0                    005457f4     libsrtp-i386-win32-vc8-debug:sha1.obj
 0004:000047f8       _SHA_K1                    005457f8     libsrtp-i386-win32-vc8-debug:sha1.obj
 0004:000047fc       _SHA_K2                    005457fc     libsrtp-i386-win32-vc8-debug:sha1.obj
 0004:00004800       _SHA_K3                    00545800     libsrtp-i386-win32-vc8-debug:sha1.obj
 0004:00004808       __iob                      00545808     LIBCMTD:_file.obj
 0004:00004b78       ___security_cookie         00545b78     LIBCMTD:gs_cookie.obj
 0004:00004b7c       ___security_cookie_complement 00545b7c     LIBCMTD:gs_cookie.obj
 0004:00004b80       ___app_type                00545b80     LIBCMTD:crt0.obj
 0004:00004b90       __fltused                  00545b90     LIBCMTD:fpinit.obj
 0004:00004b94       __ldused                   00545b94     LIBCMTD:fpinit.obj
 0004:00004bb0       __OP_FMODjmptab            00545bb0     LIBCMTD:87fmod.obj
 0004:00004c10       __crtDbgFlag               00545c10     LIBCMTD:dbgheap.obj
 0004:00004c14       ___crtDebugFillThreshold   00545c14     LIBCMTD:dbgheap.obj
 0004:00004c1c       __crtBreakAlloc            00545c1c     LIBCMTD:dbgheap.obj
 0004:00004c40       __half                     00545c40     LIBCMTD:pow.obj
 0004:00004c80       __aexit_rtn                00545c80     LIBCMTD:crt0dat.obj
 0004:00004c90       ___badioinfo               00545c90     LIBCMTD:ioinit.obj
 0004:00005004       ___abort_behavior          00546004     LIBCMTD:abort.obj
 0004:00005048       __XcptActTab               00546048     LIBCMTD:winxfltr.obj
 0004:000050c0       __First_FPE_Indx           005460c0     LIBCMTD:winxfltr.obj
 0004:000050c4       __Num_FPE                  005460c4     LIBCMTD:winxfltr.obj
 0004:000050c8       __XcptActTabSize           005460c8     LIBCMTD:winxfltr.obj
 0004:000050cc       __XcptActTabCount          005460cc     LIBCMTD:winxfltr.obj
 0004:000050ec       ___flsindex                005460ec     LIBCMTD:tidtable.obj
 0004:000050f0       ___getvalueindex           005460f0     LIBCMTD:tidtable.obj
 0004:000050f8       __amblksiz                 005460f8     LIBCMTD:heapinit.obj
 0004:000051dc       ___nullstring              005461dc     LIBCMTD:output.obj
 0004:000051e0       ___wnullstring             005461e0     LIBCMTD:output.obj
 0004:000051e8       ___initialmbcinfo          005461e8     LIBCMTD:mbctype.obj
 0004:00005408       __mbctype                  00546408     LIBCMTD:mbctype.obj
 0004:00005510       __mbcasemap                00546510     LIBCMTD:mbctype.obj
 0004:00005610       ___ptmbcinfo               00546610     LIBCMTD:mbctype.obj
 0004:00005814       ___globallocalestatus      00546814     LIBCMTD:glstatus.obj
 0004:00005818       ___clocalestr              00546818     LIBCMTD:nlsdata2.obj
 0004:00005820       ___initiallocinfo          00546820     LIBCMTD:nlsdata2.obj
 0004:000058f8       ___ptlocinfo               005468f8     LIBCMTD:nlsdata2.obj
 0004:000058fc       ___lc_clike                005468fc     LIBCMTD:nlsdata2.obj
 0004:00005900       ___initiallocalestructinfo 00546900     LIBCMTD:nlsdata2.obj
 0004:00005938       __NLG_Destination          00546938     LIBCMTD:exsup.obj
 0004:0000594c       __cfltcvt_tab              0054694c     LIBCMTD:cmiscdat.obj
 0004:00005980       __indefinite               00546980     LIBCMTD:87disp.obj
 0004:0000598a       __piby2                    0054698a     LIBCMTD:87disp.obj
 0004:00005b7c       __pfnAllocHook             00546b7c     LIBCMTD:dbghook.obj
 0004:00005b80       __infinity                 00546b80     LIBCMTD:87tran.obj
 0004:00005b8a       __minfinity                00546b8a     LIBCMTD:87tran.obj
 0004:00005b94       __logemax                  00546b94     LIBCMTD:87tran.obj
 0004:00005bba       __OP_EXPjmptab             00546bba     LIBCMTD:87tran.obj
 0004:00005d08       __d_inf                    00546d08     LIBCMTD:util.obj
 0004:00005d10       __d_ind                    00546d10     LIBCMTD:util.obj
 0004:00005d18       __d_max                    00546d18     LIBCMTD:util.obj
 0004:00005d20       __d_min                    00546d20     LIBCMTD:util.obj
 0004:00005d28       __d_mzero                  00546d28     LIBCMTD:util.obj
 0004:00005d60       __lookuptrailbytes         00546d60     LIBCMTD:read.obj
 0004:00005e94       __crtAssertBusy            00546e94     LIBCMTD:dbgrptt.obj
 0004:00005e98       __CrtDbgMode               00546e98     LIBCMTD:dbgrptt.obj
 0004:00005ea4       __CrtDbgFile               00546ea4     LIBCMTD:dbgrptt.obj
 0004:00005ebc       __pctype                   00546ebc     LIBCMTD:ctype.obj
 0004:00005ec0       __pwctype                  00546ec0     LIBCMTD:ctype.obj
 0004:00005ec8       ___lc_time_c               00546ec8     LIBCMTD:strftime.obj
 0004:00005fa4       ___lc_time_curr            00546fa4     LIBCMTD:strftime.obj
 0004:00005fa8       ___lconv_static_decimal    00546fa8     LIBCMTD:lconv.obj
 0004:00005fac       ___lconv_c                 00546fac     LIBCMTD:lconv.obj
 0004:00005fdc       ___lconv                   00546fdc     LIBCMTD:lconv.obj
 0004:00005fec       ___mb_cur_max              00546fec     LIBCMTD:nlsdata1.obj
 0004:00005ff0       ___decimal_point           00546ff0     LIBCMTD:nlsdata1.obj
 0004:00005ff4       ___decimal_point_length    00546ff4     LIBCMTD:nlsdata1.obj
 0004:00006000       __matherr_flag             00547000     LIBCMTD:matherr.obj
 0004:00006008       ?_RTC_ErrorLevels@@3PAHA   00547008     LIBCMTD:error.obj
 0004:00006040       ??_R0?AVbad_exception@std@@@8 00547040     LIBCMTD:frame.obj
 0004:00006068       ??_R0?AVexception@std@@@8  00547068     LIBCMTD:frame.obj
 0004:00006090       __timezone                 00547090     LIBCMTD:timeset.obj
 0004:00006094       __daylight                 00547094     LIBCMTD:timeset.obj
 0004:00006098       __dstbias                  00547098     LIBCMTD:timeset.obj
 0004:00006120       __tzname                   00547120     LIBCMTD:timeset.obj
 0004:000061a0       __coninpfh                 005471a0     LIBCMTD:initcon.obj
 0004:000061a4       __confh                    005471a4     LIBCMTD:initcon.obj
 0004:000061b4       ??_R0?AVtype_info@@@8      005471b4     LIBCMTD:typinfo.obj
 0004:000061d4       ??_R0?AVbad_cast@std@@@8   005471d4     LIBCMTD:stdexcpt.obj
 0004:000061f4       ??_R0?AVbad_typeid@std@@@8 005471f4     LIBCMTD:stdexcpt.obj
 0004:00006218       ??_R0?AV__non_rtti_object@std@@@8 00547218     LIBCMTD:stdexcpt.obj
 0004:00006244       __lpdays                   00547244     LIBCMTD:days.obj
 0004:00006278       __days                     00547278     LIBCMTD:days.obj
 0004:000062c0       __pow10pos                 005472c0     LIBCMTD:constpow.obj
 0004:00006420       __pow10neg                 00547420     LIBCMTD:constpow.obj
 0004:0000660c       ??_R0?AVDNameNode@@@8      0054760c     LIBCMTD:undname.obj
 0004:00006628       ??_R0?AVcharNode@@@8       00547628     LIBCMTD:undname.obj
 0004:00006644       ??_R0?AVpcharNode@@@8      00547644     LIBCMTD:undname.obj
 0004:00006660       ??_R0?AVpDNameNode@@@8     00547660     LIBCMTD:undname.obj
 0004:00006680       ??_R0?AVDNameStatusNode@@@8 00547680     LIBCMTD:undname.obj
 0004:00006730       ?__LINE__Var@?1??pjmedia_aud_dev_get_info@@9@9 00547730     pjmedia-audiodev-i386-win32-vc8-debug:audiodev.obj
 0004:00006734       ?__LINE__Var@?1??make_global_index@@9@9@1b371fd7 00547734     pjmedia-audiodev-i386-win32-vc8-debug:audiodev.obj
 0004:00006738       ?__LINE__Var@?1??pjmedia_aud_dev_lookup@@9@9 00547738     pjmedia-audiodev-i386-win32-vc8-debug:audiodev.obj
 0004:0000673c       ?__LINE__Var@?1??pjmedia_aud_dev_default_param@@9@9 0054773c     pjmedia-audiodev-i386-win32-vc8-debug:audiodev.obj
 0004:00006740       ?__LINE__Var@?1??pjmedia_aud_stream_create@@9@9 00547740     pjmedia-audiodev-i386-win32-vc8-debug:audiodev.obj
 0004:00006744       ?__LINE__Var@?1??pjmedia_aud_stream_get_param@@9@9 00547744     pjmedia-audiodev-i386-win32-vc8-debug:audiodev.obj
 0004:00006784       ?__LINE__Var@?1??factory_get_dev_info@@9@9@fa0a78e3 00547784     pjmedia-audiodev-i386-win32-vc8-debug:wmme_dev.obj
 0004:00006788       ?__LINE__Var@?1??factory_default_param@@9@9@fa0a78e3 00547788     pjmedia-audiodev-i386-win32-vc8-debug:wmme_dev.obj
 0004:0000678c       ?__LINE__Var@?1??factory_create_stream@@9@9@fa0a78e3 0054778c     pjmedia-audiodev-i386-win32-vc8-debug:wmme_dev.obj
 0004:00006790       ?__LINE__Var@?1??init_player_stream@@9@9@fa0a78e3 00547790     pjmedia-audiodev-i386-win32-vc8-debug:wmme_dev.obj
 0004:00006794       ?__LINE__Var@?1??init_capture_stream@@9@9@fa0a78e3 00547794     pjmedia-audiodev-i386-win32-vc8-debug:wmme_dev.obj
 0004:00006798       ?__LINE__Var@?1??wmme_dev_thread@@9@9@fa0a78e3 00547798     pjmedia-audiodev-i386-win32-vc8-debug:wmme_dev.obj
 0004:0000679c       ?__LINE__Var@?1??stream_get_param@@9@9@fa0a78e3 0054779c     pjmedia-audiodev-i386-win32-vc8-debug:wmme_dev.obj
 0004:000067a0       ?__LINE__Var@?1??stream_get_cap@@9@9@fa0a78e3 005477a0     pjmedia-audiodev-i386-win32-vc8-debug:wmme_dev.obj
 0004:000067a4       ?__LINE__Var@?1??stream_set_cap@@9@9@fa0a78e3 005477a4     pjmedia-audiodev-i386-win32-vc8-debug:wmme_dev.obj
 0004:000067a8       ?__LINE__Var@?1??stream_stop@@9@9@fa0a78e3 005477a8     pjmedia-audiodev-i386-win32-vc8-debug:wmme_dev.obj
 0004:000067ac       ?__LINE__Var@?1??stream_destroy@@9@9@fa0a78e3 005477ac     pjmedia-audiodev-i386-win32-vc8-debug:wmme_dev.obj
 0004:00006f34       _pj_optarg                 00547f34     pjlib-util-i386-win32-vc8-debug:getopt.obj
 0004:00006f38       ___getopt_initialized      00547f38     pjlib-util-i386-win32-vc8-debug:getopt.obj
 0004:00007338       _crypto_kernel             00548338     libsrtp-i386-win32-vc8-debug:crypto_kernel.obj
 0004:0000734c       _aes_icm_test_case_0_nonce 0054834c     libsrtp-i386-win32-vc8-debug:aes_icm.obj
 0004:0000735c       _aes_icm_test_case_0_plaintext 0054835c     libsrtp-i386-win32-vc8-debug:aes_icm.obj
 0004:00007388       _null_auth_test_case_0     00548388     libsrtp-i386-win32-vc8-debug:null_auth.obj
 0004:000073ac       _aes_cbc_test_case_0_iv    005483ac     libsrtp-i386-win32-vc8-debug:aes_cbc.obj
 0004:000073c0       _null_cipher_test_0        005483c0     libsrtp-i386-win32-vc8-debug:null_cipher.obj
 0004:000073e8       __cflush                   005483e8     LIBCMTD:_file.obj
 0004:000073ec       __aenvptr                  005483ec     LIBCMTD:crt0.obj
 0004:000073f0       __wenvptr                  005483f0     LIBCMTD:crt0.obj
 0004:000073f4       ___error_mode              005483f4     LIBCMTD:crt0.obj
 0004:000073fc       ___fastflag                005483fc     LIBCMTD:fpinit.obj
 0004:00007400       __adjust_fdiv              00548400     LIBCMTD:fpinit.obj
 0004:0000741c       ?_pfnDumpClient@@3P6AXPAXI@ZA 0054841c     LIBCMTD:dbgheap.obj
 0004:00007424       ___crtDebugCheckCount      00548424     LIBCMTD:dbgheap.obj
 0004:00007438       __umaskval                 00548438     LIBCMTD:crt0dat.obj
 0004:0000743c       __osplatform               0054843c     LIBCMTD:crt0dat.obj
 0004:00007440       __osver                    00548440     LIBCMTD:crt0dat.obj
 0004:00007444       __winver                   00548444     LIBCMTD:crt0dat.obj
 0004:00007448       __winmajor                 00548448     LIBCMTD:crt0dat.obj
 0004:0000744c       __winminor                 0054844c     LIBCMTD:crt0dat.obj
 0004:00007450       ___argc                    00548450     LIBCMTD:crt0dat.obj
 0004:00007454       ___argv                    00548454     LIBCMTD:crt0dat.obj
 0004:00007458       ___wargv                   00548458     LIBCMTD:crt0dat.obj
 0004:0000745c       __environ                  0054845c     LIBCMTD:crt0dat.obj
 0004:00007460       ___initenv                 00548460     LIBCMTD:crt0dat.obj
 0004:00007464       __wenviron                 00548464     LIBCMTD:crt0dat.obj
 0004:00007468       ___winitenv                00548468     LIBCMTD:crt0dat.obj
 0004:0000746c       __pgmptr                   0054846c     LIBCMTD:crt0dat.obj
 0004:00007470       __wpgmptr                  00548470     LIBCMTD:crt0dat.obj
 0004:00007474       __exitflag                 00548474     LIBCMTD:crt0dat.obj
 0004:00007478       __C_Termination_Done       00548478     LIBCMTD:crt0dat.obj
 0004:0000747c       __C_Exit_Done              0054847c     LIBCMTD:crt0dat.obj
 0004:000074a4       ___pInvalidArgHandler      005484a4     LIBCMTD:invarg.obj
 0004:00007688       __stdbuf                   00548688     LIBCMTD:_sftbuf.obj
 0004:00007ba0       _gpFlsAlloc                00548ba0     LIBCMTD:tidtable.obj
 0004:00007ba4       _gpFlsGetValue             00548ba4     LIBCMTD:tidtable.obj
 0004:00007ba8       _gpFlsSetValue             00548ba8     LIBCMTD:tidtable.obj
 0004:00007bac       _gpFlsFree                 00548bac     LIBCMTD:tidtable.obj
 0004:00007bb4       __crtheap                  00548bb4     LIBCMTD:heapinit.obj
 0004:00007f70       ___mbulinfo                00548f70     LIBCMTD:mbctype.obj
 0004:00007f7c       ___mbcodepage              00548f7c     LIBCMTD:mbctype.obj
 0004:00007f80       ___ismbcodepage            00548f80     LIBCMTD:mbctype.obj
 0004:00007f84       ___mblcid                  00548f84     LIBCMTD:mbctype.obj
 0004:00007f90       ___locale_changed          00548f90     LIBCMTD:setlocal.obj
 0004:00007f94       ___lc_handle               00548f94     LIBCMTD:nlsdata2.obj
 0004:00007fac       ___lc_codepage             00548fac     LIBCMTD:nlsdata2.obj
 0004:00007fb0       ___lc_collate_cp           00548fb0     LIBCMTD:nlsdata2.obj
 0004:00007fbc       __newmode                  00548fbc     LIBCMTD:_newmode.obj
 0004:00007fc0       ?_pnhHeap@@3P6AHI@ZA       00548fc0     LIBCMTD:handler.obj
 0004:00007fc4       ___sbh_pHeaderDefer        00548fc4     LIBCMTD:sbheap.obj
 0004:00007fcc       ?__pInconsistency@@3P6AXXZA 00548fcc     LIBCMTD:hooks.obj
 0004:00007fdc       ___pPurecall               00548fdc     LIBCMTD:inithelp.obj
 0004:00008008       ___lconv_static_null       00549008     LIBCMTD:lconv.obj
 0004:0000800c       __outputformat             0054900c     LIBCMTD:outputformat.obj
 0004:00008018       ?wsprintffp@@3P6AHPADPBDZZA 00549018     LIBCMTD:error.obj
 0004:00008138       ?pArgList@UnDecorator@@0PAVReplicator@@A 00549138     LIBCMTD:undname.obj
 0004:0000813c       ?pZNameList@UnDecorator@@0PAVReplicator@@A 0054913c     LIBCMTD:undname.obj
 0004:00008140       ?pTemplateArgList@UnDecorator@@0PAVReplicator@@A 00549140     LIBCMTD:undname.obj
 0004:00008144       ?gName@UnDecorator@@0PBDB  00549144     LIBCMTD:undname.obj
 0004:00008148       ?name@UnDecorator@@0PBDB   00549148     LIBCMTD:undname.obj
 0004:0000814c       ?outputString@UnDecorator@@0PADA 0054914c     LIBCMTD:undname.obj
 0004:00008150       ?maxStringLength@UnDecorator@@0HA 00549150     LIBCMTD:undname.obj
 0004:00008154       ?disableFlags@UnDecorator@@0KA 00549154     LIBCMTD:undname.obj
 0004:00008158       ?m_pGetParameter@UnDecorator@@0P6APADJ@ZA 00549158     LIBCMTD:undname.obj
 0004:0000815c       ?fExplicitTemplateParams@UnDecorator@@0_NA 0054915c     LIBCMTD:undname.obj
 0004:0000815d       ?fGetTemplateArgumentList@UnDecorator@@0_NA 0054915d     LIBCMTD:undname.obj
 0004:000087c0       _stack_based_factory       005497c0     <common>
 0004:000087f4       _PJ_NO_MEMORY_EXCEPTION    005497f4     <common>
 0004:00008800       _ctr_prng                  00549800     <common>
 0004:00008940       _bit_string                00549940     <common>
 0004:00008e14       __pfnReportHook            00549e14     <common>
 0004:00008e24       __pReportHookListW         00549e24     <common>
 0004:00008e28       __pReportHookList          00549e28     <common>
 0004:00008e2c       __pmatherr                 00549e2c     <common>
 0004:00008e38       ___sbh_initialized         00549e38     <common>
 0004:00008e4c       ___sbh_cntHeaderList       00549e4c     <common>
 0004:00008e50       ___sbh_pHeaderList         00549e50     <common>
 0004:00008e54       ___sbh_threshold           00549e54     <common>
 0004:00008e58       ___sbh_pHeaderScan         00549e58     <common>
 0004:00008e5c       ___sbh_sizeHeaderList      00549e5c     <common>
 0004:00008e60       ___sbh_indGroupDefer       00549e60     <common>
 0004:00008e64       __debugger_hook_dummy      00549e64     <common>
 0004:00008e70       ___setlc_active            00549e70     <common>
 0004:00008e80       ___unguarded_readlc_active 00549e80     <common>
 0004:00008e84       ___use_sse2_mathfcns       00549e84     <common>
 0004:00008e94       ___sse2_available          00549e94     <common>
 0004:00008e98       ___active_heap             00549e98     <common>
 0004:00008ea4       __nhandle                  00549ea4     <common>
 0004:00008f00       ___pioinfo                 00549f00     <common>
 0004:00009000       ___env_initialized         0054a000     <common>
 0004:00009010       ___onexitend               0054a010     <common>
 0004:00009014       ___onexitbegin             0054a014     <common>
 0004:00009018       ___mbctype_initialized     0054a018     <common>
 0004:0000901c       ___dyn_tls_init_callback   0054a01c     <common>
 0004:00009020       __setjmpexused             0054a020     <common>
 0004:0000902c       __acmdln                   0054a02c     <common>
 0004:00009038       ___piob                    0054a038     <common>
 0004:00009380       __bufin                    0054a380     <common>
 0004:0000a380       __nstream                  0054b380     <common>
 0005:00000000       __IMPORT_DESCRIPTOR_ole32  0054c000     ole32:ole32.dll
 0005:00000014       __IMPORT_DESCRIPTOR_WS2_32 0054c014     ws2_32:WS2_32.dll
 0005:00000028       __IMPORT_DESCRIPTOR_KERNEL32 0054c028     kernel32:KERNEL32.dll
 0005:0000003c       __IMPORT_DESCRIPTOR_WINMM  0054c03c     winmm:WINMM.dll
 0005:00000050       __NULL_IMPORT_DESCRIPTOR   0054c050     ole32:ole32.dll
 0005:00000464       __imp__GetCommandLineA@0   0054c464     kernel32:KERNEL32.dll
 0005:00000468       __imp__GetLocaleInfoW@16   0054c468     kernel32:KERNEL32.dll
 0005:0000046c       __imp__GetUserDefaultLCID@0 0054c46c     kernel32:KERNEL32.dll
 0005:00000470       __imp__EnumSystemLocalesA@8 0054c470     kernel32:KERNEL32.dll
 0005:00000474       __imp__IsValidLocale@8     0054c474     kernel32:KERNEL32.dll
 0005:00000478       __imp__GetLocaleInfoA@16   0054c478     kernel32:KERNEL32.dll
 0005:0000047c       __imp__GetDateFormatA@24   0054c47c     kernel32:KERNEL32.dll
 0005:00000480       __imp__GetTimeFormatA@24   0054c480     kernel32:KERNEL32.dll
 0005:00000484       __imp__GetStringTypeW@16   0054c484     kernel32:KERNEL32.dll
 0005:00000488       __imp__GetStringTypeA@20   0054c488     kernel32:KERNEL32.dll
 0005:0000048c       __imp__LCMapStringW@24     0054c48c     kernel32:KERNEL32.dll
 0005:00000490       __imp__LCMapStringA@24     0054c490     kernel32:KERNEL32.dll
 0005:00000494       __imp__GetConsoleMode@8    0054c494     kernel32:KERNEL32.dll
 0005:00000498       __imp__GetConsoleCP@0      0054c498     kernel32:KERNEL32.dll
 0005:0000049c       __imp__OutputDebugStringW@4 0054c49c     kernel32:KERNEL32.dll
 0005:000004a0       __imp__OutputDebugStringA@4 0054c4a0     kernel32:KERNEL32.dll
 0005:000004a4       __imp__DebugBreak@0        0054c4a4     kernel32:KERNEL32.dll
 0005:000004a8       __imp__MultiByteToWideChar@24 0054c4a8     kernel32:KERNEL32.dll
 0005:000004ac       __imp__RaiseException@16   0054c4ac     kernel32:KERNEL32.dll
 0005:000004b0       __imp__VirtualAlloc@16     0054c4b0     kernel32:KERNEL32.dll
 0005:000004b4       __imp__HeapReAlloc@16      0054c4b4     kernel32:KERNEL32.dll
 0005:000004b8       __imp__IsValidCodePage@4   0054c4b8     kernel32:KERNEL32.dll
 0005:000004bc       __imp__GetCPInfo@8         0054c4bc     kernel32:KERNEL32.dll
 0005:000004c0       __imp__GetOEMCP@0          0054c4c0     kernel32:KERNEL32.dll
 0005:000004c4       __imp__GetACP@0            0054c4c4     kernel32:KERNEL32.dll
 0005:000004c8       __imp__WaitForMultipleObjects@16 0054c4c8     kernel32:KERNEL32.dll
 0005:000004cc       __imp__SetEnvironmentVariableA@8 0054c4cc     kernel32:KERNEL32.dll
 0005:000004d0       __imp__CompareStringW@24   0054c4d0     kernel32:KERNEL32.dll
 0005:000004d4       __imp__CompareStringA@24   0054c4d4     kernel32:KERNEL32.dll
 0005:000004d8       __imp__VirtualQuery@12     0054c4d8     kernel32:KERNEL32.dll
 0005:000004dc       __imp__GetTimeZoneInformation@4 0054c4dc     kernel32:KERNEL32.dll
 0005:000004e0       __imp__lstrlenA@4          0054c4e0     kernel32:KERNEL32.dll
 0005:000004e4       __imp__GetConsoleOutputCP@0 0054c4e4     kernel32:KERNEL32.dll
 0005:000004e8       __imp__WriteConsoleA@20    0054c4e8     kernel32:KERNEL32.dll
 0005:000004ec       __imp__GetCurrentProcessId@0 0054c4ec     kernel32:KERNEL32.dll
 0005:000004f0       __imp__GetThreadPriority@4 0054c4f0     kernel32:KERNEL32.dll
 0005:000004f4       __imp__GetLastError@0      0054c4f4     kernel32:KERNEL32.dll
 0005:000004f8       __imp__SetThreadPriority@8 0054c4f8     kernel32:KERNEL32.dll
 0005:000004fc       __imp__GetCurrentThreadId@0 0054c4fc     kernel32:KERNEL32.dll
 0005:00000500       __imp__GetCurrentThread@0  0054c500     kernel32:KERNEL32.dll
 0005:00000504       __imp__CreateThread@24     0054c504     kernel32:KERNEL32.dll
 0005:00000508       __imp__ResumeThread@4      0054c508     kernel32:KERNEL32.dll
 0005:0000050c       __imp__WaitForSingleObject@8 0054c50c     kernel32:KERNEL32.dll
 0005:00000510       __imp__CloseHandle@4       0054c510     kernel32:KERNEL32.dll
 0005:00000514       __imp__Sleep@4             0054c514     kernel32:KERNEL32.dll
 0005:00000518       __imp__InterlockedExchange@8 0054c518     kernel32:KERNEL32.dll
 0005:0000051c       __imp__InterlockedIncrement@4 0054c51c     kernel32:KERNEL32.dll
 0005:00000520       __imp__InterlockedDecrement@4 0054c520     kernel32:KERNEL32.dll
 0005:00000524       __imp__InterlockedExchangeAdd@8 0054c524     kernel32:KERNEL32.dll
 0005:00000528       __imp__TlsAlloc@0          0054c528     kernel32:KERNEL32.dll
 0005:0000052c       __imp__TlsFree@4           0054c52c     kernel32:KERNEL32.dll
 0005:00000530       __imp__TlsSetValue@8       0054c530     kernel32:KERNEL32.dll
 0005:00000534       __imp__TlsGetValue@4       0054c534     kernel32:KERNEL32.dll
 0005:00000538       __imp__InitializeCriticalSection@4 0054c538     kernel32:KERNEL32.dll
 0005:0000053c       __imp__EnterCriticalSection@4 0054c53c     kernel32:KERNEL32.dll
 0005:00000540       __imp__LeaveCriticalSection@4 0054c540     kernel32:KERNEL32.dll
 0005:00000544       __imp__TryEnterCriticalSection@4 0054c544     kernel32:KERNEL32.dll
 0005:00000548       __imp__DeleteCriticalSection@4 0054c548     kernel32:KERNEL32.dll
 0005:0000054c       __imp__CreateSemaphoreA@16 0054c54c     kernel32:KERNEL32.dll
 0005:00000550       __imp__ReleaseSemaphore@12 0054c550     kernel32:KERNEL32.dll
 0005:00000554       __imp__CreateEventA@16     0054c554     kernel32:KERNEL32.dll
 0005:00000558       __imp__SetEvent@4          0054c558     kernel32:KERNEL32.dll
 0005:0000055c       __imp__PulseEvent@4        0054c55c     kernel32:KERNEL32.dll
 0005:00000560       __imp__ResetEvent@4        0054c560     kernel32:KERNEL32.dll
 0005:00000564       __imp__SetConsoleTextAttribute@8 0054c564     kernel32:KERNEL32.dll
 0005:00000568       __imp__GetStdHandle@4      0054c568     kernel32:KERNEL32.dll
 0005:0000056c       __imp__GetConsoleScreenBufferInfo@8 0054c56c     kernel32:KERNEL32.dll
 0005:00000570       __imp__QueryPerformanceCounter@4 0054c570     kernel32:KERNEL32.dll
 0005:00000574       __imp__QueryPerformanceFrequency@4 0054c574     kernel32:KERNEL32.dll
 0005:00000578       __imp__SystemTimeToFileTime@8 0054c578     kernel32:KERNEL32.dll
 0005:0000057c       __imp__GetLocalTime@4      0054c57c     kernel32:KERNEL32.dll
 0005:00000580       __imp__FileTimeToSystemTime@8 0054c580     kernel32:KERNEL32.dll
 0005:00000584       __imp__CreateFileA@28      0054c584     kernel32:KERNEL32.dll
 0005:00000588       __imp__WriteFile@20        0054c588     kernel32:KERNEL32.dll
 0005:0000058c       __imp__ReadFile@20         0054c58c     kernel32:KERNEL32.dll
 0005:00000590       __imp__SetFilePointer@16   0054c590     kernel32:KERNEL32.dll
 0005:00000594       __imp__FlushFileBuffers@4  0054c594     kernel32:KERNEL32.dll
 0005:00000598       __imp__GetFileSize@8       0054c598     kernel32:KERNEL32.dll
 0005:0000059c       __imp__DeleteFileA@4       0054c59c     kernel32:KERNEL32.dll
 0005:000005a0       __imp__MoveFileExA@12      0054c5a0     kernel32:KERNEL32.dll
 0005:000005a4       __imp__GetFileTime@16      0054c5a4     kernel32:KERNEL32.dll
 0005:000005a8       __imp__FileTimeToLocalFileTime@8 0054c5a8     kernel32:KERNEL32.dll
 0005:000005ac       __imp__SetLastError@4      0054c5ac     kernel32:KERNEL32.dll
 0005:000005b0       __imp__FormatMessageA@28   0054c5b0     kernel32:KERNEL32.dll
 0005:000005b4       __imp__GetProcAddress@8    0054c5b4     kernel32:KERNEL32.dll
 0005:000005b8       __imp__LoadLibraryA@4      0054c5b8     kernel32:KERNEL32.dll
 0005:000005bc       __imp__FreeLibrary@4       0054c5bc     kernel32:KERNEL32.dll
 0005:000005c0       __imp__GetModuleFileNameW@12 0054c5c0     kernel32:KERNEL32.dll
 0005:000005c4       __imp__WriteConsoleW@20    0054c5c4     kernel32:KERNEL32.dll
 0005:000005c8       __imp__GetFileType@4       0054c5c8     kernel32:KERNEL32.dll
 0005:000005cc       __imp__VirtualFree@12      0054c5cc     kernel32:KERNEL32.dll
 0005:000005d0       __imp__HeapFree@12         0054c5d0     kernel32:KERNEL32.dll
 0005:000005d4       __imp__GetVersionExA@4     0054c5d4     kernel32:KERNEL32.dll
 0005:000005d8       __imp__HeapAlloc@12        0054c5d8     kernel32:KERNEL32.dll
 0005:000005dc       __imp__GetProcessHeap@0    0054c5dc     kernel32:KERNEL32.dll
 0005:000005e0       __imp__HeapValidate@12     0054c5e0     kernel32:KERNEL32.dll
 0005:000005e4       __imp__IsBadReadPtr@8      0054c5e4     kernel32:KERNEL32.dll
 0005:000005e8       __imp__RtlUnwind@16        0054c5e8     kernel32:KERNEL32.dll
 0005:000005ec       __imp__GetModuleHandleA@4  0054c5ec     kernel32:KERNEL32.dll
 0005:000005f0       __imp__ExitProcess@4       0054c5f0     kernel32:KERNEL32.dll
 0005:000005f4       __imp__GetSystemTimeAsFileTime@4 0054c5f4     kernel32:KERNEL32.dll
 0005:000005f8       __imp__SetHandleCount@4    0054c5f8     kernel32:KERNEL32.dll
 0005:000005fc       __imp__GetStartupInfoA@4   0054c5fc     kernel32:KERNEL32.dll
 0005:00000600       __imp__TerminateProcess@8  0054c600     kernel32:KERNEL32.dll
 0005:00000604       __imp__GetCurrentProcess@0 0054c604     kernel32:KERNEL32.dll
 0005:00000608       __imp__UnhandledExceptionFilter@4 0054c608     kernel32:KERNEL32.dll
 0005:0000060c       __imp__SetUnhandledExceptionFilter@4 0054c60c     kernel32:KERNEL32.dll
 0005:00000610       __imp__IsDebuggerPresent@0 0054c610     kernel32:KERNEL32.dll
 0005:00000614       __imp__FatalAppExitA@8     0054c614     kernel32:KERNEL32.dll
 0005:00000618       __imp__SetConsoleCtrlHandler@8 0054c618     kernel32:KERNEL32.dll
 0005:0000061c       __imp__LoadLibraryW@4      0054c61c     kernel32:KERNEL32.dll
 0005:00000620       __imp__GetModuleFileNameA@12 0054c620     kernel32:KERNEL32.dll
 0005:00000624       __imp__WideCharToMultiByte@32 0054c624     kernel32:KERNEL32.dll
 0005:00000628       __imp__GetTickCount@0      0054c628     kernel32:KERNEL32.dll
 0005:0000062c       __imp__FreeEnvironmentStringsA@4 0054c62c     kernel32:KERNEL32.dll
 0005:00000630       __imp__GetEnvironmentStrings@0 0054c630     kernel32:KERNEL32.dll
 0005:00000634       __imp__FreeEnvironmentStringsW@4 0054c634     kernel32:KERNEL32.dll
 0005:00000638       __imp__GetEnvironmentStringsW@0 0054c638     kernel32:KERNEL32.dll
 0005:0000063c       __imp__HeapDestroy@4       0054c63c     kernel32:KERNEL32.dll
 0005:00000640       __imp__HeapCreate@12       0054c640     kernel32:KERNEL32.dll
 0005:00000644       __imp__SetStdHandle@8      0054c644     kernel32:KERNEL32.dll
 0005:00000648       \177KERNEL32_NULL_THUNK_DATA 0054c648     kernel32:KERNEL32.dll
 0005:000006d4       __imp__waveOutGetDevCapsA@12 0054c6d4     winmm:WINMM.dll
 0005:000006d8       __imp__waveInGetDevCapsA@12 0054c6d8     winmm:WINMM.dll
 0005:000006dc       __imp__waveOutGetNumDevs@0 0054c6dc     winmm:WINMM.dll
 0005:000006e0       __imp__waveInGetNumDevs@0  0054c6e0     winmm:WINMM.dll
 0005:000006e4       __imp__waveOutWrite@12     0054c6e4     winmm:WINMM.dll
 0005:000006e8       __imp__waveOutPrepareHeader@12 0054c6e8     winmm:WINMM.dll
 0005:000006ec       __imp__waveOutPause@4      0054c6ec     winmm:WINMM.dll
 0005:000006f0       __imp__waveOutOpen@24      0054c6f0     winmm:WINMM.dll
 0005:000006f4       __imp__waveInAddBuffer@12  0054c6f4     winmm:WINMM.dll
 0005:000006f8       __imp__waveInPrepareHeader@12 0054c6f8     winmm:WINMM.dll
 0005:000006fc       __imp__waveInOpen@24       0054c6fc     winmm:WINMM.dll
 0005:00000700       __imp__waveOutGetVolume@8  0054c700     winmm:WINMM.dll
 0005:00000704       __imp__waveOutSetVolume@8  0054c704     winmm:WINMM.dll
 0005:00000708       __imp__waveInStart@4       0054c708     winmm:WINMM.dll
 0005:0000070c       __imp__waveOutRestart@4    0054c70c     winmm:WINMM.dll
 0005:00000710       __imp__waveInStop@4        0054c710     winmm:WINMM.dll
 0005:00000714       __imp__waveInClose@4       0054c714     winmm:WINMM.dll
 0005:00000718       __imp__waveInUnprepareHeader@12 0054c718     winmm:WINMM.dll
 0005:0000071c       __imp__waveInReset@4       0054c71c     winmm:WINMM.dll
 0005:00000720       __imp__waveOutClose@4      0054c720     winmm:WINMM.dll
 0005:00000724       __imp__waveOutUnprepareHeader@12 0054c724     winmm:WINMM.dll
 0005:00000728       __imp__waveOutReset@4      0054c728     winmm:WINMM.dll
 0005:0000072c       __imp__waveOutGetErrorTextA@12 0054c72c     winmm:WINMM.dll
 0005:00000730       __imp__waveInGetErrorTextA@12 0054c730     winmm:WINMM.dll
 0005:00000734       \177WINMM_NULL_THUNK_DATA  0054c734     winmm:WINMM.dll
 0005:00000770       __imp__gethostbyname@4     0054c770     ws2_32:WS2_32.dll
 0005:00000774       __imp__select@20           0054c774     ws2_32:WS2_32.dll
 0005:00000778       __imp____WSAFDIsSet@8      0054c778     ws2_32:WS2_32.dll
 0005:0000077c       __imp__WSASetLastError@4   0054c77c     ws2_32:WS2_32.dll
 0005:00000780       __imp__accept@12           0054c780     ws2_32:WS2_32.dll
 0005:00000784       __imp__listen@8            0054c784     ws2_32:WS2_32.dll
 0005:00000788       __imp__shutdown@8          0054c788     ws2_32:WS2_32.dll
 0005:0000078c       __imp__connect@12          0054c78c     ws2_32:WS2_32.dll
 0005:00000790       __imp__setsockopt@20       0054c790     ws2_32:WS2_32.dll
 0005:00000794       __imp__getsockopt@20       0054c794     ws2_32:WS2_32.dll
 0005:00000798       __imp__recvfrom@24         0054c798     ws2_32:WS2_32.dll
 0005:0000079c       __imp__recv@16             0054c79c     ws2_32:WS2_32.dll
 0005:000007a0       __imp__sendto@24           0054c7a0     ws2_32:WS2_32.dll
 0005:000007a4       __imp__send@16             0054c7a4     ws2_32:WS2_32.dll
 0005:000007a8       __imp__getsockname@12      0054c7a8     ws2_32:WS2_32.dll
 0005:000007ac       __imp__getpeername@12      0054c7ac     ws2_32:WS2_32.dll
 0005:000007b0       __imp__closesocket@4       0054c7b0     ws2_32:WS2_32.dll
 0005:000007b4       __imp__bind@12             0054c7b4     ws2_32:WS2_32.dll
 0005:000007b8       __imp__WSASocketA@24       0054c7b8     ws2_32:WS2_32.dll
 0005:000007bc       __imp__gethostname@8       0054c7bc     ws2_32:WS2_32.dll
 0005:000007c0       __imp__WSAAddressToStringA@20 0054c7c0     ws2_32:WS2_32.dll
 0005:000007c4       __imp__WSAStringToAddressA@20 0054c7c4     ws2_32:WS2_32.dll
 0005:000007c8       __imp__inet_addr@4         0054c7c8     ws2_32:WS2_32.dll
 0005:000007cc       __imp__inet_ntoa@4         0054c7cc     ws2_32:WS2_32.dll
 0005:000007d0       __imp__htonl@4             0054c7d0     ws2_32:WS2_32.dll
 0005:000007d4       __imp__ntohl@4             0054c7d4     ws2_32:WS2_32.dll
 0005:000007d8       __imp__htons@4             0054c7d8     ws2_32:WS2_32.dll
 0005:000007dc       __imp__ntohs@4             0054c7dc     ws2_32:WS2_32.dll
 0005:000007e0       __imp__ioctlsocket@12      0054c7e0     ws2_32:WS2_32.dll
 0005:000007e4       __imp__WSACleanup@0        0054c7e4     ws2_32:WS2_32.dll
 0005:000007e8       __imp__WSAStartup@8        0054c7e8     ws2_32:WS2_32.dll
 0005:000007ec       __imp__WSAGetLastError@0   0054c7ec     ws2_32:WS2_32.dll
 0005:000007f0       \177WS2_32_NULL_THUNK_DATA 0054c7f0     ws2_32:WS2_32.dll
 0005:00000834       __imp__CoCreateGuid@4      0054c834     ole32:ole32.dll
 0005:00000838       \177ole32_NULL_THUNK_DATA  0054c838     ole32:ole32.dll

 entry point at        0002:00000bdb

