 icedemo

 Timestamp is 4c52ac9c (Fri Jul 30 16:12:36 2010)

 Preferred load address is 00400000

 Start         Length     Name                   Class
 0001:00000000 0005223dH .textbss                DATA
 0002:00000000 000a8cfeH .text                   CODE
 0002:000a8d00 00001128H .text$x                 CODE
 0003:00000000 00000104H .CRT$XCA                DATA
 0003:00000104 00000104H .CRT$XCZ                DATA
 0003:00000208 00000104H .CRT$XIA                DATA
 0003:0000030c 00000118H .CRT$XIC                DATA
 0003:00000424 00000104H .CRT$XIY                DATA
 0003:00000528 00000104H .CRT$XIZ                DATA
 0003:0000062c 00000104H .CRT$XPA                DATA
 0003:00000730 00000109H .CRT$XPX                DATA
 0003:0000083c 00000104H .CRT$XPXA               DATA
 0003:00000940 00000104H .CRT$XPZ                DATA
 0003:00000a44 00000104H .CRT$XTA                DATA
 0003:00000b48 00000104H .CRT$XTZ                DATA
 0003:00000c50 0001d849H .rdata                  DATA
 0003:0001e49c 0000017bH .rdata$debug            DATA
 0003:0001e618 00000504H .rdata$r                DATA
 0003:0001eb1c 00000104H .rtc$IAA                DATA
 0003:0001ec20 00000104H .rtc$IZZ                DATA
 0003:0001ed24 00000104H .rtc$TAA                DATA
 0003:0001ee28 00000104H .rtc$TZZ                DATA
 0003:0001ef30 000011f9H .xdata$x                DATA
 0003:00020129 00000000H .edata                  DATA
 0004:00000000 00004a78H .data                   DATA
 0004:00004a80 00003588H .bss                    DATA
 0005:00000000 0000003cH .idata$2                DATA
 0005:0000003c 00000014H .idata$3                DATA
 0005:00000050 0000034cH .idata$4                DATA
 0005:0000039c 0000034cH .idata$5                DATA
 0005:000006e8 00000abeH .idata$6                DATA

  Address         Publics by Value              Rva+Base       Lib:Object

 0000:00000000       ___safe_se_handler_table   00000000     <absolute>
 0000:00000000       __except_list              00000000     <absolute>
 0000:00000000       ___safe_se_handler_count   00000000     <absolute>
 0000:00000000       ___ImageBase               00400000     <linker-defined>
 0001:00000000       __enc$textbss$begin        00401000     <linker-defined>
 0001:0005223d       __enc$textbss$end          0045323d     <linker-defined>
 0002:00003f80       _main                      00457f80 f   icedemo.obj
 0002:00007200       _pj_ice_strans_cfg_default 0045b200 f   pjnath-i386-win32-vc8-debug:ice_strans.obj
 0002:00007370       _pj_ice_strans_cfg_copy    0045b370 f   pjnath-i386-win32-vc8-debug:ice_strans.obj
 0002:00007460       _pj_ice_strans_create      0045b460 f   pjnath-i386-win32-vc8-debug:ice_strans.obj
 0002:00008500       _pj_ice_strans_get_state   0045c500 f   pjnath-i386-win32-vc8-debug:ice_strans.obj
 0002:00008520       _pj_ice_strans_state_name  0045c520 f   pjnath-i386-win32-vc8-debug:ice_strans.obj
 0002:000086d0       _pj_ice_strans_destroy     0045c6d0 f   pjnath-i386-win32-vc8-debug:ice_strans.obj
 0002:000087f0       _pj_ice_strans_get_user_data 0045c7f0 f   pjnath-i386-win32-vc8-debug:ice_strans.obj
 0002:00008850       _pj_ice_strans_get_options 0045c850 f   pjnath-i386-win32-vc8-debug:ice_strans.obj
 0002:000088d0       _pj_ice_strans_set_options 0045c8d0 f   pjnath-i386-win32-vc8-debug:ice_strans.obj
 0002:00008980       _pj_ice_strans_init_ice    0045c980 f   pjnath-i386-win32-vc8-debug:ice_strans.obj
 0002:00008dc0       _pj_ice_strans_has_sess    0045cdc0 f   pjnath-i386-win32-vc8-debug:ice_strans.obj
 0002:00008e30       _pj_ice_strans_sess_is_running 0045ce30 f   pjnath-i386-win32-vc8-debug:ice_strans.obj
 0002:00008ea0       _pj_ice_strans_sess_is_complete 0045cea0 f   pjnath-i386-win32-vc8-debug:ice_strans.obj
 0002:00008f00       _pj_ice_strans_get_running_comp_cnt 0045cf00 f   pjnath-i386-win32-vc8-debug:ice_strans.obj
 0002:00008fa0       _pj_ice_strans_get_ufrag_pwd 0045cfa0 f   pjnath-i386-win32-vc8-debug:ice_strans.obj
 0002:00009140       _pj_ice_strans_get_cands_count 0045d140 f   pjnath-i386-win32-vc8-debug:ice_strans.obj
 0002:00009250       _pj_ice_strans_enum_cands  0045d250 f   pjnath-i386-win32-vc8-debug:ice_strans.obj
 0002:000093e0       _pj_ice_strans_get_def_cand 0045d3e0 f   pjnath-i386-win32-vc8-debug:ice_strans.obj
 0002:00009540       _pj_ice_strans_get_role    0045d540 f   pjnath-i386-win32-vc8-debug:ice_strans.obj
 0002:000095c0       _pj_ice_strans_change_role 0045d5c0 f   pjnath-i386-win32-vc8-debug:ice_strans.obj
 0002:00009650       _pj_ice_strans_start_ice   0045d650 f   pjnath-i386-win32-vc8-debug:ice_strans.obj
 0002:00009940       _pj_ice_strans_get_valid_pair 0045d940 f   pjnath-i386-win32-vc8-debug:ice_strans.obj
 0002:00009a00       _pj_ice_strans_stop_ice    0045da00 f   pjnath-i386-win32-vc8-debug:ice_strans.obj
 0002:00009a60       _pj_ice_strans_sendto      0045da60 f   pjnath-i386-win32-vc8-debug:ice_strans.obj
 0002:0000af80       _pjnath_init               0045ef80 f   pjnath-i386-win32-vc8-debug:errno.obj
 0002:0000b270       _pjnath_perror             0045f270 f   pjnath-i386-win32-vc8-debug:errno.obj
 0002:0000b2f0       _pj_ice_get_cand_type_name 0045f2f0 f   pjnath-i386-win32-vc8-debug:ice_session.obj
 0002:0000b350       _pj_ice_sess_role_name     0045f350 f   pjnath-i386-win32-vc8-debug:ice_session.obj
 0002:0000b3b0       _pj_ice_calc_foundation    0045f3b0 f   pjnath-i386-win32-vc8-debug:ice_session.obj
 0002:0000b530       _pj_ice_sess_options_default 0045f530 f   pjnath-i386-win32-vc8-debug:ice_session.obj
 0002:0000b570       _pj_ice_sess_create        0045f570 f   pjnath-i386-win32-vc8-debug:ice_session.obj
 0002:0000bb90       _pj_ice_sess_get_options   0045fb90 f   pjnath-i386-win32-vc8-debug:ice_session.obj
 0002:0000bc00       _pj_ice_sess_set_options   0045fc00 f   pjnath-i386-win32-vc8-debug:ice_session.obj
 0002:0000bea0       _pj_ice_sess_destroy       0045fea0 f   pjnath-i386-win32-vc8-debug:ice_session.obj
 0002:0000bf10       _pj_ice_sess_change_role   0045ff10 f   pjnath-i386-win32-vc8-debug:ice_session.obj
 0002:0000bfc0       _pj_ice_sess_set_prefs     0045ffc0 f   pjnath-i386-win32-vc8-debug:ice_session.obj
 0002:0000c340       _pj_ice_sess_add_cand      00460340 f   pjnath-i386-win32-vc8-debug:ice_session.obj
 0002:0000c710       _pj_ice_sess_find_default_cand 00460710 f   pjnath-i386-win32-vc8-debug:ice_session.obj
 0002:0000d240       _pj_ice_sess_create_check_list 00461240 f   pjnath-i386-win32-vc8-debug:ice_session.obj
 0002:0000ec10       _find_str                  00462c10 f   pjnath-i386-win32-vc8-debug:ice_session.obj
 0002:0000ec80       _pj_ice_sess_start_check   00462c80 f   pjnath-i386-win32-vc8-debug:ice_session.obj
 0002:000110a0       _pj_ice_sess_send_data     004650a0 f   pjnath-i386-win32-vc8-debug:ice_session.obj
 0002:000111f0       _pj_ice_sess_on_rx_pkt     004651f0 f   pjnath-i386-win32-vc8-debug:ice_session.obj
 0002:00011470       _pj_turn_sock_cfg_default  00465470 f   pjnath-i386-win32-vc8-debug:turn_sock.obj
 0002:000114e0       _pj_turn_sock_create       004654e0 f   pjnath-i386-win32-vc8-debug:turn_sock.obj
 0002:00011a00       _pj_turn_sock_destroy      00465a00 f   pjnath-i386-win32-vc8-debug:turn_sock.obj
 0002:00011b50       _pj_turn_sock_set_user_data 00465b50 f   pjnath-i386-win32-vc8-debug:turn_sock.obj
 0002:00011bb0       _pj_turn_sock_get_user_data 00465bb0 f   pjnath-i386-win32-vc8-debug:turn_sock.obj
 0002:00011c10       _pj_turn_sock_get_info     00465c10 f   pjnath-i386-win32-vc8-debug:turn_sock.obj
 0002:00011cc0       _pj_turn_sock_lock         00465cc0 f   pjnath-i386-win32-vc8-debug:turn_sock.obj
 0002:00011cf0       _pj_turn_sock_unlock       00465cf0 f   pjnath-i386-win32-vc8-debug:turn_sock.obj
 0002:00011d20       _pj_turn_sock_set_log      00465d20 f   pjnath-i386-win32-vc8-debug:turn_sock.obj
 0002:00011d50       _pj_turn_sock_set_software_name 00465d50 f   pjnath-i386-win32-vc8-debug:turn_sock.obj
 0002:00011d80       _pj_turn_sock_alloc        00465d80 f   pjnath-i386-win32-vc8-debug:turn_sock.obj
 0002:00011fa0       _pj_turn_sock_set_perm     00465fa0 f   pjnath-i386-win32-vc8-debug:turn_sock.obj
 0002:00011ff0       _pj_turn_sock_sendto       00465ff0 f   pjnath-i386-win32-vc8-debug:turn_sock.obj
 0002:000120a0       _pj_turn_sock_bind_channel 004660a0 f   pjnath-i386-win32-vc8-debug:turn_sock.obj
 0002:00012af0       _pj_turn_alloc_param_default 00466af0 f   pjnath-i386-win32-vc8-debug:turn_session.obj
 0002:00012b50       _pj_turn_alloc_param_copy  00466b50 f   pjnath-i386-win32-vc8-debug:turn_session.obj
 0002:00012bb0       _pj_turn_state_name        00466bb0 f   pjnath-i386-win32-vc8-debug:turn_session.obj
 0002:00012bd0       _pj_turn_session_create    00466bd0 f   pjnath-i386-win32-vc8-debug:turn_session.obj
 0002:000130c0       _pj_turn_session_shutdown  004670c0 f   pjnath-i386-win32-vc8-debug:turn_session.obj
 0002:000133c0       _pj_turn_session_destroy   004673c0 f   pjnath-i386-win32-vc8-debug:turn_session.obj
 0002:00013460       _pj_turn_session_get_info  00467460 f   pjnath-i386-win32-vc8-debug:turn_session.obj
 0002:000135b0       _pj_turn_session_set_user_data 004675b0 f   pjnath-i386-win32-vc8-debug:turn_session.obj
 0002:000135e0       _pj_turn_session_get_user_data 004675e0 f   pjnath-i386-win32-vc8-debug:turn_session.obj
 0002:00013600       _pj_turn_session_set_log   00467600 f   pjnath-i386-win32-vc8-debug:turn_session.obj
 0002:00013630       _pj_turn_session_set_software_name 00467630 f   pjnath-i386-win32-vc8-debug:turn_session.obj
 0002:00013690       _pj_turn_session_set_server 00467690 f   pjnath-i386-win32-vc8-debug:turn_session.obj
 0002:00013bc0       _pj_turn_session_set_credential 00467bc0 f   pjnath-i386-win32-vc8-debug:turn_session.obj
 0002:00013cb0       _pj_turn_session_alloc     00467cb0 f   pjnath-i386-win32-vc8-debug:turn_session.obj
 0002:00014010       _pj_turn_session_set_perm  00468010 f   pjnath-i386-win32-vc8-debug:turn_session.obj
 0002:000144b0       _pj_turn_session_sendto    004684b0 f   pjnath-i386-win32-vc8-debug:turn_session.obj
 0002:00014920       _pj_turn_session_bind_channel 00468920 f   pjnath-i386-win32-vc8-debug:turn_session.obj
 0002:00014c10       _pj_turn_session_on_rx_pkt 00468c10 f   pjnath-i386-win32-vc8-debug:turn_session.obj
 0002:00016990       _pj_stun_sock_op_name      0046a990 f   pjnath-i386-win32-vc8-debug:stun_sock.obj
 0002:000169f0       _pj_stun_sock_cfg_default  0046a9f0 f   pjnath-i386-win32-vc8-debug:stun_sock.obj
 0002:00016a90       _pj_stun_sock_create       0046aa90 f   pjnath-i386-win32-vc8-debug:stun_sock.obj
 0002:00017240       _pj_stun_sock_start        0046b240 f   pjnath-i386-win32-vc8-debug:stun_sock.obj
 0002:000174a0       _pj_stun_sock_destroy      0046b4a0 f   pjnath-i386-win32-vc8-debug:stun_sock.obj
 0002:00017610       _pj_stun_sock_set_user_data 0046b610 f   pjnath-i386-win32-vc8-debug:stun_sock.obj
 0002:00017670       _pj_stun_sock_get_user_data 0046b670 f   pjnath-i386-win32-vc8-debug:stun_sock.obj
 0002:00017940       _pj_stun_sock_get_info     0046b940 f   pjnath-i386-win32-vc8-debug:stun_sock.obj
 0002:00017bf0       _pj_stun_sock_sendto       0046bbf0 f   pjnath-i386-win32-vc8-debug:stun_sock.obj
 0002:000182e0       _pj_stun_auth_cred_dup     0046c2e0 f   pjnath-i386-win32-vc8-debug:stun_auth.obj
 0002:00018410       _pj_stun_req_cred_info_dup 0046c410 f   pjnath-i386-win32-vc8-debug:stun_auth.obj
 0002:000184a0       _pj_stun_create_key        0046c4a0 f   pjnath-i386-win32-vc8-debug:stun_auth.obj
 0002:00018780       _pj_stun_authenticate_request 0046c780 f   pjnath-i386-win32-vc8-debug:stun_auth.obj
 0002:00019320       _pj_stun_auth_valid_for_msg 0046d320 f   pjnath-i386-win32-vc8-debug:stun_auth.obj
 0002:00019460       _pj_stun_authenticate_response 0046d460 f   pjnath-i386-win32-vc8-debug:stun_auth.obj
 0002:00019710       _pj_stun_get_method_name   0046d710 f   pjnath-i386-win32-vc8-debug:stun_msg.obj
 0002:00019750       _pj_stun_get_class_name    0046d750 f   pjnath-i386-win32-vc8-debug:stun_msg.obj
 0002:000197e0       _pj_stun_get_attr_name     0046d7e0 f   pjnath-i386-win32-vc8-debug:stun_msg.obj
 0002:00019910       _pj_stun_get_err_reason    0046d910 f   pjnath-i386-win32-vc8-debug:stun_msg.obj
 0002:000199f0       _pj_stun_set_padding_char  0046d9f0 f   pjnath-i386-win32-vc8-debug:stun_msg.obj
 0002:00019a20       _pj_stun_sockaddr_attr_init 0046da20 f   pjnath-i386-win32-vc8-debug:stun_msg.obj
 0002:00019b70       _pj_stun_sockaddr_attr_create 0046db70 f   pjnath-i386-win32-vc8-debug:stun_msg.obj
 0002:00019c50       _pj_stun_msg_add_sockaddr_attr 0046dc50 f   pjnath-i386-win32-vc8-debug:stun_msg.obj
 0002:0001a570       _pj_stun_string_attr_init  0046e570 f   pjnath-i386-win32-vc8-debug:stun_msg.obj
 0002:0001a5f0       _pj_stun_string_attr_create 0046e5f0 f   pjnath-i386-win32-vc8-debug:stun_msg.obj
 0002:0001a6a0       _pj_stun_msg_add_string_attr 0046e6a0 f   pjnath-i386-win32-vc8-debug:stun_msg.obj
 0002:0001a990       _pj_stun_empty_attr_create 0046e990 f   pjnath-i386-win32-vc8-debug:stun_msg.obj
 0002:0001aa30       _pj_stun_msg_add_empty_attr 0046ea30 f   pjnath-i386-win32-vc8-debug:stun_msg.obj
 0002:0001abb0       _pj_stun_uint_attr_create  0046ebb0 f   pjnath-i386-win32-vc8-debug:stun_msg.obj
 0002:0001ac60       _pj_stun_msg_add_uint_attr 0046ec60 f   pjnath-i386-win32-vc8-debug:stun_msg.obj
 0002:0001af10       _pj_stun_uint64_attr_create 0046ef10 f   pjnath-i386-win32-vc8-debug:stun_msg.obj
 0002:0001afd0       _pj_stun_msg_add_uint64_attr 0046efd0 f   pjnath-i386-win32-vc8-debug:stun_msg.obj
 0002:0001b240       _pj_stun_msgint_attr_create 0046f240 f   pjnath-i386-win32-vc8-debug:stun_msg.obj
 0002:0001b2e0       _pj_stun_msg_add_msgint_attr 0046f2e0 f   pjnath-i386-win32-vc8-debug:stun_msg.obj
 0002:0001b4c0       _pj_stun_errcode_attr_create 0046f4c0 f   pjnath-i386-win32-vc8-debug:stun_msg.obj
 0002:0001b610       _pj_stun_msg_add_errcode_attr 0046f610 f   pjnath-i386-win32-vc8-debug:stun_msg.obj
 0002:0001b8a0       _pj_stun_unknown_attr_create 0046f8a0 f   pjnath-i386-win32-vc8-debug:stun_msg.obj
 0002:0001b9a0       _pj_stun_msg_add_unknown_attr 0046f9a0 f   pjnath-i386-win32-vc8-debug:stun_msg.obj
 0002:0001bc30       _pj_stun_binary_attr_init  0046fc30 f   pjnath-i386-win32-vc8-debug:stun_msg.obj
 0002:0001bd20       _pj_stun_binary_attr_create 0046fd20 f   pjnath-i386-win32-vc8-debug:stun_msg.obj
 0002:0001bde0       _pj_stun_msg_add_binary_attr 0046fde0 f   pjnath-i386-win32-vc8-debug:stun_msg.obj
 0002:0001c050       _pj_stun_msg_init          00470050 f   pjnath-i386-win32-vc8-debug:stun_msg.obj
 0002:0001c170       _pj_stun_msg_create        00470170 f   pjnath-i386-win32-vc8-debug:stun_msg.obj
 0002:0001c220       _pj_stun_msg_clone         00470220 f   pjnath-i386-win32-vc8-debug:stun_msg.obj
 0002:0001c340       _pj_stun_msg_add_attr      00470340 f   pjnath-i386-win32-vc8-debug:stun_msg.obj
 0002:0001c420       _pj_stun_msg_check         00470420 f   pjnath-i386-win32-vc8-debug:stun_msg.obj
 0002:0001c600       _pj_stun_msg_create_response 00470600 f   pjnath-i386-win32-vc8-debug:stun_msg.obj
 0002:0001c770       _pj_stun_msg_decode        00470770 f   pjnath-i386-win32-vc8-debug:stun_msg.obj
 0002:0001cf60       _pj_stun_msg_encode        00470f60 f   pjnath-i386-win32-vc8-debug:stun_msg.obj
 0002:0001d670       _pj_stun_msg_find_attr     00471670 f   pjnath-i386-win32-vc8-debug:stun_msg.obj
 0002:0001d710       _pj_stun_attr_clone        00471710 f   pjnath-i386-win32-vc8-debug:stun_msg.obj
 0002:0001d870       _pj_stun_msg_destroy_tdata 00471870 f   pjnath-i386-win32-vc8-debug:stun_session.obj
 0002:0001dfd0       _pj_stun_session_create    00471fd0 f   pjnath-i386-win32-vc8-debug:stun_session.obj
 0002:0001e300       _pj_stun_session_destroy   00472300 f   pjnath-i386-win32-vc8-debug:stun_session.obj
 0002:0001e4d0       _pj_stun_session_set_user_data 004724d0 f   pjnath-i386-win32-vc8-debug:stun_session.obj
 0002:0001e560       _pj_stun_session_get_user_data 00472560 f   pjnath-i386-win32-vc8-debug:stun_session.obj
 0002:0001e5c0       _pj_stun_session_set_lock  004725c0 f   pjnath-i386-win32-vc8-debug:stun_session.obj
 0002:0001e690       _pj_stun_session_set_software_name 00472690 f   pjnath-i386-win32-vc8-debug:stun_session.obj
 0002:0001e730       _pj_stun_session_set_credential 00472730 f   pjnath-i386-win32-vc8-debug:stun_session.obj
 0002:0001e820       _pj_stun_session_set_log   00472820 f   pjnath-i386-win32-vc8-debug:stun_session.obj
 0002:0001e880       _pj_stun_session_use_fingerprint 00472880 f   pjnath-i386-win32-vc8-debug:stun_session.obj
 0002:0001e8f0       _pj_stun_session_create_req 004728f0 f   pjnath-i386-win32-vc8-debug:stun_session.obj
 0002:0001ee00       _pj_stun_session_create_ind 00472e00 f   pjnath-i386-win32-vc8-debug:stun_session.obj
 0002:0001ef00       _pj_stun_session_create_res 00472f00 f   pjnath-i386-win32-vc8-debug:stun_session.obj
 0002:0001f000       _pj_stun_session_send_msg  00473000 f   pjnath-i386-win32-vc8-debug:stun_session.obj
 0002:0001fb40       _pj_stun_session_respond   00473b40 f   pjnath-i386-win32-vc8-debug:stun_session.obj
 0002:0001fc40       _pj_stun_session_cancel_req 00473c40 f   pjnath-i386-win32-vc8-debug:stun_session.obj
 0002:0001fe20       _pj_stun_session_retransmit_req 00473e20 f   pjnath-i386-win32-vc8-debug:stun_session.obj
 0002:0001ff70       _pj_stun_session_on_rx_pkt 00473f70 f   pjnath-i386-win32-vc8-debug:stun_session.obj
 0002:00020ac0       _pj_stun_client_tsx_create 00474ac0 f   pjnath-i386-win32-vc8-debug:stun_transaction.obj
 0002:00020cb0       _pj_stun_client_tsx_schedule_destroy 00474cb0 f   pjnath-i386-win32-vc8-debug:stun_transaction.obj
 0002:00020e20       _pj_stun_client_tsx_destroy 00474e20 f   pjnath-i386-win32-vc8-debug:stun_transaction.obj
 0002:00020f10       _pj_stun_client_tsx_is_complete 00474f10 f   pjnath-i386-win32-vc8-debug:stun_transaction.obj
 0002:00020f70       _pj_stun_client_tsx_set_data 00474f70 f   pjnath-i386-win32-vc8-debug:stun_transaction.obj
 0002:00020fd0       _pj_stun_client_tsx_get_data 00474fd0 f   pjnath-i386-win32-vc8-debug:stun_transaction.obj
 0002:00021030       _pj_stun_client_tsx_send_msg 00475030 f   pjnath-i386-win32-vc8-debug:stun_transaction.obj
 0002:000215d0       _pj_stun_client_tsx_retransmit 004755d0 f   pjnath-i386-win32-vc8-debug:stun_transaction.obj
 0002:00021680       _pj_stun_client_tsx_on_rx_msg 00475680 f   pjnath-i386-win32-vc8-debug:stun_transaction.obj
 0002:00021820       _pj_stun_msg_dump          00475820 f   pjnath-i386-win32-vc8-debug:stun_msg_dump.obj
 0002:00022270       _pj_getopt_long            00476270 f   pjlib-util-i386-win32-vc8-debug:getopt.obj
 0002:000222b0       _pj_getopt                 004762b0 f   pjlib-util-i386-win32-vc8-debug:getopt.obj
 0002:000231f0       _pj_dns_settings_default   004771f0 f   pjlib-util-i386-win32-vc8-debug:resolver.obj
 0002:00023290       _pj_dns_resolver_create    00477290 f   pjlib-util-i386-win32-vc8-debug:resolver.obj
 0002:000236e0       _pj_dns_resolver_destroy   004776e0 f   pjlib-util-i386-win32-vc8-debug:resolver.obj
 0002:00023a40       _pj_dns_resolver_set_ns    00477a40 f   pjlib-util-i386-win32-vc8-debug:resolver.obj
 0002:00023c60       _pj_dns_resolver_set_settings 00477c60 f   pjlib-util-i386-win32-vc8-debug:resolver.obj
 0002:00023d40       _pj_dns_resolver_get_settings 00477d40 f   pjlib-util-i386-win32-vc8-debug:resolver.obj
 0002:00023df0       _pj_dns_resolver_handle_events 00477df0 f   pjlib-util-i386-win32-vc8-debug:resolver.obj
 0002:00023e90       _pj_dns_resolver_start_query 00477e90 f   pjlib-util-i386-win32-vc8-debug:resolver.obj
 0002:00024a10       _pj_dns_resolver_cancel_query 00478a10 f   pjlib-util-i386-win32-vc8-debug:resolver.obj
 0002:00024ae0       _pj_dns_parse_a_response   00478ae0 f   pjlib-util-i386-win32-vc8-debug:resolver.obj
 0002:00026200       _pj_dns_resolver_add_entry 0047a200 f   pjlib-util-i386-win32-vc8-debug:resolver.obj
 0002:00026500       _pj_dns_resolver_get_cached_count 0047a500 f   pjlib-util-i386-win32-vc8-debug:resolver.obj
 0002:000265a0       _pj_dns_resolver_dump      0047a5a0 f   pjlib-util-i386-win32-vc8-debug:resolver.obj
 0002:00026a10       _pjlib_util_strerror       0047aa10 f   pjlib-util-i386-win32-vc8-debug:errno.obj
 0002:00026b80       _pjlib_util_init           0047ab80 f   pjlib-util-i386-win32-vc8-debug:errno.obj
 0002:00026bb0       _pj_dns_srv_resolve        0047abb0 f   pjlib-util-i386-win32-vc8-debug:srv_resolver.obj
 0002:00026e90       _pj_dns_srv_cancel_query   0047ae90 f   pjlib-util-i386-win32-vc8-debug:srv_resolver.obj
 0002:00028740       _pj_md5_init               0047c740 f   pjlib-util-i386-win32-vc8-debug:md5.obj
 0002:000287a0       _pj_md5_update             0047c7a0 f   pjlib-util-i386-win32-vc8-debug:md5.obj
 0002:00028950       _pj_md5_final              0047c950 f   pjlib-util-i386-win32-vc8-debug:md5.obj
 0002:00029cb0       _pj_hmac_sha1_init         0047dcb0 f   pjlib-util-i386-win32-vc8-debug:hmac_sha1.obj
 0002:00029e80       _pj_hmac_sha1_update       0047de80 f   pjlib-util-i386-win32-vc8-debug:hmac_sha1.obj
 0002:00029eb0       _pj_hmac_sha1_final        0047deb0 f   pjlib-util-i386-win32-vc8-debug:hmac_sha1.obj
 0002:00029f30       _pj_hmac_sha1              0047df30 f   pjlib-util-i386-win32-vc8-debug:hmac_sha1.obj
 0002:00029fc0       _pj_crc32_init             0047dfc0 f   pjlib-util-i386-win32-vc8-debug:crc32.obj
 0002:00029fe0       _pj_crc32_update           0047dfe0 f   pjlib-util-i386-win32-vc8-debug:crc32.obj
 0002:0002a170       _pj_crc32_final            0047e170 f   pjlib-util-i386-win32-vc8-debug:crc32.obj
 0002:0002a190       _pj_crc32_calc             0047e190 f   pjlib-util-i386-win32-vc8-debug:crc32.obj
 0002:0002a1e0       _pj_dns_get_type_name      0047e1e0 f   pjlib-util-i386-win32-vc8-debug:dns.obj
 0002:0002a2e0       _pj_dns_make_query         0047e2e0 f   pjlib-util-i386-win32-vc8-debug:dns.obj
 0002:0002a600       _pj_dns_parse_packet       0047e600 f   pjlib-util-i386-win32-vc8-debug:dns.obj
 0002:0002b530       _pj_dns_packet_dup         0047f530 f   pjlib-util-i386-win32-vc8-debug:dns.obj
 0002:0002bc80       _pj_dns_init_srv_rr        0047fc80 f   pjlib-util-i386-win32-vc8-debug:dns.obj
 0002:0002bd20       _pj_dns_init_cname_rr      0047fd20 f   pjlib-util-i386-win32-vc8-debug:dns.obj
 0002:0002bda0       _pj_dns_init_a_rr          0047fda0 f   pjlib-util-i386-win32-vc8-debug:dns.obj
 0002:0002be10       _pj_sha1_init              0047fe10 f   pjlib-util-i386-win32-vc8-debug:sha1.obj
 0002:0002be80       _pj_sha1_update            0047fe80 f   pjlib-util-i386-win32-vc8-debug:sha1.obj
 0002:0002f0a0       _pj_sha1_final             004830a0 f   pjlib-util-i386-win32-vc8-debug:sha1.obj
 0002:0002f280       _pj_str                    00483280 f   pjlib-i386-win32-vc8-debug:string.obj
 0002:0002f2d0       _pj_strdup                 004832d0 f   pjlib-i386-win32-vc8-debug:string.obj
 0002:0002f390       _pj_strdup_with_null       00483390 f   pjlib-i386-win32-vc8-debug:string.obj
 0002:0002f420       _pj_strdup2                00483420 f   pjlib-i386-win32-vc8-debug:string.obj
 0002:0002f4c0       _pj_strdup2_with_null      004834c0 f   pjlib-i386-win32-vc8-debug:string.obj
 0002:0002f570       _pj_strdup3                00483570 f   pjlib-i386-win32-vc8-debug:string.obj
 0002:0002f5b0       _pj_strassign              004835b0 f   pjlib-i386-win32-vc8-debug:string.obj
 0002:0002f5f0       _pj_strcpy                 004835f0 f   pjlib-i386-win32-vc8-debug:string.obj
 0002:0002f650       _pj_strcpy2                00483650 f   pjlib-i386-win32-vc8-debug:string.obj
 0002:0002f6d0       _pj_strncpy                004836d0 f   pjlib-i386-win32-vc8-debug:string.obj
 0002:0002f730       _pj_strncpy_with_null      00483730 f   pjlib-i386-win32-vc8-debug:string.obj
 0002:0002f7b0       _pj_strcmp                 004837b0 f   pjlib-i386-win32-vc8-debug:string.obj
 0002:0002f8d0       _pj_strncmp                004838d0 f   pjlib-i386-win32-vc8-debug:string.obj
 0002:0002f950       _pj_strncmp2               00483950 f   pjlib-i386-win32-vc8-debug:string.obj
 0002:0002f9b0       _pj_strcmp2                004839b0 f   pjlib-i386-win32-vc8-debug:string.obj
 0002:0002fa10       _pj_stricmp                00483a10 f   pjlib-i386-win32-vc8-debug:string.obj
 0002:0002fb00       _pj_stricmp2               00483b00 f   pjlib-i386-win32-vc8-debug:string.obj
 0002:0002fb60       _pj_strnicmp               00483b60 f   pjlib-i386-win32-vc8-debug:string.obj
 0002:0002fbe0       _pj_strnicmp2              00483be0 f   pjlib-i386-win32-vc8-debug:string.obj
 0002:0002fc40       _pj_strcat                 00483c40 f   pjlib-i386-win32-vc8-debug:string.obj
 0002:0002fca0       _pj_strcat2                00483ca0 f   pjlib-i386-win32-vc8-debug:string.obj
 0002:0002fd20       _pj_strtrim                00483d20 f   pjlib-i386-win32-vc8-debug:string.obj
 0002:0002fd60       _pj_strstr                 00483d60 f   pjlib-i386-win32-vc8-debug:string.obj
 0002:0002fe00       _pj_stristr                00483e00 f   pjlib-i386-win32-vc8-debug:string.obj
 0002:0002fea0       _pj_strltrim               00483ea0 f   pjlib-i386-win32-vc8-debug:string.obj
 0002:0002ff60       _pj_strrtrim               00483f60 f   pjlib-i386-win32-vc8-debug:string.obj
 0002:0002fff0       _pj_create_random_string   00483ff0 f   pjlib-i386-win32-vc8-debug:string.obj
 0002:00030190       _pj_strtoul                00484190 f   pjlib-i386-win32-vc8-debug:string.obj
 0002:00030270       _pj_strtoul2               00484270 f   pjlib-i386-win32-vc8-debug:string.obj
 0002:00030490       _pj_utoa                   00484490 f   pjlib-i386-win32-vc8-debug:string.obj
 0002:000304c0       _pj_utoa_pad               004844c0 f   pjlib-i386-win32-vc8-debug:string.obj
 0002:000305d0       _pj_init                   004845d0 f   pjlib-i386-win32-vc8-debug:os_core_win32.obj
 0002:000307d0       _pj_atexit                 004847d0 f   pjlib-i386-win32-vc8-debug:os_core_win32.obj
 0002:00030820       _pj_shutdown               00484820 f   pjlib-i386-win32-vc8-debug:os_core_win32.obj
 0002:00030930       _pj_getpid                 00484930 f   pjlib-i386-win32-vc8-debug:os_core_win32.obj
 0002:00030970       _pj_thread_is_registered   00484970 f   pjlib-i386-win32-vc8-debug:os_core_win32.obj
 0002:000309a0       _pj_thread_get_prio        004849a0 f   pjlib-i386-win32-vc8-debug:os_core_win32.obj
 0002:000309d0       _pj_thread_set_prio        004849d0 f   pjlib-i386-win32-vc8-debug:os_core_win32.obj
 0002:00030ae0       _pj_thread_get_prio_min    00484ae0 f   pjlib-i386-win32-vc8-debug:os_core_win32.obj
 0002:00030b00       _pj_thread_get_prio_max    00484b00 f   pjlib-i386-win32-vc8-debug:os_core_win32.obj
 0002:00030b20       _pj_thread_get_os_handle   00484b20 f   pjlib-i386-win32-vc8-debug:os_core_win32.obj
 0002:00030b80       _pj_thread_register        00484b80 f   pjlib-i386-win32-vc8-debug:os_core_win32.obj
 0002:00030d40       _pj_thread_init            00484d40 f   pjlib-i386-win32-vc8-debug:os_core_win32.obj
 0002:00030da0       _pj_thread_create          00484da0 f   pjlib-i386-win32-vc8-debug:os_core_win32.obj
 0002:000310c0       _pj_thread_get_name        004850c0 f   pjlib-i386-win32-vc8-debug:os_core_win32.obj
 0002:00031140       _pj_thread_resume          00485140 f   pjlib-i386-win32-vc8-debug:os_core_win32.obj
 0002:00031220       _pj_thread_this            00485220 f   pjlib-i386-win32-vc8-debug:os_core_win32.obj
 0002:00031290       _pj_thread_join            00485290 f   pjlib-i386-win32-vc8-debug:os_core_win32.obj
 0002:000313a0       _pj_thread_destroy         004853a0 f   pjlib-i386-win32-vc8-debug:os_core_win32.obj
 0002:00031480       _pj_thread_sleep           00485480 f   pjlib-i386-win32-vc8-debug:os_core_win32.obj
 0002:000314c0       _pj_thread_check_stack     004854c0 f   pjlib-i386-win32-vc8-debug:os_core_win32.obj
 0002:000315c0       _pj_thread_get_stack_max_usage 004855c0 f   pjlib-i386-win32-vc8-debug:os_core_win32.obj
 0002:000315e0       _pj_thread_get_stack_info  004855e0 f   pjlib-i386-win32-vc8-debug:os_core_win32.obj
 0002:00031640       _pj_atomic_create          00485640 f   pjlib-i386-win32-vc8-debug:os_core_win32.obj
 0002:00031690       _pj_atomic_destroy         00485690 f   pjlib-i386-win32-vc8-debug:os_core_win32.obj
 0002:000316f0       _pj_atomic_set             004856f0 f   pjlib-i386-win32-vc8-debug:os_core_win32.obj
 0002:00031740       _pj_atomic_get             00485740 f   pjlib-i386-win32-vc8-debug:os_core_win32.obj
 0002:000317b0       _pj_atomic_inc_and_get     004857b0 f   pjlib-i386-win32-vc8-debug:os_core_win32.obj
 0002:000317f0       _pj_atomic_inc             004857f0 f   pjlib-i386-win32-vc8-debug:os_core_win32.obj
 0002:00031820       _pj_atomic_dec_and_get     00485820 f   pjlib-i386-win32-vc8-debug:os_core_win32.obj
 0002:00031860       _pj_atomic_dec             00485860 f   pjlib-i386-win32-vc8-debug:os_core_win32.obj
 0002:00031890       _pj_atomic_add             00485890 f   pjlib-i386-win32-vc8-debug:os_core_win32.obj
 0002:000318c0       _pj_atomic_add_and_get     004858c0 f   pjlib-i386-win32-vc8-debug:os_core_win32.obj
 0002:000318f0       _pj_thread_local_alloc     004858f0 f   pjlib-i386-win32-vc8-debug:os_core_win32.obj
 0002:000319b0       _pj_thread_local_free      004859b0 f   pjlib-i386-win32-vc8-debug:os_core_win32.obj
 0002:000319f0       _pj_thread_local_set       004859f0 f   pjlib-i386-win32-vc8-debug:os_core_win32.obj
 0002:00031a80       _pj_thread_local_get       00485a80 f   pjlib-i386-win32-vc8-debug:os_core_win32.obj
 0002:00031b70       _pj_mutex_create           00485b70 f   pjlib-i386-win32-vc8-debug:os_core_win32.obj
 0002:00031c30       _pj_mutex_create_simple    00485c30 f   pjlib-i386-win32-vc8-debug:os_core_win32.obj
 0002:00031c60       _pj_mutex_create_recursive 00485c60 f   pjlib-i386-win32-vc8-debug:os_core_win32.obj
 0002:00031c90       _pj_mutex_lock             00485c90 f   pjlib-i386-win32-vc8-debug:os_core_win32.obj
 0002:00031d60       _pj_mutex_unlock           00485d60 f   pjlib-i386-win32-vc8-debug:os_core_win32.obj
 0002:00031e50       _pj_mutex_trylock          00485e50 f   pjlib-i386-win32-vc8-debug:os_core_win32.obj
 0002:00031f30       _pj_mutex_destroy          00485f30 f   pjlib-i386-win32-vc8-debug:os_core_win32.obj
 0002:00031fc0       _pj_mutex_is_locked        00485fc0 f   pjlib-i386-win32-vc8-debug:os_core_win32.obj
 0002:00031ff0       _pj_rwmutex_create         00485ff0 f   pjlib-i386-win32-vc8-debug:os_core_win32.obj
 0002:00032100       _pj_rwmutex_lock_read      00486100 f   pjlib-i386-win32-vc8-debug:os_core_win32.obj
 0002:00032230       _pj_rwmutex_lock_write     00486230 f   pjlib-i386-win32-vc8-debug:os_core_win32.obj
 0002:000322a0       _pj_rwmutex_unlock_read    004862a0 f   pjlib-i386-win32-vc8-debug:os_core_win32.obj
 0002:000323c0       _pj_rwmutex_unlock_write   004863c0 f   pjlib-i386-win32-vc8-debug:os_core_win32.obj
 0002:00032460       _pj_rwmutex_destroy        00486460 f   pjlib-i386-win32-vc8-debug:os_core_win32.obj
 0002:000324e0       _pj_enter_critical_section 004864e0 f   pjlib-i386-win32-vc8-debug:os_core_win32.obj
 0002:00032510       _pj_leave_critical_section 00486510 f   pjlib-i386-win32-vc8-debug:os_core_win32.obj
 0002:00032540       _pj_sem_create             00486540 f   pjlib-i386-win32-vc8-debug:os_core_win32.obj
 0002:000326d0       _pj_sem_wait               004866d0 f   pjlib-i386-win32-vc8-debug:os_core_win32.obj
 0002:00032880       _pj_sem_trywait            00486880 f   pjlib-i386-win32-vc8-debug:os_core_win32.obj
 0002:00032900       _pj_sem_post               00486900 f   pjlib-i386-win32-vc8-debug:os_core_win32.obj
 0002:000329f0       _pj_sem_destroy            004869f0 f   pjlib-i386-win32-vc8-debug:os_core_win32.obj
 0002:00032ae0       _pj_event_create           00486ae0 f   pjlib-i386-win32-vc8-debug:os_core_win32.obj
 0002:00032ca0       _pj_event_wait             00486ca0 f   pjlib-i386-win32-vc8-debug:os_core_win32.obj
 0002:00032e40       _pj_event_trywait          00486e40 f   pjlib-i386-win32-vc8-debug:os_core_win32.obj
 0002:00032eb0       _pj_event_set              00486eb0 f   pjlib-i386-win32-vc8-debug:os_core_win32.obj
 0002:00032fa0       _pj_event_pulse            00486fa0 f   pjlib-i386-win32-vc8-debug:os_core_win32.obj
 0002:00033090       _pj_event_reset            00487090 f   pjlib-i386-win32-vc8-debug:os_core_win32.obj
 0002:00033180       _pj_event_destroy          00487180 f   pjlib-i386-win32-vc8-debug:os_core_win32.obj
 0002:00033270       _pj_term_set_color         00487270 f   pjlib-i386-win32-vc8-debug:os_core_win32.obj
 0002:000333c0       _pj_term_get_color         004873c0 f   pjlib-i386-win32-vc8-debug:os_core_win32.obj
 0002:000334a0       _pj_caching_pool_init      004874a0 f   pjlib-i386-win32-vc8-debug:pool_caching.obj
 0002:00033680       _pj_caching_pool_destroy   00487680 f   pjlib-i386-win32-vc8-debug:pool_caching.obj
 0002:00033f00       _pj_timer_heap_mem_size    00487f00 f   pjlib-i386-win32-vc8-debug:timer.obj
 0002:00033f20       _pj_timer_heap_create      00487f20 f   pjlib-i386-win32-vc8-debug:timer.obj
 0002:000340d0       _pj_timer_heap_destroy     004880d0 f   pjlib-i386-win32-vc8-debug:timer.obj
 0002:00034120       _pj_timer_heap_set_lock    00488120 f   pjlib-i386-win32-vc8-debug:timer.obj
 0002:00034180       _pj_timer_heap_set_max_timed_out_per_poll 00488180 f   pjlib-i386-win32-vc8-debug:timer.obj
 0002:000341b0       _pj_timer_entry_init       004881b0 f   pjlib-i386-win32-vc8-debug:timer.obj
 0002:00034230       _pj_timer_heap_schedule    00488230 f   pjlib-i386-win32-vc8-debug:timer.obj
 0002:00034860       _pj_timer_heap_cancel      00488860 f   pjlib-i386-win32-vc8-debug:timer.obj
 0002:00034e50       _pj_timer_heap_poll        00488e50 f   pjlib-i386-win32-vc8-debug:timer.obj
 0002:00035090       _pj_timer_heap_count       00489090 f   pjlib-i386-win32-vc8-debug:timer.obj
 0002:000350f0       _pj_timer_heap_earliest_time 004890f0 f   pjlib-i386-win32-vc8-debug:timer.obj
 0002:00035190       _pj_ioqueue_set_lock       00489190 f   pjlib-i386-win32-vc8-debug:ioqueue_select.obj
 0002:00035230       _pj_ioqueue_get_user_data  00489230 f   pjlib-i386-win32-vc8-debug:ioqueue_select.obj
 0002:00035290       _pj_ioqueue_set_user_data  00489290 f   pjlib-i386-win32-vc8-debug:ioqueue_select.obj
 0002:00035310       _ioqueue_dispatch_write_event 00489310 f   pjlib-i386-win32-vc8-debug:ioqueue_select.obj
 0002:00035800       _ioqueue_dispatch_read_event 00489800 f   pjlib-i386-win32-vc8-debug:ioqueue_select.obj
 0002:00035c20       _ioqueue_dispatch_exception_event 00489c20 f   pjlib-i386-win32-vc8-debug:ioqueue_select.obj
 0002:00035de0       _pj_ioqueue_recv           00489de0 f   pjlib-i386-win32-vc8-debug:ioqueue_select.obj
 0002:00035ff0       _pj_ioqueue_recvfrom       00489ff0 f   pjlib-i386-win32-vc8-debug:ioqueue_select.obj
 0002:00036220       _pj_ioqueue_send           0048a220 f   pjlib-i386-win32-vc8-debug:ioqueue_select.obj
 0002:00036480       _pj_ioqueue_sendto         0048a480 f   pjlib-i386-win32-vc8-debug:ioqueue_select.obj
 0002:00036790       _pj_ioqueue_accept         0048a790 f   pjlib-i386-win32-vc8-debug:ioqueue_select.obj
 0002:000369d0       _pj_ioqueue_connect        0048a9d0 f   pjlib-i386-win32-vc8-debug:ioqueue_select.obj
 0002:00036b60       _pj_ioqueue_op_key_init    0048ab60 f   pjlib-i386-win32-vc8-debug:ioqueue_select.obj
 0002:00036bc0       _pj_ioqueue_is_pending     0048abc0 f   pjlib-i386-win32-vc8-debug:ioqueue_select.obj
 0002:00036bf0       _pj_ioqueue_post_completion 0048abf0 f   pjlib-i386-win32-vc8-debug:ioqueue_select.obj
 0002:00036dd0       _pj_ioqueue_set_default_concurrency 0048add0 f   pjlib-i386-win32-vc8-debug:ioqueue_select.obj
 0002:00036e30       _pj_ioqueue_set_concurrency 0048ae30 f   pjlib-i386-win32-vc8-debug:ioqueue_select.obj
 0002:00036ef0       _pj_ioqueue_lock_key       0048aef0 f   pjlib-i386-win32-vc8-debug:ioqueue_select.obj
 0002:00036f20       _pj_ioqueue_unlock_key     0048af20 f   pjlib-i386-win32-vc8-debug:ioqueue_select.obj
 0002:00036f50       _pj_ioqueue_name           0048af50 f   pjlib-i386-win32-vc8-debug:ioqueue_select.obj
 0002:00036f70       _pj_ioqueue_create         0048af70 f   pjlib-i386-win32-vc8-debug:ioqueue_select.obj
 0002:00037350       _pj_ioqueue_destroy        0048b350 f   pjlib-i386-win32-vc8-debug:ioqueue_select.obj
 0002:00037500       _pj_ioqueue_register_sock  0048b500 f   pjlib-i386-win32-vc8-debug:ioqueue_select.obj
 0002:000378c0       _pj_ioqueue_unregister     0048b8c0 f   pjlib-i386-win32-vc8-debug:ioqueue_select.obj
 0002:00037eb0       _pj_ioqueue_poll           0048beb0 f   pjlib-i386-win32-vc8-debug:ioqueue_select.obj
 0002:000385b0       _pj_log_init               0048c5b0 f   pjlib-i386-win32-vc8-debug:log.obj
 0002:00038640       _pj_log_set_decor          0048c640 f   pjlib-i386-win32-vc8-debug:log.obj
 0002:00038660       _pj_log_get_decor          0048c660 f   pjlib-i386-win32-vc8-debug:log.obj
 0002:00038680       _pj_log_set_color          0048c680 f   pjlib-i386-win32-vc8-debug:log.obj
 0002:000387b0       _pj_log_get_color          0048c7b0 f   pjlib-i386-win32-vc8-debug:log.obj
 0002:00038850       _pj_log_set_level          0048c850 f   pjlib-i386-win32-vc8-debug:log.obj
 0002:00038870       _pj_log_get_level          0048c870 f   pjlib-i386-win32-vc8-debug:log.obj
 0002:00038890       _pj_log_set_log_func       0048c890 f   pjlib-i386-win32-vc8-debug:log.obj
 0002:000388b0       _pj_log_get_log_func       0048c8b0 f   pjlib-i386-win32-vc8-debug:log.obj
 0002:000388d0       _pj_log                    0048c8d0 f   pjlib-i386-win32-vc8-debug:log.obj
 0002:000390d0       _pj_log_1                  0048d0d0 f   pjlib-i386-win32-vc8-debug:log.obj
 0002:00039110       _pj_log_2                  0048d110 f   pjlib-i386-win32-vc8-debug:log.obj
 0002:00039150       _pj_log_3                  0048d150 f   pjlib-i386-win32-vc8-debug:log.obj
 0002:00039190       _pj_log_4                  0048d190 f   pjlib-i386-win32-vc8-debug:log.obj
 0002:000391d0       _pj_log_5                  0048d1d0 f   pjlib-i386-win32-vc8-debug:log.obj
 0002:00039210       _pj_register_strerror      0048d210 f   pjlib-i386-win32-vc8-debug:errno.obj
 0002:00039410       _pj_errno_clear_handlers   0048d410 f   pjlib-i386-win32-vc8-debug:errno.obj
 0002:00039480       _pj_strerror               0048d480 f   pjlib-i386-win32-vc8-debug:errno.obj
 0002:00039770       _pj_perror                 0048d770 f   pjlib-i386-win32-vc8-debug:errno.obj
 0002:000398e0       _pj_perror_1               0048d8e0 f   pjlib-i386-win32-vc8-debug:errno.obj
 0002:00039930       _pj_perror_2               0048d930 f   pjlib-i386-win32-vc8-debug:errno.obj
 0002:00039980       _pj_perror_3               0048d980 f   pjlib-i386-win32-vc8-debug:errno.obj
 0002:000399d0       _pj_perror_4               0048d9d0 f   pjlib-i386-win32-vc8-debug:errno.obj
 0002:00039a20       _pj_perror_5               0048da20 f   pjlib-i386-win32-vc8-debug:errno.obj
 0002:00039a70       _pj_ntohs                  0048da70 f   pjlib-i386-win32-vc8-debug:sock_bsd.obj
 0002:00039aa0       _pj_htons                  0048daa0 f   pjlib-i386-win32-vc8-debug:sock_bsd.obj
 0002:00039ad0       _pj_ntohl                  0048dad0 f   pjlib-i386-win32-vc8-debug:sock_bsd.obj
 0002:00039af0       _pj_htonl                  0048daf0 f   pjlib-i386-win32-vc8-debug:sock_bsd.obj
 0002:00039b10       _pj_inet_ntoa              0048db10 f   pjlib-i386-win32-vc8-debug:sock_bsd.obj
 0002:00039b30       _pj_inet_aton              0048db30 f   pjlib-i386-win32-vc8-debug:sock_bsd.obj
 0002:00039c60       _pj_inet_pton              0048dc60 f   pjlib-i386-win32-vc8-debug:sock_bsd.obj
 0002:00039ec0       _pj_inet_ntop              0048dec0 f   pjlib-i386-win32-vc8-debug:sock_bsd.obj
 0002:0003a130       _pj_gethostname            0048e130 f   pjlib-i386-win32-vc8-debug:sock_bsd.obj
 0002:0003a1d0       _pj_sock_socket            0048e1d0 f   pjlib-i386-win32-vc8-debug:sock_bsd.obj
 0002:0003a2f0       _pj_sock_bind              0048e2f0 f   pjlib-i386-win32-vc8-debug:sock_bsd.obj
 0002:0003a3e0       _pj_sock_bind_in           0048e3e0 f   pjlib-i386-win32-vc8-debug:sock_bsd.obj
 0002:0003a490       _pj_sock_close             0048e490 f   pjlib-i386-win32-vc8-debug:sock_bsd.obj
 0002:0003a530       _pj_sock_getpeername       0048e530 f   pjlib-i386-win32-vc8-debug:sock_bsd.obj
 0002:0003a5d0       _pj_sock_getsockname       0048e5d0 f   pjlib-i386-win32-vc8-debug:sock_bsd.obj
 0002:0003a670       _pj_sock_send              0048e670 f   pjlib-i386-win32-vc8-debug:sock_bsd.obj
 0002:0003a760       _pj_sock_sendto            0048e760 f   pjlib-i386-win32-vc8-debug:sock_bsd.obj
 0002:0003a860       _pj_sock_recv              0048e860 f   pjlib-i386-win32-vc8-debug:sock_bsd.obj
 0002:0003a960       _pj_sock_recvfrom          0048e960 f   pjlib-i386-win32-vc8-debug:sock_bsd.obj
 0002:0003aad0       _pj_sock_getsockopt        0048ead0 f   pjlib-i386-win32-vc8-debug:sock_bsd.obj
 0002:0003abd0       _pj_sock_setsockopt        0048ebd0 f   pjlib-i386-win32-vc8-debug:sock_bsd.obj
 0002:0003ac80       _pj_sock_connect           0048ec80 f   pjlib-i386-win32-vc8-debug:sock_bsd.obj
 0002:0003ad20       _pj_sock_shutdown          0048ed20 f   pjlib-i386-win32-vc8-debug:sock_bsd.obj
 0002:0003adc0       _pj_sock_listen            0048edc0 f   pjlib-i386-win32-vc8-debug:sock_bsd.obj
 0002:0003ae60       _pj_sock_accept            0048ee60 f   pjlib-i386-win32-vc8-debug:sock_bsd.obj
 0002:0003af50       _pj_pool_get_capacity      0048ef50 f   pjlib-i386-win32-vc8-debug:pool.obj
 0002:0003af70       _pj_pool_get_used_size     0048ef70 f   pjlib-i386-win32-vc8-debug:pool.obj
 0002:0003afe0       _pj_pool_alloc_from_block  0048efe0 f   pjlib-i386-win32-vc8-debug:pool.obj
 0002:0003b050       _pj_pool_alloc             0048f050 f   pjlib-i386-win32-vc8-debug:pool.obj
 0002:0003b0b0       _pj_pool_calloc            0048f0b0 f   pjlib-i386-win32-vc8-debug:pool.obj
 0002:0003b140       _pj_pool_getobjname        0048f140 f   pjlib-i386-win32-vc8-debug:pool.obj
 0002:0003b160       _pj_pool_create            0048f160 f   pjlib-i386-win32-vc8-debug:pool.obj
 0002:0003b1a0       _pj_pool_release           0048f1a0 f   pjlib-i386-win32-vc8-debug:pool.obj
 0002:0003b1f0       _pj_NO_MEMORY_EXCEPTION    0048f1f0 f   pjlib-i386-win32-vc8-debug:pool.obj
 0002:0003b210       _pj_pool_allocate_find     0048f210 f   pjlib-i386-win32-vc8-debug:pool.obj
 0002:0003b4c0       _pj_pool_init_int          0048f4c0 f   pjlib-i386-win32-vc8-debug:pool.obj
 0002:0003b580       _pj_pool_create_int        0048f580 f   pjlib-i386-win32-vc8-debug:pool.obj
 0002:0003b730       _pj_pool_reset             0048f730 f   pjlib-i386-win32-vc8-debug:pool.obj
 0002:0003b850       _pj_pool_destroy_int       0048f850 f   pjlib-i386-win32-vc8-debug:pool.obj
 0002:0003b8d0       _pj_get_os_error           0048f8d0 f   pjlib-i386-win32-vc8-debug:os_error_win32.obj
 0002:0003b920       _pj_set_os_error           0048f920 f   pjlib-i386-win32-vc8-debug:os_error_win32.obj
 0002:0003b970       _pj_get_netos_error        0048f970 f   pjlib-i386-win32-vc8-debug:os_error_win32.obj
 0002:0003b9c0       _pj_set_netos_error        0048f9c0 f   pjlib-i386-win32-vc8-debug:os_error_win32.obj
 0002:0003ba10       _platform_strerror         0048fa10 f   pjlib-i386-win32-vc8-debug:os_error_win32.obj
 0002:0003bc40       _pj_log_write              0048fc40 f   pjlib-i386-win32-vc8-debug:log_writer_stdout.obj
 0002:0003bd20       _pj_inet_addr              0048fd20 f   pjlib-i386-win32-vc8-debug:sock_common.obj
 0002:0003bd50       _pj_inet_addr2             0048fd50 f   pjlib-i386-win32-vc8-debug:sock_common.obj
 0002:0003bd90       _pj_inet_ntop2             0048fd90 f   pjlib-i386-win32-vc8-debug:sock_common.obj
 0002:0003bde0       _pj_sockaddr_print         0048fde0 f   pjlib-i386-win32-vc8-debug:sock_common.obj
 0002:0003bf10       _pj_sockaddr_in_set_str_addr 0048ff10 f   pjlib-i386-win32-vc8-debug:sock_common.obj
 0002:0003c090       _pj_sockaddr_set_str_addr  00490090 f   pjlib-i386-win32-vc8-debug:sock_common.obj
 0002:0003c230       _pj_sockaddr_in_init       00490230 f   pjlib-i386-win32-vc8-debug:sock_common.obj
 0002:0003c2e0       _pj_sockaddr_init          004902e0 f   pjlib-i386-win32-vc8-debug:sock_common.obj
 0002:0003c3e0       _pj_sockaddr_cmp           004903e0 f   pjlib-i386-win32-vc8-debug:sock_common.obj
 0002:0003c520       _pj_gethostaddr            00490520 f   pjlib-i386-win32-vc8-debug:sock_common.obj
 0002:0003c570       _pj_sockaddr_in_get_port   00490570 f   pjlib-i386-win32-vc8-debug:sock_common.obj
 0002:0003c5a0       _pj_sockaddr_get_addr      004905a0 f   pjlib-i386-win32-vc8-debug:sock_common.obj
 0002:0003c670       _pj_sockaddr_has_addr      00490670 f   pjlib-i386-win32-vc8-debug:sock_common.obj
 0002:0003c740       _pj_sockaddr_get_port      00490740 f   pjlib-i386-win32-vc8-debug:sock_common.obj
 0002:0003c820       _pj_sockaddr_get_addr_len  00490820 f   pjlib-i386-win32-vc8-debug:sock_common.obj
 0002:0003c8e0       _pj_sockaddr_get_len       004908e0 f   pjlib-i386-win32-vc8-debug:sock_common.obj
 0002:0003c9a0       _pj_sockaddr_copy_addr     004909a0 f   pjlib-i386-win32-vc8-debug:sock_common.obj
 0002:0003ca00       _pj_sockaddr_cp            00490a00 f   pjlib-i386-win32-vc8-debug:sock_common.obj
 0002:0003ca40       _pj_sockaddr_in_set_port   00490a40 f   pjlib-i386-win32-vc8-debug:sock_common.obj
 0002:0003ca70       _pj_sockaddr_set_port      00490a70 f   pjlib-i386-win32-vc8-debug:sock_common.obj
 0002:0003cb50       _pj_sockaddr_in_get_addr   00490b50 f   pjlib-i386-win32-vc8-debug:sock_common.obj
 0002:0003cb80       _pj_sockaddr_in_set_addr   00490b80 f   pjlib-i386-win32-vc8-debug:sock_common.obj
 0002:0003cbb0       _pj_sockaddr_parse2        00490bb0 f   pjlib-i386-win32-vc8-debug:sock_common.obj
 0002:0003d0c0       _pj_sockaddr_parse         004910c0 f   pjlib-i386-win32-vc8-debug:sock_common.obj
 0002:0003d260       _pj_gethostip              00491260 f   pjlib-i386-win32-vc8-debug:sock_common.obj
 0002:0003df70       _pj_getdefaultipinterface  00491f70 f   pjlib-i386-win32-vc8-debug:sock_common.obj
 0002:0003e170       _pj_get_version            00492170 f   pjlib-i386-win32-vc8-debug:config.obj
 0002:0003e190       _pj_dump_config            00492190 f   pjlib-i386-win32-vc8-debug:config.obj
 0002:0003e770       _pj_lock_create_simple_mutex 00492770 f   pjlib-i386-win32-vc8-debug:lock.obj
 0002:0003e8c0       _pj_lock_create_recursive_mutex 004928c0 f   pjlib-i386-win32-vc8-debug:lock.obj
 0002:0003e910       _pj_lock_create_null_mutex 00492910 f   pjlib-i386-win32-vc8-debug:lock.obj
 0002:0003e970       _pj_lock_create_semaphore  00492970 f   pjlib-i386-win32-vc8-debug:lock.obj
 0002:0003ea60       _pj_lock_acquire           00492a60 f   pjlib-i386-win32-vc8-debug:lock.obj
 0002:0003ead0       _pj_lock_tryacquire        00492ad0 f   pjlib-i386-win32-vc8-debug:lock.obj
 0002:0003eb40       _pj_lock_release           00492b40 f   pjlib-i386-win32-vc8-debug:lock.obj
 0002:0003ebb0       _pj_lock_destroy           00492bb0 f   pjlib-i386-win32-vc8-debug:lock.obj
 0002:0003ec20       _pj_gettimeofday           00492c20 f   pjlib-i386-win32-vc8-debug:os_time_win32.obj
 0002:0003ed80       _pj_time_decode            00492d80 f   pjlib-i386-win32-vc8-debug:os_time_win32.obj
 0002:0003ee70       _pj_time_encode            00492e70 f   pjlib-i386-win32-vc8-debug:os_time_win32.obj
 0002:0003efa0       _pj_time_val_normalize     00492fa0 f   pjlib-i386-win32-vc8-debug:types.obj
 0002:0003f0e0       _pj_array_insert           004930e0 f   pjlib-i386-win32-vc8-debug:array.obj
 0002:0003f190       _pj_array_erase            00493190 f   pjlib-i386-win32-vc8-debug:array.obj
 0002:0003f220       _pj_array_find             00493220 f   pjlib-i386-win32-vc8-debug:array.obj
 0002:0003f2a0       _pj_hash_calc              004932a0 f   pjlib-i386-win32-vc8-debug:hash.obj
 0002:0003f360       _pj_hash_calc_tolower      00493360 f   pjlib-i386-win32-vc8-debug:hash.obj
 0002:0003f410       _pj_hash_create            00493410 f   pjlib-i386-win32-vc8-debug:hash.obj
 0002:0003f4c0       _pj_hash_get               004934c0 f   pjlib-i386-win32-vc8-debug:hash.obj
 0002:0003f830       _pj_hash_set               00493830 f   pjlib-i386-win32-vc8-debug:hash.obj
 0002:0003f8d0       _pj_hash_set_np            004938d0 f   pjlib-i386-win32-vc8-debug:hash.obj
 0002:0003f970       _pj_hash_count             00493970 f   pjlib-i386-win32-vc8-debug:hash.obj
 0002:0003f990       _pj_hash_first             00493990 f   pjlib-i386-win32-vc8-debug:hash.obj
 0002:0003fa20       _pj_hash_next              00493a20 f   pjlib-i386-win32-vc8-debug:hash.obj
 0002:0003fad0       _pj_hash_this              00493ad0 f   pjlib-i386-win32-vc8-debug:hash.obj
 0002:0003fb10       _pj_srand                  00493b10 f   pjlib-i386-win32-vc8-debug:rand.obj
 0002:0003fb50       _pj_rand                   00493b50 f   pjlib-i386-win32-vc8-debug:rand.obj
 0002:0003fbd0       _pj_list_insert_after      00493bd0 f   pjlib-i386-win32-vc8-debug:list.obj
 0002:0003fc20       _pj_list_insert_before     00493c20 f   pjlib-i386-win32-vc8-debug:list.obj
 0002:0003fc50       _pj_list_insert_nodes_after 00493c50 f   pjlib-i386-win32-vc8-debug:list.obj
 0002:0003fce0       _pj_list_insert_nodes_before 00493ce0 f   pjlib-i386-win32-vc8-debug:list.obj
 0002:0003fd10       _pj_list_merge_last        00493d10 f   pjlib-i386-win32-vc8-debug:list.obj
 0002:0003fde0       _pj_list_merge_first       00493de0 f   pjlib-i386-win32-vc8-debug:list.obj
 0002:0003fe50       _pj_list_erase             00493e50 f   pjlib-i386-win32-vc8-debug:list.obj
 0002:0003fe90       _pj_list_find_node         00493e90 f   pjlib-i386-win32-vc8-debug:list.obj
 0002:0003fef0       _pj_list_search            00493ef0 f   pjlib-i386-win32-vc8-debug:list.obj
 0002:0003ff50       _pj_list_size              00493f50 f   pjlib-i386-win32-vc8-debug:list.obj
 0002:0003ffa0       _pj_activesock_cfg_default 00493fa0 f   pjlib-i386-win32-vc8-debug:activesock.obj
 0002:00040020       _pj_activesock_create      00494020 f   pjlib-i386-win32-vc8-debug:activesock.obj
 0002:000403c0       _pj_activesock_create_udp  004943c0 f   pjlib-i386-win32-vc8-debug:activesock.obj
 0002:00040550       _pj_activesock_close       00494550 f   pjlib-i386-win32-vc8-debug:activesock.obj
 0002:000405d0       _pj_activesock_set_user_data 004945d0 f   pjlib-i386-win32-vc8-debug:activesock.obj
 0002:00040630       _pj_activesock_get_user_data 00494630 f   pjlib-i386-win32-vc8-debug:activesock.obj
 0002:00040690       _pj_activesock_start_read  00494690 f   pjlib-i386-win32-vc8-debug:activesock.obj
 0002:00040790       _pj_activesock_start_read2 00494790 f   pjlib-i386-win32-vc8-debug:activesock.obj
 0002:000409e0       _pj_activesock_start_recvfrom 004949e0 f   pjlib-i386-win32-vc8-debug:activesock.obj
 0002:00040ae0       _pj_activesock_start_recvfrom2 00494ae0 f   pjlib-i386-win32-vc8-debug:activesock.obj
 0002:00041110       _pj_activesock_send        00495110 f   pjlib-i386-win32-vc8-debug:activesock.obj
 0002:00041370       _pj_activesock_sendto      00495370 f   pjlib-i386-win32-vc8-debug:activesock.obj
 0002:00041560       _pj_activesock_start_accept 00495560 f   pjlib-i386-win32-vc8-debug:activesock.obj
 0002:00041840       _pj_activesock_start_connect 00495840 f   pjlib-i386-win32-vc8-debug:activesock.obj
 0002:000418c0       _pj_qos_get_params         004958c0 f   pjlib-i386-win32-vc8-debug:sock_qos_common.obj
 0002:00041980       _pj_qos_get_type           00495980 f   pjlib-i386-win32-vc8-debug:sock_qos_common.obj
 0002:00041b50       _pj_sock_apply_qos         00495b50 f   pjlib-i386-win32-vc8-debug:sock_qos_common.obj
 0002:00041c70       _pj_sock_apply_qos2        00495c70 f   pjlib-i386-win32-vc8-debug:sock_qos_common.obj
 0002:00041ce0       _pj_gethostbyname          00495ce0 f   pjlib-i386-win32-vc8-debug:addr_resolv_sock.obj
 0002:00041e40       _pj_getaddrinfo            00495e40 f   pjlib-i386-win32-vc8-debug:addr_resolv_sock.obj
 0002:000421a0       _pj_enum_ip_interface      004961a0 f   pjlib-i386-win32-vc8-debug:ip_helper_win32.obj
 0002:00042d00       _pj_enum_ip_route          00496d00 f   pjlib-i386-win32-vc8-debug:ip_helper_win32.obj
 0002:00043120       _pj_throw_exception_       00497120 f   pjlib-i386-win32-vc8-debug:except.obj
 0002:000431e0       _pj_push_exception_handler_ 004971e0 f   pjlib-i386-win32-vc8-debug:except.obj
 0002:00043300       _pj_pop_exception_handler_ 00497300 f   pjlib-i386-win32-vc8-debug:except.obj
 0002:00043360       _pj_exception_id_alloc     00497360 f   pjlib-i386-win32-vc8-debug:except.obj
 0002:000433e0       _pj_exception_id_free      004973e0 f   pjlib-i386-win32-vc8-debug:except.obj
 0002:00043470       _pj_exception_id_name      00497470 f   pjlib-i386-win32-vc8-debug:except.obj
 0002:00043520       _pj_pool_create_on_buf     00497520 f   pjlib-i386-win32-vc8-debug:pool_buf.obj
 0002:00043790       _pj_get_timestamp          00497790 f   pjlib-i386-win32-vc8-debug:os_timestamp_win32.obj
 0002:00043820       _pj_get_timestamp_freq     00497820 f   pjlib-i386-win32-vc8-debug:os_timestamp_win32.obj
 0002:000438b0       _pj_GUID_STRING_LENGTH     004978b0 f   pjlib-i386-win32-vc8-debug:guid_win32.obj
 0002:000438d0       _pj_generate_unique_string 004978d0 f   pjlib-i386-win32-vc8-debug:guid_win32.obj
 0002:00043be0       _pj_pool_factory_get_default_policy 00497be0 f   pjlib-i386-win32-vc8-debug:pool_policy_malloc.obj
 0002:00043c00       _PJ_FD_ZERO                00497c00 f   pjlib-i386-win32-vc8-debug:sock_select.obj
 0002:00043c50       _PJ_FD_SET                 00497c50 f   pjlib-i386-win32-vc8-debug:sock_select.obj
 0002:00043d30       _PJ_FD_CLR                 00497d30 f   pjlib-i386-win32-vc8-debug:sock_select.obj
 0002:00043e20       _PJ_FD_ISSET               00497e20 f   pjlib-i386-win32-vc8-debug:sock_select.obj
 0002:00043e80       _PJ_FD_COUNT               00497e80 f   pjlib-i386-win32-vc8-debug:sock_select.obj
 0002:00043ea0       _pj_sock_select            00497ea0 f   pjlib-i386-win32-vc8-debug:sock_select.obj
 0002:00043fa0       _pj_sock_set_qos_params    00497fa0 f   pjlib-i386-win32-vc8-debug:sock_qos_bsd.obj
 0002:000440d0       _pj_sock_set_qos_type      004980d0 f   pjlib-i386-win32-vc8-debug:sock_qos_bsd.obj
 0002:00044120       _pj_sock_get_qos_params    00498120 f   pjlib-i386-win32-vc8-debug:sock_qos_bsd.obj
 0002:00044270       _pj_sock_get_qos_type      00498270 f   pjlib-i386-win32-vc8-debug:sock_qos_bsd.obj
 0002:000442be       _CoCreateGuid@4            004982be f   ole32:ole32.dll
 0002:000442c4       _WSAGetLastError@0         004982c4 f   ws2_32:WS2_32.dll
 0002:000442ca       _WSAStartup@8              004982ca f   ws2_32:WS2_32.dll
 0002:000442d0       _WSACleanup@0              004982d0 f   ws2_32:WS2_32.dll
 0002:000442d6       _ioctlsocket@12            004982d6 f   ws2_32:WS2_32.dll
 0002:000442dc       _ntohs@4                   004982dc f   ws2_32:WS2_32.dll
 0002:000442e2       _htons@4                   004982e2 f   ws2_32:WS2_32.dll
 0002:000442e8       _ntohl@4                   004982e8 f   ws2_32:WS2_32.dll
 0002:000442ee       _htonl@4                   004982ee f   ws2_32:WS2_32.dll
 0002:000442f4       _inet_ntoa@4               004982f4 f   ws2_32:WS2_32.dll
 0002:000442fa       _inet_addr@4               004982fa f   ws2_32:WS2_32.dll
 0002:00044300       _WSAStringToAddressA@20    00498300 f   ws2_32:WS2_32.dll
 0002:00044306       _WSAAddressToStringA@20    00498306 f   ws2_32:WS2_32.dll
 0002:0004430c       _gethostname@8             0049830c f   ws2_32:WS2_32.dll
 0002:00044312       _WSASocketA@24             00498312 f   ws2_32:WS2_32.dll
 0002:00044318       _bind@12                   00498318 f   ws2_32:WS2_32.dll
 0002:0004431e       _closesocket@4             0049831e f   ws2_32:WS2_32.dll
 0002:00044324       _getpeername@12            00498324 f   ws2_32:WS2_32.dll
 0002:0004432a       _getsockname@12            0049832a f   ws2_32:WS2_32.dll
 0002:00044330       _send@16                   00498330 f   ws2_32:WS2_32.dll
 0002:00044336       _sendto@24                 00498336 f   ws2_32:WS2_32.dll
 0002:0004433c       _recv@16                   0049833c f   ws2_32:WS2_32.dll
 0002:00044342       _recvfrom@24               00498342 f   ws2_32:WS2_32.dll
 0002:00044348       _getsockopt@20             00498348 f   ws2_32:WS2_32.dll
 0002:0004434e       _setsockopt@20             0049834e f   ws2_32:WS2_32.dll
 0002:00044354       _connect@12                00498354 f   ws2_32:WS2_32.dll
 0002:0004435a       _shutdown@8                0049835a f   ws2_32:WS2_32.dll
 0002:00044360       _listen@8                  00498360 f   ws2_32:WS2_32.dll
 0002:00044366       _accept@12                 00498366 f   ws2_32:WS2_32.dll
 0002:0004436c       _WSASetLastError@4         0049836c f   ws2_32:WS2_32.dll
 0002:00044372       _gethostbyname@4           00498372 f   ws2_32:WS2_32.dll
 0002:00044378       ___WSAFDIsSet@8            00498378 f   ws2_32:WS2_32.dll
 0002:0004437e       _select@20                 0049837e f   ws2_32:WS2_32.dll
 0002:00044390       _printf                    00498390 f   LIBCMTD:printf.obj
 0002:00044510       __printf_l                 00498510 f   LIBCMTD:printf.obj
 0002:00044540       __printf_s_l               00498540 f   LIBCMTD:printf.obj
 0002:00044570       _printf_s                  00498570 f   LIBCMTD:printf.obj
 0002:000445a0       __printf_p_l               004985a0 f   LIBCMTD:printf.obj
 0002:000445d0       __printf_p                 004985d0 f   LIBCMTD:printf.obj
 0002:00044600       __set_printf_count_output  00498600 f   LIBCMTD:printf.obj
 0002:00044660       __get_printf_count_output  00498660 f   LIBCMTD:printf.obj
 0002:00044680       _puts                      00498680 f   LIBCMTD:puts.obj
 0002:00044a60       _atol                      00498a60 f   LIBCMTD:atox.obj
 0002:00044a80       __atol_l                   00498a80 f   LIBCMTD:atox.obj
 0002:00044aa0       _atoi                      00498aa0 f   LIBCMTD:atox.obj
 0002:00044ac0       __atoi_l                   00498ac0 f   LIBCMTD:atox.obj
 0002:00044ae0       __atoi64                   00498ae0 f   LIBCMTD:atox.obj
 0002:00044b00       __atoi64_l                 00498b00 f   LIBCMTD:atox.obj
 0002:00044b20       __cinit                    00498b20 f   LIBCMTD:crt0dat.obj
 0002:00044bf0       _exit                      00498bf0 f   LIBCMTD:crt0dat.obj
 0002:00044c10       __exit                     00498c10 f   LIBCMTD:crt0dat.obj
 0002:00044c30       __cexit                    00498c30 f   LIBCMTD:crt0dat.obj
 0002:00044c50       __c_exit                   00498c50 f   LIBCMTD:crt0dat.obj
 0002:00044c70       __amsg_exit                00498c70 f   LIBCMTD:crt0dat.obj
 0002:00044cc0       ___freeCrtMemory           00498cc0 f   LIBCMTD:crt0dat.obj
 0002:00045020       ___crtCorExitProcess       00499020 f   LIBCMTD:crt0dat.obj
 0002:00045070       ___crtExitProcess          00499070 f   LIBCMTD:crt0dat.obj
 0002:000450a0       __lockexit                 004990a0 f   LIBCMTD:crt0dat.obj
 0002:000450c0       __unlockexit               004990c0 f   LIBCMTD:crt0dat.obj
 0002:000450e0       __init_pointers            004990e0 f   LIBCMTD:crt0dat.obj
 0002:000451c0       __initterm_e               004991c0 f   LIBCMTD:crt0dat.obj
 0002:00045210       __get_osplatform           00499210 f   LIBCMTD:crt0dat.obj
 0002:00045340       __get_osver                00499340 f   LIBCMTD:crt0dat.obj
 0002:00045470       __get_winver               00499470 f   LIBCMTD:crt0dat.obj
 0002:000455a0       __get_winmajor             004995a0 f   LIBCMTD:crt0dat.obj
 0002:000456d0       __get_winminor             004996d0 f   LIBCMTD:crt0dat.obj
 0002:00045800       __get_wpgmptr              00499800 f   LIBCMTD:crt0dat.obj
 0002:00045930       __get_pgmptr               00499930 f   LIBCMTD:crt0dat.obj
 0002:00045a60       _fclose                    00499a60 f   LIBCMTD:fclose.obj
 0002:00045bb0       __fclose_nolock            00499bb0 f   LIBCMTD:fclose.obj
 0002:00045cf0       @__security_check_cookie@4 00499cf0 f   LIBCMTD:secchk.obj
 0002:00045d10       __fsopen                   00499d10 f   LIBCMTD:fopen.obj
 0002:00045fa0       _fopen                     00499fa0 f   LIBCMTD:fopen.obj
 0002:00045fc0       _fopen_s                   00499fc0 f   LIBCMTD:fopen.obj
 0002:00046090       _memchr                    0049a090 f   LIBCMTD:memchr.obj
 0002:00046170       __wassert                  0049a170 f   LIBCMTD:wassert.obj
 0002:00047280       __invoke_watson_if_error   0049b280 f i LIBCMTD:wassert.obj
 0002:000472c0       __invoke_watson_if_oneof   0049b2c0 f i LIBCMTD:wassert.obj
 0002:00047360       _fwrite                    0049b360 f   LIBCMTD:fwrite.obj
 0002:000474b0       __fwrite_nolock            0049b4b0 f   LIBCMTD:fwrite.obj
 0002:00047970       _strcmp                    0049b970 f   LIBCMTD:strcmp.obj
 0002:00047a20       _strtok                    0049ba20 f   LIBCMTD:strtok.obj
 0002:00047bc0       _strlen                    0049bbc0 f   LIBCMTD:strlen.obj
 0002:00047c70       _fgets                     0049bc70 f   LIBCMTD:fgets.obj
 0002:00048130       _fflush                    0049c130 f   LIBCMTD:fflush.obj
 0002:000481f0       __fflush_nolock            0049c1f0 f   LIBCMTD:fflush.obj
 0002:00048260       __flush                    0049c260 f   LIBCMTD:fflush.obj
 0002:00048350       __flushall                 0049c350 f   LIBCMTD:fflush.obj
 0002:00048580       ___iob_func                0049c580 f   LIBCMTD:_file.obj
 0002:00048590       ___initstdio               0049c590 f   LIBCMTD:_file.obj
 0002:00048730       ___endstdio                0049c730 f   LIBCMTD:_file.obj
 0002:00048770       __lock_file                0049c770 f   LIBCMTD:_file.obj
 0002:000487e0       __lock_file2               0049c7e0 f   LIBCMTD:_file.obj
 0002:00048830       __unlock_file              0049c830 f   LIBCMTD:_file.obj
 0002:000488a0       __unlock_file2             0049c8a0 f   LIBCMTD:_file.obj
 0002:000488f0       _memset                    0049c8f0 f   LIBCMTD:memset.obj
 0002:00048990       __tolower                  0049c990 f   LIBCMTD:tolower.obj
 0002:000489a0       __tolower_l                0049c9a0 f   LIBCMTD:tolower.obj
 0002:00048bf0       ??0_LocaleUpdate@@QAE@PAUlocaleinfo_struct@@@Z 0049cbf0 f i LIBCMTD:tolower.obj
 0002:00048d00       ??1_LocaleUpdate@@QAE@XZ   0049cd00 f i LIBCMTD:tolower.obj
 0002:00048d40       ?GetLocaleT@_LocaleUpdate@@QAEPAUlocaleinfo_struct@@XZ 0049cd40 f i LIBCMTD:tolower.obj
 0002:00048d60       _tolower                   0049cd60 f   LIBCMTD:tolower.obj
 0002:00048dc0       __snprintf                 0049cdc0 f   LIBCMTD:snprintf.obj
 0002:00048fd0       __snprintf_l               0049cfd0 f   LIBCMTD:snprintf.obj
 0002:00049020       _strchr                    0049d020 f   LIBCMTD:strchr.obj
 0002:00049026       ___from_strstr_to_strchr   0049d026     LIBCMTD:strchr.obj
 0002:00049120       _strcpy                    0049d120 f   LIBCMTD:strcat.obj
 0002:00049130       _strcat                    0049d130 f   LIBCMTD:strcat.obj
 0002:00049260       _sscanf                    0049d260 f   LIBCMTD:sscanf.obj
 0002:00049430       __sscanf_l                 0049d430 f   LIBCMTD:sscanf.obj
 0002:00049470       _sscanf_s                  0049d470 f   LIBCMTD:sscanf.obj
 0002:000494b0       __sscanf_s_l               0049d4b0 f   LIBCMTD:sscanf.obj
 0002:000494f0       __isalpha_l                0049d4f0 f i LIBCMTD:_ctype.obj
 0002:000495a0       _isalpha                   0049d5a0 f i LIBCMTD:_ctype.obj
 0002:000495e0       __isupper_l                0049d5e0 f i LIBCMTD:_ctype.obj
 0002:00049680       _isupper                   0049d680 f i LIBCMTD:_ctype.obj
 0002:000496c0       __islower_l                0049d6c0 f i LIBCMTD:_ctype.obj
 0002:00049760       _islower                   0049d760 f i LIBCMTD:_ctype.obj
 0002:000497a0       __isdigit_l                0049d7a0 f i LIBCMTD:_ctype.obj
 0002:00049840       _isdigit                   0049d840 f i LIBCMTD:_ctype.obj
 0002:00049880       __isxdigit_l               0049d880 f i LIBCMTD:_ctype.obj
 0002:00049930       _isxdigit                  0049d930 f i LIBCMTD:_ctype.obj
 0002:00049970       __isspace_l                0049d970 f i LIBCMTD:_ctype.obj
 0002:00049a10       _isspace                   0049da10 f i LIBCMTD:_ctype.obj
 0002:00049a50       __ispunct_l                0049da50 f i LIBCMTD:_ctype.obj
 0002:00049af0       _ispunct                   0049daf0 f i LIBCMTD:_ctype.obj
 0002:00049b30       __isalnum_l                0049db30 f i LIBCMTD:_ctype.obj
 0002:00049be0       _isalnum                   0049dbe0 f i LIBCMTD:_ctype.obj
 0002:00049c20       __isprint_l                0049dc20 f i LIBCMTD:_ctype.obj
 0002:00049cd0       _isprint                   0049dcd0 f i LIBCMTD:_ctype.obj
 0002:00049d10       __isgraph_l                0049dd10 f i LIBCMTD:_ctype.obj
 0002:00049dc0       _isgraph                   0049ddc0 f i LIBCMTD:_ctype.obj
 0002:00049e00       __iscntrl_l                0049de00 f i LIBCMTD:_ctype.obj
 0002:00049ea0       _iscntrl                   0049dea0 f i LIBCMTD:_ctype.obj
 0002:00049ee0       ___isascii                 0049dee0 f i LIBCMTD:_ctype.obj
 0002:00049f00       ___toascii                 0049df00 f i LIBCMTD:_ctype.obj
 0002:00049f10       __iscsymf_l                0049df10 f i LIBCMTD:_ctype.obj
 0002:00049f60       ___iscsymf                 0049df60 f i LIBCMTD:_ctype.obj
 0002:00049fa0       __iscsym_l                 0049dfa0 f i LIBCMTD:_ctype.obj
 0002:00049ff0       ___iscsym                  0049dff0 f i LIBCMTD:_ctype.obj
 0002:0004a040       _mainCRTStartup            0049e040 f   LIBCMTD:crt0.obj
 0002:0004a3c0       __set_osplatform           0049e3c0 f i LIBCMTD:crt0.obj
 0002:0004a3d0       __set_osver                0049e3d0 f i LIBCMTD:crt0.obj
 0002:0004a3e0       __set_winver               0049e3e0 f i LIBCMTD:crt0.obj
 0002:0004a3f0       __set_winmajor             0049e3f0 f i LIBCMTD:crt0.obj
 0002:0004a400       __set_winminor             0049e400 f i LIBCMTD:crt0.obj
 0002:0004a4e0       _memcpy                    0049e4e0 f   LIBCMTD:memcpy.obj
 0002:0004a920       _memcmp                    0049e920 f   LIBCMTD:memcmp.obj
 0002:0004b620       _memmove                   0049f620 f   LIBCMTD:memmove.obj
 0002:0004ba60       _sprintf                   0049fa60 f   LIBCMTD:sprintf.obj
 0002:0004bc40       __sprintf_l                0049fc40 f   LIBCMTD:sprintf.obj
 0002:0004bc70       _sprintf_s                 0049fc70 f   LIBCMTD:sprintf.obj
 0002:0004bcb0       __sprintf_s_l              0049fcb0 f   LIBCMTD:sprintf.obj
 0002:0004bcf0       __snprintf_s               0049fcf0 f   LIBCMTD:sprintf.obj
 0002:0004bd30       __snprintf_s_l             0049fd30 f   LIBCMTD:sprintf.obj
 0002:0004bd70       __sprintf_p                0049fd70 f   LIBCMTD:sprintf.obj
 0002:0004bdb0       __sprintf_p_l              0049fdb0 f   LIBCMTD:sprintf.obj
 0002:0004bdf0       __scprintf                 0049fdf0 f   LIBCMTD:sprintf.obj
 0002:0004be20       __scprintf_p               0049fe20 f   LIBCMTD:sprintf.obj
 0002:0004be50       __scprintf_l               0049fe50 f   LIBCMTD:sprintf.obj
 0002:0004be80       __scprintf_p_l             0049fe80 f   LIBCMTD:sprintf.obj
 0002:0004beb0       _strncmp                   0049feb0 f   LIBCMTD:strncmp.obj
 0002:0004c07c       __setjmp3                  004a007c f   LIBCMTD:setjmp3.obj
 0002:0004c120       __strnicmp_l               004a0120 f   LIBCMTD:strnicmp.obj
 0002:0004c3f0       __strnicmp                 004a03f0 f   LIBCMTD:strnicmp.obj
 0002:0004c5e0       _strncpy                   004a05e0 f   LIBCMTD:strncpy.obj
 0002:0004c750       __vsnprintf_l              004a0750 f   LIBCMTD:vsnprint.obj
 0002:0004c960       __vsnprintf                004a0960 f   LIBCMTD:vsnprint.obj
 0002:0004c990       __alloca_probe             004a0990     LIBCMTD:chkstk.obj
 0002:0004c990       __chkstk                   004a0990 f   LIBCMTD:chkstk.obj
 0002:0004c9d0       __alldiv                   004a09d0 f   LIBCMTD:lldiv.obj
 0002:0004cab0       __allmul                   004a0ab0 f   LIBCMTD:llmul.obj
 0002:0004cb00       _srand                     004a0b00 f   LIBCMTD:rand.obj
 0002:0004cb20       _rand                      004a0b20 f   LIBCMTD:rand.obj
 0002:0004cb70       _malloc                    004a0b70 f   LIBCMTD:dbgheap.obj
 0002:0004cba0       __malloc_dbg               004a0ba0 f   LIBCMTD:dbgheap.obj
 0002:0004cbe0       __nh_malloc                004a0be0 f   LIBCMTD:dbgheap.obj
 0002:0004cc10       __nh_malloc_dbg            004a0c10 f   LIBCMTD:dbgheap.obj
 0002:0004cc90       __heap_alloc               004a0c90 f   LIBCMTD:dbgheap.obj
 0002:0004ccb0       __heap_alloc_dbg           004a0cb0 f   LIBCMTD:dbgheap.obj
 0002:0004d130       _calloc                    004a1130 f   LIBCMTD:dbgheap.obj
 0002:0004d160       __calloc_dbg               004a1160 f   LIBCMTD:dbgheap.obj
 0002:0004d250       _realloc                   004a1250 f   LIBCMTD:dbgheap.obj
 0002:0004d280       __recalloc                 004a1280 f   LIBCMTD:dbgheap.obj
 0002:0004d2c0       __realloc_dbg              004a12c0 f   LIBCMTD:dbgheap.obj
 0002:0004da80       __recalloc_dbg             004a1a80 f   LIBCMTD:dbgheap.obj
 0002:0004dbc0       __expand                   004a1bc0 f   LIBCMTD:dbgheap.obj
 0002:0004dbf0       __expand_dbg               004a1bf0 f   LIBCMTD:dbgheap.obj
 0002:0004dd40       _free                      004a1d40 f   LIBCMTD:dbgheap.obj
 0002:0004dd60       __free_nolock              004a1d60 f   LIBCMTD:dbgheap.obj
 0002:0004dd80       __free_dbg                 004a1d80 f   LIBCMTD:dbgheap.obj
 0002:0004de20       __free_dbg_nolock          004a1e20 f   LIBCMTD:dbgheap.obj
 0002:0004e430       __msize                    004a2430 f   LIBCMTD:dbgheap.obj
 0002:0004e450       __msize_dbg                004a2450 f   LIBCMTD:dbgheap.obj
 0002:0004e6b0       __CrtSetBreakAlloc         004a26b0 f   LIBCMTD:dbgheap.obj
 0002:0004e6e0       __CrtSetDbgBlockType       004a26e0 f   LIBCMTD:dbgheap.obj
 0002:0004e800       __CrtSetAllocHook          004a2800 f   LIBCMTD:dbgheap.obj
 0002:0004e830       __CrtGetAllocHook          004a2830 f   LIBCMTD:dbgheap.obj
 0002:0004e8a0       __CrtCheckMemory           004a28a0 f   LIBCMTD:dbgheap.obj
 0002:0004ee10       __CrtSetDbgFlag            004a2e10 f   LIBCMTD:dbgheap.obj
 0002:0004efb0       __CrtDoForAllClientObjects 004a2fb0 f   LIBCMTD:dbgheap.obj
 0002:0004f110       __CrtIsValidPointer        004a3110 f   LIBCMTD:dbgheap.obj
 0002:0004f130       __CrtIsValidHeapPointer    004a3130 f   LIBCMTD:dbgheap.obj
 0002:0004f250       __CrtIsMemoryBlock         004a3250 f   LIBCMTD:dbgheap.obj
 0002:0004f420       __CrtReportBlockType       004a3420 f   LIBCMTD:dbgheap.obj
 0002:0004f460       __CrtSetDumpClient         004a3460 f   LIBCMTD:dbgheap.obj
 0002:0004f490       __CrtGetDumpClient         004a3490 f   LIBCMTD:dbgheap.obj
 0002:0004f4a0       __CrtMemCheckpoint         004a34a0 f   LIBCMTD:dbgheap.obj
 0002:0004f740       __CrtMemDifference         004a3740 f   LIBCMTD:dbgheap.obj
 0002:0004f9e0       __CrtMemDumpAllObjectsSince 004a39e0 f   LIBCMTD:dbgheap.obj
 0002:00050010       __CrtDumpMemoryLeaks       004a4010 f   LIBCMTD:dbgheap.obj
 0002:00050090       __CrtMemDumpStatistics     004a4090 f   LIBCMTD:dbgheap.obj
 0002:000501e0       __aligned_malloc           004a41e0 f   LIBCMTD:dbgheap.obj
 0002:00050210       __aligned_malloc_dbg       004a4210 f   LIBCMTD:dbgheap.obj
 0002:00050240       __aligned_realloc          004a4240 f   LIBCMTD:dbgheap.obj
 0002:00050270       __aligned_recalloc         004a4270 f   LIBCMTD:dbgheap.obj
 0002:000502a0       __aligned_realloc_dbg      004a42a0 f   LIBCMTD:dbgheap.obj
 0002:000502d0       __aligned_recalloc_dbg     004a42d0 f   LIBCMTD:dbgheap.obj
 0002:00050300       __aligned_offset_malloc    004a4300 f   LIBCMTD:dbgheap.obj
 0002:00050330       __aligned_offset_malloc_dbg 004a4330 f   LIBCMTD:dbgheap.obj
 0002:00050530       __aligned_offset_realloc   004a4530 f   LIBCMTD:dbgheap.obj
 0002:00050560       __aligned_offset_recalloc  004a4560 f   LIBCMTD:dbgheap.obj
 0002:00050590       __aligned_offset_realloc_dbg 004a4590 f   LIBCMTD:dbgheap.obj
 0002:00050910       __aligned_offset_recalloc_dbg 004a4910 f   LIBCMTD:dbgheap.obj
 0002:00050a60       __aligned_free             004a4a60 f   LIBCMTD:dbgheap.obj
 0002:00050a80       __aligned_free_dbg         004a4a80 f   LIBCMTD:dbgheap.obj
 0002:00050b50       __CrtSetDebugFillThreshold 004a4b50 f   LIBCMTD:dbgheap.obj
 0002:00050b80       __CrtSetCheckCount         004a4b80 f   LIBCMTD:dbgheap.obj
 0002:00050ba0       __CrtGetCheckCount         004a4ba0 f   LIBCMTD:dbgheap.obj
 0002:00050bb0       __aligned_msize            004a4bb0 f   LIBCMTD:dbgheap.obj
 0002:00050bd0       __aligned_msize_dbg        004a4bd0 f   LIBCMTD:dbgheap.obj
 0002:00050d20       _longjmp                   004a4d20 f   LIBCMTD:longjmp.obj
 0002:00050e00       __stbuf                    004a4e00 f   LIBCMTD:_sftbuf.obj
 0002:00050fb0       __ftbuf                    004a4fb0 f   LIBCMTD:_sftbuf.obj
 0002:00051060       __output_l                 004a5060 f   LIBCMTD:output.obj
 0002:000529f0       _get_int_arg               004a69f0 f i LIBCMTD:output.obj
 0002:00052a10       _get_int64_arg             004a6a10 f i LIBCMTD:output.obj
 0002:00052a40       _get_short_arg             004a6a40 f i LIBCMTD:output.obj
 0002:00052a70       __initp_misc_invarg        004a6a70 f   LIBCMTD:invarg.obj
 0002:00052a80       __invalid_parameter        004a6a80 f   LIBCMTD:invarg.obj
 0002:00052b00       __invoke_watson            004a6b00 f   LIBCMTD:invarg.obj
 0002:00052c80       __set_invalid_parameter_handler 004a6c80 f   LIBCMTD:invarg.obj
 0002:00052cd0       __get_invalid_parameter_handler 004a6cd0 f   LIBCMTD:invarg.obj
 0002:00052d10       ?_invalid_parameter@@YAXPBG00II@Z 004a6d10 f   LIBCMTD:invarg.obj
 0002:00052d40       ?_invoke_watson@@YAXPBG00II@Z 004a6d40 f   LIBCMTD:invarg.obj
 0002:00052d70       __dosmaperr                004a6d70 f   LIBCMTD:dosmap.obj
 0002:00052da0       __get_errno_from_oserr     004a6da0 f   LIBCMTD:dosmap.obj
 0002:00052e30       __set_errno                004a6e30 f   LIBCMTD:dosmap.obj
 0002:00052e70       __get_errno                004a6e70 f   LIBCMTD:dosmap.obj
 0002:00052f10       __set_doserrno             004a6f10 f   LIBCMTD:dosmap.obj
 0002:00052f50       __get_doserrno             004a6f50 f   LIBCMTD:dosmap.obj
 0002:00052ff0       __errno                    004a6ff0 f   LIBCMTD:dosmap.obj
 0002:00053020       ___doserrno                004a7020 f   LIBCMTD:dosmap.obj
 0002:00053050       __CrtSetReportHookW2       004a7050 f   LIBCMTD:dbgrptw.obj
 0002:00053440       __CrtDbgReportW            004a7440 f   LIBCMTD:dbgrptw.obj
 0002:00053490       __CrtDbgReportWV           004a7490 f i LIBCMTD:dbgrptw.obj
 0002:000538a0       ___crtMessageWindowW       004a78a0 f   LIBCMTD:dbgrptw.obj
 0002:00053da0       ?_CrtDbgReportW@@YAHHPBGH00ZZ 004a7da0 f   LIBCMTD:dbgrptw.obj
 0002:00053df0       __except_handler4          004a7df0 f   LIBCMTD:chandler4.obj
 0002:00054090       _vprintf_helper            004a8090 f   LIBCMTD:vprintf.obj
 0002:000541f0       __vprintf_l                004a81f0 f   LIBCMTD:vprintf.obj
 0002:00054220       __vprintf_s_l              004a8220 f   LIBCMTD:vprintf.obj
 0002:00054250       __vprintf_p_l              004a8250 f   LIBCMTD:vprintf.obj
 0002:00054280       _vprintf                   004a8280 f   LIBCMTD:vprintf.obj
 0002:000542b0       _vprintf_s                 004a82b0 f   LIBCMTD:vprintf.obj
 0002:000542e0       __vprintf_p                004a82e0 f   LIBCMTD:vprintf.obj
 0002:00054310       __flsbuf                   004a8310 f   LIBCMTD:_flsbuf.obj
 0002:00054680       __ioinit                   004a8680 f   LIBCMTD:ioinit.obj
 0002:00054c20       __ioterm                   004a8c20 f   LIBCMTD:ioinit.obj
 0002:00054cf0       __fileno                   004a8cf0 f   LIBCMTD:fileno.obj
 0002:00054d80       _strtol                    004a8d80 f   LIBCMTD:strtol.obj
 0002:000553f0       __strtol_l                 004a93f0 f   LIBCMTD:strtol.obj
 0002:00055420       _strtoul                   004a9420 f   LIBCMTD:strtol.obj
 0002:00055480       __strtoul_l                004a9480 f   LIBCMTD:strtol.obj
 0002:000554b0       __strtoi64                 004a94b0 f   LIBCMTD:strtoq.obj
 0002:00055b70       __strtoi64_l               004a9b70 f   LIBCMTD:strtoq.obj
 0002:00055ba0       __strtoui64                004a9ba0 f   LIBCMTD:strtoq.obj
 0002:00055c00       __strtoui64_l              004a9c00 f   LIBCMTD:strtoq.obj
 0002:00055c30       __onexit                   004a9c30 f   LIBCMTD:onexit.obj
 0002:00055e70       _atexit                    004a9e70 f   LIBCMTD:onexit.obj
 0002:00055e90       ___onexitinit              004a9e90 f   LIBCMTD:onexit.obj
 0002:00055f00       __RTC_Initialize           004a9f00 f   LIBCMTD:initsect.obj
 0002:00055f30       __RTC_Terminate            004a9f30 f   LIBCMTD:initsect.obj
 0002:00055f60       __initp_misc_cfltcvt_tab   004a9f60 f   LIBCMTD:cmiscdat.obj
 0002:00055fb0       __ValidateImageBase        004a9fb0 f   LIBCMTD:pesect.obj
 0002:00056030       __FindPESection            004aa030 f   LIBCMTD:pesect.obj
 0002:000560c0       __IsNonwritableInCurrentImage 004aa0c0 f   LIBCMTD:pesect.obj
 0002:00056220       __encode_pointer           004aa220 f   LIBCMTD:tidtable.obj
 0002:000563b0       __encoded_null             004aa3b0 f   LIBCMTD:tidtable.obj
 0002:000563d0       __decode_pointer           004aa3d0 f   LIBCMTD:tidtable.obj
 0002:00056490       ___crtTlsAlloc@4           004aa490 f   LIBCMTD:tidtable.obj
 0002:000564a0       ___fls_getvalue@4          004aa4a0 f   LIBCMTD:tidtable.obj
 0002:000564c0       ___get_flsindex            004aa4c0 f   LIBCMTD:tidtable.obj
 0002:000564d0       ___set_flsgetvalue         004aa4d0 f   LIBCMTD:tidtable.obj
 0002:00056530       ___fls_setvalue@8          004aa530 f   LIBCMTD:tidtable.obj
 0002:00056560       __mtinit                   004aa560 f   LIBCMTD:tidtable.obj
 0002:000567f0       __mtterm                   004aa7f0 f   LIBCMTD:tidtable.obj
 0002:00056860       __initptd                  004aa860 f   LIBCMTD:tidtable.obj
 0002:000569e0       __getptd_noexit            004aa9e0 f   LIBCMTD:tidtable.obj
 0002:00056ac0       __getptd                   004aaac0 f   LIBCMTD:tidtable.obj
 0002:00056af0       __freefls@4                004aaaf0 f   LIBCMTD:tidtable.obj
 0002:00056d50       __freeptd                  004aad50 f   LIBCMTD:tidtable.obj
 0002:00056df0       ___threadid                004aadf0 f   LIBCMTD:tidtable.obj
 0002:00056e00       ___threadhandle            004aae00 f   LIBCMTD:tidtable.obj
 0002:00056e10       __FF_MSGBANNER             004aae10 f   LIBCMTD:crt0msg.obj
 0002:00056e70       __NMSG_WRITE               004aae70 f   LIBCMTD:crt0msg.obj
 0002:000571b0       __GET_RTERRMSG             004ab1b0 f   LIBCMTD:crt0msg.obj
 0002:00057200       ___updatetmbcinfo          004ab200 f   LIBCMTD:mbctype.obj
 0002:00057350       __setmbcp                  004ab350 f   LIBCMTD:mbctype.obj
 0002:000577e0       __setmbcp_nolock           004ab7e0 f   LIBCMTD:mbctype.obj
 0002:000581c0       __getmbcp                  004ac1c0 f   LIBCMTD:mbctype.obj
 0002:00058250       ___initmbctable            004ac250 f   LIBCMTD:mbctype.obj
 0002:00058280       __mtinitlocks              004ac280 f   LIBCMTD:mlock.obj
 0002:00058330       __mtdeletelocks            004ac330 f   LIBCMTD:mlock.obj
 0002:00058420       __mtinitlocknum            004ac420 f   LIBCMTD:mlock.obj
 0002:000585c0       __lock                     004ac5c0 f   LIBCMTD:mlock.obj
 0002:00058610       __unlock                   004ac610 f   LIBCMTD:mlock.obj
 0002:00058630       __lockerr_exit             004ac630 f   LIBCMTD:mlock.obj
 0002:00058660       __initp_eh_hooks           004ac660 f   LIBCMTD:hooks.obj
 0002:00058680       ?terminate@@YAXXZ          004ac680 f   LIBCMTD:hooks.obj
 0002:00058720       ?unexpected@@YAXXZ         004ac720 f   LIBCMTD:hooks.obj
 0002:00058750       ?_inconsistency@@YAXXZ     004ac750 f   LIBCMTD:hooks.obj
 0002:00058800       __initp_misc_winxfltr      004ac800 f   LIBCMTD:winxfltr.obj
 0002:00058810       ___CppXcptFilter           004ac810 f   LIBCMTD:winxfltr.obj
 0002:00058840       __XcptFilter               004ac840 f   LIBCMTD:winxfltr.obj
 0002:00058af0       __initp_misc_winsig        004acaf0 f   LIBCMTD:winsig.obj
 0002:00058b20       _signal                    004acb20 f   LIBCMTD:winsig.obj
 0002:000590f0       _raise                     004ad0f0 f   LIBCMTD:winsig.obj
 0002:00059530       ___get_sigabrt             004ad530 f   LIBCMTD:winsig.obj
 0002:00059550       ___fpecode                 004ad550 f   LIBCMTD:winsig.obj
 0002:00059560       ___pxcptinfoptrs           004ad560 f   LIBCMTD:winsig.obj
 0002:00059570       __initp_misc_rand_s        004ad570 f   LIBCMTD:rand_s.obj
 0002:00059580       _rand_s                    004ad580 f   LIBCMTD:rand_s.obj
 0002:00059820       ___getlocaleinfo           004ad820 f   LIBCMTD:inithelp.obj
 0002:00059b70       __initp_misc_purevirt      004adb70 f   LIBCMTD:inithelp.obj
 0002:00059b80       __initp_misc_initcrit      004adb80 f   LIBCMTD:initcrit.obj
 0002:00059b90       ___crtInitCritSecAndSpinCount 004adb90 f   LIBCMTD:initcrit.obj
 0002:00059d50       __initp_heap_handler       004add50 f   LIBCMTD:handler.obj
 0002:00059d60       ?_set_new_handler@@YAP6AHI@ZP6AHI@Z@Z 004add60 f   LIBCMTD:handler.obj
 0002:00059dc0       ?_set_new_handler@@YAP6AHI@ZH@Z 004addc0 f   LIBCMTD:handler.obj
 0002:00059e00       ?_query_new_handler@@YAP6AHI@ZXZ 004ade00 f   LIBCMTD:handler.obj
 0002:00059e20       __callnewh                 004ade20 f   LIBCMTD:handler.obj
 0002:00059e70       __close                    004ade70 f   LIBCMTD:close.obj
 0002:0005a100       __close_nolock             004ae100 f   LIBCMTD:close.obj
 0002:0005a200       __freebuf                  004ae200 f   LIBCMTD:_freebuf.obj
 0002:0005a2b0       ___report_gsfailure        004ae2b0 f   LIBCMTD:gs_report.obj
 0002:0005a400       __openfile                 004ae400 f   LIBCMTD:_open.obj
 0002:0005acc0       __getstream                004aecc0 f   LIBCMTD:stream.obj
 0002:0005afa8       __local_unwind4            004aefa8 f   LIBCMTD:exsup4.obj
 0002:0005b07e       __seh_longjmp_unwind4@4    004af07e f   LIBCMTD:exsup4.obj
 0002:0005b09a       @_EH4_CallFilterFunc@8     004af09a f   LIBCMTD:exsup4.obj
 0002:0005b0b1       @_EH4_TransferToHandler@8  004af0b1 f   LIBCMTD:exsup4.obj
 0002:0005b0ca       @_EH4_GlobalUnwind@4       004af0ca f   LIBCMTD:exsup4.obj
 0002:0005b0e4       @_EH4_LocalUnwind@16       004af0e4 f   LIBCMTD:exsup4.obj
 0002:0005b150       ___crtMessageBoxW          004af150 f   LIBCMTD:crtmboxw.obj
 0002:0005b490       __itow_s                   004af490 f   LIBCMTD:xtows.obj
 0002:0005b950       __ltow_s                   004af950 f   LIBCMTD:xtows.obj
 0002:0005b9a0       __ultow_s                  004af9a0 f   LIBCMTD:xtows.obj
 0002:0005b9d0       __i64tow_s                 004af9d0 f   LIBCMTD:xtows.obj
 0002:0005bee0       __ui64tow_s                004afee0 f   LIBCMTD:xtows.obj
 0002:0005bf10       _wcsncat_s                 004aff10 f   LIBCMTD:wcsncat_s.obj
 0002:0005c4f0       _wcsncpy_s                 004b04f0 f   LIBCMTD:wcsncpy_s.obj
 0002:0005c9f0       _wcscat_s                  004b09f0 f   LIBCMTD:wcscat_s.obj
 0002:0005ced0       _wcscpy_s                  004b0ed0 f   LIBCMTD:wcscpy_s.obj
 0002:0005d270       _fwprintf                  004b1270 f   LIBCMTD:fwprintf.obj
 0002:0005d450       __fwprintf_l               004b1450 f   LIBCMTD:fwprintf.obj
 0002:0005d480       __fwprintf_s_l             004b1480 f   LIBCMTD:fwprintf.obj
 0002:0005d4b0       _fwprintf_s                004b14b0 f   LIBCMTD:fwprintf.obj
 0002:0005d4e0       __fwprintf_p_l             004b14e0 f   LIBCMTD:fwprintf.obj
 0002:0005d510       __fwprintf_p               004b1510 f   LIBCMTD:fwprintf.obj
 0002:0005d540       _setvbuf                   004b1540 f   LIBCMTD:setvbuf.obj
 0002:0005d8d0       _abort                     004b18d0 f   LIBCMTD:abort.obj
 0002:0005da50       __set_abort_behavior       004b1a50 f   LIBCMTD:abort.obj
 0002:0005da90       _wcslen                    004b1a90 f   LIBCMTD:wcslen.obj
 0002:0005dad0       __set_error_mode           004b1ad0 f   LIBCMTD:errmode.obj
 0002:0005dbc0       ___set_app_type            004b1bc0 f   LIBCMTD:errmode.obj
 0002:0005dbd0       ___get_app_type            004b1bd0 f   LIBCMTD:errmode.obj
 0002:0005dbe0       __assert                   004b1be0 f   LIBCMTD:assert.obj
 0002:0005e970       _strcpy_s                  004b2970 f   LIBCMTD:strcpy_s.obj
 0002:0005ed00       _strcat_s                  004b2d00 f   LIBCMTD:strcat_s.obj
 0002:0005f1d0       __wcstombs_l_helper        004b31d0 f   LIBCMTD:wcstombs.obj
 0002:0005f870       __wcstombs_l               004b3870 f   LIBCMTD:wcstombs.obj
 0002:0005f8a0       _wcstombs                  004b38a0 f   LIBCMTD:wcstombs.obj
 0002:0005f8d0       __wcstombs_s_l             004b38d0 f   LIBCMTD:wcstombs.obj
 0002:0005fc30       _wcstombs_s                004b3c30 f   LIBCMTD:wcstombs.obj
 0002:0005fc60       __vswprintf_helper         004b3c60 f   LIBCMTD:vswprnc.obj
 0002:0005ff20       __vswprintf_c              004b3f20 f   LIBCMTD:vswprnc.obj
 0002:0005ff80       __vswprintf_c_l            004b3f80 f   LIBCMTD:vswprnc.obj
 0002:0005ffe0       __vswprintf_s_l            004b3fe0 f   LIBCMTD:vswprnc.obj
 0002:000602e0       _vswprintf_s               004b42e0 f   LIBCMTD:vswprnc.obj
 0002:00060310       __vsnwprintf_s_l           004b4310 f   LIBCMTD:vswprnc.obj
 0002:000607b0       __vsnwprintf_s             004b47b0 f   LIBCMTD:vswprnc.obj
 0002:000607e0       __vswprintf_p              004b47e0 f   LIBCMTD:vswprnc.obj
 0002:00060840       __vswprintf_p_l            004b4840 f   LIBCMTD:vswprnc.obj
 0002:000608a0       __write                    004b48a0 f   LIBCMTD:write.obj
 0002:00060b50       __write_nolock             004b4b50 f   LIBCMTD:write.obj
 0002:000617f0       __filbuf                   004b57f0 f   LIBCMTD:_filbuf.obj
 0002:00061ad0       __commit                   004b5ad0 f   LIBCMTD:commit.obj
 0002:00061d70       __fcloseall                004b5d70 f   LIBCMTD:closeall.obj
 0002:00061ee0       __VEC_memzero              004b5ee0 f   LIBCMTD:p4_memset.obj
 0002:00062010       __sse2_mathfcns_init       004b6010 f   LIBCMTD:mathfcns.obj
 0002:00062040       __set_SSE2_enable          004b6040 f   LIBCMTD:mathfcns.obj
 0002:00062070       ___crtLCMapStringA         004b6070 f   LIBCMTD:a_map.obj
 0002:00062720       __MarkAllocaS              004b6720 f i LIBCMTD:a_map.obj
 0002:00062750       __freea                    004b6750 f i LIBCMTD:a_map.obj
 0002:00062830       __isleadbyte_l             004b6830 f i LIBCMTD:_wctype.obj
 0002:00062890       _isleadbyte                004b6890 f i LIBCMTD:_wctype.obj
 0002:000628b0       __iswalpha_l               004b68b0 f i LIBCMTD:_wctype.obj
 0002:000628e0       _iswalpha                  004b68e0 f i LIBCMTD:_wctype.obj
 0002:00062900       __iswupper_l               004b6900 f i LIBCMTD:_wctype.obj
 0002:00062920       _iswupper                  004b6920 f i LIBCMTD:_wctype.obj
 0002:00062940       __iswlower_l               004b6940 f i LIBCMTD:_wctype.obj
 0002:00062960       _iswlower                  004b6960 f i LIBCMTD:_wctype.obj
 0002:00062980       __iswdigit_l               004b6980 f i LIBCMTD:_wctype.obj
 0002:000629a0       _iswdigit                  004b69a0 f i LIBCMTD:_wctype.obj
 0002:000629c0       __iswxdigit_l              004b69c0 f i LIBCMTD:_wctype.obj
 0002:000629f0       _iswxdigit                 004b69f0 f i LIBCMTD:_wctype.obj
 0002:00062a10       __iswspace_l               004b6a10 f i LIBCMTD:_wctype.obj
 0002:00062a30       _iswspace                  004b6a30 f i LIBCMTD:_wctype.obj
 0002:00062a50       __iswpunct_l               004b6a50 f i LIBCMTD:_wctype.obj
 0002:00062a70       _iswpunct                  004b6a70 f i LIBCMTD:_wctype.obj
 0002:00062a90       __iswalnum_l               004b6a90 f i LIBCMTD:_wctype.obj
 0002:00062ac0       _iswalnum                  004b6ac0 f i LIBCMTD:_wctype.obj
 0002:00062ae0       __iswprint_l               004b6ae0 f i LIBCMTD:_wctype.obj
 0002:00062b10       _iswprint                  004b6b10 f i LIBCMTD:_wctype.obj
 0002:00062b30       __iswgraph_l               004b6b30 f i LIBCMTD:_wctype.obj
 0002:00062b60       _iswgraph                  004b6b60 f i LIBCMTD:_wctype.obj
 0002:00062b80       __iswcntrl_l               004b6b80 f i LIBCMTD:_wctype.obj
 0002:00062ba0       _iswcntrl                  004b6ba0 f i LIBCMTD:_wctype.obj
 0002:00062bc0       _iswascii                  004b6bc0 f i LIBCMTD:_wctype.obj
 0002:00062be0       __iswcsym_l                004b6be0 f i LIBCMTD:_wctype.obj
 0002:00062c30       ___iswcsym                 004b6c30 f i LIBCMTD:_wctype.obj
 0002:00062c80       __iswcsymf_l               004b6c80 f i LIBCMTD:_wctype.obj
 0002:00062cd0       ___iswcsymf                004b6cd0 f i LIBCMTD:_wctype.obj
 0002:00062d20       __chvalidator              004b6d20 f   LIBCMTD:isctype.obj
 0002:00062d80       __chvalidator_l            004b6d80 f   LIBCMTD:isctype.obj
 0002:00062e60       __isctype_l                004b6e60 f   LIBCMTD:isctype.obj
 0002:00062fc0       __isctype                  004b6fc0 f   LIBCMTD:isctype.obj
 0002:00063010       ____setlc_active_func      004b7010 f   LIBCMTD:setlocal.obj
 0002:00063020       ____unguarded_readlc_active_add_func 004b7020 f   LIBCMTD:setlocal.obj
 0002:00063030       ___freetlocinfo            004b7030 f   LIBCMTD:setlocal.obj
 0002:000633d0       ___addlocaleref            004b73d0 f   LIBCMTD:setlocal.obj
 0002:00063540       ___removelocaleref         004b7540 f   LIBCMTD:setlocal.obj
 0002:000636c0       ___updatetlocinfo          004b76c0 f   LIBCMTD:setlocal.obj
 0002:00063860       __configthreadlocale       004b7860 f   LIBCMTD:setlocal.obj
 0002:000639b0       __locterm                  004b79b0 f   LIBCMTD:setlocal.obj
 0002:00063a70       __free_locale              004b7a70 f   LIBCMTD:setlocal.obj
 0002:00063bd0       ___free_locale             004b7bd0 f   LIBCMTD:setlocal.obj
 0002:00063bf0       __create_locale            004b7bf0 f   LIBCMTD:setlocal.obj
 0002:00063e90       ___create_locale           004b7e90 f   LIBCMTD:setlocal.obj
 0002:00063eb0       __get_current_locale       004b7eb0 f   LIBCMTD:setlocal.obj
 0002:00063fe0       ___get_current_locale      004b7fe0 f   LIBCMTD:setlocal.obj
 0002:00063ff0       _setlocale                 004b7ff0 f   LIBCMTD:setlocal.obj
 0002:000652a0       __expandlocale             004b92a0 f   LIBCMTD:setlocal.obj
 0002:000655f0       ___init_dummy              004b95f0 f   LIBCMTD:setlocal.obj
 0002:00065600       __strcats                  004b9600 f   LIBCMTD:setlocal.obj
 0002:00065690       ___lc_strtolc              004b9690 f   LIBCMTD:setlocal.obj
 0002:00065910       ___lc_lctostr              004b9910 f   LIBCMTD:setlocal.obj
 0002:000659d0       __input_l                  004b99d0 f   LIBCMTD:input.obj
 0002:00067830       __INTRN_LOCALE_CONV        004bb830 f i LIBCMTD:input.obj
 0002:00067980       __input_s_l                004bb980 f   LIBCMTD:inputs.obj
 0002:00069db0       ?__CxxUnhandledExceptionFilter@@YGJPAU_EXCEPTION_POINTERS@@@Z 004bddb0 f   LIBCMTD:unhandld.obj
 0002:00069e30       ___CxxSetUnhandledExceptionFilter 004bde30 f   LIBCMTD:unhandld.obj
 0002:00069e50       ___security_init_cookie    004bde50 f   LIBCMTD:gs_support.obj
 0002:00069f60       __setenvp                  004bdf60 f   LIBCMTD:stdenvp.obj
 0002:0006a160       __setargv                  004be160 f   LIBCMTD:stdargv.obj
 0002:0006a2c0       __set_pgmptr               004be2c0 f i LIBCMTD:stdargv.obj
 0002:0006a710       ___crtGetEnvironmentStringsA 004be710 f   LIBCMTD:a_env.obj
 0002:0006a9b0       ___heap_select             004be9b0 f   LIBCMTD:heapinit.obj
 0002:0006aa60       __heap_init                004bea60 f   LIBCMTD:heapinit.obj
 0002:0006aaf0       __heap_term                004beaf0 f   LIBCMTD:heapinit.obj
 0002:0006abb0       __get_heap_handle          004bebb0 f   LIBCMTD:heapinit.obj
 0002:0006ac00       __VEC_memcpy               004bec00 f   LIBCMTD:p4_memcpy.obj
 0002:0006add0       __vsprintf_l               004bedd0 f   LIBCMTD:vsprintf.obj
 0002:0006afa0       _vsprintf                  004befa0 f   LIBCMTD:vsprintf.obj
 0002:0006afd0       __vscprintf_helper         004befd0 f   LIBCMTD:vsprintf.obj
 0002:0006b0c0       __vscprintf                004bf0c0 f   LIBCMTD:vsprintf.obj
 0002:0006b0f0       __vscprintf_l              004bf0f0 f   LIBCMTD:vsprintf.obj
 0002:0006b120       __vscprintf_p              004bf120 f   LIBCMTD:vsprintf.obj
 0002:0006b150       __vscprintf_p_l            004bf150 f   LIBCMTD:vsprintf.obj
 0002:0006b180       __vsnprintf_helper         004bf180 f   LIBCMTD:vsnprnc.obj
 0002:0006b3c0       __vsnprintf_c              004bf3c0 f   LIBCMTD:vsnprnc.obj
 0002:0006b420       __vsnprintf_c_l            004bf420 f   LIBCMTD:vsnprnc.obj
 0002:0006b480       __vsprintf_s_l             004bf480 f   LIBCMTD:vsnprnc.obj
 0002:0006b780       _vsprintf_s                004bf780 f   LIBCMTD:vsnprnc.obj
 0002:0006b7b0       __vsnprintf_s_l            004bf7b0 f   LIBCMTD:vsnprnc.obj
 0002:0006bc30       __vsnprintf_s              004bfc30 f   LIBCMTD:vsnprnc.obj
 0002:0006bc60       __vsprintf_p               004bfc60 f   LIBCMTD:vsnprnc.obj
 0002:0006bcc0       __vsprintf_p_l             004bfcc0 f   LIBCMTD:vsnprnc.obj
 0002:0006bd18       __global_unwind2           004bfd18 f   LIBCMTD:exsup.obj
 0002:0006bd7d       __local_unwind2            004bfd7d f   LIBCMTD:exsup.obj
 0002:0006be01       __abnormal_termination     004bfe01 f   LIBCMTD:exsup.obj
 0002:0006be24       __NLG_Notify1              004bfe24 f   LIBCMTD:exsup.obj
 0002:0006be2d       __NLG_Notify               004bfe2d f   LIBCMTD:exsup.obj
 0002:0006be44       __NLG_Dispatch2            004bfe44     LIBCMTD:exsup.obj
 0002:0006be44       __NLG_Dispatch             004bfe44     LIBCMTD:exsup.obj
 0002:0006be4c       __NLG_Call                 004bfe4c f   LIBCMTD:exsup.obj
 0002:0006be4e       __NLG_Return2              004bfe4e     LIBCMTD:exsup.obj
 0002:0006bea0       ___ascii_strnicmp          004bfea0 f   LIBCMTD:_strnicm.obj
 0002:0006bf20       _V6_HeapAlloc              004bff20 f   LIBCMTD:malloc.obj
 0002:0006bfe0       __malloc_base              004bffe0 f   LIBCMTD:malloc.obj
 0002:0006c090       __heap_alloc_base          004c0090 f i LIBCMTD:malloc.obj
 0002:0006c170       __CrtSetReportHook2        004c0170 f   LIBCMTD:dbgrpt.obj
 0002:0006c560       __CrtDbgReport             004c0560 f   LIBCMTD:dbgrpt.obj
 0002:0006c5b0       __CrtDbgReportV            004c05b0 f i LIBCMTD:dbgrpt.obj
 0002:0006c5e0       ___crtMessageWindowA       004c05e0 f   LIBCMTD:dbgrpt.obj
 0002:0006cae0       __CrtDefaultAllocHook      004c0ae0 f   LIBCMTD:dbghook.obj
 0002:0006caf0       __crt_debugger_hook        004c0af0 f   LIBCMTD:dbghook.obj
 0002:0006cb10       __expand_base              004c0b10 f   LIBCMTD:expand.obj
 0002:0006cd50       __realloc_base             004c0d50 f   LIBCMTD:realloc.obj
 0002:0006d1d0       __recalloc_base            004c11d0 f   LIBCMTD:realloc.obj
 0002:0006d300       __free_base                004c1300 f   LIBCMTD:free.obj
 0002:0006d470       __heapchk                  004c1470 f   LIBCMTD:heapchk.obj
 0002:0006d570       __heapset                  004c1570 f   LIBCMTD:heapchk.obj
 0002:0006d580       __get_sbh_threshold        004c1580 f   LIBCMTD:sbheap.obj
 0002:0006d5e0       __set_sbh_threshold        004c15e0 f   LIBCMTD:sbheap.obj
 0002:0006d7d0       __set_amblksiz             004c17d0 f   LIBCMTD:sbheap.obj
 0002:0006d910       __get_amblksiz             004c1910 f   LIBCMTD:sbheap.obj
 0002:0006da40       ___sbh_heap_init           004c1a40 f   LIBCMTD:sbheap.obj
 0002:0006dac0       ___sbh_find_block          004c1ac0 f   LIBCMTD:sbheap.obj
 0002:0006db30       ___sbh_verify_block        004c1b30 f   LIBCMTD:sbheap.obj
 0002:0006dba0       ___sbh_free_block          004c1ba0 f   LIBCMTD:sbheap.obj
 0002:0006e2d0       ___sbh_alloc_block         004c22d0 f   LIBCMTD:sbheap.obj
 0002:0006e930       ___sbh_alloc_new_region    004c2930 f   LIBCMTD:sbheap.obj
 0002:0006ea80       ___sbh_alloc_new_group     004c2a80 f   LIBCMTD:sbheap.obj
 0002:0006ecf0       ___sbh_resize_block        004c2cf0 f   LIBCMTD:sbheap.obj
 0002:0006f430       ___sbh_heapmin             004c3430 f   LIBCMTD:sbheap.obj
 0002:0006f5b0       ___sbh_heap_check          004c35b0 f   LIBCMTD:sbheap.obj
 0002:0006fbd0       __rt_probe_read4@4         004c3bd0 f   LIBCMTD:sehsupp.obj
 0002:0006fc90       __isatty                   004c3c90 f   LIBCMTD:isatty.obj
 0002:0006fdb0       __wctomb_s_l               004c3db0 f   LIBCMTD:wctomb.obj
 0002:00070170       _wctomb_s                  004c4170 f   LIBCMTD:wctomb.obj
 0002:000701a0       __wctomb_l                 004c41a0 f   LIBCMTD:wctomb.obj
 0002:00070240       _wctomb                    004c4240 f   LIBCMTD:wctomb.obj
 0002:000702a0       __aulldiv                  004c42a0 f   LIBCMTD:ulldiv.obj
 0002:00070330       __aullrem                  004c4330 f   LIBCMTD:ullrem.obj
 0002:000703d0       __CrtDbgBreak              004c43d0 f   LIBCMTD:dbgrptt.obj
 0002:000703e0       __CrtSetReportMode         004c43e0 f   LIBCMTD:dbgrptt.obj
 0002:00070570       __CrtSetReportFile         004c4570 f   LIBCMTD:dbgrptt.obj
 0002:000706a0       __CrtSetReportHook         004c46a0 f   LIBCMTD:dbgrptt.obj
 0002:000706d0       __CrtGetReportHook         004c46d0 f   LIBCMTD:dbgrptt.obj
 0002:000706e0       __VCrtDbgReportA           004c46e0 f   LIBCMTD:dbgrptt.obj
 0002:00071110       __VCrtDbgReportW           004c5110 f   LIBCMTD:dbgrptt.obj
 0002:00071c90       __swprintf                 004c5c90 f   LIBCMTD:swprintf.obj
 0002:00071ee0       ___swprintf_l              004c5ee0 f   LIBCMTD:swprintf.obj
 0002:00071f10       _swprintf_s                004c5f10 f   LIBCMTD:swprintf.obj
 0002:00071f50       __snwprintf_s              004c5f50 f   LIBCMTD:swprintf.obj
 0002:00071f90       __swprintf_p               004c5f90 f   LIBCMTD:swprintf.obj
 0002:00071fd0       __swprintf_s_l             004c5fd0 f   LIBCMTD:swprintf.obj
 0002:00072010       __snwprintf_s_l            004c6010 f   LIBCMTD:swprintf.obj
 0002:00072050       __swprintf_p_l             004c6050 f   LIBCMTD:swprintf.obj
 0002:00072090       __scwprintf                004c6090 f   LIBCMTD:swprintf.obj
 0002:000720c0       __scwprintf_p              004c60c0 f   LIBCMTD:swprintf.obj
 0002:000720f0       __scwprintf_l              004c60f0 f   LIBCMTD:swprintf.obj
 0002:00072120       __scwprintf_p_l            004c6120 f   LIBCMTD:swprintf.obj
 0002:00072150       __output_s_l               004c6150 f   LIBCMTD:outputs.obj
 0002:00073c90       __validate_param_reuseA    004c7c90 f   LIBCMTD:outputp.obj
 0002:00073fa0       __output_p_l               004c7fa0 f   LIBCMTD:outputp.obj
 0002:00078aa0       _get_crtdouble_arg         004ccaa0 f i LIBCMTD:outputp.obj
 0002:00078ad0       __lseeki64                 004ccad0 f   LIBCMTD:lseeki64.obj
 0002:00078db0       __lseeki64_nolock          004ccdb0 f   LIBCMTD:lseeki64.obj
 0002:00078ed0       __getbuf                   004cced0 f   LIBCMTD:_getbuf.obj
 0002:00078fc0       ?_JumpToContinuation@@YGXPAXPAUEHRegistrationNode@@@Z 004ccfc0 f   LIBCMTD:trnsctrl.obj
 0002:00079000       ?_CallMemberFunction0@@YGXPAX0@Z 004cd000 f   LIBCMTD:trnsctrl.obj
 0002:00079010       ?_CallMemberFunction1@@YGXPAX00@Z 004cd010 f   LIBCMTD:trnsctrl.obj
 0002:00079020       ?_CallMemberFunction2@@YGXPAX00H@Z 004cd020 f   LIBCMTD:trnsctrl.obj
 0002:00079030       ?_UnwindNestedFrames@@YGXPAUEHRegistrationNode@@PAUEHExceptionRecord@@@Z 004cd030 f   LIBCMTD:trnsctrl.obj
 0002:000790a0       ___CxxFrameHandler         004cd0a0 f   LIBCMTD:trnsctrl.obj
 0002:000790f0       ___CxxFrameHandler3        004cd0f0 f   LIBCMTD:trnsctrl.obj
 0002:00079140       ___CxxFrameHandler2        004cd140 f   LIBCMTD:trnsctrl.obj
 0002:00079190       ___CxxLongjmpUnwind@4      004cd190 f   LIBCMTD:trnsctrl.obj
 0002:000791c0       ?_CallCatchBlock2@@YAPAXPAUEHRegistrationNode@@PBU_s_FuncInfo@@PAXHK@Z 004cd1c0 f   LIBCMTD:trnsctrl.obj
 0002:000792b0       ?_CallSETranslator@@YAHPAUEHExceptionRecord@@PAUEHRegistrationNode@@PAX2PBU_s_FuncInfo@@H1@Z 004cd2b0 f   LIBCMTD:trnsctrl.obj
 0002:000794c0       ?_GetRangeOfTrysToCheck@@YAPBU_s_TryBlockMapEntry@@PBU_s_FuncInfo@@HHPAI1@Z 004cd4c0 f   LIBCMTD:trnsctrl.obj
 0002:00079570       __CreateFrameInfo          004cd570 f   LIBCMTD:trnsctrl.obj
 0002:000795b0       __IsExceptionObjectToBeDestroyed 004cd5b0 f   LIBCMTD:trnsctrl.obj
 0002:000795f0       __FindAndUnlinkFrame       004cd5f0 f   LIBCMTD:trnsctrl.obj
 0002:00079660       __fptrap                   004cd660 f   LIBCMTD:crt0fp.obj
 0002:00079680       ___crtMessageBoxA          004cd680 f   LIBCMTD:crtmbox.obj
 0002:000799c0       _strncpy_s                 004cd9c0 f   LIBCMTD:strncpy_s.obj
 0002:00079eb0       ___crtGetStringTypeA       004cdeb0 f   LIBCMTD:a_str.obj
 0002:0007a1e0       ___crtGetLocaleInfoW       004ce1e0 f   LIBCMTD:w_loc.obj
 0002:0007a420       ___crtGetLocaleInfoA       004ce420 f   LIBCMTD:a_loc.obj
 0002:0007a670       __alloc_osfhnd             004ce670 f   LIBCMTD:osfinfo.obj
 0002:0007a9d0       __set_osfhnd               004ce9d0 f   LIBCMTD:osfinfo.obj
 0002:0007aad0       __free_osfhnd              004cead0 f   LIBCMTD:osfinfo.obj
 0002:0007abf0       __get_osfhandle            004cebf0 f   LIBCMTD:osfinfo.obj
 0002:0007adb0       __open_osfhandle           004cedb0 f   LIBCMTD:osfinfo.obj
 0002:0007b060       ___lock_fhandle            004cf060 f   LIBCMTD:osfinfo.obj
 0002:0007b1a0       __unlock_fhandle           004cf1a0 f   LIBCMTD:osfinfo.obj
 0002:0007b1d0       __open                     004cf1d0 f   LIBCMTD:open.obj
 0002:0007b3b0       __sopen_helper             004cf3b0 f   LIBCMTD:open.obj
 0002:0007caf0       __sopen                    004d0af0 f   LIBCMTD:open.obj
 0002:0007cb80       __sopen_s                  004d0b80 f   LIBCMTD:open.obj
 0002:0007cbb0       __mbsicmp_l                004d0bb0 f   LIBCMTD:mbsicmp.obj
 0002:0007d090       __mbsicmp                  004d1090 f   LIBCMTD:mbsicmp.obj
 0002:0007d0b0       __mbsnbcmp_l               004d10b0 f   LIBCMTD:mbsnbcmp.obj
 0002:0007d440       __mbsnbcmp                 004d1440 f   LIBCMTD:mbsnbcmp.obj
 0002:0007d470       __woutput_l                004d1470 f   LIBCMTD:woutput.obj
 0002:0007eab0       _vfwprintf_helper          004d2ab0 f   LIBCMTD:vfwprint.obj
 0002:0007ec90       __vfwprintf_l              004d2c90 f   LIBCMTD:vfwprint.obj
 0002:0007ecc0       __vfwprintf_s_l            004d2cc0 f   LIBCMTD:vfwprint.obj
 0002:0007ecf0       __vfwprintf_p_l            004d2cf0 f   LIBCMTD:vfwprint.obj
 0002:0007ed20       _vfwprintf                 004d2d20 f   LIBCMTD:vfwprint.obj
 0002:0007ed50       _vfwprintf_s               004d2d50 f   LIBCMTD:vfwprint.obj
 0002:0007ed80       __vfwprintf_p              004d2d80 f   LIBCMTD:vfwprint.obj
 0002:0007edb0       __itoa_s                   004d2db0 f   LIBCMTD:xtoas.obj
 0002:0007f260       __ltoa_s                   004d3260 f   LIBCMTD:xtoas.obj
 0002:0007f2b0       __ultoa_s                  004d32b0 f   LIBCMTD:xtoas.obj
 0002:0007f2e0       __i64toa_s                 004d32e0 f   LIBCMTD:xtoas.obj
 0002:0007f7e0       __ui64toa_s                004d37e0 f   LIBCMTD:xtoas.obj
 0002:0007f810       __mbsnbcat_s               004d3810 f   LIBCMTD:mbsnbcat_s.obj
 0002:0007f840       __mbsnbcpy_s               004d3840 f   LIBCMTD:mbsnbcpy_s.obj
 0002:0007f870       _fprintf                   004d3870 f   LIBCMTD:fprintf.obj
 0002:0007fc10       __fprintf_l                004d3c10 f   LIBCMTD:fprintf.obj
 0002:0007fc40       __fprintf_s_l              004d3c40 f   LIBCMTD:fprintf.obj
 0002:0007fc70       _fprintf_s                 004d3c70 f   LIBCMTD:fprintf.obj
 0002:0007fca0       __fprintf_p_l              004d3ca0 f   LIBCMTD:fprintf.obj
 0002:0007fcd0       __fprintf_p                004d3cd0 f   LIBCMTD:fprintf.obj
 0002:0007fd00       __woutput_s_l              004d3d00 f   LIBCMTD:woutputs.obj
 0002:000814f0       __validate_param_reuseW    004d54f0 f   LIBCMTD:woutputp.obj
 0002:000817f0       __woutput_p_l              004d57f0 f   LIBCMTD:woutputp.obj
 0002:00085d20       __putwch                   004d9d20 f   LIBCMTD:putwch.obj
 0002:00085dd0       __putwch_nolock            004d9dd0 f   LIBCMTD:putwch.obj
 0002:00085f10       __cputws                   004d9f10 f   LIBCMTD:putwch.obj
 0002:000860a0       __mbtowc_l                 004da0a0 f   LIBCMTD:mbtowc.obj
 0002:00086340       _mbtowc                    004da340 f   LIBCMTD:mbtowc.obj
 0002:00086370       __read                     004da370 f   LIBCMTD:read.obj
 0002:000866b0       __read_nolock              004da6b0 f   LIBCMTD:read.obj
 0002:000879c0       __get_sse2_info            004db9c0 f   LIBCMTD:cpu_disp.obj
 0002:00087b30       ___sse2_available_init     004dbb30 f   LIBCMTD:cpu_disp.obj
 0002:00087b50       ___ansicp                  004dbb50 f   LIBCMTD:convrtcp.obj
 0002:00087bc0       ___convertcp               004dbbc0 f   LIBCMTD:convrtcp.obj
 0002:00087e90       __iswctype_l               004dbe90 f   LIBCMTD:iswctype.obj
 0002:00087f60       _iswctype                  004dbf60 f   LIBCMTD:iswctype.obj
 0002:00088010       _is_wctype                 004dc010 f   LIBCMTD:iswctype.obj
 0002:00088030       ___pwctype_func            004dc030 f   LIBCMTD:ctype.obj
 0002:00088040       ___pctype_func             004dc040 f   LIBCMTD:ctype.obj
 0002:000880a0       ___init_time               004dc0a0 f   LIBCMTD:inittime.obj
 0002:00088980       ___free_lc_time            004dc980 f   LIBCMTD:inittime.obj
 0002:00088d50       ___init_numeric            004dcd50 f   LIBCMTD:initnum.obj
 0002:00089180       ___free_lconv_num          004dd180 f   LIBCMTD:initnum.obj
 0002:00089210       ___init_monetary           004dd210 f   LIBCMTD:initmon.obj
 0002:00089850       ___free_lconv_mon          004dd850 f   LIBCMTD:initmon.obj
 0002:00089980       ___init_ctype              004dd980 f   LIBCMTD:initctyp.obj
 0002:0008a090       ____mb_cur_max_func        004de090 f   LIBCMTD:initctyp.obj
 0002:0008a0f0       ____mb_cur_max_l_func      004de0f0 f   LIBCMTD:initctyp.obj
 0002:0008a130       ____lc_codepage_func       004de130 f   LIBCMTD:initctyp.obj
 0002:0008a190       ____lc_collate_cp_func     004de190 f   LIBCMTD:initctyp.obj
 0002:0008a1f0       ____lc_handle_func         004de1f0 f   LIBCMTD:initctyp.obj
 0002:0008a250       ___init_collate            004de250 f   LIBCMTD:initcoll.obj
 0002:0008a260       __Getdays_l                004de260 f   LIBCMTD:strftime.obj
 0002:0008a490       __Getdays                  004de490 f   LIBCMTD:strftime.obj
 0002:0008a4b0       __Getmonths_l              004de4b0 f   LIBCMTD:strftime.obj
 0002:0008a6e0       __Getmonths                004de6e0 f   LIBCMTD:strftime.obj
 0002:0008a700       __Gettnames_l              004de700 f   LIBCMTD:strftime.obj
 0002:0008adc0       __Gettnames                004dedc0 f   LIBCMTD:strftime.obj
 0002:0008ade0       __strftime_l               004dede0 f   LIBCMTD:strftime.obj
 0002:0008ae10       _strftime                  004dee10 f   LIBCMTD:strftime.obj
 0002:0008ae40       __Strftime                 004dee40 f   LIBCMTD:strftime.obj
 0002:0008ae70       __Strftime_l               004dee70 f   LIBCMTD:strftime.obj
 0002:0008d3b0       _localeconv                004e13b0 f   LIBCMTD:lconv.obj
 0002:0008d410       _strcspn                   004e1410 f   LIBCMTD:strcspn.obj
 0002:0008d470       _strpbrk                   004e1470 f   LIBCMTD:strpbrk.obj
 0002:0008d4c0       ___get_qualified_locale    004e14c0 f   LIBCMTD:getqloc.obj
 0002:0008e6b0       __allshl                   004e26b0 f   LIBCMTD:llshl.obj
 0002:0008e6e0       _ungetc                    004e26e0 f   LIBCMTD:ungetc.obj
 0002:0008e800       __ungetc_nolock            004e2800 f   LIBCMTD:ungetc.obj
 0002:0008eb00       __ismbbkalnum_l            004e2b00 f   LIBCMTD:ismbbyte.obj
 0002:0008eb20       __ismbbkalnum              004e2b20 f   LIBCMTD:ismbbyte.obj
 0002:0008eb40       __ismbbkprint_l            004e2b40 f   LIBCMTD:ismbbyte.obj
 0002:0008eb60       __ismbbkprint              004e2b60 f   LIBCMTD:ismbbyte.obj
 0002:0008eb80       __ismbbkpunct_l            004e2b80 f   LIBCMTD:ismbbyte.obj
 0002:0008eba0       __ismbbkpunct              004e2ba0 f   LIBCMTD:ismbbyte.obj
 0002:0008ebc0       __ismbbalnum_l             004e2bc0 f   LIBCMTD:ismbbyte.obj
 0002:0008ebf0       __ismbbalnum               004e2bf0 f   LIBCMTD:ismbbyte.obj
 0002:0008ec10       __ismbbalpha_l             004e2c10 f   LIBCMTD:ismbbyte.obj
 0002:0008ec40       __ismbbalpha               004e2c40 f   LIBCMTD:ismbbyte.obj
 0002:0008ec60       __ismbbgraph_l             004e2c60 f   LIBCMTD:ismbbyte.obj
 0002:0008ec90       __ismbbgraph               004e2c90 f   LIBCMTD:ismbbyte.obj
 0002:0008ecb0       __ismbbprint_l             004e2cb0 f   LIBCMTD:ismbbyte.obj
 0002:0008ece0       __ismbbprint               004e2ce0 f   LIBCMTD:ismbbyte.obj
 0002:0008ed00       __ismbbpunct_l             004e2d00 f   LIBCMTD:ismbbyte.obj
 0002:0008ed20       __ismbbpunct               004e2d20 f   LIBCMTD:ismbbyte.obj
 0002:0008ed40       __ismbblead_l              004e2d40 f   LIBCMTD:ismbbyte.obj
 0002:0008ed60       __ismbblead                004e2d60 f   LIBCMTD:ismbbyte.obj
 0002:0008ed80       __ismbbtrail_l             004e2d80 f   LIBCMTD:ismbbyte.obj
 0002:0008eda0       __ismbbtrail               004e2da0 f   LIBCMTD:ismbbyte.obj
 0002:0008edc0       __ismbbkana_l              004e2dc0 f   LIBCMTD:ismbbyte.obj
 0002:0008ee50       __ismbbkana                004e2e50 f   LIBCMTD:ismbbyte.obj
 0002:0008ef60       _DebuggerKnownHandle       004e2f60 f   LIBCMTD:error.obj
 0002:0008f030       ?_RTC_Failure@@YAXPAXH@Z   004e3030 f   LIBCMTD:error.obj
 0002:0008f430       ?_RTC_StackFailure@@YAXPAXPBD@Z 004e3430 f   LIBCMTD:error.obj
 0002:0008f5a0       ?_RTC_AllocaFailure@@YAXPAXPAU_RTC_ALLOCA_NODE@@H@Z 004e35a0 f   LIBCMTD:error.obj
 0002:0008f7b0       __RTC_UninitUse            004e37b0 f   LIBCMTD:error.obj
 0002:0008f900       __mbstowcs_l_helper        004e3900 f   LIBCMTD:mbstowcs.obj
 0002:0008fda0       __mbstowcs_l               004e3da0 f   LIBCMTD:mbstowcs.obj
 0002:0008fdd0       _mbstowcs                  004e3dd0 f   LIBCMTD:mbstowcs.obj
 0002:0008fe30       __mbstowcs_s_l             004e3e30 f   LIBCMTD:mbstowcs.obj
 0002:000901f0       _mbstowcs_s                004e41f0 f   LIBCMTD:mbstowcs.obj
 0002:00090220       __vswprintf_l              004e4220 f   LIBCMTD:vswprint.obj
 0002:00090460       __vswprintf                004e4460 f   LIBCMTD:vswprint.obj
 0002:00090490       ___vswprintf_l             004e4490 f   LIBCMTD:vswprint.obj
 0002:000904c0       __vscwprintf_helper        004e44c0 f   LIBCMTD:vswprint.obj
 0002:000905b0       __vscwprintf               004e45b0 f   LIBCMTD:vswprint.obj
 0002:000905e0       __vscwprintf_l             004e45e0 f   LIBCMTD:vswprint.obj
 0002:00090610       __vscwprintf_p             004e4610 f   LIBCMTD:vswprint.obj
 0002:00090640       __vscwprintf_p_l           004e4640 f   LIBCMTD:vswprint.obj
 0002:00090670       ___InternalCxxFrameHandler 004e4670 f   LIBCMTD:frame.obj
 0002:00090de0       ??0bad_exception@std@@QAE@PBD@Z 004e4de0 f i LIBCMTD:frame.obj
 0002:00090e10       ??1bad_exception@std@@UAE@XZ 004e4e10 f i LIBCMTD:frame.obj
 0002:00090e40       ??_Gbad_exception@std@@UAEPAXI@Z 004e4e40 f i LIBCMTD:frame.obj
 0002:00090e40       ??_Ebad_exception@std@@UAEPAXI@Z 004e4e40 f i LIBCMTD:frame.obj
 0002:00090e80       ??0bad_exception@std@@QAE@ABV01@@Z 004e4e80 f i LIBCMTD:frame.obj
 0002:00091090       ___TypeMatch               004e5090 f   LIBCMTD:frame.obj
 0002:00091170       ___FrameUnwindFilter       004e5170 f   LIBCMTD:frame.obj
 0002:00091200       ___FrameUnwindToState      004e5200 f   LIBCMTD:frame.obj
 0002:00091890       ___BuildCatchObjectHelper  004e5890 f   LIBCMTD:frame.obj
 0002:00091ba0       ___BuildCatchObject        004e5ba0 f   LIBCMTD:frame.obj
 0002:00091cf0       ___DestructExceptionObject 004e5cf0 f   LIBCMTD:frame.obj
 0002:00091dd0       ___AdjustPointer           004e5dd0 f   LIBCMTD:frame.obj
 0002:00091e30       ?__uncaught_exception@@YA_NXZ 004e5e30 f   LIBCMTD:frame.obj
 0002:00091e50       ___CxxExceptionFilter      004e5e50 f   LIBCMTD:frame.obj
 0002:000920b0       ___CxxRegisterExceptionObject 004e60b0 f   LIBCMTD:frame.obj
 0002:00092230       ___CxxDetectRethrow        004e6230 f   LIBCMTD:frame.obj
 0002:000922d0       ___CxxUnregisterExceptionObject 004e62d0 f   LIBCMTD:frame.obj
 0002:000924b0       ___CxxQueryExceptionSize   004e64b0 f   LIBCMTD:frame.obj
 0002:000924c0       ___CxxCallUnwindDtor       004e64c0 f   LIBCMTD:frame.obj
 0002:00092550       ___CxxCallUnwindDelDtor    004e6550 f   LIBCMTD:frame.obj
 0002:000925f0       ___CxxCallUnwindStdDelDtor 004e65f0 f   LIBCMTD:frame.obj
 0002:00092680       ___CxxCallUnwindVecDtor    004e6680 f   LIBCMTD:frame.obj
 0002:00092920       ?_is_exception_typeof@@YAHABVtype_info@@PAU_EXCEPTION_POINTERS@@@Z 004e6920 f   LIBCMTD:frame.obj
 0002:00092a30       __CallSettingFrame@12      004e6a30 f   LIBCMTD:lowhelpr.obj
 0002:00092a57       __NLG_Return               004e6a57     LIBCMTD:lowhelpr.obj
 0002:00092a90       __chsize_s                 004e6a90 f   LIBCMTD:chsize.obj
 0002:00092dd0       __chsize_nolock            004e6dd0 f   LIBCMTD:chsize.obj
 0002:00093100       __chsize                   004e7100 f   LIBCMTD:chsize.obj
 0002:00093130       __lseek                    004e7130 f   LIBCMTD:lseek.obj
 0002:000933e0       __lseek_nolock             004e73e0 f   LIBCMTD:lseek.obj
 0002:000934f0       __setmode                  004e74f0 f   LIBCMTD:setmode.obj
 0002:00093820       __setmode_nolock           004e7820 f   LIBCMTD:setmode.obj
 0002:00093b20       __set_fmode                004e7b20 f   LIBCMTD:setmode.obj
 0002:00093c00       __get_fmode                004e7c00 f   LIBCMTD:setmode.obj
 0002:00093ca0       __stricmp_l                004e7ca0 f   LIBCMTD:stricmp.obj
 0002:00093eb0       ___ascii_stricmp           004e7eb0 f   LIBCMTD:stricmp.obj
 0002:00093f40       __stricmp                  004e7f40 f   LIBCMTD:stricmp.obj
 0002:00094090       _fputwc                    004e8090 f   LIBCMTD:fputwc.obj
 0002:000941c0       __fputwc_nolock            004e81c0 f   LIBCMTD:fputwc.obj
 0002:00094690       _putwc                     004e8690 f   LIBCMTD:fputwc.obj
 0002:000946b0       __mbsnbcat_s_l             004e86b0 f   LIBCMTD:mbsnbcat_s_l.obj
 0002:00095090       __mbsnbcpy_s_l             004e9090 f   LIBCMTD:mbsnbcpy_s_l.obj
 0002:000958a0       _vfprintf_helper           004e98a0 f   LIBCMTD:vfprintf.obj
 0002:00095c40       __vfprintf_l               004e9c40 f   LIBCMTD:vfprintf.obj
 0002:00095c70       __vfprintf_s_l             004e9c70 f   LIBCMTD:vfprintf.obj
 0002:00095ca0       __vfprintf_p_l             004e9ca0 f   LIBCMTD:vfprintf.obj
 0002:00095cd0       _vfprintf                  004e9cd0 f   LIBCMTD:vfprintf.obj
 0002:00095d00       _vfprintf_s                004e9d00 f   LIBCMTD:vfprintf.obj
 0002:00095d30       __vfprintf_p               004e9d30 f   LIBCMTD:vfprintf.obj
 0002:00095d60       _wcstol                    004e9d60 f   LIBCMTD:wcstol.obj
 0002:00096300       __wcstol_l                 004ea300 f   LIBCMTD:wcstol.obj
 0002:00096330       _wcstoul                   004ea330 f   LIBCMTD:wcstol.obj
 0002:00096390       __wcstoul_l                004ea390 f   LIBCMTD:wcstol.obj
 0002:000963c0       ___initconin               004ea3c0 f   LIBCMTD:initcon.obj
 0002:000963f0       ___initconout              004ea3f0 f   LIBCMTD:initcon.obj
 0002:00096420       ___termcon                 004ea420 f   LIBCMTD:initcon.obj
 0002:00096480       ___crtGetStringTypeW       004ea480 f   LIBCMTD:w_str.obj
 0002:00096840       __get_daylight             004ea840 f   LIBCMTD:timeset.obj
 0002:000968e0       __get_dstbias              004ea8e0 f   LIBCMTD:timeset.obj
 0002:00096980       __get_timezone             004ea980 f   LIBCMTD:timeset.obj
 0002:00096a20       __get_tzname               004eaa20 f   LIBCMTD:timeset.obj
 0002:00096c70       ___daylight                004eac70 f   LIBCMTD:timeset.obj
 0002:00096c80       ___dstbias                 004eac80 f   LIBCMTD:timeset.obj
 0002:00096c90       ___timezone                004eac90 f   LIBCMTD:timeset.obj
 0002:00096ca0       ___tzname                  004eaca0 f   LIBCMTD:timeset.obj
 0002:00096cb0       ___tzset                   004eacb0 f   LIBCMTD:tzset.obj
 0002:00096d70       __tzset                    004ead70 f   LIBCMTD:tzset.obj
 0002:00097480       __set_daylight             004eb480 f i LIBCMTD:tzset.obj
 0002:000974a0       __set_dstbias              004eb4a0 f i LIBCMTD:tzset.obj
 0002:000974c0       __set_timezone             004eb4c0 f i LIBCMTD:tzset.obj
 0002:000974e0       __isindst                  004eb4e0 f   LIBCMTD:tzset.obj
 0002:00097cd0       ?_RTC_GetSrcLine@@YAHPAEPA_WKPAH1K@Z 004ebcd0 f   LIBCMTD:pdblkup.obj
 0002:00098280       __RTC_NumErrors            004ec280 f   LIBCMTD:userapi.obj
 0002:00098290       __RTC_GetErrDesc           004ec290 f   LIBCMTD:userapi.obj
 0002:000982b0       __RTC_SetErrorType         004ec2b0 f   LIBCMTD:userapi.obj
 0002:000982e0       __RTC_SetErrorFunc         004ec2e0 f   LIBCMTD:userapi.obj
 0002:00098310       __RTC_SetErrorFuncW        004ec310 f   LIBCMTD:userapi.obj
 0002:00098340       ?_RTC_GetErrorFunc@@YAP6AHHPBDH00ZZPBX@Z 004ec340 f   LIBCMTD:userapi.obj
 0002:00098350       ?_RTC_GetErrorFuncW@@YAP6AHHPB_WH00ZZPBX@Z 004ec350 f   LIBCMTD:userapi.obj
 0002:00098360       ?_ValidateRead@@YAHPBXI@Z  004ec360 f   LIBCMTD:validate.obj
 0002:00098390       ?_ValidateWrite@@YAHPAXI@Z 004ec390 f   LIBCMTD:validate.obj
 0002:000983c0       ?_ValidateExecute@@YAHP6GHXZ@Z 004ec3c0 f   LIBCMTD:validate.obj
 0002:000983f0       __CxxThrowException@8      004ec3f0 f   LIBCMTD:throw.obj
 0002:00098460       ?name@type_info@@QBEPBDPAU__type_info_node@@@Z 004ec460 f   LIBCMTD:typinfo.obj
 0002:00098490       ??1type_info@@UAE@XZ       004ec490 f   LIBCMTD:typinfo.obj
 0002:000984c0       ??_Gtype_info@@UAEPAXI@Z   004ec4c0 f i LIBCMTD:typinfo.obj
 0002:000984c0       ??_Etype_info@@UAEPAXI@Z   004ec4c0 f i LIBCMTD:typinfo.obj
 0002:00098500       ?_name_internal_method@type_info@@QBEPBDPAU__type_info_node@@@Z 004ec500 f   LIBCMTD:typinfo.obj
 0002:00098530       ?_type_info_dtor_internal_method@type_info@@QAEXXZ 004ec530 f   LIBCMTD:typinfo.obj
 0002:00098550       ??8type_info@@QBE_NABV0@@Z 004ec550 f   LIBCMTD:typinfo.obj
 0002:00098590       ??9type_info@@QBE_NABV0@@Z 004ec590 f   LIBCMTD:typinfo.obj
 0002:000985d0       ?before@type_info@@QBEHABV1@@Z 004ec5d0 f   LIBCMTD:typinfo.obj
 0002:00098610       ?raw_name@type_info@@QBEPBDXZ 004ec610 f   LIBCMTD:typinfo.obj
 0002:00098630       ??0type_info@@AAE@ABV0@@Z  004ec630 f   LIBCMTD:typinfo.obj
 0002:00098650       ??4type_info@@AAEAAV0@ABV0@@Z 004ec650 f   LIBCMTD:typinfo.obj
 0002:00098670       ??0exception@std@@QAE@XZ   004ec670 f   LIBCMTD:stdexcpt.obj
 0002:000986b0       ??_Gexception@std@@UAEPAXI@Z 004ec6b0 f i LIBCMTD:stdexcpt.obj
 0002:000986b0       ??_Eexception@std@@UAEPAXI@Z 004ec6b0 f i LIBCMTD:stdexcpt.obj
 0002:000986f0       ??0exception@std@@QAE@ABQBD@Z 004ec6f0 f   LIBCMTD:stdexcpt.obj
 0002:000987a0       ??0exception@std@@QAE@ABQBDH@Z 004ec7a0 f   LIBCMTD:stdexcpt.obj
 0002:000987e0       ??0exception@std@@QAE@ABV01@@Z 004ec7e0 f   LIBCMTD:stdexcpt.obj
 0002:000988b0       ??4exception@std@@QAEAAV01@ABV01@@Z 004ec8b0 f   LIBCMTD:stdexcpt.obj
 0002:00098980       ??1exception@std@@UAE@XZ   004ec980 f   LIBCMTD:stdexcpt.obj
 0002:000989c0       ?what@exception@std@@UBEPBDXZ 004ec9c0 f   LIBCMTD:stdexcpt.obj
 0002:000989f0       ??0bad_cast@std@@QAE@PBD@Z 004ec9f0 f   LIBCMTD:stdexcpt.obj
 0002:00098a20       ??_Ebad_cast@std@@UAEPAXI@Z 004eca20 f i LIBCMTD:stdexcpt.obj
 0002:00098a20       ??_Gbad_cast@std@@UAEPAXI@Z 004eca20 f i LIBCMTD:stdexcpt.obj
 0002:00098a60       ??0bad_cast@std@@QAE@ABV01@@Z 004eca60 f   LIBCMTD:stdexcpt.obj
 0002:00098a90       ??1bad_cast@std@@UAE@XZ    004eca90 f   LIBCMTD:stdexcpt.obj
 0002:00098ac0       ??0bad_typeid@std@@QAE@PBD@Z 004ecac0 f   LIBCMTD:stdexcpt.obj
 0002:00098af0       ??_Gbad_typeid@std@@UAEPAXI@Z 004ecaf0 f i LIBCMTD:stdexcpt.obj
 0002:00098af0       ??_Ebad_typeid@std@@UAEPAXI@Z 004ecaf0 f i LIBCMTD:stdexcpt.obj
 0002:00098b30       ??0bad_typeid@std@@QAE@ABV01@@Z 004ecb30 f   LIBCMTD:stdexcpt.obj
 0002:00098b60       ??1bad_typeid@std@@UAE@XZ  004ecb60 f   LIBCMTD:stdexcpt.obj
 0002:00098b90       ??0__non_rtti_object@std@@QAE@PBD@Z 004ecb90 f   LIBCMTD:stdexcpt.obj
 0002:00098bc0       ??_E__non_rtti_object@std@@UAEPAXI@Z 004ecbc0 f i LIBCMTD:stdexcpt.obj
 0002:00098bc0       ??_G__non_rtti_object@std@@UAEPAXI@Z 004ecbc0 f i LIBCMTD:stdexcpt.obj
 0002:00098c00       ??0__non_rtti_object@std@@QAE@ABV01@@Z 004ecc00 f   LIBCMTD:stdexcpt.obj
 0002:00098c30       ??1__non_rtti_object@std@@UAE@XZ 004ecc30 f   LIBCMTD:stdexcpt.obj
 0002:00098c60       ??3@YAXPAX@Z               004ecc60 f   LIBCMTD:dbgdel.obj
 0002:00098d80       __flswbuf                  004ecd80 f   LIBCMTD:_flswbuf.obj
 0002:00099110       _strncat_s                 004ed110 f   LIBCMTD:strncat_s.obj
 0002:000996d0       __wchartodigit             004ed6d0 f   LIBCMTD:wchtodig.obj
 0002:00099ac0       _getenv                    004edac0 f   LIBCMTD:getenv.obj
 0002:00099c70       __getenv_helper_nolock     004edc70 f   LIBCMTD:getenv.obj
 0002:00099dd0       _getenv_s                  004eddd0 f   LIBCMTD:getenv.obj
 0002:0009a080       __dupenv_s                 004ee080 f   LIBCMTD:getenv.obj
 0002:0009a0b0       __dupenv_s_dbg             004ee0b0 f   LIBCMTD:getenv.obj
 0002:0009a390       ?_Type_info_dtor@type_info@@CAXPAV1@@Z 004ee390 f   LIBCMTD:typname.obj
 0002:0009a4e0       ?_Name_base@type_info@@CAPBDPBV1@PAU__type_info_node@@@Z 004ee4e0 f   LIBCMTD:typname.obj
 0002:0009a6f0       ?_Type_info_dtor_internal@type_info@@CAXPAV1@@Z 004ee6f0 f   LIBCMTD:typname.obj
 0002:0009a840       ___unDNameHelper           004ee840 f   LIBCMTD:typname.obj
 0002:0009a890       ?_Name_base_internal@type_info@@CAPBDPBV1@PAU__type_info_node@@@Z 004ee890 f   LIBCMTD:typname.obj
 0002:0009aa90       ___clean_type_info_names_internal 004eea90 f   LIBCMTD:typname.obj
 0002:0009ab70       _strnlen                   004eeb70 f   LIBCMTD:strlen_s.obj
 0002:0009abc0       __mbsnbicoll_l             004eebc0 f   LIBCMTD:mbsnbico.obj
 0002:0009ae90       __mbsnbicoll               004eee90 f   LIBCMTD:mbsnbico.obj
 0002:0009aec0       ___wtomb_environ           004eeec0 f   LIBCMTD:wtombenv.obj
 0002:0009afe0       ___unDName                 004eefe0 f   LIBCMTD:undname.obj
 0002:0009b0f0       ?Constructor@HeapManager@@QAEXP6APAXI@ZP6AXPAX@Z@Z 004ef0f0 f i LIBCMTD:undname.obj
 0002:0009b140       ?Destructor@HeapManager@@QAEXXZ 004ef140 f i LIBCMTD:undname.obj
 0002:0009b1a0       ___unDNameEx               004ef1a0 f   LIBCMTD:undname.obj
 0002:0009b2b0       ??0UnDecorator@@QAE@PADPBDHP6APADJ@ZK@Z 004ef2b0 f i LIBCMTD:undname.obj
 0002:0009b370       ??BUnDecorator@@QAEPADXZ   004ef370 f i LIBCMTD:undname.obj
 0002:0009b630       ?dbGetString@DName@@QBEPADXZ 004ef630 f   LIBCMTD:undname.obj
 0002:0009b660       ?getDecoratedName@UnDecorator@@CA?AVDName@@XZ 004ef660 f   LIBCMTD:undname.obj
 0002:0009ba30       ?getSymbolName@UnDecorator@@CA?AVDName@@XZ 004efa30 f i LIBCMTD:undname.obj
 0002:0009bac0       ?getZName@UnDecorator@@CA?AVDName@@_N@Z 004efac0 f   LIBCMTD:undname.obj
 0002:0009bdc0       ?getOperatorName@UnDecorator@@CA?AVDName@@_NPA_N@Z 004efdc0 f i LIBCMTD:undname.obj
 0002:0009c920       ?getStringEncoding@UnDecorator@@CA?AVDName@@PADH@Z 004f0920 f   LIBCMTD:undname.obj
 0002:0009ca60       ?getScope@UnDecorator@@CA?AVDName@@XZ 004f0a60 f   LIBCMTD:undname.obj
 0002:0009cf30       ?getSignedDimension@UnDecorator@@CA?AVDName@@XZ 004f0f30 f   LIBCMTD:undname.obj
 0002:0009cfd0       ?getDimension@UnDecorator@@CA?AVDName@@_N@Z 004f0fd0 f   LIBCMTD:undname.obj
 0002:0009d330       ?getNumberOfDimensions@UnDecorator@@CAHXZ 004f1330 f   LIBCMTD:undname.obj
 0002:0009d470       ?getTemplateName@UnDecorator@@CA?AVDName@@_N@Z 004f1470 f   LIBCMTD:undname.obj
 0002:0009d6d0       ?getTemplateArgumentList@UnDecorator@@CA?AVDName@@XZ 004f16d0 f   LIBCMTD:undname.obj
 0002:0009d9f0       ?getTemplateConstant@UnDecorator@@CA?AVDName@@XZ 004f19f0 f   LIBCMTD:undname.obj
 0002:0009dfa0       ?composeDeclaration@UnDecorator@@CA?AVDName@@ABV2@@Z 004f1fa0 f i LIBCMTD:undname.obj
 0002:0009fb10       ?getTypeEncoding@UnDecorator@@CAHXZ 004f3b10 f i LIBCMTD:undname.obj
 0002:000a0700       ?getBasedType@UnDecorator@@CA?AVDName@@XZ 004f4700 f   LIBCMTD:undname.obj
 0002:000a07f0       ?getScopedName@UnDecorator@@CA?AVDName@@XZ 004f47f0 f   LIBCMTD:undname.obj
 0002:000a0950       ?getCallingConvention@UnDecorator@@CA?AVDName@@XZ 004f4950 f   LIBCMTD:undname.obj
 0002:000a0b00       ?getReturnType@UnDecorator@@CA?AVDName@@PAV2@@Z 004f4b00 f   LIBCMTD:undname.obj
 0002:000a0b60       ?getDataType@UnDecorator@@CA?AVDName@@PAV2@@Z 004f4b60 f   LIBCMTD:undname.obj
 0002:000a0cb0       ?getPrimaryDataType@UnDecorator@@CA?AVDName@@ABV2@@Z 004f4cb0 f   LIBCMTD:undname.obj
 0002:000a1000       ?getArgumentTypes@UnDecorator@@CA?AVDName@@XZ 004f5000 f   LIBCMTD:undname.obj
 0002:000a11b0       ?getArgumentList@UnDecorator@@CA?AVDName@@XZ 004f51b0 f   LIBCMTD:undname.obj
 0002:000a1330       ?getThrowTypes@UnDecorator@@CA?AVDName@@XZ 004f5330 f   LIBCMTD:undname.obj
 0002:000a1400       ?getBasicDataType@UnDecorator@@CA?AVDName@@ABV2@@Z 004f5400 f   LIBCMTD:undname.obj
 0002:000a1ac0       ?getECSUDataType@UnDecorator@@CA?AVDName@@XZ 004f5ac0 f   LIBCMTD:undname.obj
 0002:000a1d00       ?getECSUName@UnDecorator@@CA?AVDName@@XZ 004f5d00 f i LIBCMTD:undname.obj
 0002:000a1d20       ?getEnumType@UnDecorator@@CA?AVDName@@XZ 004f5d20 f i LIBCMTD:undname.obj
 0002:000a1ec0       ?getFunctionIndirectType@UnDecorator@@CA?AVDName@@ABV2@@Z 004f5ec0 f   LIBCMTD:undname.obj
 0002:000a2410       ?getPtrRefType@UnDecorator@@CA?AVDName@@ABV2@0D@Z 004f6410 f   LIBCMTD:undname.obj
 0002:000a25c0       ?getExtendedDataIndirectType@UnDecorator@@CA?AVDName@@AADAA_NH@Z 004f65c0 f   LIBCMTD:undname.obj
 0002:000a27c0       ?getDataIndirectType@UnDecorator@@CA?AVDName@@ABV2@D0H@Z 004f67c0 f   LIBCMTD:undname.obj
 0002:000a3070       ?getPtrRefDataType@UnDecorator@@CA?AVDName@@ABV2@H@Z 004f7070 f i LIBCMTD:undname.obj
 0002:000a3200       ?getArrayType@UnDecorator@@CA?AVDName@@ABV2@@Z 004f7200 f i LIBCMTD:undname.obj
 0002:000a34a0       ?getLexicalFrame@UnDecorator@@CA?AVDName@@XZ 004f74a0 f i LIBCMTD:undname.obj
 0002:000a34f0       ?getThisType@UnDecorator@@CA?AVDName@@XZ 004f74f0 f i LIBCMTD:undname.obj
 0002:000a3530       ?getPointerType@UnDecorator@@CA?AVDName@@ABV2@0@Z 004f7530 f i LIBCMTD:undname.obj
 0002:000a3560       ?getPointerTypeArray@UnDecorator@@CA?AVDName@@ABV2@0@Z 004f7560 f i LIBCMTD:undname.obj
 0002:000a3590       ?getReferenceType@UnDecorator@@CA?AVDName@@ABV2@0@Z 004f7590 f i LIBCMTD:undname.obj
 0002:000a35c0       ?getDisplacement@UnDecorator@@CA?AVDName@@XZ 004f75c0 f i LIBCMTD:undname.obj
 0002:000a35e0       ?getCallIndex@UnDecorator@@CA?AVDName@@XZ 004f75e0 f i LIBCMTD:undname.obj
 0002:000a3600       ?getGuardNumber@UnDecorator@@CA?AVDName@@XZ 004f7600 f i LIBCMTD:undname.obj
 0002:000a3620       ?getVbTableType@UnDecorator@@CA?AVDName@@ABV2@@Z 004f7620 f i LIBCMTD:undname.obj
 0002:000a3640       ?getVCallThunkType@UnDecorator@@CA?AVDName@@XZ 004f7640 f i LIBCMTD:undname.obj
 0002:000a36c0       ?getVfTableType@UnDecorator@@CA?AVDName@@ABV2@@Z 004f76c0 f i LIBCMTD:undname.obj
 0002:000a38f0       ?getStorageConvention@UnDecorator@@CA?AVDName@@XZ 004f78f0 f i LIBCMTD:undname.obj
 0002:000a3910       ?getDataIndirectType@UnDecorator@@CA?AVDName@@XZ 004f7910 f i LIBCMTD:undname.obj
 0002:000a3950       ?getVdispMapType@UnDecorator@@CA?AVDName@@ABV2@@Z 004f7950 f i LIBCMTD:undname.obj
 0002:000a39e0       ?getExternalDataType@UnDecorator@@CA?AVDName@@ABV2@@Z 004f79e0 f i LIBCMTD:undname.obj
 0002:000a3aa0       ?doMSKeywords@UnDecorator@@SAHXZ 004f7aa0 f i LIBCMTD:undname.obj
 0002:000a3ac0       ?doPtr64@UnDecorator@@SAHXZ 004f7ac0 f i LIBCMTD:undname.obj
 0002:000a3ae0       ?doFunctionReturns@UnDecorator@@SAHXZ 004f7ae0 f i LIBCMTD:undname.obj
 0002:000a3b00       ?doAllocationModel@UnDecorator@@SAHXZ 004f7b00 f i LIBCMTD:undname.obj
 0002:000a3b20       ?doAllocationLanguage@UnDecorator@@SAHXZ 004f7b20 f i LIBCMTD:undname.obj
 0002:000a3b40       ?doThisTypes@UnDecorator@@SAHXZ 004f7b40 f i LIBCMTD:undname.obj
 0002:000a3b60       ?doAccessSpecifiers@UnDecorator@@SAHXZ 004f7b60 f i LIBCMTD:undname.obj
 0002:000a3b80       ?doThrowTypes@UnDecorator@@SAHXZ 004f7b80 f i LIBCMTD:undname.obj
 0002:000a3ba0       ?doMemberTypes@UnDecorator@@SAHXZ 004f7ba0 f i LIBCMTD:undname.obj
 0002:000a3bc0       ?doNameOnly@UnDecorator@@SAHXZ 004f7bc0 f i LIBCMTD:undname.obj
 0002:000a3be0       ?doTypeOnly@UnDecorator@@SAHXZ 004f7be0 f i LIBCMTD:undname.obj
 0002:000a3c00       ?haveTemplateParameters@UnDecorator@@SAHXZ 004f7c00 f i LIBCMTD:undname.obj
 0002:000a3c20       ?doEcsu@UnDecorator@@SAHXZ 004f7c20 f i LIBCMTD:undname.obj
 0002:000a3c40       ?doEllipsis@UnDecorator@@SAHXZ 004f7c40 f i LIBCMTD:undname.obj
 0002:000a3c60       ?UScore@UnDecorator@@SAPBDW4Tokens@@@Z 004f7c60 f   LIBCMTD:undname.obj
 0002:000a3ca0       ?doUnderScore@UnDecorator@@SAHXZ 004f7ca0 f i LIBCMTD:undname.obj
 0002:000a3cc0       ??2@YAPAXIAAVHeapManager@@H@Z 004f7cc0 f i LIBCMTD:undname.obj
 0002:000a3ce0       ?getMemory@HeapManager@@QAEPAXIH@Z 004f7ce0 f   LIBCMTD:undname.obj
 0002:000a3e30       ??0Block@HeapManager@@QAE@XZ 004f7e30 f i LIBCMTD:undname.obj
 0002:000a3e50       ??H@YA?AVDName@@DABV0@@Z   004f7e50 f i LIBCMTD:undname.obj
 0002:000a3e90       ??H@YA?AVDName@@W4DNameStatus@@ABV0@@Z 004f7e90 f i LIBCMTD:undname.obj
 0002:000a3ed0       ??H@YA?AVDName@@PBDABV0@@Z 004f7ed0 f i LIBCMTD:undname.obj
 0002:000a3f10       ??0DName@@QAE@XZ           004f7f10 f i LIBCMTD:undname.obj
 0002:000a3ff0       ??0DName@@QAE@D@Z          004f7ff0 f   LIBCMTD:undname.obj
 0002:000a40f0       ??0DName@@QAE@ABV0@@Z      004f80f0 f i LIBCMTD:undname.obj
 0002:000a42b0       ??0DName@@QAE@PAV0@@Z      004f82b0 f   LIBCMTD:undname.obj
 0002:000a4410       ??0DName@@QAE@PBD@Z        004f8410 f   LIBCMTD:undname.obj
 0002:000a4520       ??0DName@@QAE@AAPBDD@Z     004f8520 f   LIBCMTD:undname.obj
 0002:000a4880       ?doNoIdentCharCheck@UnDecorator@@SAHXZ 004f8880 f i LIBCMTD:undname.obj
 0002:000a48a0       ??0DName@@QAE@_K@Z         004f88a0 f   LIBCMTD:undname.obj
 0002:000a4a20       ??0DName@@QAE@_J@Z         004f8a20 f   LIBCMTD:undname.obj
 0002:000a4bf0       ??0DName@@QAE@W4DNameStatus@@@Z 004f8bf0 f   LIBCMTD:undname.obj
 0002:000a4d50       ?isValid@DName@@QBEHXZ     004f8d50 f   LIBCMTD:undname.obj
 0002:000a4da0       ?isEmpty@DName@@QBEHXZ     004f8da0 f   LIBCMTD:undname.obj
 0002:000a4df0       ?status@DName@@QBE?AW4DNameStatus@@XZ 004f8df0 f i LIBCMTD:undname.obj
 0002:000a4e10       ?clearStatus@DName@@QAEXXZ 004f8e10 f i LIBCMTD:undname.obj
 0002:000a4e30       ?setPtrRef@DName@@QAEAAV1@XZ 004f8e30 f i LIBCMTD:undname.obj
 0002:000a4e60       ?isPtrRef@DName@@QBEHXZ    004f8e60 f i LIBCMTD:undname.obj
 0002:000a4e80       ?isUDC@DName@@QBEHXZ       004f8e80 f i LIBCMTD:undname.obj
 0002:000a4ed0       ?setIsUDC@DName@@QAEXXZ    004f8ed0 f i LIBCMTD:undname.obj
 0002:000a4f00       ?isUDTThunk@DName@@QBEHXZ  004f8f00 f i LIBCMTD:undname.obj
 0002:000a4f50       ?setIsArray@DName@@QAEXXZ  004f8f50 f i LIBCMTD:undname.obj
 0002:000a4f80       ?isArray@DName@@QBEHXZ     004f8f80 f i LIBCMTD:undname.obj
 0002:000a4fa0       ?isNoTE@DName@@QBEHXZ      004f8fa0 f i LIBCMTD:undname.obj
 0002:000a4fc0       ?setIsNoTE@DName@@QAEXXZ   004f8fc0 f i LIBCMTD:undname.obj
 0002:000a4ff0       ?isPinPtr@DName@@QBEHXZ    004f8ff0 f i LIBCMTD:undname.obj
 0002:000a5010       ?setIsPinPtr@DName@@QAEXXZ 004f9010 f i LIBCMTD:undname.obj
 0002:000a5040       ?isComArray@DName@@QBEHXZ  004f9040 f i LIBCMTD:undname.obj
 0002:000a5060       ?setIsComArray@DName@@QAEXXZ 004f9060 f i LIBCMTD:undname.obj
 0002:000a5090       ?isVCallThunk@DName@@QBEHXZ 004f9090 f i LIBCMTD:undname.obj
 0002:000a50b0       ?setIsVCallThunk@DName@@QAEXXZ 004f90b0 f i LIBCMTD:undname.obj
 0002:000a50e0       ?length@DName@@QBEHXZ      004f90e0 f   LIBCMTD:undname.obj
 0002:000a5150       ?getLastChar@DName@@QBEDXZ 004f9150 f   LIBCMTD:undname.obj
 0002:000a51e0       ?getString@DName@@QBEPADPADH@Z 004f91e0 f   LIBCMTD:undname.obj
 0002:000a5320       ??HDName@@QBE?AV0@D@Z      004f9320 f   LIBCMTD:undname.obj
 0002:000a5390       ??HDName@@QBE?AV0@PBD@Z    004f9390 f   LIBCMTD:undname.obj
 0002:000a5400       ??HDName@@QBE?AV0@ABV0@@Z  004f9400 f   LIBCMTD:undname.obj
 0002:000a5490       ??HDName@@QBE?AV0@PAV0@@Z  004f9490 f   LIBCMTD:undname.obj
 0002:000a5500       ??HDName@@QBE?AV0@W4DNameStatus@@@Z 004f9500 f   LIBCMTD:undname.obj
 0002:000a5570       ??YDName@@QAEAAV0@D@Z      004f9570 f   LIBCMTD:undname.obj
 0002:000a5640       ??YDName@@QAEAAV0@PBD@Z    004f9640 f   LIBCMTD:undname.obj
 0002:000a5720       ??YDName@@QAEAAV0@ABV0@@Z  004f9720 f   LIBCMTD:undname.obj
 0002:000a57d0       ??YDName@@QAEAAV0@PAV0@@Z  004f97d0 f   LIBCMTD:undname.obj
 0002:000a5900       ??YDName@@QAEAAV0@W4DNameStatus@@@Z 004f9900 f   LIBCMTD:undname.obj
 0002:000a5a00       ??_5DName@@QAEAAV0@ABV0@@Z 004f9a00 f   LIBCMTD:undname.obj
 0002:000a5a60       ??4DName@@QAEAAV0@D@Z      004f9a60 f   LIBCMTD:undname.obj
 0002:000a5af0       ??4DName@@QAEAAV0@PBD@Z    004f9af0 f   LIBCMTD:undname.obj
 0002:000a5b90       ??4DName@@QAEAAV0@ABV0@@Z  004f9b90 f   LIBCMTD:undname.obj
 0002:000a5ce0       ??4DName@@QAEAAV0@PAV0@@Z  004f9ce0 f   LIBCMTD:undname.obj
 0002:000a5e10       ??4DName@@QAEAAV0@W4DNameStatus@@@Z 004f9e10 f   LIBCMTD:undname.obj
 0002:000a5f70       ?doPchar@DName@@AAEXPBDH@Z 004f9f70 f   LIBCMTD:undname.obj
 0002:000a6110       ?isFull@Replicator@@QBEHXZ 004fa110 f i LIBCMTD:undname.obj
 0002:000a6130       ??0Replicator@@QAE@XZ      004fa130 f i LIBCMTD:undname.obj
 0002:000a6170       ??YReplicator@@QAEAAV0@ABVDName@@@Z 004fa170 f   LIBCMTD:undname.obj
 0002:000a6220       ??AReplicator@@QBEABVDName@@H@Z 004fa220 f   LIBCMTD:undname.obj
 0002:000a6280       ??0DNameNode@@IAE@XZ       004fa280 f   LIBCMTD:undname.obj
 0002:000a62b0       ?nextNode@DNameNode@@QBEPAV1@XZ 004fa2b0 f i LIBCMTD:undname.obj
 0002:000a62d0       ?clone@DNameNode@@QAEPAV1@XZ 004fa2d0 f   LIBCMTD:undname.obj
 0002:000a6370       ??0DName@@QAE@PAVDNameNode@@@Z 004fa370 f i LIBCMTD:undname.obj
 0002:000a6450       ??YDNameNode@@QAEAAV0@PAV0@@Z 004fa450 f   LIBCMTD:undname.obj
 0002:000a64c0       ??0charNode@@QAE@D@Z       004fa4c0 f   LIBCMTD:undname.obj
 0002:000a6500       ?length@charNode@@UBEHXZ   004fa500 f i LIBCMTD:undname.obj
 0002:000a6520       ?getLastChar@charNode@@UBEDXZ 004fa520 f i LIBCMTD:undname.obj
 0002:000a6540       ?getString@charNode@@UBEPADPADH@Z 004fa540 f   LIBCMTD:undname.obj
 0002:000a6580       ??0pcharNode@@QAE@PBDH@Z   004fa580 f   LIBCMTD:undname.obj
 0002:000a6660       ?length@pcharNode@@UBEHXZ  004fa660 f i LIBCMTD:undname.obj
 0002:000a6680       ?getLastChar@pcharNode@@UBEDXZ 004fa680 f i LIBCMTD:undname.obj
 0002:000a66c0       ?getString@pcharNode@@UBEPADPADH@Z 004fa6c0 f   LIBCMTD:undname.obj
 0002:000a6740       ??0pDNameNode@@QAE@PAVDName@@@Z 004fa740 f   LIBCMTD:undname.obj
 0002:000a67c0       ?length@pDNameNode@@UBEHXZ 004fa7c0 f i LIBCMTD:undname.obj
 0002:000a6800       ?getLastChar@pDNameNode@@UBEDXZ 004fa800 f i LIBCMTD:undname.obj
 0002:000a6840       ?getString@pDNameNode@@UBEPADPADH@Z 004fa840 f   LIBCMTD:undname.obj
 0002:000a68a0       ??0DNameStatusNode@@QAE@W4DNameStatus@@@Z 004fa8a0 f   LIBCMTD:undname.obj
 0002:000a6900       ?length@DNameStatusNode@@UBEHXZ 004fa900 f i LIBCMTD:undname.obj
 0002:000a6920       ?getLastChar@DNameStatusNode@@UBEDXZ 004fa920 f i LIBCMTD:undname.obj
 0002:000a6950       ?getString@DNameStatusNode@@UBEPADPADH@Z 004fa950 f   LIBCMTD:undname.obj
 0002:000a6ae0       ___crtCompareStringA       004faae0 f   LIBCMTD:a_cmp.obj
 0002:000a7200       __strnicoll_l              004fb200 f   LIBCMTD:strnicol.obj
 0002:000a74e0       __strnicoll                004fb4e0 f   LIBCMTD:strnicol.obj
 0002:000a7530       ___crtsetenv               004fb530 f   LIBCMTD:setenv.obj
 0002:000a7d50       __purecall                 004fbd50 f   LIBCMTD:purevirt.obj
 0002:000a7da0       __set_purecall_handler     004fbda0 f   LIBCMTD:purevirt.obj
 0002:000a7df0       __get_purecall_handler     004fbdf0 f   LIBCMTD:purevirt.obj
 0002:000a7e10       __mbschr_l                 004fbe10 f   LIBCMTD:mbschr.obj
 0002:000a8000       __mbschr                   004fc000 f   LIBCMTD:mbschr.obj
 0002:000a801c       _GetCurrentProcessId@0     004fc01c f   kernel32:KERNEL32.dll
 0002:000a8022       _GetThreadPriority@4       004fc022 f   kernel32:KERNEL32.dll
 0002:000a8028       _GetLastError@0            004fc028 f   kernel32:KERNEL32.dll
 0002:000a802e       _SetThreadPriority@8       004fc02e f   kernel32:KERNEL32.dll
 0002:000a8034       _GetCurrentThreadId@0      004fc034 f   kernel32:KERNEL32.dll
 0002:000a803a       _GetCurrentThread@0        004fc03a f   kernel32:KERNEL32.dll
 0002:000a8040       _CreateThread@24           004fc040 f   kernel32:KERNEL32.dll
 0002:000a8046       _ResumeThread@4            004fc046 f   kernel32:KERNEL32.dll
 0002:000a804c       _WaitForSingleObject@8     004fc04c f   kernel32:KERNEL32.dll
 0002:000a8052       _CloseHandle@4             004fc052 f   kernel32:KERNEL32.dll
 0002:000a8058       _Sleep@4                   004fc058 f   kernel32:KERNEL32.dll
 0002:000a805e       _InterlockedExchange@8     004fc05e f   kernel32:KERNEL32.dll
 0002:000a8064       _InterlockedIncrement@4    004fc064 f   kernel32:KERNEL32.dll
 0002:000a806a       _InterlockedDecrement@4    004fc06a f   kernel32:KERNEL32.dll
 0002:000a8070       _InterlockedExchangeAdd@8  004fc070 f   kernel32:KERNEL32.dll
 0002:000a8076       _TlsAlloc@0                004fc076 f   kernel32:KERNEL32.dll
 0002:000a807c       _TlsFree@4                 004fc07c f   kernel32:KERNEL32.dll
 0002:000a8082       _TlsSetValue@8             004fc082 f   kernel32:KERNEL32.dll
 0002:000a8088       _TlsGetValue@4             004fc088 f   kernel32:KERNEL32.dll
 0002:000a808e       _InitializeCriticalSection@4 004fc08e f   kernel32:KERNEL32.dll
 0002:000a8094       _EnterCriticalSection@4    004fc094 f   kernel32:KERNEL32.dll
 0002:000a809a       _LeaveCriticalSection@4    004fc09a f   kernel32:KERNEL32.dll
 0002:000a80a0       _TryEnterCriticalSection@4 004fc0a0 f   kernel32:KERNEL32.dll
 0002:000a80a6       _DeleteCriticalSection@4   004fc0a6 f   kernel32:KERNEL32.dll
 0002:000a80ac       _CreateSemaphoreA@16       004fc0ac f   kernel32:KERNEL32.dll
 0002:000a80b2       _ReleaseSemaphore@12       004fc0b2 f   kernel32:KERNEL32.dll
 0002:000a80b8       _CreateEventA@16           004fc0b8 f   kernel32:KERNEL32.dll
 0002:000a80be       _SetEvent@4                004fc0be f   kernel32:KERNEL32.dll
 0002:000a80c4       _PulseEvent@4              004fc0c4 f   kernel32:KERNEL32.dll
 0002:000a80ca       _ResetEvent@4              004fc0ca f   kernel32:KERNEL32.dll
 0002:000a80d0       _SetConsoleTextAttribute@8 004fc0d0 f   kernel32:KERNEL32.dll
 0002:000a80d6       _GetStdHandle@4            004fc0d6 f   kernel32:KERNEL32.dll
 0002:000a80dc       _GetConsoleScreenBufferInfo@8 004fc0dc f   kernel32:KERNEL32.dll
 0002:000a80e2       _SetLastError@4            004fc0e2 f   kernel32:KERNEL32.dll
 0002:000a80e8       _FormatMessageA@28         004fc0e8 f   kernel32:KERNEL32.dll
 0002:000a80ee       _SystemTimeToFileTime@8    004fc0ee f   kernel32:KERNEL32.dll
 0002:000a80f4       _GetLocalTime@4            004fc0f4 f   kernel32:KERNEL32.dll
 0002:000a80fa       _FileTimeToSystemTime@8    004fc0fa f   kernel32:KERNEL32.dll
 0002:000a8100       _GetProcAddress@8          004fc100 f   kernel32:KERNEL32.dll
 0002:000a8106       _LoadLibraryA@4            004fc106 f   kernel32:KERNEL32.dll
 0002:000a810c       _FreeLibrary@4             004fc10c f   kernel32:KERNEL32.dll
 0002:000a8112       _QueryPerformanceCounter@4 004fc112 f   kernel32:KERNEL32.dll
 0002:000a8118       _QueryPerformanceFrequency@4 004fc118 f   kernel32:KERNEL32.dll
 0002:000a811e       _GetModuleHandleA@4        004fc11e f   kernel32:KERNEL32.dll
 0002:000a8124       _ExitProcess@4             004fc124 f   kernel32:KERNEL32.dll
 0002:000a812a       _GetModuleFileNameW@12     004fc12a f   kernel32:KERNEL32.dll
 0002:000a8130       _WriteConsoleW@20          004fc130 f   kernel32:KERNEL32.dll
 0002:000a8136       _GetFileType@4             004fc136 f   kernel32:KERNEL32.dll
 0002:000a813c       _GetCommandLineA@0         004fc13c f   kernel32:KERNEL32.dll
 0002:000a8142       _HeapFree@12               004fc142 f   kernel32:KERNEL32.dll
 0002:000a8148       _GetVersionExA@4           004fc148 f   kernel32:KERNEL32.dll
 0002:000a814e       _HeapAlloc@12              004fc14e f   kernel32:KERNEL32.dll
 0002:000a8154       _GetProcessHeap@0          004fc154 f   kernel32:KERNEL32.dll
 0002:000a815a       _HeapValidate@12           004fc15a f   kernel32:KERNEL32.dll
 0002:000a8160       _IsBadReadPtr@8            004fc160 f   kernel32:KERNEL32.dll
 0002:000a8166       _RtlUnwind@16              004fc166 f   kernel32:KERNEL32.dll
 0002:000a816c       _TerminateProcess@8        004fc16c f   kernel32:KERNEL32.dll
 0002:000a8172       _GetCurrentProcess@0       004fc172 f   kernel32:KERNEL32.dll
 0002:000a8178       _UnhandledExceptionFilter@4 004fc178 f   kernel32:KERNEL32.dll
 0002:000a817e       _SetUnhandledExceptionFilter@4 004fc17e f   kernel32:KERNEL32.dll
 0002:000a8184       _IsDebuggerPresent@0       004fc184 f   kernel32:KERNEL32.dll
 0002:000a818a       _SetHandleCount@4          004fc18a f   kernel32:KERNEL32.dll
 0002:000a8190       _GetStartupInfoA@4         004fc190 f   kernel32:KERNEL32.dll
 0002:000a8196       _GetModuleFileNameA@12     004fc196 f   kernel32:KERNEL32.dll
 0002:000a819c       _WriteFile@20              004fc19c f   kernel32:KERNEL32.dll
 0002:000a81a2       _GetACP@0                  004fc1a2 f   kernel32:KERNEL32.dll
 0002:000a81a8       _GetOEMCP@0                004fc1a8 f   kernel32:KERNEL32.dll
 0002:000a81ae       _GetCPInfo@8               004fc1ae f   kernel32:KERNEL32.dll
 0002:000a81b4       _IsValidCodePage@4         004fc1b4 f   kernel32:KERNEL32.dll
 0002:000a81ba       _FatalAppExitA@8           004fc1ba f   kernel32:KERNEL32.dll
 0002:000a81c0       _SetConsoleCtrlHandler@8   004fc1c0 f   kernel32:KERNEL32.dll
 0002:000a81c6       _LoadLibraryW@4            004fc1c6 f   kernel32:KERNEL32.dll
 0002:000a81cc       _WideCharToMultiByte@32    004fc1cc f   kernel32:KERNEL32.dll
 0002:000a81d2       _GetConsoleCP@0            004fc1d2 f   kernel32:KERNEL32.dll
 0002:000a81d8       _GetConsoleMode@8          004fc1d8 f   kernel32:KERNEL32.dll
 0002:000a81de       _FlushFileBuffers@4        004fc1de f   kernel32:KERNEL32.dll
 0002:000a81e4       _MultiByteToWideChar@24    004fc1e4 f   kernel32:KERNEL32.dll
 0002:000a81ea       _LCMapStringA@24           004fc1ea f   kernel32:KERNEL32.dll
 0002:000a81f0       _LCMapStringW@24           004fc1f0 f   kernel32:KERNEL32.dll
 0002:000a81f6       _GetTickCount@0            004fc1f6 f   kernel32:KERNEL32.dll
 0002:000a81fc       _GetSystemTimeAsFileTime@4 004fc1fc f   kernel32:KERNEL32.dll
 0002:000a8202       _FreeEnvironmentStringsA@4 004fc202 f   kernel32:KERNEL32.dll
 0002:000a8208       _GetEnvironmentStrings@0   004fc208 f   kernel32:KERNEL32.dll
 0002:000a820e       _FreeEnvironmentStringsW@4 004fc20e f   kernel32:KERNEL32.dll
 0002:000a8214       _GetEnvironmentStringsW@0  004fc214 f   kernel32:KERNEL32.dll
 0002:000a821a       _HeapDestroy@4             004fc21a f   kernel32:KERNEL32.dll
 0002:000a8220       _HeapCreate@12             004fc220 f   kernel32:KERNEL32.dll
 0002:000a8226       _VirtualFree@12            004fc226 f   kernel32:KERNEL32.dll
 0002:000a822c       _HeapReAlloc@16            004fc22c f   kernel32:KERNEL32.dll
 0002:000a8232       _VirtualAlloc@16           004fc232 f   kernel32:KERNEL32.dll
 0002:000a8238       _DebugBreak@0              004fc238 f   kernel32:KERNEL32.dll
 0002:000a823e       _OutputDebugStringA@4      004fc23e f   kernel32:KERNEL32.dll
 0002:000a8244       _OutputDebugStringW@4      004fc244 f   kernel32:KERNEL32.dll
 0002:000a824a       _SetFilePointer@16         004fc24a f   kernel32:KERNEL32.dll
 0002:000a8250       _GetStringTypeA@20         004fc250 f   kernel32:KERNEL32.dll
 0002:000a8256       _GetStringTypeW@16         004fc256 f   kernel32:KERNEL32.dll
 0002:000a825c       _GetLocaleInfoA@16         004fc25c f   kernel32:KERNEL32.dll
 0002:000a8262       _GetLocaleInfoW@16         004fc262 f   kernel32:KERNEL32.dll
 0002:000a8268       _SetStdHandle@8            004fc268 f   kernel32:KERNEL32.dll
 0002:000a826e       _CreateFileA@28            004fc26e f   kernel32:KERNEL32.dll
 0002:000a8274       _WriteConsoleA@20          004fc274 f   kernel32:KERNEL32.dll
 0002:000a827a       _GetConsoleOutputCP@0      004fc27a f   kernel32:KERNEL32.dll
 0002:000a8280       _ReadFile@20               004fc280 f   kernel32:KERNEL32.dll
 0002:000a8286       _GetTimeFormatA@24         004fc286 f   kernel32:KERNEL32.dll
 0002:000a828c       _GetDateFormatA@24         004fc28c f   kernel32:KERNEL32.dll
 0002:000a8292       _IsValidLocale@8           004fc292 f   kernel32:KERNEL32.dll
 0002:000a8298       _EnumSystemLocalesA@8      004fc298 f   kernel32:KERNEL32.dll
 0002:000a829e       _GetUserDefaultLCID@0      004fc29e f   kernel32:KERNEL32.dll
 0002:000a82a4       _RaiseException@16         004fc2a4 f   kernel32:KERNEL32.dll
 0002:000a82aa       _lstrlenA@4                004fc2aa f   kernel32:KERNEL32.dll
 0002:000a82b0       _SetEndOfFile@4            004fc2b0 f   kernel32:KERNEL32.dll
 0002:000a82b6       _GetTimeZoneInformation@4  004fc2b6 f   kernel32:KERNEL32.dll
 0002:000a82bc       _VirtualQuery@12           004fc2bc f   kernel32:KERNEL32.dll
 0002:000a82c2       _CompareStringA@24         004fc2c2 f   kernel32:KERNEL32.dll
 0002:000a82c8       _CompareStringW@24         004fc2c8 f   kernel32:KERNEL32.dll
 0002:000a82ce       _SetEnvironmentVariableA@8 004fc2ce f   kernel32:KERNEL32.dll
 0003:00000000       ___xc_a                    004fe000     LIBCMTD:crt0init.obj
 0003:00000104       ___xc_z                    004fe104     LIBCMTD:crt0init.obj
 0003:00000208       ___xi_a                    004fe208     LIBCMTD:crt0init.obj
 0003:00000528       ___xi_z                    004fe528     LIBCMTD:crt0init.obj
 0003:0000062c       ___xp_a                    004fe62c     LIBCMTD:crt0init.obj
 0003:00000940       ___xp_z                    004fe940     LIBCMTD:crt0init.obj
 0003:00000a44       ___xt_a                    004fea44     LIBCMTD:crt0init.obj
 0003:00000b48       ___xt_z                    004feb48     LIBCMTD:crt0init.obj
 0003:00000c6c       ??_C@_0BN@JONBMAKH@ICE?5stream?5transport?5created?$AA@ 004fec6c     pjnath-i386-win32-vc8-debug:ice_strans.obj
 0003:00000c90       ??_C@_0DD@LJLKBBFC@Creating?5ICE?5stream?5transport?5wi@ 004fec90     pjnath-i386-win32-vc8-debug:ice_strans.obj
 0003:00000cd0       ??_C@_05KCBFPHJP@ice?$CFp?$AA@ 004fecd0     pjnath-i386-win32-vc8-debug:ice_strans.obj
 0003:00000cd8       ??_C@_1GC@KKMMENMP@?$AAc?$AAo?$AAm?$AAp?$AA_?$AAc?$AAn?$AAt?$AA?5?$AA?$CG?$AA?$CG?$AA?5?$AAc?$AAb?$AA?5?$AA?$CG?$AA?$CG?$AA?5?$AAp?$AA_?$AAi?$AAc?$AAe?$AA_?$AAs?$AAt?$AA?5?$AA?$CG?$AA?$CG?$AA?5?$AAc?$AAo@ 004fecd8     pjnath-i386-win32-vc8-debug:ice_strans.obj
 0003:00000d50       ??_C@_1GM@LAJDNAKF@?$AAd?$AA?3?$AA?2?$AAm?$AAy?$AAg?$AAi?$AAt?$AA?2?$AAp?$AAj?$AAp?$AAr?$AAo?$AAj?$AAe?$AAc?$AAt?$AA?9?$AA1?$AA?4?$AA4?$AA?2?$AAp?$AAj?$AAn?$AAa?$AAt?$AAh?$AA?2?$AAs?$AAr@ 004fed50     pjnath-i386-win32-vc8-debug:ice_strans.obj
 0003:00000dd8       ??_C@_1KG@NOHEPPEL@?$AAc?$AAf?$AAg?$AA?9?$AA?$DO?$AAi?$AAo?$AAq?$AAu?$AAe?$AAu?$AAe?$AA?5?$AA?$CG?$AA?$CG?$AA?5?$AAc?$AAf?$AAg?$AA?9?$AA?$DO?$AAp?$AAf?$AA?5?$AA?$CG?$AA?$CG?$AA?5?$AAc?$AAf?$AAg?$AA?9?$AA?$DO@ 004fedd8     pjnath-i386-win32-vc8-debug:ice_strans.obj
 0003:00000ea0       ??_C@_1HG@FBDMGKHJ@?$AAd?$AA?3?$AA?2?$AAm?$AAy?$AAg?$AAi?$AAt?$AA?2?$AAp?$AAj?$AAp?$AAr?$AAo?$AAj?$AAe?$AAc?$AAt?$AA?9?$AA1?$AA?4?$AA4?$AA?2?$AAp?$AAj?$AAn?$AAa?$AAt?$AAh?$AA?2?$AAi?$AAn@ 004feea0     pjnath-i386-win32-vc8-debug:ice_strans.obj
 0003:00000f30       ??_C@_0CB@EJIHLMEB@Comp?5?$CFd?3?5host?5candidate?5?$CFs?5added@ 004fef30     pjnath-i386-win32-vc8-debug:ice_strans.obj
 0003:00000f58       ??_C@_0BJ@LFHFOBFN@Too?5many?5host?5candidates?$AA@ 004fef58     pjnath-i386-win32-vc8-debug:ice_strans.obj
 0003:00000f78       ??_C@_0DC@EAAOOGLA@Comp?5?$CFd?3?5srflx?5candidate?5starts?5@ 004fef78     pjnath-i386-win32-vc8-debug:ice_strans.obj
 0003:00000fb4       ??_C@_1DI@FDBPIBGN@?$AAc?$AAo?$AAm?$AAp?$AA_?$AAi?$AAd?$AA?5?$AA?$DM?$AA?$DN?$AA?5?$AAi?$AAc?$AAe?$AA_?$AAs?$AAt?$AA?9?$AA?$DO?$AAc?$AAo?$AAm?$AAp?$AA_?$AAc?$AAn?$AAt?$AA?$AA@ 004fefb4     pjnath-i386-win32-vc8-debug:ice_strans.obj
 0003:00000ff8       ??_C@_1CE@BDCFJDAC@?$AAi?$AAc?$AAe?$AA_?$AAs?$AAt?$AA?5?$AA?$CG?$AA?$CG?$AA?5?$AAc?$AAo?$AAm?$AAp?$AA_?$AAi?$AAd?$AA?$AA@ 004feff8     pjnath-i386-win32-vc8-debug:ice_strans.obj
 0003:00001024       ??_C@_0DF@CIPNJFGO@Comp?5?$CFd?3?5TURN?5relay?5candidate?5wa@ 004ff024     pjnath-i386-win32-vc8-debug:ice_strans.obj
 0003:00001068       ??_C@_1EG@DMBNOOCP@?$AAp?$AAj?$AA_?$AAa?$AAt?$AAo?$AAm?$AAi?$AAc?$AA_?$AAg?$AAe?$AAt?$AA?$CI?$AAi?$AAc?$AAe?$AA_?$AAs?$AAt?$AA?9?$AA?$DO?$AAb?$AAu?$AAs?$AAy?$AA_?$AAc?$AAn?$AAt?$AA?$CJ?$AA?$DN@ 004ff068     pjnath-i386-win32-vc8-debug:ice_strans.obj
 0003:000010bc       ??_C@_03BBKEAIF@?$DP?$DP?$DP?$AA@ 004ff0bc     pjnath-i386-win32-vc8-debug:ice_strans.obj
 0003:000010c0       ??_C@_1EI@CLFDIOCJ@?$AAs?$AAt?$AAa?$AAt?$AAe?$AA?5?$AA?$DM?$AA?$DN?$AA?5?$AAP?$AAJ?$AA_?$AAI?$AAC?$AAE?$AA_?$AAS?$AAT?$AAR?$AAA?$AAN?$AAS?$AA_?$AAS?$AAT?$AAA?$AAT?$AAE?$AA_?$AAF?$AAA?$AAI@ 004ff0c0     pjnath-i386-win32-vc8-debug:ice_strans.obj
 0003:00001118       ??_C@_0BD@GJGDHLOE@Negotiation?5Failed?$AA@ 004ff118     pjnath-i386-win32-vc8-debug:ice_strans.obj
 0003:00001130       ??_C@_0BE@DOHEOJPP@Negotiation?5Success?$AA@ 004ff130     pjnath-i386-win32-vc8-debug:ice_strans.obj
 0003:00001148       ??_C@_0BI@GIMFIMIG@Negotiation?5In?5Progress?$AA@ 004ff148     pjnath-i386-win32-vc8-debug:ice_strans.obj
 0003:00001164       ??_C@_0BE@KAGEDBNL@Session?5Initialized?$AA@ 004ff164     pjnath-i386-win32-vc8-debug:ice_strans.obj
 0003:0000117c       ??_C@_0BN@NCFOMLNM@Candidate?5Gathering?5Complete?$AA@ 004ff17c     pjnath-i386-win32-vc8-debug:ice_strans.obj
 0003:000011a0       ??_C@_0BE@LFJOMNK@Candidate?5Gathering?$AA@ 004ff1a0     pjnath-i386-win32-vc8-debug:ice_strans.obj
 0003:000011b8       ??_C@_04KHKKIIL@Null?$AA@  004ff1b8     pjnath-i386-win32-vc8-debug:ice_strans.obj
 0003:000011c0       ??_C@_0BP@KOHKBKNN@ICE?5stream?5transport?5destroyed?$AA@ 004ff1c0     pjnath-i386-win32-vc8-debug:ice_strans.obj
 0003:000011e8       ??_C@_0CO@FHGMBOHP@ICE?5strans?5object?5is?5busy?0?5will?5@ 004ff1e8     pjnath-i386-win32-vc8-debug:ice_strans.obj
 0003:00001220       ??_C@_1O@IBCACOFD@?$AAi?$AAc?$AAe?$AA_?$AAs?$AAt?$AA?$AA@ 004ff220     pjnath-i386-win32-vc8-debug:ice_strans.obj
 0003:00001230       ??_C@_1BM@MANACFGC@?$AAi?$AAc?$AAe?$AA_?$AAs?$AAt?$AA?5?$AA?$CG?$AA?$CG?$AA?5?$AAo?$AAp?$AAt?$AA?$AA@ 004ff230     pjnath-i386-win32-vc8-debug:ice_strans.obj
 0003:00001258       ??_C@_1EE@EHCNMCKI@?$AAp?$AAj?$AA_?$AAs?$AAo?$AAc?$AAk?$AAa?$AAd?$AAd?$AAr?$AA_?$AAh?$AAa?$AAs?$AA_?$AAa?$AAd?$AAd?$AAr?$AA?$CI?$AA?$CG?$AAc?$AAa?$AAn?$AAd?$AA?9?$AA?$DO?$AAa?$AAd?$AAd?$AAr@ 004ff258     pjnath-i386-win32-vc8-debug:ice_strans.obj
 0003:000012ac       ??_C@_0CP@CHEOAPPB@Candidate?5?$CFd?5of?5comp?5?$CFd?5is?5not?5a@ 004ff2ac     pjnath-i386-win32-vc8-debug:ice_strans.obj
 0003:000012e4       ??_C@_0DD@JOLHDHPM@Disabling?5STUN?5Indication?5loggin@ 004ff2e4     pjnath-i386-win32-vc8-debug:ice_strans.obj
 0003:00001324       ??_C@_1DO@PDIOKKJD@?$AAi?$AAc?$AAe?$AA_?$AAs?$AAt?$AA?9?$AA?$DO?$AAc?$AAo?$AAm?$AAp?$AA?$FL?$AA0?$AA?$FN?$AA?5?$AA?$CB?$AA?$DN?$AA?5?$AA?$CI?$AA?$CI?$AAv?$AAo?$AAi?$AAd?$AA?5?$AA?$CK?$AA?$CJ?$AA0?$AA?$CJ?$AA?$AA@ 004ff324     pjnath-i386-win32-vc8-debug:ice_strans.obj
 0003:00001370       ??_C@_1DG@LHCBPGI@?$AAi?$AAc?$AAe?$AA_?$AAs?$AAt?$AA?9?$AA?$DO?$AAi?$AAc?$AAe?$AA?5?$AA?$DN?$AA?$DN?$AA?5?$AA?$CI?$AA?$CI?$AAv?$AAo?$AAi?$AAd?$AA?5?$AA?$CK?$AA?$CJ?$AA0?$AA?$CJ?$AA?$AA@ 004ff370     pjnath-i386-win32-vc8-debug:ice_strans.obj
 0003:000013b0       ??_C@_1DI@KKCNGHJF@?$AAi?$AAc?$AAe?$AA_?$AAs?$AAt?$AA?9?$AA?$DO?$AAi?$AAc?$AAe?$AA?9?$AA?$DO?$AAr?$AAc?$AAa?$AAn?$AAd?$AA_?$AAc?$AAn?$AAt?$AA?5?$AA?$CB?$AA?$DN?$AA?5?$AA0?$AA?$AA@ 004ff3b0     pjnath-i386-win32-vc8-debug:ice_strans.obj
 0003:000013f4       ??_C@_1CM@MDILIHGN@?$AAi?$AAc?$AAe?$AA_?$AAs?$AAt?$AA?5?$AA?$CG?$AA?$CG?$AA?5?$AAi?$AAc?$AAe?$AA_?$AAs?$AAt?$AA?9?$AA?$DO?$AAi?$AAc?$AAe?$AA?$AA@ 004ff3f4     pjnath-i386-win32-vc8-debug:ice_strans.obj
 0003:00001428       ??_C@_1IA@HAHIPEGH@?$AAi?$AAc?$AAe?$AA_?$AAs?$AAt?$AA?5?$AA?$CG?$AA?$CG?$AA?5?$AAi?$AAc?$AAe?$AA_?$AAs?$AAt?$AA?9?$AA?$DO?$AAi?$AAc?$AAe?$AA?5?$AA?$CG?$AA?$CG?$AA?5?$AAc?$AAo?$AAm?$AAp?$AA_?$AAi?$AAd@ 004ff428     pjnath-i386-win32-vc8-debug:ice_strans.obj
 0003:000014c8       ??_C@_1KC@OBJIFPKB@?$AAi?$AAc?$AAe?$AA_?$AAs?$AAt?$AA?5?$AA?$CG?$AA?$CG?$AA?5?$AAi?$AAc?$AAe?$AA_?$AAs?$AAt?$AA?9?$AA?$DO?$AAi?$AAc?$AAe?$AA?5?$AA?$CG?$AA?$CG?$AA?5?$AAc?$AAo?$AAm?$AAp?$AA_?$AAi?$AAd@ 004ff4c8     pjnath-i386-win32-vc8-debug:ice_strans.obj
 0003:00001590       ??_C@_1HG@HLAHPHPO@?$AAc?$AAo?$AAm?$AAp?$AA?9?$AA?$DO?$AAd?$AAe?$AAf?$AAa?$AAu?$AAl?$AAt?$AA_?$AAc?$AAa?$AAn?$AAd?$AA?$DO?$AA?$DN?$AA0?$AA?5?$AA?$CG?$AA?$CG?$AA?5?$AAc?$AAo?$AAm?$AAp?$AA?9?$AA?$DO?$AAd@ 004ff590     pjnath-i386-win32-vc8-debug:ice_strans.obj
 0003:00001620       ??_C@_1HC@JLMFDJID@?$AAi?$AAc?$AAe?$AA_?$AAs?$AAt?$AA?5?$AA?$CG?$AA?$CG?$AA?5?$AAc?$AAo?$AAm?$AAp?$AA_?$AAi?$AAd?$AA?5?$AA?$CG?$AA?$CG?$AA?5?$AAc?$AAo?$AAm?$AAp?$AA_?$AAi?$AAd?$AA?5?$AA?$DM?$AA?$DN?$AA?5@ 004ff620     pjnath-i386-win32-vc8-debug:ice_strans.obj
 0003:000016a8       ??_C@_1HM@KDJJMBGP@?$AAi?$AAc?$AAe?$AA_?$AAs?$AAt?$AA?5?$AA?$CG?$AA?$CG?$AA?5?$AAr?$AAe?$AAm?$AA_?$AAu?$AAf?$AAr?$AAa?$AAg?$AA?5?$AA?$CG?$AA?$CG?$AA?5?$AAr?$AAe?$AAm?$AA_?$AAp?$AAa?$AAs?$AAs?$AAw@ 004ff6a8     pjnath-i386-win32-vc8-debug:ice_strans.obj
 0003:00001740       ??_C@_1GC@MOFGKOFE@?$AAi?$AAc?$AAe?$AA_?$AAs?$AAt?$AA?5?$AA?$CG?$AA?$CG?$AA?5?$AAc?$AAo?$AAm?$AAp?$AA_?$AAi?$AAd?$AA?5?$AA?$CG?$AA?$CG?$AA?5?$AAc?$AAo?$AAm?$AAp?$AA_?$AAi?$AAd?$AA?5?$AA?$DM?$AA?$DN?$AA?5@ 004ff740     pjnath-i386-win32-vc8-debug:ice_strans.obj
 0003:000017b8       ??_C@_1JK@DAOBKPBP@?$AAi?$AAc?$AAe?$AA_?$AAs?$AAt?$AA?5?$AA?$CG?$AA?$CG?$AA?5?$AAc?$AAo?$AAm?$AAp?$AA_?$AAi?$AAd?$AA?5?$AA?$CG?$AA?$CG?$AA?5?$AAc?$AAo?$AAm?$AAp?$AA_?$AAi?$AAd?$AA?5?$AA?$DM?$AA?$DN?$AA?5@ 004ff7b8     pjnath-i386-win32-vc8-debug:ice_strans.obj
 0003:00001870       ??_C@_0BC@ILKKJNJH@Comp?5?$CFd?3?5disabled?$AA@ 004ff870     pjnath-i386-win32-vc8-debug:ice_strans.obj
 0003:00001888       ??_C@_0DK@IIBHLCAE@?5Comp?5?$CFd?3?5sending?5from?5?$CFs?5candid@ 004ff888     pjnath-i386-win32-vc8-debug:ice_strans.obj
 0003:000018d0       ??_C@_0CH@GEFHJMPI@ICE?5negotiation?5success?5after?5?$CFd@ 004ff8d0     pjnath-i386-win32-vc8-debug:ice_strans.obj
 0003:00001900       ??_C@_0CK@LCFANGGA@ICE?5negotiation?5failed?5after?5?$CFds@ 004ff900     pjnath-i386-win32-vc8-debug:ice_strans.obj
 0003:00001934       ??_C@_1BG@DPDCLCPC@?$AAc?$AAo?$AAu?$AAn?$AAt?$AA?5?$AA?$DO?$AA?$DN?$AA?5?$AA0?$AA?$AA@ 004ff934     pjnath-i386-win32-vc8-debug:ice_strans.obj
 0003:00001950       ??_C@_1DA@KIKDKFOF@?$AA?$CB?$AA?$CC?$AAI?$AAn?$AAv?$AAa?$AAl?$AAi?$AAd?$AA?5?$AAt?$AAr?$AAa?$AAn?$AAs?$AAp?$AAo?$AAr?$AAt?$AA?5?$AAI?$AAD?$AA?$CC?$AA?$AA@ 004ff950     pjnath-i386-win32-vc8-debug:ice_strans.obj
 0003:0000198c       ??_C@_0BF@NJLICJKG@Invalid?5transport?5ID?$AA@ 004ff98c     pjnath-i386-win32-vc8-debug:ice_strans.obj
 0003:000019a8       ??_C@_1EO@PKAJGDLO@?$AAc?$AAo?$AAm?$AAp?$AA_?$AAi?$AAd?$AA?5?$AA?$CG?$AA?$CG?$AA?5?$AAc?$AAo?$AAm?$AAp?$AA_?$AAi?$AAd?$AA?5?$AA?$DM?$AA?$DN?$AA?5?$AAi?$AAc?$AAe?$AA_?$AAs?$AAt?$AA?9?$AA?$DO?$AAc?$AAo@ 004ff9a8     pjnath-i386-win32-vc8-debug:ice_strans.obj
 0003:00001a08       ??_C@_0BI@EMKNIBJL@Error?5processing?5packet?$AA@ 004ffa08     pjnath-i386-win32-vc8-debug:ice_strans.obj
 0003:00001a24       ??_C@_0BH@BKNFMGGB@STUN?5keep?9alive?5failed?$AA@ 004ffa24     pjnath-i386-win32-vc8-debug:ice_strans.obj
 0003:00001a40       ??_C@_1CI@DHLPFGGG@?$AAc?$AAa?$AAn?$AAd?$AA?5?$AA?$CB?$AA?$DN?$AA?5?$AA?$CI?$AA?$CI?$AAv?$AAo?$AAi?$AAd?$AA?5?$AA?$CK?$AA?$CJ?$AA0?$AA?$CJ?$AA?$AA@ 004ffa40     pjnath-i386-win32-vc8-debug:ice_strans.obj
 0003:00001a70       ??_C@_0BM@HLNKFBEB@STUN?5binding?5request?5failed?$AA@ 004ffa70     pjnath-i386-win32-vc8-debug:ice_strans.obj
 0003:00001a94       ??_C@_0CB@EOKDDPG@Comp?5?$CFd?3?5?$CFs?0?5srflx?5address?5is?5?$CFs@ 004ffa94     pjnath-i386-win32-vc8-debug:ice_strans.obj
 0003:00001abc       ??_C@_0BG@CLJODCON@srflx?5address?5changed?$AA@ 004ffabc     pjnath-i386-win32-vc8-debug:ice_strans.obj
 0003:00001ad8       ??_C@_0BL@KCEPHCAP@Binding?5discovery?5complete?$AA@ 004ffad8     pjnath-i386-win32-vc8-debug:ice_strans.obj
 0003:00001af8       ??_C@_0BG@NAGHLBFP@DNS?5resolution?5failed?$AA@ 004ffaf8     pjnath-i386-win32-vc8-debug:ice_strans.obj
 0003:00001b18       ??_C@_1EA@LJBPHJAJ@?$AAs?$AAt?$AAa?$AAt?$AAu?$AAs?$AA?5?$AA?$CB?$AA?$DN?$AA?5?$AA?$CI?$AA?$CI?$AA2?$AA0?$AA0?$AA0?$AA0?$AA?5?$AA?$CL?$AA?5?$AA5?$AA0?$AA0?$AA0?$AA0?$AA?$CJ?$AA?5?$AA?$CL?$AA?5?$AA2?$AA?$CJ?$AA?$AA@ 004ffb18     pjnath-i386-win32-vc8-debug:ice_strans.obj
 0003:00001b64       ??_C@_06DJHOIPC@?$CFs?3?5?$CFs?$AA@ 004ffb64     pjnath-i386-win32-vc8-debug:ice_strans.obj
 0003:00001b6c       ??_C@_0CI@EBNNOHOL@Error?5processing?5packet?5from?5TUR@ 004ffb6c     pjnath-i386-win32-vc8-debug:ice_strans.obj
 0003:00001b9c       ??_C@_0CK@OJBHIAD@Comp?5?$CFd?3?5TURN?5allocation?5failed?0@ 004ffb9c     pjnath-i386-win32-vc8-debug:ice_strans.obj
 0003:00001bd0       ??_C@_0BE@PCPMPFDB@TURN?5refresh?5failed?$AA@ 004ffbd0     pjnath-i386-win32-vc8-debug:ice_strans.obj
 0003:00001be8       ??_C@_0BH@HFNJKCIF@TURN?5allocation?5failed?$AA@ 004ffbe8     pjnath-i386-win32-vc8-debug:ice_strans.obj
 0003:00001c04       ??_C@_0DH@LCNGOHEF@Comp?5?$CFd?3?5TURN?5allocation?5complet@ 004ffc04     pjnath-i386-win32-vc8-debug:ice_strans.obj
 0003:00001c48       ??_C@_0CE@BCKJCNOE@TURN?5client?5state?5changed?5?$CFs?5?9?9?$DO@ 004ffc48     pjnath-i386-win32-vc8-debug:ice_strans.obj
 0003:00001c74       ??_C@_0DB@PGNALPFC@Invalid?1unsupported?5transport?5?$CIP@ 004ffc74     pjnath-i386-win32-vc8-debug:errno.obj
 0003:00001cb0       ??_C@_0EK@PIKHJBD@Controlled?5agent?5timed?5out?5waiti@ 004ffcb0     pjnath-i386-win32-vc8-debug:errno.obj
 0003:00001d08       ??_C@_0EA@EDMJLPFH@No?5host?5candidate?5associated?5wit@ 004ffd08     pjnath-i386-win32-vc8-debug:errno.obj
 0003:00001d54       ??_C@_0DJ@KABJLAFL@Invalid?5SDP?5?$CCcandidate?$CC?5attribut@ 004ffd54     pjnath-i386-win32-vc8-debug:errno.obj
 0003:00001d98       ??_C@_0DC@PHBGNIPK@Missing?5ICE?5SDP?5attribute?5?$CIPJNAT@ 004ffd98     pjnath-i386-win32-vc8-debug:errno.obj
 0003:00001dd4       ??_C@_0CP@EDCECICF@Source?5address?5mismatch?5?$CIPJNATH_@ 004ffdd4     pjnath-i386-win32-vc8-debug:errno.obj
 0003:00001e0c       ??_C@_0CP@HLPIHNCD@Invalid?5ICE?5candidate?5ID?5?$CIPJNATH@ 004ffe0c     pjnath-i386-win32-vc8-debug:errno.obj
 0003:00001e44       ??_C@_0CP@DPHDFCDB@Invalid?5ICE?5component?5ID?5?$CIPJNATH@ 004ffe44     pjnath-i386-win32-vc8-debug:errno.obj
 0003:00001e80       ??_C@_0EG@MFEBLALG@Default?5target?5doesn?8t?5match?5any@ 004ffe80     pjnath-i386-win32-vc8-debug:errno.obj
 0003:00001ed4       ??_C@_0CO@LKKAIKIM@All?5ICE?5checklists?5failed?5?$CIPJNAT@ 004ffed4     pjnath-i386-win32-vc8-debug:errno.obj
 0003:00001f0c       ??_C@_0DB@PAOLMMAD@ICE?5check?5is?5in?5progress?5?$CIPJNATH@ 004fff0c     pjnath-i386-win32-vc8-debug:errno.obj
 0003:00001f48       ??_C@_0CK@OFPAPMME@ICE?5session?5not?5available?5?$CIPJNAT@ 004fff48     pjnath-i386-win32-vc8-debug:errno.obj
 0003:00001f7c       ??_C@_0DG@FKMKCCEE@STUN?5object?5has?5been?5destoyed?5?$CIP@ 004fff7c     pjnath-i386-win32-vc8-debug:errno.obj
 0003:00001fc0       ??_C@_0EE@HCGFHPNA@Invalid?5STUN?5server?5or?5server?5no@ 004fffc0     pjnath-i386-win32-vc8-debug:errno.obj
 0003:00002014       ??_C@_0DC@EGLMCOFO@Invalid?5STUN?5address?5family?5valu@ 00500014     pjnath-i386-win32-vc8-debug:errno.obj
 0003:00002050       ??_C@_0DM@IEAEKGHC@STUN?5IPv6?5attribute?5not?5supporte@ 00500050     pjnath-i386-win32-vc8-debug:errno.obj
 0003:00002098       ??_C@_0EJ@JLJGOHGB@STUN?5?$CIXOR?9?$CJMAPPED?9ADDRESS?5attrib@ 00500098     pjnath-i386-win32-vc8-debug:errno.obj
 0003:000020f0       ??_C@_0EB@DAIGGIDN@Invalid?5STUN?5attribute?5after?5FIN@ 005000f0     pjnath-i386-win32-vc8-debug:errno.obj
 0003:00002140       ??_C@_0EH@EPGNFFEB@Invalid?5STUN?5attribute?5after?5MES@ 00500140     pjnath-i386-win32-vc8-debug:errno.obj
 0003:00002198       ??_C@_0DP@ENOHKACM@STUN?5FINGERPRINT?5verification?5fa@ 00500198     pjnath-i386-win32-vc8-debug:errno.obj
 0003:000021e4       ??_C@_0DF@BKFKBCGF@Found?5duplicate?5STUN?5attribute?5?$CI@ 005001e4     pjnath-i386-win32-vc8-debug:errno.obj
 0003:00002224       ??_C@_0DG@BPOIAHEF@Invalid?5STUN?5attribute?5length?5?$CIP@ 00500224     pjnath-i386-win32-vc8-debug:errno.obj
 0003:00002264       ??_C@_0DD@OHEENKIB@Too?5many?5STUN?5attributes?5?$CIPJNATH@ 00500264     pjnath-i386-win32-vc8-debug:errno.obj
 0003:000022a4       ??_C@_0DG@KPHKFJAB@STUN?5transaction?5has?5timed?5out?5?$CI@ 005002a4     pjnath-i386-win32-vc8-debug:errno.obj
 0003:000022e8       ??_C@_0EA@DFHBMLHL@Invalid?5or?5unexpected?5STUN?5messa@ 005002e8     pjnath-i386-win32-vc8-debug:errno.obj
 0003:00002334       ??_C@_0DD@EDOPFABO@Invalid?5STUN?5message?5length?5?$CIPJN@ 00500334     pjnath-i386-win32-vc8-debug:errno.obj
 0003:00002374       ??_C@_0CJ@GKFBHIPI@Invalid?5STUN?5message?5?$CIPJNATH_EIN@ 00500374     pjnath-i386-win32-vc8-debug:errno.obj
 0003:000024ac       ??_C@_0BI@EOEFPHGO@Unknown?5pjnath?5error?5?$CFd?$AA@ 005004ac     pjnath-i386-win32-vc8-debug:errno.obj
 0003:000024c8       ??_C@_0BJ@CCAJIKCJ@Unknown?5STUN?5err?9code?5?$CFd?$AA@ 005004c8     pjnath-i386-win32-vc8-debug:errno.obj
 0003:000024e8       ??_C@_0M@PMDOMEDL@Controlling?$AA@ 005004e8     pjnath-i386-win32-vc8-debug:ice_session.obj
 0003:000024f8       ??_C@_0L@KHGPKCEO@Controlled?$AA@ 005004f8     pjnath-i386-win32-vc8-debug:ice_session.obj
 0003:00002508       ??_C@_07NBCGADJA@Unknown?$AA@ 00500508     pjnath-i386-win32-vc8-debug:ice_session.obj
 0003:00002514       ??_C@_09MIJAKHKB@Completed?$AA@ 00500514     pjnath-i386-win32-vc8-debug:ice_session.obj
 0003:00002520       ??_C@_07JKJCPGE@Running?$AA@ 00500520     pjnath-i386-win32-vc8-debug:ice_session.obj
 0003:0000252c       ??_C@_04IBDNPPCI@Idle?$AA@ 0050052c     pjnath-i386-win32-vc8-debug:ice_session.obj
 0003:00002534       ??_C@_06CMLPEGNC@Failed?$AA@ 00500534     pjnath-i386-win32-vc8-debug:ice_session.obj
 0003:0000253c       ??_C@_09OCHKHMJA@Succeeded?$AA@ 0050053c     pjnath-i386-win32-vc8-debug:ice_session.obj
 0003:00002548       ??_C@_0M@ENHIJGMI@In?5Progress?$AA@ 00500548     pjnath-i386-win32-vc8-debug:ice_session.obj
 0003:00002558       ??_C@_07OFINCGEG@Waiting?$AA@ 00500558     pjnath-i386-win32-vc8-debug:ice_session.obj
 0003:00002564       ??_C@_06KJCACDIO@Frozen?$AA@ 00500564     pjnath-i386-win32-vc8-debug:ice_session.obj
 0003:0000256c       ??_C@_05JPBNCBLI@relay?$AA@ 0050056c     pjnath-i386-win32-vc8-debug:ice_session.obj
 0003:00002574       ??_C@_05HOGLIJFH@prflx?$AA@ 00500574     pjnath-i386-win32-vc8-debug:ice_session.obj
 0003:0000257c       ??_C@_05PIPPPLPJ@srflx?$AA@ 0050057c     pjnath-i386-win32-vc8-debug:ice_session.obj
 0003:00002584       ??_C@_04OODOLJMA@host?$AA@ 00500584     pjnath-i386-win32-vc8-debug:ice_session.obj
 0003:00002590       ??_C@_1EC@PJGPBINB@?$AAt?$AAy?$AAp?$AAe?$AA?5?$AA?$DM?$AA?$DN?$AA?5?$AAP?$AAJ?$AA_?$AAI?$AAC?$AAE?$AA_?$AAC?$AAA?$AAN?$AAD?$AA_?$AAT?$AAY?$AAP?$AAE?$AA_?$AAR?$AAE?$AAL?$AAA?$AAY?$AAE?$AAD@ 00500590     pjnath-i386-win32-vc8-debug:ice_session.obj
 0003:000025e0       ??_C@_1GO@EHCEKCBJ@?$AAd?$AA?3?$AA?2?$AAm?$AAy?$AAg?$AAi?$AAt?$AA?2?$AAp?$AAj?$AAp?$AAr?$AAo?$AAj?$AAe?$AAc?$AAt?$AA?9?$AA1?$AA?4?$AA4?$AA?2?$AAp?$AAj?$AAn?$AAa?$AAt?$AAh?$AA?2?$AAs?$AAr@ 005005e0     pjnath-i386-win32-vc8-debug:ice_session.obj
 0003:00002664       ??_C@_02HHFHKOHM@?$DP?$DP?$AA@ 00500664     pjnath-i386-win32-vc8-debug:ice_session.obj
 0003:00002668       ??_C@_04MAAPIHIO@?$CFc?$CFx?$AA@ 00500668     pjnath-i386-win32-vc8-debug:ice_session.obj
 0003:00002670       ??_C@_1CA@KGBAJNPE@?$AA?$CB?$AA?$CC?$AAI?$AAn?$AAv?$AAa?$AAl?$AAi?$AAd?$AA?5?$AAt?$AAy?$AAp?$AAe?$AA?$CC?$AA?$AA@ 00500670     pjnath-i386-win32-vc8-debug:ice_session.obj
 0003:00002698       ??_C@_0N@HIPKJAJN@Invalid?5type?$AA@ 00500698     pjnath-i386-win32-vc8-debug:ice_session.obj
 0003:000026a8       ??_C@_0DD@KKPCGINH@ICE?5session?5created?0?5comp_cnt?$DN?$CFd@ 005006a8     pjnath-i386-win32-vc8-debug:ice_session.obj
 0003:000026e8       ??_C@_07GBFPDLAH@icess?$CFp?$AA@ 005006e8     pjnath-i386-win32-vc8-debug:ice_session.obj
 0003:000026f4       ??_C@_1DA@BBKEJOGO@?$AAs?$AAt?$AAu?$AAn?$AA_?$AAc?$AAf?$AAg?$AA?5?$AA?$CG?$AA?$CG?$AA?5?$AAc?$AAb?$AA?5?$AA?$CG?$AA?$CG?$AA?5?$AAp?$AA_?$AAi?$AAc?$AAe?$AA?$AA@ 005006f4     pjnath-i386-win32-vc8-debug:ice_session.obj
 0003:00002730       ??_C@_17NHOBOBMD@?$AAi?$AAc?$AAe?$AA?$AA@ 00500730     pjnath-i386-win32-vc8-debug:ice_session.obj
 0003:0000273c       ??_C@_0BO@JMOAKFOG@ICE?5nomination?5type?5set?5to?5?$CFs?$AA@ 0050073c     pjnath-i386-win32-vc8-debug:ice_session.obj
 0003:00002760       ??_C@_07KMAJHHLM@regular?$AA@ 00500760     pjnath-i386-win32-vc8-debug:ice_session.obj
 0003:0000276c       ??_C@_0L@EPMNHNJ@aggressive?$AA@ 0050076c     pjnath-i386-win32-vc8-debug:ice_session.obj
 0003:0000277c       ??_C@_1BG@EEIMBEHN@?$AAi?$AAc?$AAe?$AA?5?$AA?$CG?$AA?$CG?$AA?5?$AAo?$AAp?$AAt?$AA?$AA@ 0050077c     pjnath-i386-win32-vc8-debug:ice_session.obj
 0003:00002798       ??_C@_0BH@HEPEICCN@Destroying?5ICE?5session?$AA@ 00500798     pjnath-i386-win32-vc8-debug:ice_session.obj
 0003:000027b4       ??_C@_0BD@IJCAAGMH@Role?5changed?5to?5?$CFs?$AA@ 005007b4     pjnath-i386-win32-vc8-debug:ice_session.obj
 0003:000027cc       ??_C@_1BK@JLCFBBD@?$AAi?$AAc?$AAe?$AA?5?$AA?$CG?$AA?$CG?$AA?5?$AAp?$AAr?$AAe?$AAf?$AAs?$AA?$AA@ 005007cc     pjnath-i386-win32-vc8-debug:ice_session.obj
 0003:000027f0       ??_C@_0GB@IJEEDFAM@Candidate?5?$CFd?5added?3?5comp_id?$DN?$CFd?0?5@ 005007f0     pjnath-i386-win32-vc8-debug:ice_session.obj
 0003:00002864       ??_C@_1DC@GILFCBEJ@?$AAc?$AAo?$AAm?$AAp?$AA_?$AAi?$AAd?$AA?5?$AA?$DM?$AA?$DN?$AA?5?$AAi?$AAc?$AAe?$AA?9?$AA?$DO?$AAc?$AAo?$AAm?$AAp?$AA_?$AAc?$AAn?$AAt?$AA?$AA@ 00500864     pjnath-i386-win32-vc8-debug:ice_session.obj
 0003:000028a0       ??_C@_1HM@JBCNDABN@?$AAi?$AAc?$AAe?$AA?5?$AA?$CG?$AA?$CG?$AA?5?$AAc?$AAo?$AAm?$AAp?$AA_?$AAi?$AAd?$AA?5?$AA?$CG?$AA?$CG?$AA?5?$AAf?$AAo?$AAu?$AAn?$AAd?$AAa?$AAt?$AAi?$AAo?$AAn?$AA?5?$AA?$CG?$AA?$CG?$AA?5@ 005008a0     pjnath-i386-win32-vc8-debug:ice_session.obj
 0003:00002938       ??_C@_1EE@ILMCLBA@?$AA?$CB?$AA?$CC?$AAS?$AAh?$AAo?$AAu?$AAl?$AAd?$AA?5?$AAh?$AAa?$AAv?$AAe?$AA?5?$AAa?$AA?5?$AAc?$AAa?$AAn?$AAd?$AAi?$AAd?$AAa?$AAt?$AAe?$AA?5?$AAb?$AAy?$AA?5?$AAn?$AAo?$AAw@ 00500938     pjnath-i386-win32-vc8-debug:ice_session.obj
 0003:0000298c       ??_C@_0BP@MPEEGEIA@Should?5have?5a?5candidate?5by?5now?$AA@ 0050098c     pjnath-i386-win32-vc8-debug:ice_session.obj
 0003:000029b4       ??_C@_1DE@CJGPFLKF@?$AAi?$AAc?$AAe?$AA?5?$AA?$CG?$AA?$CG?$AA?5?$AAc?$AAo?$AAm?$AAp?$AA_?$AAi?$AAd?$AA?5?$AA?$CG?$AA?$CG?$AA?5?$AAc?$AAa?$AAn?$AAd?$AA_?$AAi?$AAd?$AA?$AA@ 005009b4     pjnath-i386-win32-vc8-debug:ice_session.obj
 0003:000029f8       ??_C@_0HF@MCFKOKNI@Controlled?5agent?5timed?9out?5in?5wa@ 005009f8     pjnath-i386-win32-vc8-debug:ice_session.obj
 0003:00002a88       ??_C@_1EC@GMBPKEJK@?$AA?$CB?$AA?$CC?$AAN?$AAo?$AAt?$AA?5?$AAe?$AAx?$AAp?$AAe?$AAc?$AAt?$AAe?$AAd?$AA?5?$AAa?$AAn?$AAy?$AA?5?$AAt?$AAi?$AAm?$AAe?$AAr?$AA?5?$AAa?$AAc?$AAt?$AAi?$AAv?$AAe?$AA?$CC@ 00500a88     pjnath-i386-win32-vc8-debug:ice_session.obj
 0003:00002ad8       ??_C@_0BO@LNPHBEGP@Not?5expected?5any?5timer?5active?$AA@ 00500ad8     pjnath-i386-win32-vc8-debug:ice_session.obj
 0003:00002b00       ??_C@_1EK@IGMGMMBK@?$AAc?$AAo?$AAm?$AAp?$AA?9?$AA?$DO?$AAn?$AAo?$AAm?$AAi?$AAn?$AAa?$AAt?$AAe?$AAd?$AA_?$AAc?$AAh?$AAe?$AAc?$AAk?$AA?5?$AA?$CB?$AA?$DN?$AA?5?$AA?$CI?$AA?$CI?$AAv?$AAo?$AAi?$AAd?$AA?5@ 00500b00     pjnath-i386-win32-vc8-debug:ice_session.obj
 0003:00002b58       ??_C@_0L@DAPINKOE@Valid?5list?$AA@ 00500b58     pjnath-i386-win32-vc8-debug:ice_session.obj
 0003:00002b68       ??_C@_0CA@JLAONEAB@ICE?5process?5complete?0?5status?$DN?$CFs?$AA@ 00500b68     pjnath-i386-win32-vc8-debug:ice_session.obj
 0003:00002b90       ??_C@_0BD@DIAOJGPO@?5?$CFs?5?$CI?$CFs?0?5state?$DN?$CFs?$CJ?$AA@ 00500b90     pjnath-i386-win32-vc8-debug:ice_session.obj
 0003:00002ba8       ??_C@_0O@MFBJAADI@not?5nominated?$AA@ 00500ba8     pjnath-i386-win32-vc8-debug:ice_session.obj
 0003:00002bb8       ??_C@_09DIDNPBBH@nominated?$AA@ 00500bb8     pjnath-i386-win32-vc8-debug:ice_session.obj
 0003:00002bc4       ??_C@_02DKCKIIND@?$CFs?$AA@ 00500bc4     pjnath-i386-win32-vc8-debug:ice_session.obj
 0003:00002bc8       ??_C@_0L@JHOGIBBI@IPv6?9?$DOIPv6?$AA@ 00500bc8     pjnath-i386-win32-vc8-debug:ice_session.obj
 0003:00002bd8       ??_C@_0BH@DGBKCPGB@?$CFd?3?5?$FL?$CFd?$FN?5?$CFs?3?$CFd?9?9?$DO?$CFs?3?$CFd?$AA@ 00500bd8     pjnath-i386-win32-vc8-debug:ice_session.obj
 0003:00002bf4       ??_C@_0DH@PJHBEEJP@d?3?2mygit?2pjproject?91?44?2pjnath?2sr@ 00500bf4     pjnath-i386-win32-vc8-debug:ice_session.obj
 0003:00002c38       ??_C@_0BD@LGGHIMDK@Checklist?5created?3?$AA@ 00500c38     pjnath-i386-win32-vc8-debug:ice_session.obj
 0003:00002c50       ??_C@_01JLIPDDHJ@?3?$AA@   00500c50     pjnath-i386-win32-vc8-debug:ice_session.obj
 0003:00002c58       ??_C@_1EC@OECMMGCM@?$AAr?$AAc?$AAa?$AAn?$AAd?$AA_?$AAc?$AAn?$AAt?$AA?5?$AA?$CL?$AA?5?$AAi?$AAc?$AAe?$AA?9?$AA?$DO?$AAr?$AAc?$AAa?$AAn?$AAd?$AA_?$AAc?$AAn?$AAt?$AA?5?$AA?$DM?$AA?$DN?$AA?5?$AA1?$AA6@ 00500c58     pjnath-i386-win32-vc8-debug:ice_session.obj
 0003:00002ca8       ??_C@_1GK@OIAOHAAN@?$AAi?$AAc?$AAe?$AA?5?$AA?$CG?$AA?$CG?$AA?5?$AAr?$AAe?$AAm?$AA_?$AAu?$AAf?$AAr?$AAa?$AAg?$AA?5?$AA?$CG?$AA?$CG?$AA?5?$AAr?$AAe?$AAm?$AA_?$AAp?$AAa?$AAs?$AAs?$AAw?$AAd?$AA?5?$AA?$CG@ 00500ca8     pjnath-i386-win32-vc8-debug:ice_session.obj
 0003:00002d28       ??_C@_0BF@GMFHLHC@Check?5?$CFs?5pruned?5?$CI?$CFs?$CJ?$AA@ 00500d28     pjnath-i386-win32-vc8-debug:ice_session.obj
 0003:00002d44       ??_C@_0L@GPOKGCHH@equal?5base?$AA@ 00500d44     pjnath-i386-win32-vc8-debug:ice_session.obj
 0003:00002d54       ??_C@_0BA@NHCOBJOF@duplicate?5found?$AA@ 00500d54     pjnath-i386-win32-vc8-debug:ice_session.obj
 0003:00002d68       ??_C@_0DG@GJLGANE@Base?5candidate?5?$CFs?3?$CFd?5not?5found?5f@ 00500d68     pjnath-i386-win32-vc8-debug:ice_session.obj
 0003:00002da8       ??_C@_1DG@POPDCLKP@?$AA?$CB?$AA?$CC?$AAI?$AAn?$AAv?$AAa?$AAl?$AAi?$AAd?$AA?5?$AAa?$AAd?$AAd?$AAr?$AAe?$AAs?$AAs?$AA?5?$AAf?$AAa?$AAm?$AAi?$AAl?$AAy?$AA?$CB?$AA?$CC?$AA?$AA@ 00500da8     pjnath-i386-win32-vc8-debug:ice_session.obj
 0003:00002de8       ??_C@_0BI@MIMBJACF@Invalid?5address?5family?$CB?$AA@ 00500de8     pjnath-i386-win32-vc8-debug:ice_session.obj
 0003:00002e04       ??_C@_0BN@HMALAHNG@Periodic?5timer?5rescheduled?4?4?$AA@ 00500e04     pjnath-i386-win32-vc8-debug:ice_session.obj
 0003:00002e28       ??_C@_1CC@GOCKHKD@?$AAc?$AA?9?$AA?$DO?$AAe?$AAr?$AAr?$AA_?$AAc?$AAo?$AAd?$AAe?$AA?5?$AA?$DN?$AA?$DN?$AA?5?$AA0?$AA?$AA@ 00500e28     pjnath-i386-win32-vc8-debug:ice_session.obj
 0003:00002e50       ??_C@_1CE@CPLAKLPH@?$AAv?$AAc?$AA?9?$AA?$DO?$AAe?$AAr?$AAr?$AA_?$AAc?$AAo?$AAd?$AAe?$AA?5?$AA?$DN?$AA?$DN?$AA?5?$AA0?$AA?$AA@ 00500e50     pjnath-i386-win32-vc8-debug:ice_session.obj
 0003:00002e80       ??_C@_1FI@HHEPMOHB@?$AAi?$AAc?$AAe?$AA?9?$AA?$DO?$AAc?$AAo?$AAm?$AAp?$AA?$FL?$AAi?$AA?$FN?$AA?4?$AAn?$AAo?$AAm?$AAi?$AAn?$AAa?$AAt?$AAe?$AAd?$AA_?$AAc?$AAh?$AAe?$AAc?$AAk?$AA?5?$AA?$DN?$AA?$DN?$AA?5@ 00500e80     pjnath-i386-win32-vc8-debug:ice_session.obj
 0003:00002eec       ??_C@_1DA@NKEGLFAP@?$AAi?$AAc?$AAe?$AA?9?$AA?$DO?$AAi?$AAs?$AA_?$AAn?$AAo?$AAm?$AAi?$AAn?$AAa?$AAt?$AAi?$AAn?$AAg?$AA?5?$AA?$DN?$AA?$DN?$AA?5?$AA0?$AA?$AA@ 00500eec     pjnath-i386-win32-vc8-debug:ice_session.obj
 0003:00002f28       ??_C@_0BL@DBPGJFIN@Starting?5nominated?5check?4?4?$AA@ 00500f28     pjnath-i386-win32-vc8-debug:ice_session.obj
 0003:00002f48       ??_C@_0CG@OPDLDKOC@Check?5?$CFs?3?5state?5changed?5from?5?$CFs?5@ 00500f48     pjnath-i386-win32-vc8-debug:ice_session.obj
 0003:00002f78       ??_C@_1GC@LLHNHMPP@?$AAc?$AAh?$AAe?$AAc?$AAk?$AA?9?$AA?$DO?$AAs?$AAt?$AAa?$AAt?$AAe?$AA?5?$AA?$DM?$AA?5?$AAP?$AAJ?$AA_?$AAI?$AAC?$AAE?$AA_?$AAS?$AAE?$AAS?$AAS?$AA_?$AAC?$AAH?$AAE?$AAC?$AAK@ 00500f78     pjnath-i386-win32-vc8-debug:ice_session.obj
 0003:00002ff0       ??_C@_0CC@ODBMOPAG@Starting?5checklist?5periodic?5chec@ 00500ff0     pjnath-i386-win32-vc8-debug:ice_session.obj
 0003:00003018       ??_C@_0CH@OMPOKJDI@Checklist?3?5state?5changed?5from?5?$CFs@ 00501018     pjnath-i386-win32-vc8-debug:ice_session.obj
 0003:00003048       ??_C@_0BL@CLDMLOKE@Error?5sending?5STUN?5request?$AA@ 00501048     pjnath-i386-win32-vc8-debug:ice_session.obj
 0003:00003068       ??_C@_0BM@GMPCDDCD@Error?5creating?5STUN?5request?$AA@ 00501068     pjnath-i386-win32-vc8-debug:ice_session.obj
 0003:0000308c       ??_C@_0CI@CBEMIFEA@Sending?5connectivity?5check?5for?5c@ 0050108c     pjnath-i386-win32-vc8-debug:ice_session.obj
 0003:000030c0       ??_C@_1FA@LCIKCINN@?$AAc?$AAo?$AAm?$AAp?$AA_?$AAi?$AAd?$AA?5?$AA?$DO?$AA?5?$AA0?$AA?5?$AA?$CG?$AA?$CG?$AA?5?$AAc?$AAo?$AAm?$AAp?$AA_?$AAi?$AAd?$AA?5?$AA?$DM?$AA?$DN?$AA?5?$AAi?$AAc?$AAe?$AA?9?$AA?$DO?$AAc@ 005010c0     pjnath-i386-win32-vc8-debug:ice_session.obj
 0003:00003120       ??_C@_0DF@JOCPCLFF@Performing?5delayed?5triggerred?5ch@ 00501120     pjnath-i386-win32-vc8-debug:ice_session.obj
 0003:00003160       ??_C@_1FI@NHENKOBP@?$AA?$CB?$AA?$CC?$AAU?$AAn?$AAa?$AAb?$AAl?$AAe?$AA?5?$AAt?$AAo?$AA?5?$AAf?$AAi?$AAn?$AAd?$AA?5?$AAc?$AAh?$AAe?$AAc?$AAk?$AAl?$AAi?$AAs?$AAt?$AA?5?$AAf?$AAo?$AAr?$AA?5?$AAc@ 00501160     pjnath-i386-win32-vc8-debug:ice_session.obj
 0003:000031cc       ??_C@_0CJ@NHLHPLAK@Unable?5to?5find?5checklist?5for?5com@ 005011cc     pjnath-i386-win32-vc8-debug:ice_session.obj
 0003:00003200       ??_C@_0BF@CANPHDIJ@Starting?5ICE?5check?4?4?$AA@ 00501200     pjnath-i386-win32-vc8-debug:ice_session.obj
 0003:0000321c       ??_C@_1CK@PEEGLAMA@?$AAi?$AAc?$AAe?$AA?9?$AA?$DO?$AAc?$AAl?$AAi?$AAs?$AAt?$AA?4?$AAc?$AAo?$AAu?$AAn?$AAt?$AA?5?$AA?$DO?$AA?5?$AA0?$AA?$AA@ 0050121c     pjnath-i386-win32-vc8-debug:ice_session.obj
 0003:00003250       ??_C@_1DG@NHEBKAMM@?$AAi?$AAc?$AAe?$AA?9?$AA?$DO?$AAv?$AAa?$AAl?$AAi?$AAd?$AA_?$AAl?$AAi?$AAs?$AAt?$AA?4?$AAc?$AAo?$AAu?$AAn?$AAt?$AA?5?$AA?$DM?$AA?5?$AA3?$AA2?$AA?$AA@ 00501250     pjnath-i386-win32-vc8-debug:ice_session.obj
 0003:00003290       ??_C@_1CK@JHOLHKH@?$AAl?$AAc?$AAa?$AAn?$AAd?$AA?5?$AA?$DN?$AA?$DN?$AA?5?$AA?$CI?$AA?$CI?$AAv?$AAo?$AAi?$AAd?$AA?5?$AA?$CK?$AA?$CJ?$AA0?$AA?$CJ?$AA?$AA@ 00501290     pjnath-i386-win32-vc8-debug:ice_session.obj
 0003:000032c4       ??_C@_0CH@JOLLOJFL@Check?5?$CFs?$CFs?3?5connectivity?5check?5S@ 005012c4     pjnath-i386-win32-vc8-debug:ice_session.obj
 0003:000032f4       ??_C@_0DP@OFIEDDAK@Check?5?$CFs?$CFs?3?5connectivity?5check?5F@ 005012f4     pjnath-i386-win32-vc8-debug:ice_session.obj
 0003:00003340       ??_C@_0CK@BOFLBEFI@Check?5?$CFs?$CFs?3?5connectivity?5check?5F@ 00501340     pjnath-i386-win32-vc8-debug:ice_session.obj
 0003:00003374       ??_C@_0BB@DIDCBKOH@?5?$CInot?5nominated?$CJ?$AA@ 00501374     pjnath-i386-win32-vc8-debug:ice_session.obj
 0003:00003388       ??_C@_0N@OBNDGEA@?5?$CInominated?$CJ?$AA@ 00501388     pjnath-i386-win32-vc8-debug:ice_session.obj
 0003:00003398       ??_C@_0CJ@FEOOAKNC@Resending?5check?5because?5of?5role?5@ 00501398     pjnath-i386-win32-vc8-debug:ice_session.obj
 0003:000033cc       ??_C@_0DA@NHEGFEJN@Changing?5role?5because?5of?5role?5co@ 005013cc     pjnath-i386-win32-vc8-debug:ice_session.obj
 0003:00003408       ??_C@_1GG@BFDNJIJN@?$AA?$CB?$AA?$CC?$AAW?$AAe?$AA?5?$AAs?$AAh?$AAo?$AAu?$AAl?$AAd?$AA?5?$AAh?$AAa?$AAv?$AAe?$AA?5?$AAp?$AAu?$AAt?$AA?5?$AAC?$AAO?$AAN?$AAT?$AAR?$AAO?$AAL?$AAL?$AAI?$AAN?$AAG@ 00501408     pjnath-i386-win32-vc8-debug:ice_session.obj
 0003:00003484       ??_C@_0DA@FCAIKLHD@We?5should?5have?5put?5CONTROLLING?1C@ 00501484     pjnath-i386-win32-vc8-debug:ice_session.obj
 0003:000034c0       ??_C@_1CM@GIPKGNP@?$AAt?$AAd?$AAa?$AAt?$AAa?$AA?5?$AA?$DN?$AA?$DN?$AA?5?$AAc?$AAh?$AAe?$AAc?$AAk?$AA?9?$AA?$DO?$AAt?$AAd?$AAa?$AAt?$AAa?$AA?$AA@ 005014c0     pjnath-i386-win32-vc8-debug:ice_session.obj
 0003:000034f4       ??_C@_1CO@LNLCIBNC@?$AAm?$AAs?$AAg?$AA_?$AAd?$AAa?$AAt?$AAa?$AA?9?$AA?$DO?$AAh?$AAa?$AAs?$AA_?$AAr?$AAe?$AAq?$AA_?$AAd?$AAa?$AAt?$AAa?$AA?$AA@ 005014f4     pjnath-i386-win32-vc8-debug:ice_session.obj
 0003:0000352c       ??_C@_0CE@MENGPKBF@Scheduling?5nominated?5check?5in?5?$CFd@ 0050152c     pjnath-i386-win32-vc8-debug:ice_session.obj
 0003:00003558       ??_C@_0DJ@IFENMLDG@All?5checks?5have?5completed?0?5start@ 00501558     pjnath-i386-win32-vc8-debug:ice_session.obj
 0003:000035a0       ??_C@_0GO@IEBBDPMP@All?5checks?5have?5completed?4?5Contr@ 005015a0     pjnath-i386-win32-vc8-debug:ice_session.obj
 0003:00003624       ??_C@_0CC@KCAFFELN@Cancelling?5check?5?$CFs?5?$CIIn?5Progress@ 00501624     pjnath-i386-win32-vc8-debug:ice_session.obj
 0003:0000364c       ??_C@_0CK@IDKEAGPB@Check?5?$CFs?5to?5be?5failed?5because?5st@ 0050164c     pjnath-i386-win32-vc8-debug:ice_session.obj
 0003:00003680       ??_C@_0BJ@LDLHNMFG@Check?5?$CFd?5is?5successful?$CFs?$AA@ 00501680     pjnath-i386-win32-vc8-debug:ice_session.obj
 0003:0000369e       ??_C@_00CNPNBAHC@?$AA@     0050169e     pjnath-i386-win32-vc8-debug:ice_session.obj
 0003:000036a0       ??_C@_0BA@OAPJPHMG@?5?5and?5nominated?$AA@ 005016a0     pjnath-i386-win32-vc8-debug:ice_session.obj
 0003:000036b8       ??_C@_1GE@JMEIPLDB@?$AAc?$AAh?$AAe?$AAc?$AAk?$AA?9?$AA?$DO?$AAs?$AAt?$AAa?$AAt?$AAe?$AA?5?$AA?$DO?$AA?$DN?$AA?5?$AAP?$AAJ?$AA_?$AAI?$AAC?$AAE?$AA_?$AAS?$AAE?$AAS?$AAS?$AA_?$AAC?$AAH?$AAE?$AAC@ 005016b8     pjnath-i386-win32-vc8-debug:ice_session.obj
 0003:00003730       ??_C@_0CE@LGFHCNGF@Received?5an?5early?5check?5for?5comp@ 00501730     pjnath-i386-win32-vc8-debug:ice_session.obj
 0003:0000375c       ??_C@_0DC@IGMDOGKF@Changing?5role?5because?5of?5ICE?9CON@ 0050175c     pjnath-i386-win32-vc8-debug:ice_session.obj
 0003:00003798       ??_C@_0DD@JKHICBKM@Changing?5role?5because?5of?5ICE?9CON@ 00501798     pjnath-i386-win32-vc8-debug:ice_session.obj
 0003:000037d8       ??_C@_1DE@JKLMBMDA@?$AAu?$AAn?$AAa?$AAm?$AAe?$AA_?$AAa?$AAt?$AAt?$AAr?$AA?5?$AA?$CB?$AA?$DN?$AA?5?$AA?$CI?$AA?$CI?$AAv?$AAo?$AAi?$AAd?$AA?5?$AA?$CK?$AA?$CJ?$AA0?$AA?$CJ?$AA?$AA@ 005017d8     pjnath-i386-win32-vc8-debug:ice_session.obj
 0003:00003818       ??_C@_0CK@NAJKGKCD@Received?5Binding?5request?5with?5no@ 00501818     pjnath-i386-win32-vc8-debug:ice_session.obj
 0003:00003850       ??_C@_0EI@JIILLOPC@Error?3?5unable?5to?5perform?5trigger@ 00501850     pjnath-i386-win32-vc8-debug:ice_session.obj
 0003:000038a8       ??_C@_0BO@DPPPLJDK@New?5triggered?5check?5added?3?5?$CFd?$AA@ 005018a8     pjnath-i386-win32-vc8-debug:ice_session.obj
 0003:000038d0       ??_C@_0EC@JKBLMNIB@Triggered?5check?5for?5check?5?$CFd?5not@ 005018d0     pjnath-i386-win32-vc8-debug:ice_session.obj
 0003:00003920       ??_C@_0BM@HDNBBGIH@Valid?5check?5?$CFs?5is?5nominated?$AA@ 00501920     pjnath-i386-win32-vc8-debug:ice_session.obj
 0003:00003948       ??_C@_0FE@BCMFBGFD@Triggered?5check?5for?5check?5?$CFd?5not@ 00501948     pjnath-i386-win32-vc8-debug:ice_session.obj
 0003:000039ac       ??_C@_0CI@DFOHDENB@Performing?5triggered?5check?5for?5c@ 005019ac     pjnath-i386-win32-vc8-debug:ice_session.obj
 0003:000039dc       ??_C@_0DK@KKNMECMB@Received?5Binding?5request?5but?5no?5@ 005019dc     pjnath-i386-win32-vc8-debug:ice_session.obj
 0003:00003a24       ??_C@_0DD@IOBOGPOP@Added?5new?5remote?5candidate?5from?5@ 00501a24     pjnath-i386-win32-vc8-debug:ice_session.obj
 0003:00003a64       ??_C@_03NBEPHFMB@f?$CFp?$AA@ 00501a64     pjnath-i386-win32-vc8-debug:ice_session.obj
 0003:00003a68       ??_C@_0EN@NFGIOGKB@Unable?5to?5add?5new?5peer?5reflexive@ 00501a68     pjnath-i386-win32-vc8-debug:ice_session.obj
 0003:00003ac4       ??_C@_0DD@IMPDJCAJ@Received?5unexpected?5?$CFs?5indicatio@ 00501ac4     pjnath-i386-win32-vc8-debug:ice_session.obj
 0003:00003b04       ??_C@_0DI@JIMHBCHH@Received?5Binding?5Indication?5keep@ 00501b04     pjnath-i386-win32-vc8-debug:ice_session.obj
 0003:00003b48       ??_C@_1BO@IHIAMALN@?$AAi?$AAc?$AAe?$AA?5?$AA?$CG?$AA?$CG?$AA?5?$AAc?$AAo?$AAm?$AAp?$AA_?$AAi?$AAd?$AA?$AA@ 00501b48     pjnath-i386-win32-vc8-debug:ice_session.obj
 0003:00003b6c       ??_C@_0CG@KPNLGOEI@Error?5processing?5incoming?5messag@ 00501b6c     pjnath-i386-win32-vc8-debug:ice_session.obj
 0003:00003b9c       ??_C@_1DE@PCAPHNEO@?$AA?$CB?$AA?$CC?$AAI?$AAn?$AAv?$AAa?$AAl?$AAi?$AAd?$AA?5?$AAT?$AAU?$AAR?$AAN?$AA?5?$AAc?$AAo?$AAn?$AAn?$AA_?$AAt?$AAy?$AAp?$AAe?$AA?$CC?$AA?$AA@ 00501b9c     pjnath-i386-win32-vc8-debug:turn_sock.obj
 0003:00003bdc       ??_C@_0BH@BAIBJOOD@Invalid?5TURN?5conn_type?$AA@ 00501bdc     pjnath-i386-win32-vc8-debug:turn_sock.obj
 0003:00003bf8       ??_C@_08HBMEOPEK@tcprel?$CFp?$AA@ 00501bf8     pjnath-i386-win32-vc8-debug:turn_sock.obj
 0003:00003c04       ??_C@_08GMHKPCBA@udprel?$CFp?$AA@ 00501c04     pjnath-i386-win32-vc8-debug:turn_sock.obj
 0003:00003c10       ??_C@_1DO@KHKGBNBF@?$AAc?$AAo?$AAn?$AAn?$AA_?$AAt?$AAy?$AAp?$AAe?$AA?$CB?$AA?$DN?$AAP?$AAJ?$AA_?$AAT?$AAU?$AAR?$AAN?$AA_?$AAT?$AAP?$AA_?$AAT?$AAC?$AAP?$AA?5?$AA?$HM?$AA?$HM?$AA?5?$AA1?$AA?$AA@ 00501c10     pjnath-i386-win32-vc8-debug:turn_sock.obj
 0003:00003c60       ??_C@_1EE@BHODCNOF@?$AAa?$AAf?$AA?$DN?$AA?$DN?$AAP?$AAJ?$AA_?$AAA?$AAF?$AA_?$AAI?$AAN?$AAE?$AAT?$AA?5?$AA?$HM?$AA?$HM?$AA?5?$AAa?$AAf?$AA?$DN?$AA?$DN?$AAP?$AAJ?$AA_?$AAA?$AAF?$AA_?$AAI?$AAN?$AAE?$AAT@ 00501c60     pjnath-i386-win32-vc8-debug:turn_sock.obj
 0003:00003cb4       ??_C@_1CG@JNNBKEOP@?$AAc?$AAf?$AAg?$AA?5?$AA?$CG?$AA?$CG?$AA?5?$AAp?$AA_?$AAt?$AAu?$AAr?$AAn?$AA_?$AAs?$AAo?$AAc?$AAk?$AA?$AA@ 00501cb4     pjnath-i386-win32-vc8-debug:turn_sock.obj
 0003:00003ce8       ??_C@_1GK@LONEHELO@?$AAd?$AA?3?$AA?2?$AAm?$AAy?$AAg?$AAi?$AAt?$AA?2?$AAp?$AAj?$AAp?$AAr?$AAo?$AAj?$AAe?$AAc?$AAt?$AA?9?$AA1?$AA?4?$AA4?$AA?2?$AAp?$AAj?$AAn?$AAa?$AAt?$AAh?$AA?2?$AAs?$AAr@ 00501ce8     pjnath-i386-win32-vc8-debug:turn_sock.obj
 0003:00003d68       ??_C@_1CI@ONJNINIL@?$AA?$CB?$AA?$CC?$AAI?$AAn?$AAv?$AAa?$AAl?$AAi?$AAd?$AA?5?$AAt?$AAi?$AAm?$AAe?$AAr?$AA?5?$AAi?$AAd?$AA?$CC?$AA?$AA@ 00501d68     pjnath-i386-win32-vc8-debug:turn_sock.obj
 0003:00003d98       ??_C@_0BB@BNLBPPAI@Invalid?5timer?5id?$AA@ 00501d98     pjnath-i386-win32-vc8-debug:turn_sock.obj
 0003:00003dac       ??_C@_0BA@DJGOFKBB@Destroying?5TURN?$AA@ 00501dac     pjnath-i386-win32-vc8-debug:turn_sock.obj
 0003:00003dc0       ??_C@_1BE@HLAKCJGI@?$AAt?$AAu?$AAr?$AAn?$AA_?$AAs?$AAo?$AAc?$AAk?$AA?$AA@ 00501dc0     pjnath-i386-win32-vc8-debug:turn_sock.obj
 0003:00003dd8       ??_C@_1CE@FKOLPGJL@?$AAt?$AAu?$AAr?$AAn?$AA_?$AAs?$AAo?$AAc?$AAk?$AA?5?$AA?$CG?$AA?$CG?$AA?5?$AAi?$AAn?$AAf?$AAo?$AA?$AA@ 00501dd8     pjnath-i386-win32-vc8-debug:turn_sock.obj
 0003:00003e04       ??_C@_0BK@EJEIEBII@Error?5setting?5TURN?5server?$AA@ 00501e04     pjnath-i386-win32-vc8-debug:turn_sock.obj
 0003:00003e24       ??_C@_0BJ@KKHDGLMO@Error?5setting?5credential?$AA@ 00501e24     pjnath-i386-win32-vc8-debug:turn_sock.obj
 0003:00003e44       ??_C@_1CA@EAJEGLKF@?$AAt?$AAu?$AAr?$AAn?$AA_?$AAs?$AAo?$AAc?$AAk?$AA?9?$AA?$DO?$AAs?$AAe?$AAs?$AAs?$AA?$AA@ 00501e44     pjnath-i386-win32-vc8-debug:turn_sock.obj
 0003:00003e6c       ??_C@_1CI@NIALPAFJ@?$AAt?$AAu?$AAr?$AAn?$AA_?$AAs?$AAo?$AAc?$AAk?$AA?5?$AA?$CG?$AA?$CG?$AA?5?$AAd?$AAo?$AAm?$AAa?$AAi?$AAn?$AA?$AA@ 00501e6c     pjnath-i386-win32-vc8-debug:turn_sock.obj
 0003:00003e9c       ??_C@_1DM@DDMJPCIA@?$AAt?$AAu?$AAr?$AAn?$AA_?$AAs?$AAo?$AAc?$AAk?$AA?5?$AA?$CG?$AA?$CG?$AA?5?$AAa?$AAd?$AAd?$AAr?$AA?5?$AA?$CG?$AA?$CG?$AA?5?$AAa?$AAd?$AAd?$AAr?$AA_?$AAl?$AAe?$AAn?$AA?$AA@ 00501e9c     pjnath-i386-win32-vc8-debug:turn_sock.obj
 0003:00003ee4       ??_C@_1DO@NFDEJLHP@?$AAt?$AAu?$AAr?$AAn?$AA_?$AAs?$AAo?$AAc?$AAk?$AA?9?$AA?$DO?$AAs?$AAe?$AAs?$AAs?$AA?5?$AA?$CB?$AA?$DN?$AA?5?$AA?$CI?$AA?$CI?$AAv?$AAo?$AAi?$AAd?$AA?5?$AA?$CK?$AA?$CJ?$AA0?$AA?$CJ?$AA?$AA@ 00501ee4     pjnath-i386-win32-vc8-debug:turn_sock.obj
 0003:00003f30       ??_C@_1DM@PPEHFMLH@?$AAt?$AAu?$AAr?$AAn?$AA_?$AAs?$AAo?$AAc?$AAk?$AA?5?$AA?$CG?$AA?$CG?$AA?5?$AAp?$AAe?$AAe?$AAr?$AA?5?$AA?$CG?$AA?$CG?$AA?5?$AAa?$AAd?$AAd?$AAr?$AA_?$AAl?$AAe?$AAn?$AA?$AA@ 00501f30     pjnath-i386-win32-vc8-debug:turn_sock.obj
 0003:00003f78       ??_C@_0O@LLOAPKGG@socket?5send?$CI?$CJ?$AA@ 00501f78     pjnath-i386-win32-vc8-debug:turn_sock.obj
 0003:00003f88       ??_C@_1EC@ODFNHKDJ@?$AA?$CB?$AA?$CC?$AAW?$AAe?$AA?5?$AAs?$AAh?$AAo?$AAu?$AAl?$AAd?$AA?5?$AAs?$AAh?$AAu?$AAt?$AAd?$AAo?$AAw?$AAn?$AA?5?$AAg?$AAr?$AAa?$AAc?$AAe?$AAf?$AAu?$AAl?$AAl?$AAy?$AA?$CC@ 00501f88     pjnath-i386-win32-vc8-debug:turn_sock.obj
 0003:00003fd8       ??_C@_0BO@IDEBLBGI@We?5should?5shutdown?5gracefully?$AA@ 00501fd8     pjnath-i386-win32-vc8-debug:turn_sock.obj
 0003:00003ffc       ??_C@_0BB@NIDAOAIN@Connecting?5to?5?$CFs?$AA@ 00501ffc     pjnath-i386-win32-vc8-debug:turn_sock.obj
 0003:00004010       ??_C@_0BH@DIOBGPMM@Error?5sending?5ALLOCATE?$AA@ 00502010     pjnath-i386-win32-vc8-debug:turn_sock.obj
 0003:0000402c       ??_C@_0O@CANKJNOA@TCP?5connected?$AA@ 0050202c     pjnath-i386-win32-vc8-debug:turn_sock.obj
 0003:0000403c       ??_C@_0BE@FIBBDPPG@TCP?5connect?$CI?$CJ?5error?$AA@ 0050203c     pjnath-i386-win32-vc8-debug:turn_sock.obj
 0003:00004054       ??_C@_0BG@IILKCFP@TCP?5connection?5closed?$AA@ 00502054     pjnath-i386-win32-vc8-debug:turn_sock.obj
 0003:00004070       ??_C@_0L@HMFPNGMA@Destroying?$AA@ 00502070     pjnath-i386-win32-vc8-debug:turn_session.obj
 0003:00004080       ??_C@_0M@GJOGKIMJ@Deallocated?$AA@ 00502080     pjnath-i386-win32-vc8-debug:turn_session.obj
 0003:00004090       ??_C@_0N@IPCMFLLC@Deallocating?$AA@ 00502090     pjnath-i386-win32-vc8-debug:turn_session.obj
 0003:000040a0       ??_C@_05GMBADOLI@Ready?$AA@ 005020a0     pjnath-i386-win32-vc8-debug:turn_session.obj
 0003:000040a8       ??_C@_0L@KAIGMDCO@Allocating?$AA@ 005020a8     pjnath-i386-win32-vc8-debug:turn_session.obj
 0003:000040b8       ??_C@_08KEGAJJCD@Resolved?$AA@ 005020b8     pjnath-i386-win32-vc8-debug:turn_session.obj
 0003:000040c4       ??_C@_09MPDONGOF@Resolving?$AA@ 005020c4     pjnath-i386-win32-vc8-debug:turn_session.obj
 0003:000040d0       ??_C@_0BM@MCGIKOOB@TURN?5client?5session?5created?$AA@ 005020d0     pjnath-i386-win32-vc8-debug:turn_session.obj
 0003:000040f4       ??_C@_06GIAJIGKJ@turn?$CFp?$AA@ 005020f4     pjnath-i386-win32-vc8-debug:turn_session.obj
 0003:000040fc       ??_C@_1CA@OHPPHMNB@?$AAc?$AAb?$AA?9?$AA?$DO?$AAo?$AAn?$AA_?$AAs?$AAe?$AAn?$AAd?$AA_?$AAp?$AAk?$AAt?$AA?$AA@ 005020fc     pjnath-i386-win32-vc8-debug:turn_session.obj
 0003:00004124       ??_C@_1DO@HMNEDDKK@?$AAc?$AAf?$AAg?$AA?5?$AA?$CG?$AA?$CG?$AA?5?$AAc?$AAf?$AAg?$AA?9?$AA?$DO?$AAp?$AAf?$AA?5?$AA?$CG?$AA?$CG?$AA?5?$AAc?$AAb?$AA?5?$AA?$CG?$AA?$CG?$AA?5?$AAp?$AA_?$AAs?$AAe?$AAs?$AAs?$AA?$AA@ 00502124     pjnath-i386-win32-vc8-debug:turn_session.obj
 0003:00004170       ??_C@_1HA@GELOCAEG@?$AAd?$AA?3?$AA?2?$AAm?$AAy?$AAg?$AAi?$AAt?$AA?2?$AAp?$AAj?$AAp?$AAr?$AAo?$AAj?$AAe?$AAc?$AAt?$AA?9?$AA1?$AA?4?$AA4?$AA?2?$AAp?$AAj?$AAn?$AAa?$AAt?$AAh?$AA?2?$AAs?$AAr@ 00502170     pjnath-i386-win32-vc8-debug:turn_session.obj
 0003:000041f8       ??_C@_0BO@KCFDOCLI@TURN?5client?5session?5destroyed?$AA@ 005021f8     pjnath-i386-win32-vc8-debug:turn_session.obj
 0003:0000421c       ??_C@_19GNDMHHNA@?$AAs?$AAe?$AAs?$AAs?$AA?$AA@ 0050221c     pjnath-i386-win32-vc8-debug:turn_session.obj
 0003:00004228       ??_C@_0CK@GBKDHDJJ@Request?5to?5shutdown?5in?5state?5?$CFs?0@ 00502228     pjnath-i386-win32-vc8-debug:turn_session.obj
 0003:0000425c       ??_C@_0BI@OJEKBCAD@State?5changed?5?$CFs?5?9?9?$DO?5?$CFs?$AA@ 0050225c     pjnath-i386-win32-vc8-debug:turn_session.obj
 0003:00004278       ??_C@_1BK@KAABELIB@?$AAs?$AAe?$AAs?$AAs?$AA?5?$AA?$CG?$AA?$CG?$AA?5?$AAi?$AAn?$AAf?$AAo?$AA?$AA@ 00502278     pjnath-i386-win32-vc8-debug:turn_session.obj
 0003:00004298       ??_C@_0BK@GBHOJIBD@Resolving?5?$CF?4?$CKs?5with?5DNS?5A?$AA@ 00502298     pjnath-i386-win32-vc8-debug:turn_session.obj
 0003:000042b8       ??_C@_1EK@KIJPAPOI@?$AAd?$AAe?$AAf?$AAa?$AAu?$AAl?$AAt?$AA_?$AAp?$AAo?$AAr?$AAt?$AA?$DO?$AA0?$AA?5?$AA?$CG?$AA?$CG?$AA?5?$AAd?$AAe?$AAf?$AAa?$AAu?$AAl?$AAt?$AA_?$AAp?$AAo?$AAr?$AAt?$AA?$DM?$AA6@ 005022b8     pjnath-i386-win32-vc8-debug:turn_session.obj
 0003:00004310       ??_C@_0CA@GCBCKDAP@Resolving?5?$CF?4?$CKs?$CF?4?$CKs?5with?5DNS?5SRV?$AA@ 00502310     pjnath-i386-win32-vc8-debug:turn_session.obj
 0003:00004338       ??_C@_0N@CKOHABJO@_turns?4_tcp?4?$AA@ 00502338     pjnath-i386-win32-vc8-debug:turn_session.obj
 0003:00004348       ??_C@_0M@JHAHENOH@_turn?4_tcp?4?$AA@ 00502348     pjnath-i386-win32-vc8-debug:turn_session.obj
 0003:00004358       ??_C@_0M@DHLAFMOO@_turn?4_udp?4?$AA@ 00502358     pjnath-i386-win32-vc8-debug:turn_session.obj
 0003:00004368       ??_C@_1EE@HLHLIOCN@?$AAs?$AAe?$AAs?$AAs?$AA?9?$AA?$DO?$AAs?$AAt?$AAa?$AAt?$AAe?$AA?5?$AA?$DN?$AA?$DN?$AA?5?$AAP?$AAJ?$AA_?$AAT?$AAU?$AAR?$AAN?$AA_?$AAS?$AAT?$AAA?$AAT?$AAE?$AA_?$AAN?$AAU?$AAL@ 00502368     pjnath-i386-win32-vc8-debug:turn_session.obj
 0003:000043bc       ??_C@_1BO@NDNACKIF@?$AAs?$AAe?$AAs?$AAs?$AA?5?$AA?$CG?$AA?$CG?$AA?5?$AAd?$AAo?$AAm?$AAa?$AAi?$AAn?$AA?$AA@ 005023bc     pjnath-i386-win32-vc8-debug:turn_session.obj
 0003:000043e0       ??_C@_1BG@GGLCCGPD@?$AAs?$AAe?$AAs?$AAs?$AA?9?$AA?$DO?$AAs?$AAt?$AAu?$AAn?$AA?$AA@ 005023e0     pjnath-i386-win32-vc8-debug:turn_session.obj
 0003:000043fc       ??_C@_1BK@MNKCAKID@?$AAs?$AAe?$AAs?$AAs?$AA?5?$AA?$CG?$AA?$CG?$AA?5?$AAc?$AAr?$AAe?$AAd?$AA?$AA@ 005023fc     pjnath-i386-win32-vc8-debug:turn_session.obj
 0003:0000441c       ??_C@_1DM@MLACAFJM@?$AAs?$AAe?$AAs?$AAs?$AA?9?$AA?$DO?$AAs?$AAr?$AAv?$AA_?$AAa?$AAd?$AAd?$AAr?$AA?5?$AA?$CB?$AA?$DN?$AA?5?$AA?$CI?$AA?$CI?$AAv?$AAo?$AAi?$AAd?$AA?5?$AA?$CK?$AA?$CJ?$AA0?$AA?$CJ?$AA?$AA@ 0050241c     pjnath-i386-win32-vc8-debug:turn_session.obj
 0003:00004468       ??_C@_1EM@JKFEMCMI@?$AAs?$AAe?$AAs?$AAs?$AA?9?$AA?$DO?$AAs?$AAt?$AAa?$AAt?$AAe?$AA?5?$AA?$DN?$AA?$DN?$AA?5?$AAP?$AAJ?$AA_?$AAT?$AAU?$AAR?$AAN?$AA_?$AAS?$AAT?$AAA?$AAT?$AAE?$AA_?$AAR?$AAE?$AAS@ 00502468     pjnath-i386-win32-vc8-debug:turn_session.obj
 0003:000044c4       ??_C@_0BN@GHHBPIAE@Pending?5ALLOCATE?5in?5state?5?$CFs?$AA@ 005024c4     pjnath-i386-win32-vc8-debug:turn_session.obj
 0003:000044e8       ??_C@_1IM@CCLJNOLP@?$AAs?$AAe?$AAs?$AAs?$AA?9?$AA?$DO?$AAs?$AAt?$AAa?$AAt?$AAe?$AA?$DO?$AAP?$AAJ?$AA_?$AAT?$AAU?$AAR?$AAN?$AA_?$AAS?$AAT?$AAA?$AAT?$AAE?$AA_?$AAN?$AAU?$AAL?$AAL?$AA?5?$AA?$CG@ 005024e8     pjnath-i386-win32-vc8-debug:turn_session.obj
 0003:00004590       ??_C@_1CA@HHIIPGDJ@?$AAa?$AAt?$AAt?$AAr?$AA_?$AAa?$AAd?$AAd?$AAe?$AAd?$AA?5?$AA?$CB?$AA?$DN?$AA?5?$AA0?$AA?$AA@ 00502590     pjnath-i386-win32-vc8-debug:turn_session.obj
 0003:000045b8       ??_C@_1DC@CHCKHDIE@?$AAs?$AAe?$AAs?$AAs?$AA?5?$AA?$CG?$AA?$CG?$AA?5?$AAa?$AAd?$AAd?$AAr?$AA_?$AAc?$AAn?$AAt?$AA?5?$AA?$CG?$AA?$CG?$AA?5?$AAa?$AAd?$AAd?$AAr?$AA?$AA@ 005025b8     pjnath-i386-win32-vc8-debug:turn_session.obj
 0003:000045f8       ??_C@_1EC@BDNEPINA@?$AAs?$AAe?$AAs?$AAs?$AA?9?$AA?$DO?$AAs?$AAt?$AAa?$AAt?$AAe?$AA?$DN?$AA?$DN?$AAP?$AAJ?$AA_?$AAT?$AAU?$AAR?$AAN?$AA_?$AAS?$AAT?$AAA?$AAT?$AAE?$AA_?$AAR?$AAE?$AAA?$AAD?$AAY@ 005025f8     pjnath-i386-win32-vc8-debug:turn_session.obj
 0003:00004648       ??_C@_0DJ@NGALODIG@sendto?$CI?$CJ?3?5IP?5?$CFs?5has?5no?5permissio@ 00502648     pjnath-i386-win32-vc8-debug:turn_session.obj
 0003:00004690       ??_C@_1FG@JGCPHEKG@?$AAs?$AAe?$AAs?$AAs?$AA?5?$AA?$CG?$AA?$CG?$AA?5?$AAp?$AAk?$AAt?$AA?5?$AA?$CG?$AA?$CG?$AA?5?$AAp?$AAk?$AAt?$AA_?$AAl?$AAe?$AAn?$AA?5?$AA?$CG?$AA?$CG?$AA?5?$AAa?$AAd?$AAd?$AAr?$AA?5?$AA?$CG@ 00502690     pjnath-i386-win32-vc8-debug:turn_session.obj
 0003:000046f8       ??_C@_1DA@HKACAIDA@?$AAs?$AAe?$AAs?$AAs?$AA?9?$AA?$DO?$AAn?$AAe?$AAx?$AAt?$AA_?$AAc?$AAh?$AA?5?$AA?$DM?$AA?$DN?$AA?5?$AA0?$AAx?$AA7?$AAF?$AAF?$AAF?$AA?$AA@ 005026f8     pjnath-i386-win32-vc8-debug:turn_session.obj
 0003:00004734       ??_C@_15DOMPPMEE@?$AAc?$AAh?$AA?$AA@ 00502734     pjnath-i386-win32-vc8-debug:turn_session.obj
 0003:00004740       ??_C@_1EG@MFMFHJLC@?$AAs?$AAe?$AAs?$AAs?$AA?9?$AA?$DO?$AAs?$AAt?$AAa?$AAt?$AAe?$AA?5?$AA?$DN?$AA?$DN?$AA?5?$AAP?$AAJ?$AA_?$AAT?$AAU?$AAR?$AAN?$AA_?$AAS?$AAT?$AAA?$AAT?$AAE?$AA_?$AAR?$AAE?$AAA@ 00502740     pjnath-i386-win32-vc8-debug:turn_session.obj
 0003:00004794       ??_C@_1DK@HOLBLLFF@?$AAs?$AAe?$AAs?$AAs?$AA?5?$AA?$CG?$AA?$CG?$AA?5?$AAp?$AAe?$AAe?$AAr?$AA_?$AAa?$AAd?$AAr?$AA?5?$AA?$CG?$AA?$CG?$AA?5?$AAa?$AAd?$AAd?$AAr?$AA_?$AAl?$AAe?$AAn?$AA?$AA@ 00502794     pjnath-i386-win32-vc8-debug:turn_session.obj
 0003:000047dc       ??_C@_0BM@BOHAPFE@Unexpected?5STUN?5?$CFs?5response?$AA@ 005027dc     pjnath-i386-win32-vc8-debug:turn_session.obj
 0003:00004800       ??_C@_0CL@HJFJDCCP@CreatePermission?5failed?5for?5IP?5?$CF@ 00502800     pjnath-i386-win32-vc8-debug:turn_session.obj
 0003:00004834       ??_C@_01OGPIMHDM@?$DP?$AA@ 00502834     pjnath-i386-win32-vc8-debug:turn_session.obj
 0003:00004838       ??_C@_0BM@JNBIFNNF@ChannelBind?5failed?3?5?$CFd?1?$CF?4?$CKs?$AA@ 00502838     pjnath-i386-win32-vc8-debug:turn_session.obj
 0003:0000485c       ??_C@_1CE@OPHCHIKK@?$AAc?$AAh?$AA?9?$AA?$DO?$AAn?$AAu?$AAm?$AA?5?$AA?$CB?$AA?$DN?$AA?5?$AA0?$AAx?$AAF?$AAF?$AAF?$AAF?$AA?$AA@ 0050285c     pjnath-i386-win32-vc8-debug:turn_session.obj
 0003:00004888       ??_C@_1BI@POLFPHOJ@?$AAs?$AAt?$AAa?$AAt?$AAu?$AAs?$AA?5?$AA?$CB?$AA?$DN?$AA?5?$AA0?$AA?$AA@ 00502888     pjnath-i386-win32-vc8-debug:turn_session.obj
 0003:000048a4       ??_C@_0BD@NPFDGG@Trying?5next?5server?$AA@ 005028a4     pjnath-i386-win32-vc8-debug:turn_session.obj
 0003:000048bc       ??_C@_0P@EMAJLCCB@?$CFs?5error?3?5?$CF?4?$CKs?$AA@ 005028bc     pjnath-i386-win32-vc8-debug:turn_session.obj
 0003:000048d0       ??_C@_1EA@CDDILLKH@?$AAs?$AAe?$AAs?$AAs?$AA?9?$AA?$DO?$AAt?$AAi?$AAm?$AAe?$AAr?$AA?4?$AAi?$AAd?$AA?5?$AA?$CB?$AA?$DN?$AA?5?$AAT?$AAI?$AAM?$AAE?$AAR?$AA_?$AAD?$AAE?$AAS?$AAT?$AAR?$AAO?$AAY?$AA?$AA@ 005028d0     pjnath-i386-win32-vc8-debug:turn_session.obj
 0003:0000491c       ??_C@_0DE@MENPKDPL@Error?3?5different?5RELAY?9ADDRESS?5i@ 0050291c     pjnath-i386-win32-vc8-debug:turn_session.obj
 0003:0000495c       ??_C@_0DF@CKGGPFDO@Error?3?5Invalid?5IP?5address?5in?5REL@ 0050295c     pjnath-i386-win32-vc8-debug:turn_session.obj
 0003:000049a0       ??_C@_0EL@JDGKKPJC@Error?3?5RELAY?9ADDRESS?5with?5non?5IP@ 005029a0     pjnath-i386-win32-vc8-debug:turn_session.obj
 0003:000049fc       ??_C@_0DJ@HBKMNMDK@Error?3?5Received?5ALLOCATE?5without@ 005029fc     pjnath-i386-win32-vc8-debug:turn_session.obj
 0003:00004a40       ??_C@_0BK@HEDPBGEL@Error?3?5LIFETIME?5too?5small?$AA@ 00502a40     pjnath-i386-win32-vc8-debug:turn_session.obj
 0003:00004a60       ??_C@_0CC@DOOIIJFF@Error?3?5Missing?5LIFETIME?5attribut@ 00502a60     pjnath-i386-win32-vc8-debug:turn_session.obj
 0003:00004a88       ??_C@_0DB@KLPKKIFA@Received?5Data?5indication?5with?5mi@ 00502a88     pjnath-i386-win32-vc8-debug:turn_session.obj
 0003:00004ac4       ??_C@_0BO@OGPPEINL@Unexpected?5STUN?5?$CFs?5indication?$AA@ 00502ac4     pjnath-i386-win32-vc8-debug:turn_session.obj
 0003:00004ae8       ??_C@_1DO@COMNALBG@?$AAc?$AAh?$AA?9?$AA?$DO?$AAn?$AAu?$AAm?$AA?5?$AA?$CB?$AA?$DN?$AA?5?$AA0?$AAx?$AAF?$AAF?$AAF?$AAF?$AA?5?$AA?$CG?$AA?$CG?$AA?5?$AAc?$AAh?$AA?9?$AA?$DO?$AAb?$AAo?$AAu?$AAn?$AAd?$AA?$AA@ 00502ae8     pjnath-i386-win32-vc8-debug:turn_session.obj
 0003:00004b34       ??_C@_1CO@KLFIDHLA@?$AA?$CB?$AA?$CC?$AAU?$AAn?$AAk?$AAn?$AAo?$AAw?$AAn?$AA?5?$AAt?$AAi?$AAm?$AAe?$AAr?$AA?5?$AAe?$AAv?$AAe?$AAn?$AAt?$AA?$CC?$AA?$AA@ 00502b34     pjnath-i386-win32-vc8-debug:turn_session.obj
 0003:00004b6c       ??_C@_0BE@DDMFKJAG@Unknown?5timer?5event?$AA@ 00502b6c     pjnath-i386-win32-vc8-debug:turn_session.obj
 0003:00004b84       ??_C@_0CL@OKFJBHEL@Error?5sending?5CreatePermission?5r@ 00502b84     pjnath-i386-win32-vc8-debug:turn_session.obj
 0003:00004bb8       ??_C@_0CM@DAHLFKBN@Error?5creating?5CreatePermission?5@ 00502bb8     pjnath-i386-win32-vc8-debug:turn_session.obj
 0003:00004bec       ??_C@_0L@NDKDGHJB@Keep?9alive?$AA@ 00502bec     pjnath-i386-win32-vc8-debug:stun_sock.obj
 0003:00004bfc       ??_C@_0BF@MJFGLJKM@STUN?5Binding?5request?$AA@ 00502bfc     pjnath-i386-win32-vc8-debug:stun_sock.obj
 0003:00004c18       ??_C@_0P@PKONCHGA@DNS?5resolution?$AA@ 00502c18     pjnath-i386-win32-vc8-debug:stun_sock.obj
 0003:00004c2c       ??_C@_08CLIABOD@stuntp?$CFp?$AA@ 00502c2c     pjnath-i386-win32-vc8-debug:stun_sock.obj
 0003:00004c38       ??_C@_1BM@DICANABI@?$AAc?$AAb?$AA?9?$AA?$DO?$AAo?$AAn?$AA_?$AAs?$AAt?$AAa?$AAt?$AAu?$AAs?$AA?$AA@ 00502c38     pjnath-i386-win32-vc8-debug:stun_sock.obj
 0003:00004c60       ??_C@_1EO@KHDGEPHO@?$AA?$CB?$AAc?$AAf?$AAg?$AA?5?$AA?$HM?$AA?$HM?$AA?5?$AAp?$AAj?$AA_?$AAs?$AAt?$AAu?$AAn?$AA_?$AAs?$AAo?$AAc?$AAk?$AA_?$AAc?$AAf?$AAg?$AA_?$AAi?$AAs?$AA_?$AAv?$AAa?$AAl?$AAi@ 00502c60     pjnath-i386-win32-vc8-debug:stun_sock.obj
 0003:00004cc0       ??_C@_1EA@ONIAABMG@?$AAa?$AAf?$AA?$DN?$AA?$DN?$AAP?$AAJ?$AA_?$AAA?$AAF?$AA_?$AAI?$AAN?$AAE?$AAT?$AA?$HM?$AA?$HM?$AAa?$AAf?$AA?$DN?$AA?$DN?$AAP?$AAJ?$AA_?$AAA?$AAF?$AA_?$AAI?$AAN?$AAE?$AAT?$AA6?$AA?$AA@ 00502cc0     pjnath-i386-win32-vc8-debug:stun_sock.obj
 0003:00004d0c       ??_C@_1DM@LACIGEIK@?$AAs?$AAt?$AAu?$AAn?$AA_?$AAc?$AAf?$AAg?$AA?5?$AA?$CG?$AA?$CG?$AA?5?$AAc?$AAb?$AA?5?$AA?$CG?$AA?$CG?$AA?5?$AAp?$AA_?$AAs?$AAt?$AAu?$AAn?$AA_?$AAs?$AAo?$AAc?$AAk?$AA?$AA@ 00502d0c     pjnath-i386-win32-vc8-debug:stun_sock.obj
 0003:00004d58       ??_C@_1GK@HJKAIBJK@?$AAd?$AA?3?$AA?2?$AAm?$AAy?$AAg?$AAi?$AAt?$AA?2?$AAp?$AAj?$AAp?$AAr?$AAo?$AAj?$AAe?$AAc?$AAt?$AA?9?$AA1?$AA?4?$AA4?$AA?2?$AAp?$AAj?$AAn?$AAa?$AAt?$AAh?$AA?2?$AAs?$AAr@ 00502d58     pjnath-i386-win32-vc8-debug:stun_sock.obj
 0003:00004dd8       ??_C@_1DI@EFGPFGAO@?$AAs?$AAt?$AAu?$AAn?$AA_?$AAs?$AAo?$AAc?$AAk?$AA?9?$AA?$DO?$AAq?$AA?5?$AA?$DN?$AA?$DN?$AA?5?$AA?$CI?$AA?$CI?$AAv?$AAo?$AAi?$AAd?$AA?5?$AA?$CK?$AA?$CJ?$AA0?$AA?$CJ?$AA?$AA@ 00502dd8     pjnath-i386-win32-vc8-debug:stun_sock.obj
 0003:00004e1c       ??_C@_0M@JFCIEPJK@_stun?4_udp?4?$AA@ 00502e1c     pjnath-i386-win32-vc8-debug:stun_sock.obj
 0003:00004e30       ??_C@_1EI@BGOAEELP@?$AAs?$AAt?$AAu?$AAn?$AA_?$AAs?$AAo?$AAc?$AAk?$AA?5?$AA?$CG?$AA?$CG?$AA?5?$AAd?$AAo?$AAm?$AAa?$AAi?$AAn?$AA?5?$AA?$CG?$AA?$CG?$AA?5?$AAd?$AAe?$AAf?$AAa?$AAu?$AAl?$AAt?$AA_?$AAp@ 00502e30     pjnath-i386-win32-vc8-debug:stun_sock.obj
 0003:00004e88       ??_C@_1BE@IIOFMBGP@?$AAs?$AAt?$AAu?$AAn?$AA_?$AAs?$AAo?$AAc?$AAk?$AA?$AA@ 00502e88     pjnath-i386-win32-vc8-debug:stun_sock.obj
 0003:00004ea0       ??_C@_1DI@NEFJPKG@?$AAs?$AAt?$AAu?$AAn?$AA_?$AAs?$AAo?$AAc?$AAk?$AA?9?$AA?$DO?$AAa?$AAf?$AA?5?$AA?$DN?$AA?$DN?$AA?5?$AAP?$AAJ?$AA_?$AAA?$AAF?$AA_?$AAI?$AAN?$AAE?$AAT?$AA?$AA@ 00502ea0     pjnath-i386-win32-vc8-debug:stun_sock.obj
 0003:00004ee8       ??_C@_1EA@CHMJNEJE@?$AAr?$AAe?$AAc?$AA?9?$AA?$DO?$AAe?$AAn?$AAt?$AAr?$AAy?$AA?$FL?$AA0?$AA?$FN?$AA?4?$AAs?$AAe?$AAr?$AAv?$AAe?$AAr?$AA?4?$AAa?$AAd?$AAd?$AAr?$AA_?$AAc?$AAo?$AAu?$AAn?$AAt?$AA?$AA@ 00502ee8     pjnath-i386-win32-vc8-debug:stun_sock.obj
 0003:00004f34       ??_C@_1BG@KIGIEGOK@?$AAr?$AAe?$AAc?$AA?9?$AA?$DO?$AAc?$AAo?$AAu?$AAn?$AAt?$AA?$AA@ 00502f34     pjnath-i386-win32-vc8-debug:stun_sock.obj
 0003:00004f50       ??_C@_0CB@JDFEACAK@Session?5failed?5because?5?$CFs?5failed@ 00502f50     pjnath-i386-win32-vc8-debug:stun_sock.obj
 0003:00004f78       ??_C@_1CE@JKEMJGFB@?$AAs?$AAt?$AAu?$AAn?$AA_?$AAs?$AAo?$AAc?$AAk?$AA?5?$AA?$CG?$AA?$CG?$AA?5?$AAi?$AAn?$AAf?$AAo?$AA?$AA@ 00502f78     pjnath-i386-win32-vc8-debug:stun_sock.obj
 0003:00004fa8       ??_C@_1FC@HPEGFK@?$AAs?$AAt?$AAu?$AAn?$AA_?$AAs?$AAo?$AAc?$AAk?$AA?5?$AA?$CG?$AA?$CG?$AA?5?$AAp?$AAk?$AAt?$AA?5?$AA?$CG?$AA?$CG?$AA?5?$AAd?$AAs?$AAt?$AA_?$AAa?$AAd?$AAd?$AAr?$AA?5?$AA?$CG?$AA?$CG?$AA?5@ 00502fa8     pjnath-i386-win32-vc8-debug:stun_sock.obj
 0003:0000500c       ??_C@_1CA@DHKEEDKO@?$AAt?$AAo?$AAk?$AAe?$AAn?$AA?$DN?$AA?$DN?$AA?$CI?$AAv?$AAo?$AAi?$AAd?$AA?$CK?$AA?$CJ?$AA1?$AA?$AA@ 0050300c     pjnath-i386-win32-vc8-debug:stun_sock.obj
 0003:00005034       ??_C@_0CG@ICFEMBNI@STUN?5mapped?5address?5found?1change@ 00503034     pjnath-i386-win32-vc8-debug:stun_sock.obj
 0003:00005064       ??_C@_1DI@CBOKEELK@?$AAs?$AAt?$AAu?$AAn?$AA_?$AAs?$AAo?$AAc?$AAk?$AA?9?$AA?$DO?$AAk?$AAa?$AA_?$AAi?$AAn?$AAt?$AAe?$AAr?$AAv?$AAa?$AAl?$AA?5?$AA?$CB?$AA?$DN?$AA?5?$AA0?$AA?$AA@ 00503064     pjnath-i386-win32-vc8-debug:stun_sock.obj
 0003:000050a8       ??_C@_0BB@FBAOJCLK@recvfrom?$CI?$CJ?5error?$AA@ 005030a8     pjnath-i386-win32-vc8-debug:stun_sock.obj
 0003:000050c0       ??_C@_1EE@HOHNBGAD@?$AAd?$AAa?$AAt?$AAa?$AA_?$AAt?$AAy?$AAp?$AAe?$AA?5?$AA?$DN?$AA?$DN?$AA?5?$AAP?$AAJ?$AA_?$AAS?$AAT?$AAU?$AAN?$AA_?$AAP?$AAA?$AAS?$AAS?$AAW?$AAD?$AA_?$AAP?$AAL?$AAA?$AAI@ 005030c0     pjnath-i386-win32-vc8-debug:stun_auth.obj
 0003:00005118       ??_C@_1EA@MJIIJCNO@?$AAp?$AAo?$AAo?$AAl?$AA?5?$AA?$CG?$AA?$CG?$AA?5?$AAk?$AAe?$AAy?$AA?5?$AA?$CG?$AA?$CG?$AA?5?$AAu?$AAs?$AAe?$AAr?$AAn?$AAa?$AAm?$AAe?$AA?5?$AA?$CG?$AA?$CG?$AA?5?$AAd?$AAa?$AAt?$AAa?$AA?$AA@ 00503118     pjnath-i386-win32-vc8-debug:stun_auth.obj
 0003:00005168       ??_C@_1GK@FDKOOBLE@?$AAd?$AA?3?$AA?2?$AAm?$AAy?$AAg?$AAi?$AAt?$AA?2?$AAp?$AAj?$AAp?$AAr?$AAo?$AAj?$AAe?$AAc?$AAt?$AA?9?$AA1?$AA?4?$AA4?$AA?2?$AAp?$AAj?$AAn?$AAa?$AAt?$AAh?$AA?2?$AAs?$AAr@ 00503168     pjnath-i386-win32-vc8-debug:stun_auth.obj
 0003:000051e8       ??_C@_0BL@JPFKNHNJ@MESSAGE?9INTEGRITY?5mismatch?$AA@ 005031e8     pjnath-i386-win32-vc8-debug:stun_auth.obj
 0003:00005208       ??_C@_0P@LNGKEKFD@NONCE?5required?$AA@ 00503208     pjnath-i386-win32-vc8-debug:stun_auth.obj
 0003:0000521c       ??_C@_0O@BDOHFCG@Invalid?5REALM?$AA@ 0050321c     pjnath-i386-win32-vc8-debug:stun_auth.obj
 0003:0000522c       ??_C@_0O@KCFNFADD@Missing?5NONCE?$AA@ 0050322c     pjnath-i386-win32-vc8-debug:stun_auth.obj
 0003:0000523c       ??_C@_0O@HBPFHBB@Missing?5REALM?$AA@ 0050323c     pjnath-i386-win32-vc8-debug:stun_auth.obj
 0003:0000524c       ??_C@_0BB@OHHEPNOA@Missing?5USERNAME?$AA@ 0050324c     pjnath-i386-win32-vc8-debug:stun_auth.obj
 0003:00005260       ??_C@_1DG@OKCLDNKC@?$AA?$CB?$AA?$CC?$AAI?$AAn?$AAv?$AAa?$AAl?$AAi?$AAd?$AA?5?$AAc?$AAr?$AAe?$AAd?$AAe?$AAn?$AAt?$AAi?$AAa?$AAl?$AA?5?$AAt?$AAy?$AAp?$AAe?$AA?$CC?$AA?$AA@ 00503260     pjnath-i386-win32-vc8-debug:stun_auth.obj
 0003:000052a0       ??_C@_0BI@OJDMHFBI@Invalid?5credential?5type?$AA@ 005032a0     pjnath-i386-win32-vc8-debug:stun_auth.obj
 0003:000052bc       ??_C@_1CI@BIJMLLKM@?$AA?$CB?$AAp?$AA_?$AAr?$AAe?$AAs?$AAp?$AAo?$AAn?$AAs?$AAe?$AA?5?$AA?$HM?$AA?$HM?$AA?5?$AAp?$AAo?$AAo?$AAl?$AA?$AA@ 005032bc     pjnath-i386-win32-vc8-debug:stun_auth.obj
 0003:000052ec       ??_C@_1DM@FHFDFNCE@?$AAp?$AAk?$AAt?$AA?5?$AA?$CG?$AA?$CG?$AA?5?$AAp?$AAk?$AAt?$AA_?$AAl?$AAe?$AAn?$AA?5?$AA?$CG?$AA?$CG?$AA?5?$AAm?$AAs?$AAg?$AA?5?$AA?$CG?$AA?$CG?$AA?5?$AAc?$AAr?$AAe?$AAd?$AA?$AA@ 005032ec     pjnath-i386-win32-vc8-debug:stun_auth.obj
 0003:00005334       ??_C@_06NEPPJNNA@pjstun?$AA@ 00503334     pjnath-i386-win32-vc8-debug:stun_auth.obj
 0003:0000533c       ??_C@_0M@GJCPKPCL@stun_auth?4c?$AA@ 0050333c     pjnath-i386-win32-vc8-debug:stun_auth.obj
 0003:0000534c       ??_C@_0DI@COAMBLMC@STUN?5error?5code?5attribute?5not?5pr@ 0050334c     pjnath-i386-win32-vc8-debug:stun_auth.obj
 0003:00005390       ??_C@_1DK@FAEJNDDC@?$AAp?$AAk?$AAt?$AA?5?$AA?$CG?$AA?$CG?$AA?5?$AAp?$AAk?$AAt?$AA_?$AAl?$AAe?$AAn?$AA?5?$AA?$CG?$AA?$CG?$AA?5?$AAm?$AAs?$AAg?$AA?5?$AA?$CG?$AA?$CG?$AA?5?$AAk?$AAe?$AAy?$AA?$AA@ 00503390     pjnath-i386-win32-vc8-debug:stun_auth.obj
 0003:000053d8       ??_C@_0BA@MEPGKABG@ICE?9CONTROLLING?$AA@ 005033d8     pjnath-i386-win32-vc8-debug:stun_msg.obj
 0003:000053ec       ??_C@_0P@IMKHGLCE@ICE?9CONTROLLED?$AA@ 005033ec     pjnath-i386-win32-vc8-debug:stun_msg.obj
 0003:00005400       ??_C@_0M@BFFENKFB@FINGERPRINT?$AA@ 00503400     pjnath-i386-win32-vc8-debug:stun_msg.obj
 0003:00005410       ??_C@_0BB@KIBPCLAC@REFRESH?9INTERVAL?$AA@ 00503410     pjnath-i386-win32-vc8-debug:stun_msg.obj
 0003:00005424       ??_C@_0BB@FKFJHONB@ALTERNATE?9SERVER?$AA@ 00503424     pjnath-i386-win32-vc8-debug:stun_msg.obj
 0003:00005438       ??_C@_08FJPNCBBM@SOFTWARE?$AA@ 00503438     pjnath-i386-win32-vc8-debug:stun_msg.obj
 0003:00005444       ??_C@_04CHGGIGMO@ICMP?$AA@ 00503444     pjnath-i386-win32-vc8-debug:stun_msg.obj
 0003:0000544c       ??_C@_0O@KMGEPHEM@USE?9CANDIDATE?$AA@ 0050344c     pjnath-i386-win32-vc8-debug:stun_msg.obj
 0003:0000545c       ??_C@_08PHDJDNOC@PRIORITY?$AA@ 0050345c     pjnath-i386-win32-vc8-debug:stun_msg.obj
 0003:00005468       ??_C@_0BD@GKDFAGGH@XOR?9REFLECTED?9FROM?$AA@ 00503468     pjnath-i386-win32-vc8-debug:stun_msg.obj
 0003:00005480       ??_C@_0BC@FMELOKCO@RESERVATION?9TOKEN?$AA@ 00503480     pjnath-i386-win32-vc8-debug:stun_msg.obj
 0003:00005498       ??_C@_09MBPFHMMM@TIMER?9VAL?$AA@ 00503498     pjnath-i386-win32-vc8-debug:stun_msg.obj
 0003:000054a4       ??_C@_0BD@PCDNAJOE@XOR?9MAPPED?9ADDRESS?$AA@ 005034a4     pjnath-i386-win32-vc8-debug:stun_msg.obj
 0003:000054bc       ??_C@_0O@KFOKDOCG@DONT?9FRAGMENT?$AA@ 005034bc     pjnath-i386-win32-vc8-debug:stun_msg.obj
 0003:000054cc       ??_C@_0BE@KPPPGDOH@REQUESTED?9TRANSPORT?$AA@ 005034cc     pjnath-i386-win32-vc8-debug:stun_msg.obj
 0003:000054e4       ??_C@_09OBFOFCPK@EVEN?9PORT?$AA@ 005034e4     pjnath-i386-win32-vc8-debug:stun_msg.obj
 0003:000054f0       ??_C@_0BH@JFFPCBPM@REQUESTED?9ADDRESS?9TYPE?$AA@ 005034f0     pjnath-i386-win32-vc8-debug:stun_msg.obj
 0003:0000550c       ??_C@_0BE@JEIAHFKC@XOR?9RELAYED?9ADDRESS?$AA@ 0050350c     pjnath-i386-win32-vc8-debug:stun_msg.obj
 0003:00005524       ??_C@_05CFNFFNAP@NONCE?$AA@ 00503524     pjnath-i386-win32-vc8-debug:stun_msg.obj
 0003:0000552c       ??_C@_05IAJHFKCN@REALM?$AA@ 0050352c     pjnath-i386-win32-vc8-debug:stun_msg.obj
 0003:00005534       ??_C@_04DFNBDBBL@DATA?$AA@ 00503534     pjnath-i386-win32-vc8-debug:stun_msg.obj
 0003:0000553c       ??_C@_0BB@HOMHHBLB@XOR?9PEER?9ADDRESS?$AA@ 0050353c     pjnath-i386-win32-vc8-debug:stun_msg.obj
 0003:00005550       ??_C@_09MAILFIJJ@BANDWIDTH?$AA@ 00503550     pjnath-i386-win32-vc8-debug:stun_msg.obj
 0003:0000555c       ??_C@_0N@FGECBBIC@MAGIC?9COOKIE?$AA@ 0050355c     pjnath-i386-win32-vc8-debug:stun_msg.obj
 0003:0000556c       ??_C@_08LBAPMCHH@LIFETIME?$AA@ 0050356c     pjnath-i386-win32-vc8-debug:stun_msg.obj
 0003:00005578       ??_C@_0P@LJKOLKFB@CHANNEL?9NUMBER?$AA@ 00503578     pjnath-i386-win32-vc8-debug:stun_msg.obj
 0003:0000558c       ??_C@_0P@PMKJIHCK@REFLECTED?9FROM?$AA@ 0050358c     pjnath-i386-win32-vc8-debug:stun_msg.obj
 0003:000055a0       ??_C@_0BD@ECDLOHAN@UNKNOWN?9ATTRIBUTES?$AA@ 005035a0     pjnath-i386-win32-vc8-debug:stun_msg.obj
 0003:000055b8       ??_C@_0L@LFOAOKC@ERROR?9CODE?$AA@ 005035b8     pjnath-i386-win32-vc8-debug:stun_msg.obj
 0003:000055c8       ??_C@_0BC@PKCBPFHM@MESSAGE?9INTEGRITY?$AA@ 005035c8     pjnath-i386-win32-vc8-debug:stun_msg.obj
 0003:000055e0       ??_C@_08KENNMKEI@PASSWORD?$AA@ 005035e0     pjnath-i386-win32-vc8-debug:stun_msg.obj
 0003:000055ec       ??_C@_08JMMIJEMM@USERNAME?$AA@ 005035ec     pjnath-i386-win32-vc8-debug:stun_msg.obj
 0003:000055f8       ??_C@_0BA@FNJJJCIB@CHANGED?9ADDRESS?$AA@ 005035f8     pjnath-i386-win32-vc8-debug:stun_msg.obj
 0003:0000560c       ??_C@_0P@PAEINGOC@SOURCE?9ADDRESS?$AA@ 0050360c     pjnath-i386-win32-vc8-debug:stun_msg.obj
 0003:00005620       ??_C@_0P@OGKLBIFN@CHANGE?9REQUEST?$AA@ 00503620     pjnath-i386-win32-vc8-debug:stun_msg.obj
 0003:00005634       ??_C@_0BB@DNOCEPMK@RESPONSE?9ADDRESS?$AA@ 00503634     pjnath-i386-win32-vc8-debug:stun_msg.obj
 0003:00005648       ??_C@_0P@GEKBIIKJ@MAPPED?9ADDRESS?$AA@ 00503648     pjnath-i386-win32-vc8-debug:stun_msg.obj
 0003:0000565c       ??_C@_0P@EIHAHPLF@Global?5Failure?$AA@ 0050365c     pjnath-i386-win32-vc8-debug:stun_msg.obj
 0003:00005670       ??_C@_0BG@DPJAOJGI@Insufficient?5Capacity?$AA@ 00503670     pjnath-i386-win32-vc8-debug:stun_msg.obj
 0003:0000568c       ??_C@_0N@NNCMFLKD@Server?5Error?$AA@ 0050368c     pjnath-i386-win32-vc8-debug:stun_msg.obj
 0003:0000569c       ??_C@_0O@HCPKCDCE@Role?5Conflict?$AA@ 0050369c     pjnath-i386-win32-vc8-debug:stun_msg.obj
 0003:000056ac       ??_C@_0BJ@NNNDJKOH@Allocation?5Quota?5Reached?$AA@ 005036ac     pjnath-i386-win32-vc8-debug:stun_msg.obj
 0003:000056cc       ??_C@_0BD@GBIJMALN@Connection?5Timeout?$AA@ 005036cc     pjnath-i386-win32-vc8-debug:stun_msg.obj
 0003:000056e4       ??_C@_0BD@JDELBKIF@Connection?5Failure?$AA@ 005036e4     pjnath-i386-win32-vc8-debug:stun_msg.obj
 0003:000056fc       ??_C@_0BH@EILGPNEK@Operation?5for?5TCP?5Only?$AA@ 005036fc     pjnath-i386-win32-vc8-debug:stun_msg.obj
 0003:00005718       ??_C@_0BP@NOOBFHOJ@Unsupported?5Transport?5Protocol?$AA@ 00503718     pjnath-i386-win32-vc8-debug:stun_msg.obj
 0003:00005740       ??_C@_0BC@EJEAELBI@Wrong?5Credentials?$AA@ 00503740     pjnath-i386-win32-vc8-debug:stun_msg.obj
 0003:00005758       ??_C@_0BP@ILNIPGLA@Active?5Destination?5Already?5Set?$AA@ 00503758     pjnath-i386-win32-vc8-debug:stun_msg.obj
 0003:00005780       ??_C@_0M@PFCCPLIL@Stale?5Nonce?$AA@ 00503780     pjnath-i386-win32-vc8-debug:stun_msg.obj
 0003:00005790       ??_C@_0BE@MNFMNCOL@Allocation?5Mismatch?$AA@ 00503790     pjnath-i386-win32-vc8-debug:stun_msg.obj
 0003:000057a8       ??_C@_0BC@BIFHINIL@Unknown?5Attribute?$AA@ 005037a8     pjnath-i386-win32-vc8-debug:stun_msg.obj
 0003:000057c0       ??_C@_09LMDIMFJD@Forbidden?$AA@ 005037c0     pjnath-i386-win32-vc8-debug:stun_msg.obj
 0003:000057cc       ??_C@_0N@OOAPMOJA@Unauthorized?$AA@ 005037cc     pjnath-i386-win32-vc8-debug:stun_msg.obj
 0003:000057dc       ??_C@_0M@LNAIDEEG@Bad?5Request?$AA@ 005037dc     pjnath-i386-win32-vc8-debug:stun_msg.obj
 0003:000057ec       ??_C@_0O@GHIPHHCL@Try?5Alternate?$AA@ 005037ec     pjnath-i386-win32-vc8-debug:stun_msg.obj
 0003:000057fc       ??_C@_0M@MHFIPLFG@ChannelBind?$AA@ 005037fc     pjnath-i386-win32-vc8-debug:stun_msg.obj
 0003:0000580c       ??_C@_0BB@MDCHOMKH@CreatePermission?$AA@ 0050380c     pjnath-i386-win32-vc8-debug:stun_msg.obj
 0003:00005820       ??_C@_04DICKPMGH@Data?$AA@ 00503820     pjnath-i386-win32-vc8-debug:stun_msg.obj
 0003:00005828       ??_C@_04JEOPCEB@Send?$AA@  00503828     pjnath-i386-win32-vc8-debug:stun_msg.obj
 0003:00005830       ??_C@_07POIENIBA@Refresh?$AA@ 00503830     pjnath-i386-win32-vc8-debug:stun_msg.obj
 0003:0000583c       ??_C@_08PEJFBAGK@Allocate?$AA@ 0050383c     pjnath-i386-win32-vc8-debug:stun_msg.obj
 0003:00005848       ??_C@_0N@BLMJDDLD@SharedSecret?$AA@ 00503848     pjnath-i386-win32-vc8-debug:stun_msg.obj
 0003:00005858       ??_C@_07JPNMPAFE@Binding?$AA@ 00503858     pjnath-i386-win32-vc8-debug:stun_msg.obj
 0003:00005864       ??_C@_0L@DFJLAHGA@indication?$AA@ 00503864     pjnath-i386-win32-vc8-debug:stun_msg.obj
 0003:00005874       ??_C@_0P@CFLDAJHA@error?5response?$AA@ 00503874     pjnath-i386-win32-vc8-debug:stun_msg.obj
 0003:00005888       ??_C@_0BB@HBDBNGAF@success?5response?$AA@ 00503888     pjnath-i386-win32-vc8-debug:stun_msg.obj
 0003:0000589c       ??_C@_07ENHGAJCI@request?$AA@ 0050389c     pjnath-i386-win32-vc8-debug:stun_msg.obj
 0003:000058a8       ??_C@_1KE@LKCKPGKD@?$AAm?$AAa?$AAn?$AAd?$AAa?$AAt?$AAo?$AAr?$AAy?$AA_?$AAa?$AAt?$AAt?$AAr?$AA_?$AAd?$AAe?$AAs?$AAc?$AA?$FL?$AAP?$AAJ?$AA_?$AAS?$AAT?$AAU?$AAN?$AA_?$AAA?$AAT?$AAT?$AAR@ 005038a8     pjnath-i386-win32-vc8-debug:stun_msg.obj
 0003:00005970       ??_C@_1KA@HKKBMAAL@?$AAm?$AAa?$AAn?$AAd?$AAa?$AAt?$AAo?$AAr?$AAy?$AA_?$AAa?$AAt?$AAt?$AAr?$AA_?$AAd?$AAe?$AAs?$AAc?$AA?$FL?$AAP?$AAJ?$AA_?$AAS?$AAT?$AAU?$AAN?$AA_?$AAA?$AAT?$AAT?$AAR@ 00503970     pjnath-i386-win32-vc8-debug:stun_msg.obj
 0003:00005a30       ??_C@_1GI@MBBLMMOL@?$AAd?$AA?3?$AA?2?$AAm?$AAy?$AAg?$AAi?$AAt?$AA?2?$AAp?$AAj?$AAp?$AAr?$AAo?$AAj?$AAe?$AAc?$AAt?$AA?9?$AA1?$AA?4?$AA4?$AA?2?$AAp?$AAj?$AAn?$AAa?$AAt?$AAh?$AA?2?$AAs?$AAr@ 00503a30     pjnath-i386-win32-vc8-debug:stun_msg.obj
 0003:00005ab0       ??_C@_1JE@NCNGOBCH@?$AAa?$AAd?$AAd?$AAr?$AA_?$AAl?$AAe?$AAn?$AA?5?$AA?$DN?$AA?$DN?$AA?5?$AAs?$AAi?$AAz?$AAe?$AAo?$AAf?$AA?$CI?$AAp?$AAj?$AA_?$AAs?$AAo?$AAc?$AAk?$AAa?$AAd?$AAd?$AAr?$AA_?$AAi@ 00503ab0     pjnath-i386-win32-vc8-debug:stun_msg.obj
 0003:00005b64       ??_C@_1DC@NAIAKOKM@?$AAa?$AAt?$AAt?$AAr?$AA?5?$AA?$CG?$AA?$CG?$AA?5?$AAa?$AAd?$AAd?$AAr?$AA_?$AAl?$AAe?$AAn?$AA?5?$AA?$CG?$AA?$CG?$AA?5?$AAa?$AAd?$AAd?$AAr?$AA?$AA@ 00503b64     pjnath-i386-win32-vc8-debug:stun_msg.obj
 0003:00005ba0       ??_C@_1BO@DAPDCKHB@?$AAp?$AAo?$AAo?$AAl?$AA?5?$AA?$CG?$AA?$CG?$AA?5?$AAp?$AA_?$AAa?$AAt?$AAt?$AAr?$AA?$AA@ 00503ba0     pjnath-i386-win32-vc8-debug:stun_msg.obj
 0003:00005bc4       ??_C@_0DE@OMNPJBBI@d?3?2mygit?2pjproject?91?44?2pjnath?2sr@ 00503bc4     pjnath-i386-win32-vc8-debug:stun_msg.obj
 0003:00005c04       ??_C@_1DI@IHPNJHEM@?$AAb?$AAu?$AAf?$AA?5?$AA?9?$AA?5?$AAs?$AAt?$AAa?$AAr?$AAt?$AA_?$AAb?$AAu?$AAf?$AA?5?$AA?$DN?$AA?$DN?$AA?5?$AAA?$AAT?$AAT?$AAR?$AA_?$AAL?$AAE?$AAN?$AA?$AA@ 00503c04     pjnath-i386-win32-vc8-debug:stun_msg.obj
 0003:00005c48       ??_C@_1DA@FCJJGNAM@?$AAp?$AAo?$AAo?$AAl?$AA?5?$AA?$CG?$AA?$CG?$AA?5?$AAv?$AAa?$AAl?$AAu?$AAe?$AA?5?$AA?$CG?$AA?$CG?$AA?5?$AAp?$AA_?$AAa?$AAt?$AAt?$AAr?$AA?$AA@ 00503c48     pjnath-i386-win32-vc8-debug:stun_msg.obj
 0003:00005c84       ??_C@_0BB@BIKLJNJD@Unknown?5error?5?$CFd?$AA@ 00503c84     pjnath-i386-win32-vc8-debug:stun_msg.obj
 0003:00005c98       ??_C@_1DG@EDPADPDE@?$AAp?$AAo?$AAo?$AAl?$AA?5?$AA?$CG?$AA?$CG?$AA?5?$AAe?$AAr?$AAr?$AA_?$AAc?$AAo?$AAd?$AAe?$AA?5?$AA?$CG?$AA?$CG?$AA?5?$AAp?$AA_?$AAa?$AAt?$AAt?$AAr?$AA?$AA@ 00503c98     pjnath-i386-win32-vc8-debug:stun_msg.obj
 0003:00005cd8       ??_C@_1EA@MEMPIOJD@?$AAp?$AAo?$AAo?$AAl?$AA?5?$AA?$CG?$AA?$CG?$AA?5?$AAa?$AAt?$AAt?$AAr?$AA_?$AAc?$AAn?$AAt?$AA?5?$AA?$DM?$AA?5?$AA1?$AA6?$AA?5?$AA?$CG?$AA?$CG?$AA?5?$AAp?$AA_?$AAa?$AAt?$AAt?$AAr?$AA?$AA@ 00503cd8     pjnath-i386-win32-vc8-debug:stun_msg.obj
 0003:00005d24       ??_C@_1BE@HNFHAEMF@?$AAa?$AAt?$AAt?$AAr?$AA_?$AAt?$AAy?$AAp?$AAe?$AA?$AA@ 00503d24     pjnath-i386-win32-vc8-debug:stun_msg.obj
 0003:00005d3c       ??_C@_1DI@IIHFIGIO@?$AAp?$AAo?$AAo?$AAl?$AA?5?$AA?$CG?$AA?$CG?$AA?5?$AAa?$AAt?$AAt?$AAr?$AA_?$AAt?$AAy?$AAp?$AAe?$AA?5?$AA?$CG?$AA?$CG?$AA?5?$AAp?$AA_?$AAa?$AAt?$AAt?$AAr?$AA?$AA@ 00503d3c     pjnath-i386-win32-vc8-debug:stun_msg.obj
 0003:00005d80       ??_C@_1CA@HHABKGKK@?$AAm?$AAs?$AAg?$AA?5?$AA?$CG?$AA?$CG?$AA?5?$AAm?$AAs?$AAg?$AA_?$AAt?$AAy?$AAp?$AAe?$AA?$AA@ 00503d80     pjnath-i386-win32-vc8-debug:stun_msg.obj
 0003:00005da8       ??_C@_1DE@JPJMMAKI@?$AAp?$AAo?$AAo?$AAl?$AA?5?$AA?$CG?$AA?$CG?$AA?5?$AAm?$AAs?$AAg?$AA_?$AAt?$AAy?$AAp?$AAe?$AA?5?$AA?$CG?$AA?$CG?$AA?5?$AAp?$AA_?$AAm?$AAs?$AAg?$AA?$AA@ 00503da8     pjnath-i386-win32-vc8-debug:stun_msg.obj
 0003:00005de8       ??_C@_1BI@BKNDIBIA@?$AAp?$AAo?$AAo?$AAl?$AA?5?$AA?$CG?$AA?$CG?$AA?5?$AAs?$AAr?$AAc?$AA?$AA@ 00503de8     pjnath-i386-win32-vc8-debug:stun_msg.obj
 0003:00005e04       ??_C@_1CK@ICHDINLN@?$AAm?$AAs?$AAg?$AA?9?$AA?$DO?$AAa?$AAt?$AAt?$AAr?$AA_?$AAc?$AAo?$AAu?$AAn?$AAt?$AA?5?$AA?$DM?$AA?5?$AA1?$AA6?$AA?$AA@ 00503e04     pjnath-i386-win32-vc8-debug:stun_msg.obj
 0003:00005e38       ??_C@_1BI@NBMBGDIG@?$AAm?$AAs?$AAg?$AA?5?$AA?$CG?$AA?$CG?$AA?5?$AAa?$AAt?$AAt?$AAr?$AA?$AA@ 00503e38     pjnath-i386-win32-vc8-debug:stun_msg.obj
 0003:00005e54       ??_C@_17PJAJKMOE@?$AAp?$AAd?$AAu?$AA?$AA@ 00503e54     pjnath-i386-win32-vc8-debug:stun_msg.obj
 0003:00005e60       ??_C@_1EE@HAANLPHD@?$AA?$CI?$AA?$CI?$AA?$CI?$AAm?$AAs?$AAg?$AA_?$AAt?$AAy?$AAp?$AAe?$AA?$CJ?$AA?5?$AA?$CG?$AA?5?$AA0?$AAx?$AA0?$AA1?$AA1?$AA0?$AA?$CJ?$AA?5?$AA?$DN?$AA?$DN?$AA?5?$AA0?$AAx?$AA0?$AA0?$AA0?$AA0@ 00503e60     pjnath-i386-win32-vc8-debug:stun_msg.obj
 0003:00005eb4       ??_C@_1CG@FIEPKLON@?$AAp?$AAo?$AAo?$AAl?$AA?5?$AA?$CG?$AA?$CG?$AA?5?$AAp?$AA_?$AAr?$AAe?$AAs?$AAp?$AAo?$AAn?$AAs?$AAe?$AA?$AA@ 00503eb4     pjnath-i386-win32-vc8-debug:stun_msg.obj
 0003:00005ee4       ??_C@_0DI@JPGFNJCF@Error?5decoding?5STUN?5message?3?5unp@ 00503ee4     pjnath-i386-win32-vc8-debug:stun_msg.obj
 0003:00005f28       ??_C@_0CE@BALGLPMJ@Error?5parsing?5STUN?5attribute?5?$CFs?3@ 00503f28     pjnath-i386-win32-vc8-debug:stun_msg.obj
 0003:00005f54       ??_C@_08KPKNBFOM@?$CFs?5in?5?$CFs?$AA@ 00503f54     pjnath-i386-win32-vc8-debug:stun_msg.obj
 0003:00005f60       ??_C@_0CN@NOBEDADA@Error?5parsing?5unknown?5STUN?5attri@ 00503f60     pjnath-i386-win32-vc8-debug:stun_msg.obj
 0003:00005f98       ??_C@_0CB@EJCAFHBO@Unrecognized?5attribute?5type?50x?$CFx@ 00503f98     pjnath-i386-win32-vc8-debug:stun_msg.obj
 0003:00005fc0       ??_C@_0L@HGDIOIOB@stun_msg?4c?$AA@ 00503fc0     pjnath-i386-win32-vc8-debug:stun_msg.obj
 0003:00005fd0       ??_C@_0BN@MEIPDCAG@Error?5decoding?5message?3?5?$CF?4?$CKs?$AA@ 00503fd0     pjnath-i386-win32-vc8-debug:stun_msg.obj
 0003:00005ff4       ??_C@_0CA@PKFDCHMA@Attribute?5?$CFs?5has?5invalid?5length?$AA@ 00503ff4     pjnath-i386-win32-vc8-debug:stun_msg.obj
 0003:00006020       ??_C@_1EA@LIIJAIAA@?$AAp?$AAo?$AAo?$AAl?$AA?5?$AA?$CG?$AA?$CG?$AA?5?$AAp?$AAd?$AAu?$AA?5?$AA?$CG?$AA?$CG?$AA?5?$AAp?$AAd?$AAu?$AA_?$AAl?$AAe?$AAn?$AA?5?$AA?$CG?$AA?$CG?$AA?5?$AAp?$AA_?$AAm?$AAs?$AAg?$AA?$AA@ 00504020     pjnath-i386-win32-vc8-debug:stun_msg.obj
 0003:0000606c       ??_C@_13COJANIEC@?$AA0?$AA?$AA@ 0050406c     pjnath-i386-win32-vc8-debug:stun_msg.obj
 0003:00006070       ??_C@_17FJFCONIE@?$AAk?$AAe?$AAy?$AA?$AA@ 00504070     pjnath-i386-win32-vc8-debug:stun_msg.obj
 0003:0000607c       ??_C@_1DI@EIBLDBJA@?$AAa?$AAf?$AAi?$AAn?$AAg?$AAe?$AAr?$AAp?$AAr?$AAi?$AAn?$AAt?$AA?5?$AA?$DN?$AA?$DN?$AA?5?$AA?$CI?$AA?$CI?$AAv?$AAo?$AAi?$AAd?$AA?5?$AA?$CK?$AA?$CJ?$AA0?$AA?$CJ?$AA?$AA@ 0050407c     pjnath-i386-win32-vc8-debug:stun_msg.obj
 0003:000060c0       ??_C@_1DM@JGJFMCOF@?$AAb?$AAi?$AAn?$AA_?$AAa?$AAt?$AAt?$AAr?$AA?9?$AA?$DO?$AAm?$AAa?$AAg?$AAi?$AAc?$AA?5?$AA?$DN?$AA?$DN?$AA?5?$AA0?$AAx?$AA2?$AA1?$AA1?$AA2?$AAA?$AA4?$AA4?$AA2?$AA?$AA@ 005040c0     pjnath-i386-win32-vc8-debug:stun_msg.obj
 0003:00006108       ??_C@_1CO@OHFJDBH@?$AAa?$AAm?$AAs?$AAg?$AAi?$AAn?$AAt?$AA?5?$AA?$DN?$AA?$DN?$AA?5?$AA?$CI?$AA?$CI?$AAv?$AAo?$AAi?$AAd?$AA?5?$AA?$CK?$AA?$CJ?$AA0?$AA?$CJ?$AA?$AA@ 00504108     pjnath-i386-win32-vc8-debug:stun_msg.obj
 0003:00006140       ??_C@_1BK@KDKCCGFK@?$AAo?$AAp?$AAt?$AAi?$AAo?$AAn?$AAs?$AA?5?$AA?$DN?$AA?$DN?$AA?5?$AA0?$AA?$AA@ 00504140     pjnath-i386-win32-vc8-debug:stun_msg.obj
 0003:00006160       ??_C@_1CO@DMEHEGHL@?$AAm?$AAs?$AAg?$AA?5?$AA?$CG?$AA?$CG?$AA?5?$AAb?$AAu?$AAf?$AA?5?$AA?$CG?$AA?$CG?$AA?5?$AAb?$AAu?$AAf?$AA_?$AAs?$AAi?$AAz?$AAe?$AA?$AA@ 00504160     pjnath-i386-win32-vc8-debug:stun_msg.obj
 0003:00006198       ??_C@_17PKHECFCJ@?$AAm?$AAs?$AAg?$AA?$AA@ 00504198     pjnath-i386-win32-vc8-debug:stun_msg.obj
 0003:000061a4       ??_C@_0CJ@KADJMJLL@Retrying?5request?5with?5new?5authen@ 005041a4     pjnath-i386-win32-vc8-debug:stun_session.obj
 0003:000061d8       ??_C@_0DA@BDDOAEGJ@Error?3?5authentication?5failed?5?$CIto@ 005041d8     pjnath-i386-win32-vc8-debug:stun_session.obj
 0003:00006214       ??_C@_0CA@PEBIKAPE@Invalid?5response?3?5missing?5NONCE?$AA@ 00504214     pjnath-i386-win32-vc8-debug:stun_session.obj
 0003:0000623c       ??_C@_0DA@OLGIGBLA@Invalid?5error?5response?3?5no?5ERROR@ 0050423c     pjnath-i386-win32-vc8-debug:stun_session.obj
 0003:00006278       ??_C@_09JKOMEGHF@pjnath?9?$CFs?$AA@ 00504278     pjnath-i386-win32-vc8-debug:stun_session.obj
 0003:00006284       ??_C@_19GLKFFFDC@?$AAp?$AAo?$AAo?$AAl?$AA?$AA@ 00504284     pjnath-i386-win32-vc8-debug:stun_session.obj
 0003:00006290       ??_C@_07FIPJLOHM@stuse?$CFp?$AA@ 00504290     pjnath-i386-win32-vc8-debug:stun_session.obj
 0003:0000629c       ??_C@_1CI@NEAHBPGA@?$AAc?$AAf?$AAg?$AA?5?$AA?$CG?$AA?$CG?$AA?5?$AAc?$AAb?$AA?5?$AA?$CG?$AA?$CG?$AA?5?$AAp?$AA_?$AAs?$AAe?$AAs?$AAs?$AA?$AA@ 0050429c     pjnath-i386-win32-vc8-debug:stun_session.obj
 0003:000062d0       ??_C@_1HA@IOKAPEF@?$AAd?$AA?3?$AA?2?$AAm?$AAy?$AAg?$AAi?$AAt?$AA?2?$AAp?$AAj?$AAp?$AAr?$AAo?$AAj?$AAe?$AAc?$AAt?$AA?9?$AA1?$AA?4?$AA4?$AA?2?$AAp?$AAj?$AAn?$AAa?$AAt?$AAh?$AA?2?$AAs?$AAr@ 005042d0     pjnath-i386-win32-vc8-debug:stun_session.obj
 0003:00006358       ??_C@_1BK@FFCNIGLP@?$AAs?$AAe?$AAs?$AAs?$AA?5?$AA?$CG?$AA?$CG?$AA?5?$AAl?$AAo?$AAc?$AAk?$AA?$AA@ 00504358     pjnath-i386-win32-vc8-debug:stun_session.obj
 0003:00006378       ??_C@_1DO@HPOFEGPF@?$AA?$CB?$AA?$CC?$AAI?$AAn?$AAv?$AAa?$AAl?$AAi?$AAd?$AA?5?$AAa?$AAu?$AAt?$AAh?$AAe?$AAn?$AAt?$AAi?$AAc?$AAa?$AAt?$AAi?$AAo?$AAn?$AA?5?$AAt?$AAy?$AAp?$AAe?$AA?$CC?$AA?$AA@ 00504378     pjnath-i386-win32-vc8-debug:stun_session.obj
 0003:000063c4       ??_C@_0BM@PHMKMDEA@Invalid?5authentication?5type?$AA@ 005043c4     pjnath-i386-win32-vc8-debug:stun_session.obj
 0003:000063e8       ??_C@_1CA@IBCFPGKC@?$AAs?$AAe?$AAs?$AAs?$AA?5?$AA?$CG?$AA?$CG?$AA?5?$AAp?$AA_?$AAt?$AAd?$AAa?$AAt?$AAa?$AA?$AA@ 005043e8     pjnath-i386-win32-vc8-debug:stun_session.obj
 0003:00006410       ??_C@_07JAOHCAGB@tdata?$CFp?$AA@ 00504410     pjnath-i386-win32-vc8-debug:stun_session.obj
 0003:0000641c       ??_C@_1DG@JKMLIEI@?$AA?$CB?$AA?$CC?$AAU?$AAn?$AAk?$AAn?$AAo?$AAw?$AAn?$AA?5?$AAc?$AAr?$AAe?$AAd?$AAe?$AAn?$AAt?$AAi?$AAa?$AAl?$AA?5?$AAt?$AAy?$AAp?$AAe?$AA?$CC?$AA?$AA@ 0050441c     pjnath-i386-win32-vc8-debug:stun_session.obj
 0003:0000645c       ??_C@_0BI@GHBJLC@Unknown?5credential?5type?$AA@ 0050445c     pjnath-i386-win32-vc8-debug:stun_session.obj
 0003:00006478       ??_C@_0CA@GAILMMNA@Error?5scheduling?5response?5timer?$AA@ 00504478     pjnath-i386-win32-vc8-debug:stun_session.obj
 0003:000064a0       ??_C@_1BE@MBPLHDIH@?$AAs?$AAt?$AAa?$AAt?$AAu?$AAs?$AA?$DN?$AA?$DN?$AA0?$AA?$AA@ 005044a0     pjnath-i386-win32-vc8-debug:stun_session.obj
 0003:000064b8       ??_C@_0BE@BKOHKPAP@STUN?5encode?$CI?$CJ?5error?$AA@ 005044b8     pjnath-i386-win32-vc8-debug:stun_session.obj
 0003:000064d0       ??_C@_0BH@GMONKHHK@Error?5applying?5options?$AA@ 005044d0     pjnath-i386-win32-vc8-debug:stun_session.obj
 0003:000064f0       ??_C@_1EI@BCHILHLO@?$AAs?$AAe?$AAs?$AAs?$AA?5?$AA?$CG?$AA?$CG?$AA?5?$AAa?$AAd?$AAd?$AAr?$AA_?$AAl?$AAe?$AAn?$AA?5?$AA?$CG?$AA?$CG?$AA?5?$AAs?$AAe?$AAr?$AAv?$AAe?$AAr?$AA?5?$AA?$CG?$AA?$CG?$AA?5?$AAt?$AAd@ 005044f0     pjnath-i386-win32-vc8-debug:stun_session.obj
 0003:00006548       ??_C@_0BH@PABIBIKA@Response?5cache?5deleted?$AA@ 00504548     pjnath-i386-win32-vc8-debug:stun_session.obj
 0003:00006568       ??_C@_0FK@JNLLNEHG@TX?5?$CFd?5bytes?5STUN?5message?5to?5?$CFs?3?6@ 00504568     pjnath-i386-win32-vc8-debug:stun_session.obj
 0003:000065d8       ??_C@_1FM@KKHNCPKL@?$AA?$CI?$AA?$CI?$AA?$CI?$AAt?$AAd?$AAa?$AAt?$AAa?$AA?9?$AA?$DO?$AAm?$AAs?$AAg?$AA?9?$AA?$DO?$AAh?$AAd?$AAr?$AA?4?$AAt?$AAy?$AAp?$AAe?$AA?$CJ?$AA?5?$AA?$CG?$AA?5?$AA0?$AAx?$AA0?$AA1?$AA1@ 005045d8     pjnath-i386-win32-vc8-debug:stun_session.obj
 0003:00006648       ??_C@_1DI@IBMMGHOA@?$AA?$CB?$AAn?$AAo?$AAt?$AAi?$AAf?$AAy?$AA?5?$AA?$HM?$AA?$HM?$AA?5?$AAn?$AAo?$AAt?$AAi?$AAf?$AAy?$AA_?$AAs?$AAt?$AAa?$AAt?$AAu?$AAs?$AA?$CB?$AA?$DN?$AA0?$AA?$AA@ 00504648     pjnath-i386-win32-vc8-debug:stun_session.obj
 0003:0000668c       ??_C@_1BM@KGENIGOP@?$AAs?$AAe?$AAs?$AAs?$AA?5?$AA?$CG?$AA?$CG?$AA?5?$AAt?$AAd?$AAa?$AAt?$AAa?$AA?$AA@ 0050468c     pjnath-i386-win32-vc8-debug:stun_session.obj
 0003:000066b0       ??_C@_1BO@KNMJKKFC@?$AA?$CB?$AA?$CC?$AAU?$AAn?$AAe?$AAx?$AAp?$AAe?$AAc?$AAt?$AAe?$AAd?$AA?$CB?$AA?$CC?$AA?$AA@ 005046b0     pjnath-i386-win32-vc8-debug:stun_session.obj
 0003:000066d4       ??_C@_0M@GGLALPEM@Unexpected?$CB?$AA@ 005046d4     pjnath-i386-win32-vc8-debug:stun_session.obj
 0003:000066e4       ??_C@_0BI@IMCOHDGP@STUN?5msg_decode?$CI?$CJ?5error?$AA@ 005046e4     pjnath-i386-win32-vc8-debug:stun_session.obj
 0003:00006700       ??_C@_1DG@KGPGFAJN@?$AAs?$AAe?$AAs?$AAs?$AA?5?$AA?$CG?$AA?$CG?$AA?5?$AAp?$AAa?$AAc?$AAk?$AAe?$AAt?$AA?5?$AA?$CG?$AA?$CG?$AA?5?$AAp?$AAk?$AAt?$AA_?$AAs?$AAi?$AAz?$AAe?$AA?$AA@ 00504700     pjnath-i386-win32-vc8-debug:stun_session.obj
 0003:00006740       ??_C@_0BH@LABFKMCN@Error?5encoding?5message?$AA@ 00504740     pjnath-i386-win32-vc8-debug:stun_session.obj
 0003:0000675c       ??_C@_0BP@BICDONAI@Response?5authentication?5failed?$AA@ 0050475c     pjnath-i386-win32-vc8-debug:stun_session.obj
 0003:00006784       ??_C@_0DD@DLOOKGHN@Transaction?5not?5found?0?5response?5@ 00504784     pjnath-i386-win32-vc8-debug:stun_session.obj
 0003:000067c4       ??_C@_0DA@BPOGJFCM@Request?5retransmission?0?5sending?5@ 005047c4     pjnath-i386-win32-vc8-debug:stun_session.obj
 0003:00006800       ??_C@_0CG@NKAIJIBK@Callback?5is?5not?5set?5to?5handle?5re@ 00504800     pjnath-i386-win32-vc8-debug:stun_session.obj
 0003:00006830       ??_C@_0BO@JCKJAKFG@Message?5authentication?5failed?$AA@ 00504830     pjnath-i386-win32-vc8-debug:stun_session.obj
 0003:00006858       ??_C@_0FM@GJHDBECG@RX?5?$CFd?5bytes?5STUN?5message?5from?5?$CFs@ 00504858     pjnath-i386-win32-vc8-debug:stun_session.obj
 0003:000068c8       ??_C@_0CA@NPDAOHLC@STUN?5client?5transaction?5created?$AA@ 005048c8     pjnath-i386-win32-vc8-debug:stun_transaction.obj
 0003:000068f0       ??_C@_09CIODDMB@stuntsx?$CFp?$AA@ 005048f0     pjnath-i386-win32-vc8-debug:stun_transaction.obj
 0003:000068fc       ??_C@_1CA@KNGICAKM@?$AAc?$AAb?$AA?9?$AA?$DO?$AAo?$AAn?$AA_?$AAs?$AAe?$AAn?$AAd?$AA_?$AAm?$AAs?$AAg?$AA?$AA@ 005048fc     pjnath-i386-win32-vc8-debug:stun_transaction.obj
 0003:00006924       ??_C@_1CG@EFFIDMBK@?$AAc?$AAf?$AAg?$AA?5?$AA?$CG?$AA?$CG?$AA?5?$AAc?$AAb?$AA?5?$AA?$CG?$AA?$CG?$AA?5?$AAp?$AA_?$AAt?$AAs?$AAx?$AA?$AA@ 00504924     pjnath-i386-win32-vc8-debug:stun_transaction.obj
 0003:00006958       ??_C@_1HI@NCGIEHII@?$AAd?$AA?3?$AA?2?$AAm?$AAy?$AAg?$AAi?$AAt?$AA?2?$AAp?$AAj?$AAp?$AAr?$AAo?$AAj?$AAe?$AAc?$AAt?$AA?9?$AA1?$AA?4?$AA4?$AA?2?$AAp?$AAj?$AAn?$AAa?$AAt?$AAh?$AA?2?$AAs?$AAr@ 00504958     pjnath-i386-win32-vc8-debug:stun_transaction.obj
 0003:000069e8       ??_C@_1CG@EKKJNBNA@?$AAt?$AAs?$AAx?$AA?9?$AA?$DO?$AAc?$AAb?$AA?4?$AAo?$AAn?$AA_?$AAd?$AAe?$AAs?$AAt?$AAr?$AAo?$AAy?$AA?$AA@ 005049e8     pjnath-i386-win32-vc8-debug:stun_transaction.obj
 0003:00006a18       ??_C@_1BK@LIINHEMH@?$AAt?$AAs?$AAx?$AA?5?$AA?$CG?$AA?$CG?$AA?5?$AAd?$AAe?$AAl?$AAa?$AAy?$AA?$AA@ 00504a18     pjnath-i386-win32-vc8-debug:stun_transaction.obj
 0003:00006a38       ??_C@_0CC@DMMFAIED@STUN?5client?5transaction?5destroye@ 00504a38     pjnath-i386-win32-vc8-debug:stun_transaction.obj
 0003:00006a60       ??_C@_17JBPKEIOA@?$AAt?$AAs?$AAx?$AA?$AA@ 00504a60     pjnath-i386-win32-vc8-debug:stun_transaction.obj
 0003:00006a6c       ??_C@_1DM@LIPBCKFN@?$AAt?$AAs?$AAx?$AA?9?$AA?$DO?$AAr?$AAe?$AAt?$AAr?$AAa?$AAn?$AAs?$AAm?$AAi?$AAt?$AA_?$AAt?$AAi?$AAm?$AAe?$AAr?$AA?4?$AAi?$AAd?$AA?5?$AA?$DN?$AA?$DN?$AA?5?$AA0?$AA?$AA@ 00504a6c     pjnath-i386-win32-vc8-debug:stun_transaction.obj
 0003:00006ab4       ??_C@_1CM@CAHKDHDN@?$AAt?$AAs?$AAx?$AA?5?$AA?$CG?$AA?$CG?$AA?5?$AAp?$AAk?$AAt?$AA?5?$AA?$CG?$AA?$CG?$AA?5?$AAp?$AAk?$AAt?$AA_?$AAl?$AAe?$AAn?$AA?$AA@ 00504ab4     pjnath-i386-win32-vc8-debug:stun_transaction.obj
 0003:00006ae8       ??_C@_0BL@GACKAEHG@STUN?5error?5sending?5message?$AA@ 00504ae8     pjnath-i386-win32-vc8-debug:stun_transaction.obj
 0003:00006b08       ??_C@_0CJ@CNIDBHLE@STUN?5sending?5message?5?$CItransmit?5c@ 00504b08     pjnath-i386-win32-vc8-debug:stun_transaction.obj
 0003:00006b40       ??_C@_1HE@POMODAHG@?$AAt?$AAs?$AAx?$AA?9?$AA?$DO?$AAr?$AAe?$AAt?$AAr?$AAa?$AAn?$AAs?$AAm?$AAi?$AAt?$AA_?$AAt?$AAi?$AAm?$AAe?$AAr?$AA?4?$AAi?$AAd?$AA?5?$AA?$DN?$AA?$DN?$AA?5?$AA0?$AA?5?$AA?$HM?$AA?$HM@ 00504b40     pjnath-i386-win32-vc8-debug:stun_transaction.obj
 0003:00006bcc       ??_C@_0CC@NPFEKFFB@STUN?5timeout?5waiting?5for?5respons@ 00504bcc     pjnath-i386-win32-vc8-debug:stun_transaction.obj
 0003:00006bf4       ??_C@_0DJ@NOGGEPKF@STUN?5rx_msg?$CI?$CJ?5error?3?5received?5pr@ 00504bf4     pjnath-i386-win32-vc8-debug:stun_transaction.obj
 0003:00006c38       ??_C@_0CK@DAMMIECO@STUN?5rx_msg?$CI?$CJ?5error?3?5not?5respons@ 00504c38     pjnath-i386-win32-vc8-debug:stun_transaction.obj
 0003:00006c6c       ??_C@_0DP@IOLGDEEC@?5Hdr?3?5length?$DN?$CFd?0?5magic?$DN?$CF08x?0?5tsx@ 00504c6c     pjnath-i386-win32-vc8-debug:stun_msg_dump.obj
 0003:00006cb8       ??_C@_0M@FNPFMPNK@STUN?5?$CFs?5?$CFs?6?$AA@ 00504cb8     pjnath-i386-win32-vc8-debug:stun_msg_dump.obj
 0003:00006cc8       ??_C@_0DJ@KJFOOHHD@d?3?2mygit?2pjproject?91?44?2pjnath?2sr@ 00504cc8     pjnath-i386-win32-vc8-debug:stun_msg_dump.obj
 0003:00006d0c       ??_C@_1DA@ECDBJNLE@?$AAm?$AAs?$AAg?$AA?5?$AA?$CG?$AA?$CG?$AA?5?$AAb?$AAu?$AAf?$AAf?$AAe?$AAr?$AA?5?$AA?$CG?$AA?$CG?$AA?5?$AAl?$AAe?$AAn?$AAg?$AAt?$AAh?$AA?$AA@ 00504d0c     pjnath-i386-win32-vc8-debug:stun_msg_dump.obj
 0003:00006d48       ??_C@_1HC@OOBMODMP@?$AAd?$AA?3?$AA?2?$AAm?$AAy?$AAg?$AAi?$AAt?$AA?2?$AAp?$AAj?$AAp?$AAr?$AAo?$AAj?$AAe?$AAc?$AAt?$AA?9?$AA1?$AA?4?$AA4?$AA?2?$AAp?$AAj?$AAn?$AAa?$AAt?$AAh?$AA?2?$AAs?$AAr@ 00504d48     pjnath-i386-win32-vc8-debug:stun_msg_dump.obj
 0003:00006dd0       ??_C@_01EEMJAFIK@?6?$AA@   00504dd0     pjnath-i386-win32-vc8-debug:stun_msg_dump.obj
 0003:00006dd4       ??_C@_03EBJOKFHF@?5?$CFd?$AA@ 00504dd4     pjnath-i386-win32-vc8-debug:stun_msg_dump.obj
 0003:00006dd8       ??_C@_0BA@LABKONBB@?0?5unknown?5list?3?$AA@ 00504dd8     pjnath-i386-win32-vc8-debug:stun_msg_dump.obj
 0003:00006dec       ??_C@_0BO@PNMDMGDB@?0?5err_code?$DN?$CFd?0?5reason?$DN?$CC?$CF?4?$CKs?$CC?6?$AA@ 00504dec     pjnath-i386-win32-vc8-debug:stun_msg_dump.obj
 0003:00006e10       ??_C@_0BA@IIGELLKF@?0?5value?$DN?$CC?$CF?4?$CKs?$CC?6?$AA@ 00504e10     pjnath-i386-win32-vc8-debug:stun_msg_dump.obj
 0003:00006e24       ??_C@_0BD@HAAKODCD@?0?5value?$DN?$CFu?5?$CI0x?$CFx?$CJ?6?$AA@ 00504e24     pjnath-i386-win32-vc8-debug:stun_msg_dump.obj
 0003:00006e3c       ??_C@_0BD@LMALPKPA@?0?5chnum?$DN?$CFu?5?$CI0x?$CFx?$CJ?6?$AA@ 00504e3c     pjnath-i386-win32-vc8-debug:stun_msg_dump.obj
 0003:00006e54       ??_C@_0BL@IOPONFCN@?0?5INVALID?5ADDRESS?5FAMILY?$CB?6?$AA@ 00504e54     pjnath-i386-win32-vc8-debug:stun_msg_dump.obj
 0003:00006e74       ??_C@_0BF@JOGAAMBJ@?0?5IPv6?5addr?5present?6?$AA@ 00504e74     pjnath-i386-win32-vc8-debug:stun_msg_dump.obj
 0003:00006e90       ??_C@_0BD@PNODJOLL@?0?5IPv4?5addr?$DN?$CFs?3?$CFd?6?$AA@ 00504e90     pjnath-i386-win32-vc8-debug:stun_msg_dump.obj
 0003:00006ea8       ??_C@_0BA@OIDNDPHM@?5?5?$CFs?3?5length?$DN?$CFd?$AA@ 00504ea8     pjnath-i386-win32-vc8-debug:stun_msg_dump.obj
 0003:00006ebc       ??_C@_09ECMJHFJA@Attr?50x?$CFx?$AA@ 00504ebc     pjnath-i386-win32-vc8-debug:stun_msg_dump.obj
 0003:00006ec8       ??_C@_04NOJCDH@?$CF02x?$AA@ 00504ec8     pjnath-i386-win32-vc8-debug:stun_msg_dump.obj
 0003:00006ed0       ??_C@_07LCOKDMA@?0?5data?$DN?$AA@ 00504ed0     pjnath-i386-win32-vc8-debug:stun_msg_dump.obj
 0003:00006edc       ??_C@_02BAABKJLB@?9?9?$AA@ 00504edc     pjlib-util-i386-win32-vc8-debug:getopt.obj
 0003:00006ee0       ??_C@_03KHCCLPOB@Bad?$AA@  00504ee0     pjlib-util-i386-win32-vc8-debug:resolver.obj
 0003:00006ee4       ??_C@_06MAFFGDO@Active?$AA@ 00504ee4     pjlib-util-i386-win32-vc8-debug:resolver.obj
 0003:00006eec       ??_C@_07IAIHCIDD@Probing?$AA@ 00504eec     pjlib-util-i386-win32-vc8-debug:resolver.obj
 0003:00006ef8       ??_C@_0L@LIJHCMPL@resolver?4c?$AA@ 00504ef8     pjlib-util-i386-win32-vc8-debug:resolver.obj
 0003:00006f08       ??_C@_1CC@OFBCCIJI@?$AAp?$AAf?$AA?5?$AA?$CG?$AA?$CG?$AA?5?$AAp?$AA_?$AAr?$AAe?$AAs?$AAo?$AAl?$AAv?$AAe?$AAr?$AA?$AA@ 00504f08     pjlib-util-i386-win32-vc8-debug:resolver.obj
 0003:00006f30       ??_C@_1HI@EKACAEOL@?$AAd?$AA?3?$AA?2?$AAm?$AAy?$AAg?$AAi?$AAt?$AA?2?$AAp?$AAj?$AAp?$AAr?$AAo?$AAj?$AAe?$AAc?$AAt?$AA?9?$AA1?$AA?4?$AA4?$AA?2?$AAp?$AAj?$AAl?$AAi?$AAb?$AA?9?$AAu?$AAt?$AAi@ 00504f30     pjlib-util-i386-win32-vc8-debug:resolver.obj
 0003:00006fc0       ??_C@_1BC@ODGDHABI@?$AAr?$AAe?$AAs?$AAo?$AAl?$AAv?$AAe?$AAr?$AA?$AA@ 00504fc0     pjlib-util-i386-win32-vc8-debug:resolver.obj
 0003:00006fd8       ??_C@_1BG@DBJIMINH@?$AAc?$AAo?$AAu?$AAn?$AAt?$AA?5?$AA?$DM?$AA?5?$AA1?$AA6?$AA?$AA@ 00504fd8     pjlib-util-i386-win32-vc8-debug:resolver.obj
 0003:00006ff4       ??_C@_1DK@JOOBACGJ@?$AAr?$AAe?$AAs?$AAo?$AAl?$AAv?$AAe?$AAr?$AA?5?$AA?$CG?$AA?$CG?$AA?5?$AAc?$AAo?$AAu?$AAn?$AAt?$AA?5?$AA?$CG?$AA?$CG?$AA?5?$AAs?$AAe?$AAr?$AAv?$AAe?$AAr?$AAs?$AA?$AA@ 00504ff4     pjlib-util-i386-win32-vc8-debug:resolver.obj
 0003:0000703c       ??_C@_1BO@CFOLJEAJ@?$AAr?$AAe?$AAs?$AAo?$AAl?$AAv?$AAe?$AAr?$AA?5?$AA?$CG?$AA?$CG?$AA?5?$AAs?$AAt?$AA?$AA@ 0050503c     pjlib-util-i386-win32-vc8-debug:resolver.obj
 0003:00007060       ??_C@_0DE@LLACOPGB@Picked?5up?5DNS?5?$CFs?5record?5for?5?$CF?4?$CKs@ 00505060     pjlib-util-i386-win32-vc8-debug:resolver.obj
 0003:000070a0       ??_C@_1DE@BCKLCGBP@?$AAt?$AAy?$AAp?$AAe?$AA?5?$AA?$DO?$AA?5?$AA0?$AA?5?$AA?$CG?$AA?$CG?$AA?5?$AAt?$AAy?$AAp?$AAe?$AA?5?$AA?$DM?$AA?5?$AA0?$AAx?$AAF?$AAF?$AAF?$AAF?$AA?$AA@ 005050a0     pjlib-util-i386-win32-vc8-debug:resolver.obj
 0003:000070e0       ??_C@_1EG@EMHOAJBD@?$AAn?$AAa?$AAm?$AAe?$AA?9?$AA?$DO?$AAs?$AAl?$AAe?$AAn?$AA?$DO?$AA0?$AA?5?$AA?$CG?$AA?$CG?$AA?5?$AAn?$AAa?$AAm?$AAe?$AA?9?$AA?$DO?$AAs?$AAl?$AAe?$AAn?$AA?5?$AA?$DM?$AA?5?$AA?$CI?$AA1?$AA2@ 005050e0     pjlib-util-i386-win32-vc8-debug:resolver.obj
 0003:00007134       ??_C@_1DC@JIMKOFBN@?$AAr?$AAe?$AAs?$AAo?$AAl?$AAv?$AAe?$AAr?$AA?5?$AA?$CG?$AA?$CG?$AA?5?$AAn?$AAa?$AAm?$AAe?$AA?5?$AA?$CG?$AA?$CG?$AA?5?$AAt?$AAy?$AAp?$AAe?$AA?$AA@ 00505134     pjlib-util-i386-win32-vc8-debug:resolver.obj
 0003:00007170       ??_C@_0DC@PBGKNNLN@?$CFs?5?$CFd?5bytes?5to?5NS?5?$CFd?5?$CI?$CFs?3?$CFd?$CJ?3?5DN@ 00505170     pjlib-util-i386-win32-vc8-debug:resolver.obj
 0003:000071ac       ??_C@_0BA@JFAGDHFD@Re?9transmitting?$AA@ 005051ac     pjlib-util-i386-win32-vc8-debug:resolver.obj
 0003:000071c0       ??_C@_0N@IBGJGPJN@Transmitting?$AA@ 005051c0     pjlib-util-i386-win32-vc8-debug:resolver.obj
 0003:000071d0       ??_C@_1CO@ILJIFBPI@?$AAq?$AA?9?$AA?$DO?$AAt?$AAi?$AAm?$AAe?$AAr?$AA_?$AAe?$AAn?$AAt?$AAr?$AAy?$AA?4?$AAi?$AAd?$AA?5?$AA?$DN?$AA?$DN?$AA?5?$AA0?$AA?$AA@ 005051d0     pjlib-util-i386-win32-vc8-debug:resolver.obj
 0003:00007208       ??_C@_1M@ODHDFHNE@?$AAq?$AAu?$AAe?$AAr?$AAy?$AA?$AA@ 00505208     pjlib-util-i386-win32-vc8-debug:resolver.obj
 0003:00007218       ??_C@_1BG@GGFBPIED@?$AAp?$AAk?$AAt?$AA?5?$AA?$CG?$AA?$CG?$AA?5?$AAr?$AAe?$AAc?$AA?$AA@ 00505218     pjlib-util-i386-win32-vc8-debug:resolver.obj
 0003:00007234       ??_C@_1BM@DEGOKKDC@?$AAm?$AAa?$AAx?$AA_?$AAc?$AAo?$AAu?$AAn?$AAt?$AA?5?$AA?$DO?$AA?5?$AA0?$AA?$AA@ 00505234     pjlib-util-i386-win32-vc8-debug:resolver.obj
 0003:00007258       ??_C@_0CJ@MMDCPKPE@Nameserver?5?$CFs?3?$CFd?5state?5changed?5?$CF@ 00505258     pjlib-util-i386-win32-vc8-debug:resolver.obj
 0003:0000728c       ??_C@_0BP@GLADIPED@Error?5transmitting?5request?3?5?$CFs?$AA@ 0050528c     pjlib-util-i386-win32-vc8-debug:resolver.obj
 0003:000072b4       ??_C@_1CG@HGDGJNAK@?$AA?$CB?$AA?$CC?$AAU?$AAn?$AAh?$AAa?$AAn?$AAd?$AAl?$AAe?$AAd?$AA?5?$AAe?$AAr?$AAr?$AAo?$AAr?$AA?$CC?$AA?$AA@ 005052b4     pjlib-util-i386-win32-vc8-debug:resolver.obj
 0003:000072e4       ??_C@_0BA@EBCKFBNG@Unhandled?5error?$AA@ 005052e4     pjlib-util-i386-win32-vc8-debug:resolver.obj
 0003:000072f8       ??_C@_0CE@JHMLGLFH@DNS?5resolver?5ioqueue?5read?5error?3@ 005052f8     pjlib-util-i386-win32-vc8-debug:resolver.obj
 0003:00007324       ??_C@_1CO@LGAKDAJO@?$AAq?$AA?9?$AA?$DO?$AAt?$AAi?$AAm?$AAe?$AAr?$AA_?$AAe?$AAn?$AAt?$AAr?$AAy?$AA?4?$AAi?$AAd?$AA?5?$AA?$CB?$AA?$DN?$AA?5?$AA0?$AA?$AA@ 00505324     pjlib-util-i386-win32-vc8-debug:resolver.obj
 0003:0000735c       ??_C@_0CI@NOCPIGKM@DNS?5response?5from?5?$CFs?3?$CFd?5id?$DN?$CFd?5di@ 0050535c     pjlib-util-i386-win32-vc8-debug:resolver.obj
 0003:0000738c       ??_C@_0CK@NLLFBPNI@Error?5parsing?5DNS?5response?5from?5@ 0050538c     pjlib-util-i386-win32-vc8-debug:resolver.obj
 0003:000073c0       ??_C@_06HEECPDDL@restmp?$AA@ 005053c0     pjlib-util-i386-win32-vc8-debug:resolver.obj
 0003:000073c8       ??_C@_0CK@MMBMIKLP@Received?5?$CFd?5bytes?5DNS?5response?5f@ 005053c8     pjlib-util-i386-win32-vc8-debug:resolver.obj
 0003:000073fc       ??_C@_0CH@PBJNCHDG@DNS?5resolver?5read?5error?5from?5?$CFs?3@ 005053fc     pjlib-util-i386-win32-vc8-debug:resolver.obj
 0003:0000742c       ??_C@_08FNHHDNFI@dnscache?$AA@ 0050542c     pjlib-util-i386-win32-vc8-debug:resolver.obj
 0003:00007438       ??_C@_1DI@JEHHLBLM@?$AAp?$AAk?$AAt?$AA?9?$AA?$DO?$AAq?$AA?$FL?$AA0?$AA?$FN?$AA?4?$AAn?$AAa?$AAm?$AAe?$AA?4?$AAs?$AAl?$AAe?$AAn?$AA?5?$AA?$DM?$AA?5?$AA?$CI?$AA1?$AA2?$AA8?$AA?$CJ?$AA?$AA@ 00505438     pjlib-util-i386-win32-vc8-debug:resolver.obj
 0003:0000747c       ??_C@_1DM@FHJBJANL@?$AAp?$AAk?$AAt?$AA?9?$AA?$DO?$AAa?$AAn?$AAs?$AA?$FL?$AA0?$AA?$FN?$AA?4?$AAn?$AAa?$AAm?$AAe?$AA?4?$AAs?$AAl?$AAe?$AAn?$AA?5?$AA?$DM?$AA?5?$AA?$CI?$AA1?$AA2?$AA8?$AA?$CJ?$AA?$AA@ 0050547c     pjlib-util-i386-win32-vc8-debug:resolver.obj
 0003:000074c8       ??_C@_1IA@BBOEGBAL@?$AA?$CI?$AAp?$AAk?$AAt?$AA?9?$AA?$DO?$AAh?$AAd?$AAr?$AA?4?$AAa?$AAn?$AAs?$AAc?$AAo?$AAu?$AAn?$AAt?$AA?5?$AA?$CG?$AA?$CG?$AA?5?$AAp?$AAk?$AAt?$AA?9?$AA?$DO?$AAa?$AAn?$AAs?$AA?$CJ?$AA?5@ 005054c8     pjlib-util-i386-win32-vc8-debug:resolver.obj
 0003:00007568       ??_C@_1HI@JPFAAAJI@?$AA?$CI?$AA?$CI?$AA?$CI?$AAp?$AAk?$AAt?$AA?9?$AA?$DO?$AAh?$AAd?$AAr?$AA?4?$AAf?$AAl?$AAa?$AAg?$AAs?$AA?$CJ?$AA?5?$AA?$CG?$AA?5?$AA?$CI?$AA?$CI?$AAp?$AAj?$AA_?$AAu?$AAi?$AAn?$AAt?$AA1?$AA6@ 00505568     pjlib-util-i386-win32-vc8-debug:resolver.obj
 0003:000075f8       ??_C@_1CA@LOPCEJJJ@?$AAr?$AAe?$AAs?$AAo?$AAl?$AAv?$AAe?$AAr?$AA?5?$AA?$CG?$AA?$CG?$AA?5?$AAp?$AAk?$AAt?$AA?$AA@ 005055f8     pjlib-util-i386-win32-vc8-debug:resolver.obj
 0003:00007620       ??_C@_0CD@MOCMLNNF@?5?5Pool?5capacity?3?5?$CFd?0?5used?5size?3?5@ 00505620     pjlib-util-i386-win32-vc8-debug:resolver.obj
 0003:0000764c       ??_C@_0BL@OIOIOFBO@?5?5Nb?4?5of?5timer?5entries?3?5?$CFu?$AA@ 0050564c     pjlib-util-i386-win32-vc8-debug:resolver.obj
 0003:0000766c       ??_C@_0CG@DNEONFED@?5?5Nb?4?5of?5pending?5query?5free?5node@ 0050566c     pjlib-util-i386-win32-vc8-debug:resolver.obj
 0003:0000769c       ??_C@_0CC@ENHNPIME@?5?5Nb?4?5of?5pending?5queries?3?5?$CFu?5?$CI?$CFu@ 0050569c     pjlib-util-i386-win32-vc8-debug:resolver.obj
 0003:000076c4       ??_C@_0P@BMCOBHPI@?5?5?5Type?5?$CFs?3?5?$CFs?$AA@ 005056c4     pjlib-util-i386-win32-vc8-debug:resolver.obj
 0003:000076d8       ??_C@_0BO@LKJCLCIL@?5?5Nb?4?5of?5cached?5responses?3?5?$CFu?$AA@ 005056d8     pjlib-util-i386-win32-vc8-debug:resolver.obj
 0003:000076fc       ??_C@_0DA@FCCMJHFI@?5?5?5NS?5?$CFd?3?5?$CFs?3?$CFd?5?$CIstate?$DN?$CFs?5until?5@ 005056fc     pjlib-util-i386-win32-vc8-debug:resolver.obj
 0003:00007738       ??_C@_03HBABANP@bad?$AA@   00505738     pjlib-util-i386-win32-vc8-debug:resolver.obj
 0003:0000773c       ??_C@_06MDLIGPKC@active?$AA@ 0050573c     pjlib-util-i386-win32-vc8-debug:resolver.obj
 0003:00007744       ??_C@_07HJPBEKGF@probing?$AA@ 00505744     pjlib-util-i386-win32-vc8-debug:resolver.obj
 0003:00007750       ??_C@_0BA@BJIJOCOE@?5?5Name?5servers?3?$AA@ 00505750     pjlib-util-i386-win32-vc8-debug:resolver.obj
 0003:00007764       ??_C@_0BJ@DHDGEIGD@?5Dumping?5resolver?5state?3?$AA@ 00505764     pjlib-util-i386-win32-vc8-debug:resolver.obj
 0003:00007784       ??_C@_0CH@JNBFBBKA@Connection?5lost?5?$CIPJLIB_UTIL_EHTT@ 00505784     pjlib-util-i386-win32-vc8-debug:errno.obj
 0003:000077b4       ??_C@_0CN@MKMAKFDH@Insufficient?5buffer?5?$CIPJLIB_UTIL_@ 005057b4     pjlib-util-i386-win32-vc8-debug:errno.obj
 0003:000077ec       ??_C@_0DN@CABCKELB@Incomplete?5response?5header?5recei@ 005057ec     pjlib-util-i386-win32-vc8-debug:errno.obj
 0003:00007838       ??_C@_0DB@BDFJPAOA@Invalid?5URL?5port?5number?5?$CIPJLIB_U@ 00505838     pjlib-util-i386-win32-vc8-debug:errno.obj
 0003:00007874       ??_C@_0CL@GOOAEBLJ@Invalid?5URL?5format?5?$CIPJLIB_UTIL_E@ 00505874     pjlib-util-i386-win32-vc8-debug:errno.obj
 0003:000078a8       ??_C@_0EF@HAPLEMIK@STUN?5transaction?5terminates?5with@ 005058a8     pjlib-util-i386-win32-vc8-debug:errno.obj
 0003:00007900       ??_C@_0EB@FGOGNHPO@Missing?1stale?5STUN?5NONCE?5attribu@ 00505900     pjlib-util-i386-win32-vc8-debug:errno.obj
 0003:00007950       ??_C@_0DH@MMHMOPBG@Missing?5STUN?5REALM?5attribute?5?$CIPJ@ 00505950     pjlib-util-i386-win32-vc8-debug:errno.obj
 0003:00007994       ??_C@_0DJ@BCFNCGF@Found?5duplicate?5STUN?5attribute?5?$CI@ 00505994     pjlib-util-i386-win32-vc8-debug:errno.obj
 0003:000079d8       ??_C@_0EK@LMHKLKC@Missing?1invalid?5STUN?5MESSAGE?9INT@ 005059d8     pjlib-util-i386-win32-vc8-debug:errno.obj
 0003:00007a30       ??_C@_0DN@JLMAJAKN@Missing?5STUN?5USERNAME?5attribute?5@ 00505a30     pjlib-util-i386-win32-vc8-debug:errno.obj
 0003:00007a80       ??_C@_0ED@CNMDGMPD@Found?5STUN?5attribute?5after?5FINGE@ 00505a80     pjlib-util-i386-win32-vc8-debug:errno.obj
 0003:00007ad0       ??_C@_0FA@DIAPLEFD@Found?5non?9FINGERPRINT?5attr?4?5afte@ 00505ad0     pjlib-util-i386-win32-vc8-debug:errno.obj
 0003:00007b30       ??_C@_0EI@BNLBFIKH@Unable?5to?5find?5STUN?5handler?5for?5@ 00505b30     pjlib-util-i386-win32-vc8-debug:errno.obj
 0003:00007b88       ??_C@_0DJ@DDEJFFIL@STUN?5transaction?5ID?5mismatch?5?$CIPJ@ 00505b88     pjlib-util-i386-win32-vc8-debug:errno.obj
 0003:00007bcc       ??_C@_0DO@LEKPMIHP@Expecting?5STUN?5response?5message?5@ 00505bcc     pjlib-util-i386-win32-vc8-debug:errno.obj
 0003:00007c18       ??_C@_0EA@NAKPKGDE@STUN?5IPv6?5attribute?5not?5supporte@ 00505c18     pjlib-util-i386-win32-vc8-debug:errno.obj
 0003:00007c64       ??_C@_0DP@PDBNFLFH@Invalid?5STUN?5socket?5address?5leng@ 00505c64     pjlib-util-i386-win32-vc8-debug:errno.obj
 0003:00007cb0       ??_C@_0DF@KMIPDCMM@Unknown?5STUN?5attribute?5?$CIPJLIB_UT@ 00505cb0     pjlib-util-i386-win32-vc8-debug:errno.obj
 0003:00007cf0       ??_C@_0DH@EMGNELGL@Too?5many?5STUN?5attributes?5?$CIPJLIB_@ 00505cf0     pjlib-util-i386-win32-vc8-debug:errno.obj
 0003:00007d38       ??_C@_0EB@GKEHOPAE@DNS?5?$CCThe?5zone?5specified?5is?5not?5a@ 00505d38     pjlib-util-i386-win32-vc8-debug:errno.obj
 0003:00007d88       ??_C@_0CP@HJODAHHO@DNS?5?$CCNot?5authorized?$CC?5?$CIPJLIB_UTIL@ 00505d88     pjlib-util-i386-win32-vc8-debug:errno.obj
 0003:00007dc0       ??_C@_0EG@OMHMBNML@DNS?5?$CCThe?5RRset?5?$CIname?0?5type?$CJ?5does@ 00505dc0     pjlib-util-i386-win32-vc8-debug:errno.obj
 0003:00007e14       ??_C@_0DO@OIIHMCI@DNS?5?$CCThe?5RRset?5?$CIname?0?5type?$CJ?5exis@ 00505e14     pjlib-util-i386-win32-vc8-debug:errno.obj
 0003:00007e60       ??_C@_0DB@PFAMNHPJ@DNS?5?$CCThe?5name?5exists?$CC?5?$CIPJLIB_UTI@ 00505e60     pjlib-util-i386-win32-vc8-debug:errno.obj
 0003:00007e9c       ??_C@_0CI@LDMKLLKJ@DNS?5?$CCRefused?$CC?5?$CIPJLIB_UTIL_EDNS_R@ 00505e9c     pjlib-util-i386-win32-vc8-debug:errno.obj
 0003:00007ecc       ??_C@_0DA@DIMDKHPM@DNS?5?$CCNot?5Implemented?$CC?5?$CIPJLIB_UTI@ 00505ecc     pjlib-util-i386-win32-vc8-debug:errno.obj
 0003:00007f08       ??_C@_0CM@CNNJNBCA@DNS?5?$CCName?5Error?$CC?5?$CIPJLIB_UTIL_EDN@ 00505f08     pjlib-util-i386-win32-vc8-debug:errno.obj
 0003:00007f3c       ??_C@_0DA@NBPIIAHM@DNS?5?$CCServer?5failure?$CC?5?$CIPJLIB_UTIL@ 00505f3c     pjlib-util-i386-win32-vc8-debug:errno.obj
 0003:00007f78       ??_C@_0CN@BCAAPMPM@DNS?5?$CCFormat?5error?$CC?5?$CIPJLIB_UTIL_E@ 00505f78     pjlib-util-i386-win32-vc8-debug:errno.obj
 0003:00007fb0       ??_C@_0CN@DEFBDJKF@Invalid?5DNS?5answer?5?$CIPJLIB_UTIL_E@ 00505fb0     pjlib-util-i386-win32-vc8-debug:errno.obj
 0003:00007fe8       ??_C@_0EC@HJFBNLFC@No?5answer?5record?5in?5the?5DNS?5resp@ 00505fe8     pjlib-util-i386-win32-vc8-debug:errno.obj
 0003:00008038       ??_C@_0DH@PHJBLCKD@No?5working?5DNS?5nameserver?5?$CIPJLIB@ 00506038     pjlib-util-i386-win32-vc8-debug:errno.obj
 0003:0000807c       ??_C@_0DH@LFJGDOHB@No?5nameserver?5is?5in?5DNS?5resolver@ 0050607c     pjlib-util-i386-win32-vc8-debug:errno.obj
 0003:000080c0       ??_C@_0DJ@NBOGGJL@Invalid?5DNS?5nameserver?5address?5?$CI@ 005060c0     pjlib-util-i386-win32-vc8-debug:errno.obj
 0003:00008104       ??_C@_0DE@FIPILDGP@Invalid?5DNS?5name?5pointer?5?$CIPJLIB_@ 00506104     pjlib-util-i386-win32-vc8-debug:errno.obj
 0003:00008144       ??_C@_0CL@OCFDFFNM@Invalid?5DNS?5class?5?$CIPJLIB_UTIL_ED@ 00506144     pjlib-util-i386-win32-vc8-debug:errno.obj
 0003:00008178       ??_C@_0DC@JFKHADAC@Invalid?5DNS?5packet?5length?5?$CIPJLIB@ 00506178     pjlib-util-i386-win32-vc8-debug:errno.obj
 0003:000081b8       ??_C@_0EC@KJLJANIE@DNS?5query?5packet?5buffer?5is?5too?5s@ 005061b8     pjlib-util-i386-win32-vc8-debug:errno.obj
 0003:00008208       ??_C@_0CI@OKGDIDF@Invalid?5XML?5message?5?$CIPJLIB_UTIL_@ 00506208     pjlib-util-i386-win32-vc8-debug:errno.obj
 0003:00008238       ??_C@_0DK@OILEGGA@Symetric?5NAT?5detected?5by?5STUN?5?$CIP@ 00506238     pjlib-util-i386-win32-vc8-debug:errno.obj
 0003:00008280       ??_C@_0ED@MIOBPJDH@Received?5no?5response?5from?5STUN?5s@ 00506280     pjlib-util-i386-win32-vc8-debug:errno.obj
 0003:000082d0       ??_C@_0DJ@BDPKKDEL@No?5STUN?5mapped?5address?5attribute@ 005062d0     pjlib-util-i386-win32-vc8-debug:errno.obj
 0003:00008314       ??_C@_0DM@JJJKHKHH@Received?5STUN?5error?5attribute?5?$CIP@ 00506314     pjlib-util-i386-win32-vc8-debug:errno.obj
 0003:00008360       ??_C@_0EE@OMBAKMPD@No?5STUN?5binding?5response?5in?5the?5@ 00506360     pjlib-util-i386-win32-vc8-debug:errno.obj
 0003:000083b4       ??_C@_0DL@JFEBBJAB@Invalid?5STUN?5server?1socket?5index@ 005063b4     pjlib-util-i386-win32-vc8-debug:errno.obj
 0003:000083fc       ??_C@_0DJ@GEFJCPHI@Invalid?5STUN?5attribute?5type?5?$CIPJL@ 005063fc     pjlib-util-i386-win32-vc8-debug:errno.obj
 0003:00008440       ??_C@_0DI@MNKBLDCO@STUN?5attribute?5length?5error?5?$CIPJL@ 00506440     pjlib-util-i386-win32-vc8-debug:errno.obj
 0003:00008484       ??_C@_0DH@BGLGMNML@Invalid?5STUN?5message?5length?5?$CIPJL@ 00506484     pjlib-util-i386-win32-vc8-debug:errno.obj
 0003:000084c8       ??_C@_0DG@MLIAHJMC@Unknown?5STUN?5message?5type?5?$CIPJLIB@ 005064c8     pjlib-util-i386-win32-vc8-debug:errno.obj
 0003:00008508       ??_C@_0DI@FPKNFLPC@Unable?5to?5resolve?5STUN?5server?5?$CIP@ 00506508     pjlib-util-i386-win32-vc8-debug:errno.obj
 0003:0000873c       ??_C@_0BM@LDLEGOFO@Unknown?5pjlib?9util?5error?5?$CFd?$AA@ 0050673c     pjlib-util-i386-win32-vc8-debug:errno.obj
 0003:00008760       ??_C@_0DA@GGGKMBOI@Starting?5async?5DNS?5?$CFs?5query_job?3@ 00506760     pjlib-util-i386-win32-vc8-debug:srv_resolver.obj
 0003:0000879c       ??_C@_01LFCBOECM@?4?$AA@   0050679c     pjlib-util-i386-win32-vc8-debug:srv_resolver.obj
 0003:000087a0       ??_C@_1LC@GLFIPECN@?$AAd?$AAo?$AAm?$AAa?$AAi?$AAn?$AA_?$AAn?$AAa?$AAm?$AAe?$AA?5?$AA?$CG?$AA?$CG?$AA?5?$AAd?$AAo?$AAm?$AAa?$AAi?$AAn?$AA_?$AAn?$AAa?$AAm?$AAe?$AA?9?$AA?$DO?$AAs?$AAl?$AAe?$AAn@ 005067a0     pjlib-util-i386-win32-vc8-debug:srv_resolver.obj
 0003:00008878       ??_C@_1IA@BAGAMPE@?$AAd?$AA?3?$AA?2?$AAm?$AAy?$AAg?$AAi?$AAt?$AA?2?$AAp?$AAj?$AAp?$AAr?$AAo?$AAj?$AAe?$AAc?$AAt?$AA?9?$AA1?$AA?4?$AA4?$AA?2?$AAp?$AAj?$AAl?$AAi?$AAb?$AA?9?$AAu?$AAt?$AAi@ 00506878     pjlib-util-i386-win32-vc8-debug:srv_resolver.obj
 0003:00008914       ??_C@_0DH@GBMACLIM@DNS?5?$CFs?5record?5resolution?5error?5f@ 00506914     pjlib-util-i386-win32-vc8-debug:srv_resolver.obj
 0003:00008958       ??_C@_0DF@NMOAKAGH@Server?5resolution?5complete?0?5?$CFd?5s@ 00506958     pjlib-util-i386-win32-vc8-debug:srv_resolver.obj
 0003:00008998       ??_C@_1CG@LDFBIFFG@?$AAs?$AAr?$AAv?$AA?9?$AA?$DO?$AAa?$AAd?$AAd?$AAr?$AA_?$AAc?$AAn?$AAt?$AA?5?$AA?$DM?$AA?$DN?$AA?5?$AA8?$AA?$AA@ 00506998     pjlib-util-i386-win32-vc8-debug:srv_resolver.obj
 0003:000089c8       ??_C@_1CK@DKOGKPLJ@?$AA?$CB?$AA?$CC?$AAU?$AAn?$AAe?$AAx?$AAp?$AAe?$AAc?$AAt?$AAe?$AAd?$AA?5?$AAs?$AAt?$AAa?$AAt?$AAe?$AA?$CB?$AA?$CC?$AA?$AA@ 005069c8     pjlib-util-i386-win32-vc8-debug:srv_resolver.obj
 0003:000089fc       ??_C@_0BC@LIDAFMDL@Unexpected?5state?$CB?$AA@ 005069fc     pjlib-util-i386-win32-vc8-debug:srv_resolver.obj
 0003:00008a14       ??_C@_0CD@MNOGDEHE@DNS?5A?5record?5resolution?5failed?3?5@ 00506a14     pjlib-util-i386-win32-vc8-debug:srv_resolver.obj
 0003:00008a40       ??_C@_0BO@FJBLCFMD@Additional?5DNS?5A?5for?5?$CF?4?$CKs?3?5?$CFs?$AA@ 00506a40     pjlib-util-i386-win32-vc8-debug:srv_resolver.obj
 0003:00008a64       ??_C@_0BD@DMPEKAIE@DNS?5A?5for?5?$CF?4?$CKs?3?5?$CFs?$AA@ 00506a64     pjlib-util-i386-win32-vc8-debug:srv_resolver.obj
 0003:00008a80       ??_C@_1FM@BHHJCKDA@?$AAr?$AAe?$AAc?$AA?4?$AAa?$AAl?$AAi?$AAa?$AAs?$AA?4?$AAs?$AAl?$AAe?$AAn?$AA?5?$AA?$DM?$AA?$DN?$AA?5?$AA?$CI?$AAi?$AAn?$AAt?$AA?$CJ?$AAs?$AAi?$AAz?$AAe?$AAo?$AAf?$AA?$CI?$AAs?$AAr@ 00506a80     pjlib-util-i386-win32-vc8-debug:srv_resolver.obj
 0003:00008af0       ??_C@_1CI@NHDLLOGC@?$AAr?$AAe?$AAc?$AA?4?$AAa?$AAd?$AAd?$AAr?$AA_?$AAc?$AAo?$AAu?$AAn?$AAt?$AA?5?$AA?$CB?$AA?$DN?$AA?5?$AA0?$AA?$AA@ 00506af0     pjlib-util-i386-win32-vc8-debug:srv_resolver.obj
 0003:00008b20       ??_C@_0EH@EGFGCLAC@DNS?5SRV?5resolution?5failed?5for?5?$CF?4@ 00506b20     pjlib-util-i386-win32-vc8-debug:srv_resolver.obj
 0003:00008b78       ??_C@_0CH@COCLGFLO@DNS?5SRV?5resolution?5failed?5for?5?$CF?4@ 00506b78     pjlib-util-i386-win32-vc8-debug:srv_resolver.obj
 0003:00008ba8       ??_C@_1DC@DFELOOOO@?$AA?$CB?$AA?$CC?$AAU?$AAn?$AAe?$AAx?$AAp?$AAe?$AAc?$AAt?$AAe?$AAd?$AA?5?$AAu?$AAs?$AAe?$AAr?$AA?5?$AAd?$AAa?$AAt?$AAa?$AA?$CB?$AA?$CC?$AA?$AA@ 00506ba8     pjlib-util-i386-win32-vc8-debug:srv_resolver.obj
 0003:00008be4       ??_C@_0BG@FLJDAEL@Unexpected?5user?5data?$CB?$AA@ 00506be4     pjlib-util-i386-win32-vc8-debug:srv_resolver.obj
 0003:00008c00       ??_C@_0BM@MJBLDIAG@?5?$CFd?3?5SRV?5?$CFd?5?$CFd?5?$CFd?5?$CF?4?$CKs?5?$CI?$CFs?$CJ?$AA@ 00506c00     pjlib-util-i386-win32-vc8-debug:srv_resolver.obj
 0003:00008c24       ??_C@_01JOAMLHOP@?9?$AA@   00506c24     pjlib-util-i386-win32-vc8-debug:srv_resolver.obj
 0003:00008c28       ??_C@_0EE@LPMFAMKM@SRV?5query_job?5for?5?$CF?4?$CKs?5completed@ 00506c28     pjlib-util-i386-win32-vc8-debug:srv_resolver.obj
 0003:00008c7c       ??_C@_1BK@GGFKDK@?$AAj?$AA?5?$AA?$CB?$AA?$DN?$AA?5?$AAi?$AA?$CL?$AAc?$AAo?$AAu?$AAn?$AAt?$AA?$AA@ 00506c7c     pjlib-util-i386-win32-vc8-debug:srv_resolver.obj
 0003:00008c9c       ??_C@_0CJ@IGNPBKGN@Could?5not?5find?5SRV?5record?5in?5DNS@ 00506c9c     pjlib-util-i386-win32-vc8-debug:srv_resolver.obj
 0003:00008cd0       ??_C@_0BG@OENDJHLB@Hostname?5is?5too?5long?$CB?$AA@ 00506cd0     pjlib-util-i386-win32-vc8-debug:srv_resolver.obj
 0003:00008cec       ??_C@_0CL@ICCMMEFF@Received?5non?5SRV?5answer?5for?5SRV?5@ 00506cec     pjlib-util-i386-win32-vc8-debug:srv_resolver.obj
 0003:00008d20       ??_C@_0CI@IBPJGCBL@Starting?5async?5DNS?5A?5query_job?5f@ 00506d20     pjlib-util-i386-win32-vc8-debug:srv_resolver.obj
 0003:0000921c       ??_C@_09ONJBBFFA@?$CIUnknown?$CJ?$AA@ 0050721c     pjlib-util-i386-win32-vc8-debug:dns.obj
 0003:00009228       ??_C@_05DGMJPCKB@NAPTR?$AA@ 00507228     pjlib-util-i386-win32-vc8-debug:dns.obj
 0003:00009230       ??_C@_03CGKMFPEO@TXT?$AA@  00507230     pjlib-util-i386-win32-vc8-debug:dns.obj
 0003:00009234       ??_C@_02KJOOPCC@MX?$AA@    00507234     pjlib-util-i386-win32-vc8-debug:dns.obj
 0003:00009238       ??_C@_03PGIOJGPL@PTR?$AA@  00507238     pjlib-util-i386-win32-vc8-debug:dns.obj
 0003:0000923c       ??_C@_05PGNGFKDN@CNAME?$AA@ 0050723c     pjlib-util-i386-win32-vc8-debug:dns.obj
 0003:00009244       ??_C@_02OLCMIILA@NS?$AA@   00507244     pjlib-util-i386-win32-vc8-debug:dns.obj
 0003:00009248       ??_C@_03IENKIAKD@SRV?$AA@  00507248     pjlib-util-i386-win32-vc8-debug:dns.obj
 0003:0000924c       ??_C@_04OHNMNPPA@AAAA?$AA@ 0050724c     pjlib-util-i386-win32-vc8-debug:dns.obj
 0003:00009254       ??_C@_01FHEEJDEE@A?$AA@    00507254     pjlib-util-i386-win32-vc8-debug:dns.obj
 0003:00009258       ??_C@_1BG@NHHJFHNP@?$AA?$CK?$AAs?$AAi?$AAz?$AAe?$AA?5?$AA?$DO?$AA?$DN?$AA?5?$AAd?$AA?$AA@ 00507258     pjlib-util-i386-win32-vc8-debug:dns.obj
 0003:00009278       ??_C@_1EA@GPIEHAJL@?$AAp?$AAa?$AAc?$AAk?$AAe?$AAt?$AA?5?$AA?$CG?$AA?$CG?$AA?5?$AAs?$AAi?$AAz?$AAe?$AA?5?$AA?$CG?$AA?$CG?$AA?5?$AAq?$AAt?$AAy?$AAp?$AAe?$AA?5?$AA?$CG?$AA?$CG?$AA?5?$AAn?$AAa?$AAm?$AAe?$AA?$AA@ 00507278     pjlib-util-i386-win32-vc8-debug:dns.obj
 0003:000092c8       ??_C@_1GO@FAMLOKGE@?$AAd?$AA?3?$AA?2?$AAm?$AAy?$AAg?$AAi?$AAt?$AA?2?$AAp?$AAj?$AAp?$AAr?$AAo?$AAj?$AAe?$AAc?$AAt?$AA?9?$AA1?$AA?4?$AA4?$AA?2?$AAp?$AAj?$AAl?$AAi?$AAb?$AA?9?$AAu?$AAt?$AAi@ 005072c8     pjlib-util-i386-win32-vc8-debug:dns.obj
 0003:00009350       ??_C@_1EA@OPKPHOGB@?$AAp?$AAo?$AAo?$AAl?$AA?5?$AA?$CG?$AA?$CG?$AA?5?$AAp?$AAa?$AAc?$AAk?$AAe?$AAt?$AA?5?$AA?$CG?$AA?$CG?$AA?5?$AAs?$AAi?$AAz?$AAe?$AA?5?$AA?$CG?$AA?$CG?$AA?5?$AAp?$AA_?$AAr?$AAe?$AAs?$AA?$AA@ 00507350     pjlib-util-i386-win32-vc8-debug:dns.obj
 0003:0000939c       ??_C@_1CG@DJNOHJMO@?$AAp?$AAo?$AAo?$AAl?$AA?5?$AA?$CG?$AA?$CG?$AA?5?$AAp?$AA?5?$AA?$CG?$AA?$CG?$AA?5?$AAp?$AA_?$AAd?$AAs?$AAt?$AA?$AA@ 0050739c     pjlib-util-i386-win32-vc8-debug:dns.obj
 0003:000093cc       ??_C@_01LOCGONAA@?$AA?$AA@ 005073cc     pjlib-util-i386-win32-vc8-debug:sha1.obj
 0003:000093d0       ??_C@_01IFKFHFEL@?$IA?$AA@ 005073d0     pjlib-util-i386-win32-vc8-debug:sha1.obj
 0003:000093d4       ??_C@_0BB@JCEFLFJE@0123456789abcdef?$AA@ 005073d4     pjlib-i386-win32-vc8-debug:string.obj
 0003:000093e8       ??_C@_0CN@HLGDBJEL@d?3?2mygit?2pjproject?91?44?2pjlib?2src@ 005073e8     pjlib-i386-win32-vc8-debug:string.obj
 0003:00009420       ??_C@_1CI@NFHHBACP@?$AA?$CB?$AA?$CC?$AAU?$AAn?$AAs?$AAu?$AAp?$AAp?$AAo?$AAr?$AAt?$AAe?$AAd?$AA?5?$AAb?$AAa?$AAs?$AAe?$AA?$CC?$AA?$AA@ 00507420     pjlib-i386-win32-vc8-debug:string.obj
 0003:00009450       ??_C@_1FK@HCOEDFMJ@?$AAd?$AA?3?$AA?2?$AAm?$AAy?$AAg?$AAi?$AAt?$AA?2?$AAp?$AAj?$AAp?$AAr?$AAo?$AAj?$AAe?$AAc?$AAt?$AA?9?$AA1?$AA?4?$AA4?$AA?2?$AAp?$AAj?$AAl?$AAi?$AAb?$AA?2?$AAs?$AAr?$AAc@ 00507450     pjlib-i386-win32-vc8-debug:string.obj
 0003:000094bc       ??_C@_0BB@CEONGONL@Unsupported?5base?$AA@ 005074bc     pjlib-i386-win32-vc8-debug:string.obj
 0003:000094d0       ??_C@_0BA@FNCACAIG@os_core_win32?4c?$AA@ 005074d0     pjlib-i386-win32-vc8-debug:os_core_win32.obj
 0003:000094e4       ??_C@_0BP@NGEKBPIB@pjlib?5?$CFs?5for?5win32?5initialized?$AA@ 005074e4     pjlib-i386-win32-vc8-debug:os_core_win32.obj
 0003:0000950c       ??_C@_0BA@NGJFHJA@PJLIB?1No?5memory?$AA@ 0050750c     pjlib-i386-win32-vc8-debug:os_core_win32.obj
 0003:00009520       ??_C@_04IFCNACLH@pj?$CFp?$AA@ 00507520     pjlib-i386-win32-vc8-debug:os_core_win32.obj
 0003:00009528       ??_C@_0CI@EAKIIBBA@Main?5thread?5stack?5max?5usage?$DN?$CFu?5b@ 00507528     pjlib-i386-win32-vc8-debug:os_core_win32.obj
 0003:00009558       ??_C@_0DE@DKACGBCJ@d?3?2mygit?2pjproject?91?44?2pjlib?2src@ 00507558     pjlib-i386-win32-vc8-debug:os_core_win32.obj
 0003:00009598       ??_C@_1DA@EPDLFMNN@?$AAp?$AAr?$AAi?$AAo?$AA?$DO?$AA?$DN?$AA?$CI?$AA?9?$AA1?$AA5?$AA?$CJ?$AA?5?$AA?$CG?$AA?$CG?$AA?5?$AAp?$AAr?$AAi?$AAo?$AA?$DM?$AA?$DN?$AA1?$AA5?$AA?$AA@ 00507598     pjlib-i386-win32-vc8-debug:os_core_win32.obj
 0003:000095d4       ??_C@_1O@OOICOHEB@?$AAt?$AAh?$AAr?$AAe?$AAa?$AAd?$AA?$AA@ 005075d4     pjlib-i386-win32-vc8-debug:os_core_win32.obj
 0003:000095e8       ??_C@_1GI@EHEAAMPO@?$AAd?$AA?3?$AA?2?$AAm?$AAy?$AAg?$AAi?$AAt?$AA?2?$AAp?$AAj?$AAp?$AAr?$AAo?$AAj?$AAe?$AAc?$AAt?$AA?9?$AA1?$AA?4?$AA4?$AA?2?$AAp?$AAj?$AAl?$AAi?$AAb?$AA?2?$AAs?$AAr?$AAc@ 005075e8     pjlib-i386-win32-vc8-debug:os_core_win32.obj
 0003:00009664       ??_C@_05KHEDLION@thr?$CFp?$AA@ 00507664     pjlib-i386-win32-vc8-debug:os_core_win32.obj
 0003:00009670       ??_C@_1EG@HCJPCAON@?$AA?$CB?$AA?$CC?$AAN?$AAo?$AAt?$AA?5?$AAe?$AAn?$AAo?$AAu?$AAg?$AAh?$AA?5?$AAp?$AAj?$AA_?$AAt?$AAh?$AAr?$AAe?$AAa?$AAd?$AA_?$AAd?$AAe?$AAs?$AAc?$AA?5?$AAs?$AAi?$AAz?$AAe@ 00507670     pjlib-i386-win32-vc8-debug:os_core_win32.obj
 0003:000096c4       ??_C@_0CA@KDDLBGGI@Not?5enough?5pj_thread_desc?5size?$CB?$AA@ 005076c4     pjlib-i386-win32-vc8-debug:os_core_win32.obj
 0003:000096ec       ??_C@_1DG@GPPEEMGI@?$AAp?$AAo?$AAo?$AAl?$AA?5?$AA?$CG?$AA?$CG?$AA?5?$AAp?$AAr?$AAo?$AAc?$AA?5?$AA?$CG?$AA?$CG?$AA?5?$AAt?$AAh?$AAr?$AAe?$AAa?$AAd?$AA_?$AAp?$AAt?$AAr?$AA?$AA@ 005076ec     pjlib-i386-win32-vc8-debug:os_core_win32.obj
 0003:0000972c       ??_C@_0CD@GPHECFNA@Thread?5stack?5max?5usage?$DN?$CFu?5by?5?$CFs?3@ 0050772c     pjlib-i386-win32-vc8-debug:os_core_win32.obj
 0003:00009758       ??_C@_1EK@KGMDGLFJ@?$AA?$CB?$AA?$CC?$AAT?$AAL?$AAS?$AA?5?$AAi?$AAs?$AA?5?$AAn?$AAo?$AAt?$AA?5?$AAs?$AAe?$AAt?$AA?5?$AA?$CI?$AAp?$AAj?$AA_?$AAi?$AAn?$AAi?$AAt?$AA?$CI?$AA?$CJ?$AA?5?$AAe?$AAr?$AAr?$AAo@ 00507758     pjlib-i386-win32-vc8-debug:os_core_win32.obj
 0003:000097b0       ??_C@_0CC@JLGHEGJO@TLS?5is?5not?5set?5?$CIpj_init?$CI?$CJ?5error?$DP@ 005077b0     pjlib-i386-win32-vc8-debug:os_core_win32.obj
 0003:000097d8       ??_C@_13LFIEIAHP@?$AAp?$AA?$AA@ 005077d8     pjlib-i386-win32-vc8-debug:os_core_win32.obj
 0003:000097e0       ??_C@_1BCM@LMJGLOKF@?$AA?$CB?$AA?$CC?$AAC?$AAa?$AAl?$AAl?$AAi?$AAn?$AAg?$AA?5?$AAp?$AAj?$AAl?$AAi?$AAb?$AA?5?$AAf?$AAr?$AAo?$AAm?$AA?5?$AAu?$AAn?$AAk?$AAn?$AAo?$AAw?$AAn?$AA?1?$AAe?$AAx?$AAt@ 005077e0     pjlib-i386-win32-vc8-debug:os_core_win32.obj
 0003:00009948       ??_C@_0IN@DGHJHPPL@Calling?5pjlib?5from?5unknown?1exter@ 00507948     pjlib-i386-win32-vc8-debug:os_core_win32.obj
 0003:000099f8       ??_C@_1HC@CNEMGLGB@?$AA?$CC?$AAS?$AAT?$AAA?$AAC?$AAK?$AA?5?$AAO?$AAV?$AAE?$AAR?$AAF?$AAL?$AAO?$AAW?$AA?$CB?$AA?$CB?$AA?5?$AA?$CC?$AA?5?$AA?$CG?$AA?$CG?$AA?5?$AA?$CI?$AAu?$AAs?$AAa?$AAg?$AAe?$AA?5?$AA?$DM?$AA?$DN@ 005079f8     pjlib-i386-win32-vc8-debug:os_core_win32.obj
 0003:00009a80       ??_C@_0BC@GDBGMOLB@STACK?5OVERFLOW?$CB?$CB?5?$AA@ 00507a80     pjlib-i386-win32-vc8-debug:os_core_win32.obj
 0003:00009a98       ??_C@_17PCHMAMGJ@?$AAv?$AAa?$AAr?$AA?$AA@ 00507a98     pjlib-i386-win32-vc8-debug:os_core_win32.obj
 0003:00009aa4       ??_C@_1BG@PPEGLHPH@?$AAa?$AAt?$AAo?$AAm?$AAi?$AAc?$AA_?$AAv?$AAa?$AAr?$AA?$AA@ 00507aa4     pjlib-i386-win32-vc8-debug:os_core_win32.obj
 0003:00009ac0       ??_C@_1CK@HHDJMMIF@?$AAi?$AAn?$AAd?$AAe?$AAx?$AA?5?$AA?$CB?$AA?$DN?$AA?5?$AA?$CI?$AA?$CI?$AAv?$AAo?$AAi?$AAd?$AA?5?$AA?$CK?$AA?$CJ?$AA0?$AA?$CJ?$AA?$AA@ 00507ac0     pjlib-i386-win32-vc8-debug:os_core_win32.obj
 0003:00009af4       ??_C@_05EJDHHBFJ@mtx?$CFp?$AA@ 00507af4     pjlib-i386-win32-vc8-debug:os_core_win32.obj
 0003:00009afc       ??_C@_1CE@MHFMCIAM@?$AAp?$AAo?$AAo?$AAl?$AA?5?$AA?$CG?$AA?$CG?$AA?5?$AAm?$AAu?$AAt?$AAe?$AAx?$AA_?$AAp?$AAt?$AAr?$AA?$AA@ 00507afc     pjlib-i386-win32-vc8-debug:os_core_win32.obj
 0003:00009b28       ??_C@_1M@PMBPJDFK@?$AAm?$AAu?$AAt?$AAe?$AAx?$AA?$AA@ 00507b28     pjlib-i386-win32-vc8-debug:os_core_win32.obj
 0003:00009b38       ??_C@_1EC@GCIAJGPL@?$AAm?$AAu?$AAt?$AAe?$AAx?$AA?9?$AA?$DO?$AAo?$AAw?$AAn?$AAe?$AAr?$AA?5?$AA?$DN?$AA?$DN?$AA?5?$AAp?$AAj?$AA_?$AAt?$AAh?$AAr?$AAe?$AAa?$AAd?$AA_?$AAt?$AAh?$AAi?$AAs?$AA?$CI?$AA?$CJ@ 00507b38     pjlib-i386-win32-vc8-debug:os_core_win32.obj
 0003:00009b88       ??_C@_1CA@LHAPCNHN@?$AAp?$AAo?$AAo?$AAl?$AA?5?$AA?$CG?$AA?$CG?$AA?5?$AAp?$AA_?$AAm?$AAu?$AAt?$AAe?$AAx?$AA?$AA@ 00507b88     pjlib-i386-win32-vc8-debug:os_core_win32.obj
 0003:00009bb0       ??_C@_1GC@LDINOLIB@?$AAd?$AA?3?$AA?2?$AAm?$AAy?$AAg?$AAi?$AAt?$AA?2?$AAp?$AAj?$AAp?$AAr?$AAo?$AAj?$AAe?$AAc?$AAt?$AA?9?$AA1?$AA?4?$AA4?$AA?2?$AAp?$AAj?$AAl?$AAi?$AAb?$AA?2?$AAs?$AAr?$AAc@ 00507bb0     pjlib-i386-win32-vc8-debug:os_core_win32.obj
 0003:00009c28       ??_C@_1EE@JKGKFCJM@?$AAm?$AAu?$AAt?$AAe?$AAx?$AA?9?$AA?$DO?$AAr?$AAe?$AAa?$AAd?$AAe?$AAr?$AA_?$AAc?$AAo?$AAu?$AAn?$AAt?$AA?5?$AA?$DM?$AA?5?$AA0?$AAx?$AA7?$AAF?$AAF?$AAF?$AAF?$AAF?$AAF?$AA0@ 00507c28     pjlib-i386-win32-vc8-debug:os_core_win32.obj
 0003:00009c80       ??_C@_1EE@FBNPIAAA@?$AA?$CB?$AA?$CC?$AAT?$AAh?$AAi?$AAs?$AA?5?$AAp?$AAr?$AAe?$AAt?$AAt?$AAy?$AA?5?$AAm?$AAu?$AAc?$AAh?$AA?5?$AAi?$AAs?$AA?5?$AAu?$AAn?$AAe?$AAx?$AAp?$AAe?$AAc?$AAt?$AAe?$AAd@ 00507c80     pjlib-i386-win32-vc8-debug:os_core_win32.obj
 0003:00009cd4       ??_C@_0BP@HDILOBIG@This?5pretty?5much?5is?5unexpected?$AA@ 00507cd4     pjlib-i386-win32-vc8-debug:os_core_win32.obj
 0003:00009cfc       ??_C@_1DC@HENDGEDB@?$AAm?$AAu?$AAt?$AAe?$AAx?$AA?9?$AA?$DO?$AAr?$AAe?$AAa?$AAd?$AAe?$AAr?$AA_?$AAc?$AAo?$AAu?$AAn?$AAt?$AA?5?$AA?$DO?$AA?$DN?$AA?5?$AA1?$AA?$AA@ 00507cfc     pjlib-i386-win32-vc8-debug:os_core_win32.obj
 0003:00009d38       ??_C@_1DC@HACGLEAM@?$AAm?$AAu?$AAt?$AAe?$AAx?$AA?9?$AA?$DO?$AAr?$AAe?$AAa?$AAd?$AAe?$AAr?$AA_?$AAc?$AAo?$AAu?$AAn?$AAt?$AA?5?$AA?$DM?$AA?$DN?$AA?5?$AA1?$AA?$AA@ 00507d38     pjlib-i386-win32-vc8-debug:os_core_win32.obj
 0003:00009d74       ??_C@_05EKKMALCN@sem?$CFp?$AA@ 00507d74     pjlib-i386-win32-vc8-debug:os_core_win32.obj
 0003:00009d7c       ??_C@_1CA@JMCEKLBJ@?$AAp?$AAo?$AAo?$AAl?$AA?5?$AA?$CG?$AA?$CG?$AA?5?$AAs?$AAe?$AAm?$AA_?$AAp?$AAt?$AAr?$AA?$AA@ 00507d7c     pjlib-i386-win32-vc8-debug:os_core_win32.obj
 0003:00009da4       ??_C@_17CJHHAHNC@?$AAs?$AAe?$AAm?$AA?$AA@ 00507da4     pjlib-i386-win32-vc8-debug:os_core_win32.obj
 0003:00009db0       ??_C@_05JFHCBPOM@evt?$CFp?$AA@ 00507db0     pjlib-i386-win32-vc8-debug:os_core_win32.obj
 0003:00009db8       ??_C@_1CE@LCHMPKLP@?$AAp?$AAo?$AAo?$AAl?$AA?5?$AA?$CG?$AA?$CG?$AA?5?$AAe?$AAv?$AAe?$AAn?$AAt?$AA_?$AAp?$AAt?$AAr?$AA?$AA@ 00507db8     pjlib-i386-win32-vc8-debug:os_core_win32.obj
 0003:00009de4       ??_C@_1M@IBCECAGJ@?$AAe?$AAv?$AAe?$AAn?$AAt?$AA?$AA@ 00507de4     pjlib-i386-win32-vc8-debug:os_core_win32.obj
 0003:00009df4       ??_C@_0M@IGFPEOLJ@cachingpool?$AA@ 00507df4     pjlib-i386-win32-vc8-debug:pool_caching.obj
 0003:00009e04       ??_C@_0DD@KAFBPNDE@d?3?2mygit?2pjproject?91?44?2pjlib?2src@ 00507e04     pjlib-i386-win32-vc8-debug:pool_caching.obj
 0003:00009e44       ??_C@_0DD@ECGDPCBA@Pool?5is?5not?5released?5by?5applicat@ 00507e44     pjlib-i386-win32-vc8-debug:pool_caching.obj
 0003:00009e84       ??_C@_19PJIDINHE@?$AAi?$AA?$DM?$AA1?$AA6?$AA?$AA@ 00507e84     pjlib-i386-win32-vc8-debug:pool_caching.obj
 0003:00009e90       ??_C@_1BG@FEHIFIBG@?$AAp?$AAf?$AA?5?$AA?$CG?$AA?$CG?$AA?5?$AAp?$AAo?$AAo?$AAl?$AA?$AA@ 00507e90     pjlib-i386-win32-vc8-debug:pool_caching.obj
 0003:00009eb0       ??_C@_1GG@MBCHAACK@?$AAd?$AA?3?$AA?2?$AAm?$AAy?$AAg?$AAi?$AAt?$AA?2?$AAp?$AAj?$AAp?$AAr?$AAo?$AAj?$AAe?$AAc?$AAt?$AA?9?$AA1?$AA?4?$AA4?$AA?2?$AAp?$AAj?$AAl?$AAi?$AAb?$AA?2?$AAs?$AAr?$AAc@ 00507eb0     pjlib-i386-win32-vc8-debug:pool_caching.obj
 0003:00009f2c       ??_C@_0CB@GKBJPDKG@?5?5Total?5?$CF9d?5of?5?$CF9d?5?$CI?$CFd?5?$CF?$CF?$CJ?5used?$CB@ 00507f2c     pjlib-i386-win32-vc8-debug:pool_caching.obj
 0003:00009f54       ??_C@_0CA@MMLIKIEG@?5?5?5?$CF16s?3?5?$CF8d?5of?5?$CF8d?5?$CI?$CFd?$CF?$CF?$CJ?5used?$AA@ 00507f54     pjlib-i386-win32-vc8-debug:pool_caching.obj
 0003:00009f7c       ??_C@_0BM@IDLDGCC@?5?5Dumping?5all?5active?5pools?3?$AA@ 00507f7c     pjlib-i386-win32-vc8-debug:pool_caching.obj
 0003:00009fa0       ??_C@_0CN@DOKPIIOH@?5?5?5Capacity?$DN?$CFu?0?5max_capacity?$DN?$CFu?0@ 00507fa0     pjlib-i386-win32-vc8-debug:pool_caching.obj
 0003:00009fd8       ??_C@_08COPEICHG@cachpool?$AA@ 00507fd8     pjlib-i386-win32-vc8-debug:pool_caching.obj
 0003:00009fe4       ??_C@_0BH@BBPHJKOA@?5Dumping?5caching?5pool?3?$AA@ 00507fe4     pjlib-i386-win32-vc8-debug:pool_caching.obj
 0003:0000a000       ??_C@_1BO@IFOFGLKN@?$AAp?$AAo?$AAo?$AAl?$AA?5?$AA?$CG?$AA?$CG?$AA?5?$AAp?$AA_?$AAh?$AAe?$AAa?$AAp?$AA?$AA@ 00508000     pjlib-i386-win32-vc8-debug:timer.obj
 0003:0000a028       ??_C@_1FI@FNKLDFIN@?$AAd?$AA?3?$AA?2?$AAm?$AAy?$AAg?$AAi?$AAt?$AA?2?$AAp?$AAj?$AAp?$AAr?$AAo?$AAj?$AAe?$AAc?$AAt?$AA?9?$AA1?$AA?4?$AA4?$AA?2?$AAp?$AAj?$AAl?$AAi?$AAb?$AA?2?$AAs?$AAr?$AAc@ 00508028     pjlib-i386-win32-vc8-debug:timer.obj
 0003:0000a094       ??_C@_1BI@DEOIKAPM@?$AAe?$AAn?$AAt?$AAr?$AAy?$AA?5?$AA?$CG?$AA?$CG?$AA?5?$AAc?$AAb?$AA?$AA@ 00508094     pjlib-i386-win32-vc8-debug:timer.obj
 0003:0000a0b0       ??_C@_1CK@BOBACKKA@?$AAe?$AAn?$AAt?$AAr?$AAy?$AA?9?$AA?$DO?$AA_?$AAt?$AAi?$AAm?$AAe?$AAr?$AA_?$AAi?$AAd?$AA?5?$AA?$DM?$AA?5?$AA1?$AA?$AA@ 005080b0     pjlib-i386-win32-vc8-debug:timer.obj
 0003:0000a0e4       ??_C@_1DC@NCOGDIAG@?$AAe?$AAn?$AAt?$AAr?$AAy?$AA?9?$AA?$DO?$AAc?$AAb?$AA?5?$AA?$CB?$AA?$DN?$AA?5?$AA?$CI?$AA?$CI?$AAv?$AAo?$AAi?$AAd?$AA?5?$AA?$CK?$AA?$CJ?$AA0?$AA?$CJ?$AA?$AA@ 005080e4     pjlib-i386-win32-vc8-debug:timer.obj
 0003:0000a120       ??_C@_1CK@NIFHNMEB@?$AAh?$AAt?$AA?5?$AA?$CG?$AA?$CG?$AA?5?$AAe?$AAn?$AAt?$AAr?$AAy?$AA?5?$AA?$CG?$AA?$CG?$AA?5?$AAd?$AAe?$AAl?$AAa?$AAy?$AA?$AA@ 00508120     pjlib-i386-win32-vc8-debug:timer.obj
 0003:0000a154       ??_C@_0CM@BNGGBDFA@d?3?2mygit?2pjproject?91?44?2pjlib?2src@ 00508154     pjlib-i386-win32-vc8-debug:timer.obj
 0003:0000a188       ??_C@_1BI@CGKKKIHJ@?$AAh?$AAt?$AA?5?$AA?$CG?$AA?$CG?$AA?5?$AAe?$AAn?$AAt?$AAr?$AAy?$AA?$AA@ 00508188     pjlib-i386-win32-vc8-debug:timer.obj
 0003:0000a1a8       ??_C@_1EG@MEMOBNLP@?$AAe?$AAn?$AAt?$AAr?$AAy?$AA?5?$AA?$DN?$AA?$DN?$AA?5?$AAh?$AAt?$AA?9?$AA?$DO?$AAh?$AAe?$AAa?$AAp?$AA?$FL?$AAt?$AAi?$AAm?$AAe?$AAr?$AA_?$AAn?$AAo?$AAd?$AAe?$AA_?$AAs?$AAl?$AAo@ 005081a8     pjlib-i386-win32-vc8-debug:timer.obj
 0003:0000a1fc       ??_C@_15EOMHOEKA@?$AAh?$AAt?$AA?$AA@ 005081fc     pjlib-i386-win32-vc8-debug:timer.obj
 0003:0000a204       ??_C@_1CE@GFFKOKMD@?$AAh?$AAt?$AA?9?$AA?$DO?$AAc?$AAu?$AAr?$AA_?$AAs?$AAi?$AAz?$AAe?$AA?5?$AA?$CB?$AA?$DN?$AA?5?$AA0?$AA?$AA@ 00508204     pjlib-i386-win32-vc8-debug:timer.obj
 0003:0000a230       ??_C@_1CA@KCHPHKDA@?$AAi?$AAo?$AAq?$AAu?$AAe?$AAu?$AAe?$AA?5?$AA?$CG?$AA?$CG?$AA?5?$AAl?$AAo?$AAc?$AAk?$AA?$AA@ 00508230     pjlib-i386-win32-vc8-debug:ioqueue_select.obj
 0003:0000a258       ??_C@_1HC@IJKGENJH@?$AAd?$AA?3?$AA?2?$AAm?$AAy?$AAg?$AAi?$AAt?$AA?2?$AAp?$AAj?$AAp?$AAr?$AAo?$AAj?$AAe?$AAc?$AAt?$AA?9?$AA1?$AA?4?$AA4?$AA?2?$AAp?$AAj?$AAl?$AAi?$AAb?$AA?2?$AAs?$AAr?$AAc@ 00508258     pjlib-i386-win32-vc8-debug:ioqueue_select.obj
 0003:0000a2e0       ??_C@_1CG@DEMIAMFE@?$AAk?$AAe?$AAy?$AA?5?$AA?$CB?$AA?$DN?$AA?5?$AA?$CI?$AA?$CI?$AAv?$AAo?$AAi?$AAd?$AA?5?$AA?$CK?$AA?$CJ?$AA0?$AA?$CJ?$AA?$AA@ 005082e0     pjlib-i386-win32-vc8-debug:ioqueue_select.obj
 0003:0000a310       ??_C@_1BI@EKGFNMKL@?$AAs?$AAe?$AAn?$AAd?$AA_?$AAr?$AAc?$AA?5?$AA?$DO?$AA?5?$AA0?$AA?$AA@ 00508310     pjlib-i386-win32-vc8-debug:ioqueue_select.obj
 0003:0000a32c       ??_C@_1DG@KDBMKDML@?$AA?$CB?$AA?$CC?$AAI?$AAn?$AAv?$AAa?$AAl?$AAi?$AAd?$AA?5?$AAo?$AAp?$AAe?$AAr?$AAa?$AAt?$AAi?$AAo?$AAn?$AA?5?$AAt?$AAy?$AAp?$AAe?$AA?$CB?$AA?$CC?$AA?$AA@ 0050832c     pjlib-i386-win32-vc8-debug:ioqueue_select.obj
 0003:0000a36c       ??_C@_0BI@NKJLJNEF@Invalid?5operation?5type?$CB?$AA@ 0050836c     pjlib-i386-win32-vc8-debug:ioqueue_select.obj
 0003:0000a388       ??_C@_1EE@CNIDBBIK@?$AAr?$AAe?$AAa?$AAd?$AA_?$AAo?$AAp?$AA?9?$AA?$DO?$AAo?$AAp?$AA?5?$AA?$DN?$AA?$DN?$AA?5?$AAP?$AAJ?$AA_?$AAI?$AAO?$AAQ?$AAU?$AAE?$AAU?$AAE?$AA_?$AAO?$AAP?$AA_?$AAR?$AAE?$AAA@ 00508388     pjlib-i386-win32-vc8-debug:ioqueue_select.obj
 0003:0000a3dc       ??_C@_0DJ@LEHEFFKN@d?3?2mygit?2pjproject?91?44?2pjlib?2src@ 005083dc     pjlib-i386-win32-vc8-debug:ioqueue_select.obj
 0003:0000a420       ??_C@_1EE@GPIKMDPH@?$AAk?$AAe?$AAy?$AA?5?$AA?$CG?$AA?$CG?$AA?5?$AAo?$AAp?$AA_?$AAk?$AAe?$AAy?$AA?5?$AA?$CG?$AA?$CG?$AA?5?$AAb?$AAu?$AAf?$AAf?$AAe?$AAr?$AA?5?$AA?$CG?$AA?$CG?$AA?5?$AAl?$AAe?$AAn?$AAg?$AAt@ 00508420     pjlib-i386-win32-vc8-debug:ioqueue_select.obj
 0003:0000a478       ??_C@_1EA@PBLBPGMH@?$AAk?$AAe?$AAy?$AA?5?$AA?$CG?$AA?$CG?$AA?5?$AAo?$AAp?$AA_?$AAk?$AAe?$AAy?$AA?5?$AA?$CG?$AA?$CG?$AA?5?$AAd?$AAa?$AAt?$AAa?$AA?5?$AA?$CG?$AA?$CG?$AA?5?$AAl?$AAe?$AAn?$AAg?$AAt?$AAh?$AA?$AA@ 00508478     pjlib-i386-win32-vc8-debug:ioqueue_select.obj
 0003:0000a4c8       ??_C@_1EO@LGPBHJKN@?$AAa?$AAd?$AAd?$AAr?$AAl?$AAe?$AAn?$AA?5?$AA?$DM?$AA?$DN?$AA?5?$AA?$CI?$AAi?$AAn?$AAt?$AA?$CJ?$AAs?$AAi?$AAz?$AAe?$AAo?$AAf?$AA?$CI?$AAp?$AAj?$AA_?$AAs?$AAo?$AAc?$AAk?$AAa?$AAd@ 005084c8     pjlib-i386-win32-vc8-debug:ioqueue_select.obj
 0003:0000a528       ??_C@_1DE@IAHNELBK@?$AAk?$AAe?$AAy?$AA?5?$AA?$CG?$AA?$CG?$AA?5?$AAo?$AAp?$AA_?$AAk?$AAe?$AAy?$AA?5?$AA?$CG?$AA?$CG?$AA?5?$AAn?$AAe?$AAw?$AA_?$AAs?$AAo?$AAc?$AAk?$AA?$AA@ 00508528     pjlib-i386-win32-vc8-debug:ioqueue_select.obj
 0003:0000a568       ??_C@_1CO@PMKELHLG@?$AAk?$AAe?$AAy?$AA?5?$AA?$CG?$AA?$CG?$AA?5?$AAa?$AAd?$AAd?$AAr?$AA?5?$AA?$CG?$AA?$CG?$AA?5?$AAa?$AAd?$AAd?$AAr?$AAl?$AAe?$AAn?$AA?$AA@ 00508568     pjlib-i386-win32-vc8-debug:ioqueue_select.obj
 0003:0000a5a0       ??_C@_1CO@FLGLFEIC@?$AAi?$AAo?$AAq?$AAu?$AAe?$AAu?$AAe?$AA?5?$AA?$CB?$AA?$DN?$AA?5?$AA?$CI?$AA?$CI?$AAv?$AAo?$AAi?$AAd?$AA?5?$AA?$CK?$AA?$CJ?$AA0?$AA?$CJ?$AA?$AA@ 005085a0     pjlib-i386-win32-vc8-debug:ioqueue_select.obj
 0003:0000a5d8       ??_C@_1BG@HNKGLEIM@?$AAa?$AAl?$AAl?$AAo?$AAw?$AA?5?$AA?$HM?$AA?$HM?$AA?5?$AA1?$AA?$AA@ 005085d8     pjlib-i386-win32-vc8-debug:ioqueue_select.obj
 0003:0000a5f4       ??_C@_06LGNCCACI@select?$AA@ 005085f4     pjlib-i386-win32-vc8-debug:ioqueue_select.obj
 0003:0000a5fc       ??_C@_05PHKAINEA@pjlib?$AA@ 005085fc     pjlib-i386-win32-vc8-debug:ioqueue_select.obj
 0003:0000a604       ??_C@_0CA@IMDCINDN@select?$CI?$CJ?5I?1O?5Queue?5created?5?$CI?$CFp?$CJ?$AA@ 00508604     pjlib-i386-win32-vc8-debug:ioqueue_select.obj
 0003:0000a62c       ??_C@_05LIJONKFG@ioq?$CFp?$AA@ 0050862c     pjlib-i386-win32-vc8-debug:ioqueue_select.obj
 0003:0000a638       ??_C@_1KA@LNOEPJNH@?$AAp?$AAo?$AAo?$AAl?$AA?5?$AA?$CB?$AA?$DN?$AA?5?$AA?$CI?$AA?$CI?$AAv?$AAo?$AAi?$AAd?$AA?5?$AA?$CK?$AA?$CJ?$AA0?$AA?$CJ?$AA?5?$AA?$CG?$AA?$CG?$AA?5?$AAp?$AA_?$AAi?$AAo?$AAq?$AAu?$AAe?$AAu?$AAe@ 00508638     pjlib-i386-win32-vc8-debug:ioqueue_select.obj
 0003:0000a6f8       ??_C@_1GK@HOPALPNM@?$AAd?$AA?3?$AA?2?$AAm?$AAy?$AAg?$AAi?$AAt?$AA?2?$AAp?$AAj?$AAp?$AAr?$AAo?$AAj?$AAe?$AAc?$AAt?$AA?9?$AA1?$AA?4?$AA4?$AA?2?$AAp?$AAj?$AAl?$AAi?$AAb?$AA?2?$AAs?$AAr?$AAc@ 005086f8     pjlib-i386-win32-vc8-debug:ioqueue_select.obj
 0003:0000a778       ??_C@_1BA@ENKELKPH@?$AAi?$AAo?$AAq?$AAu?$AAe?$AAu?$AAe?$AA?$AA@ 00508778     pjlib-i386-win32-vc8-debug:ioqueue_select.obj
 0003:0000a790       ??_C@_1EI@PJMCDAJH@?$AA?$CB?$AAp?$AAj?$AA_?$AAl?$AAi?$AAs?$AAt?$AA_?$AAe?$AAm?$AAp?$AAt?$AAy?$AA?$CI?$AA?$CG?$AAi?$AAo?$AAq?$AAu?$AAe?$AAu?$AAe?$AA?9?$AA?$DO?$AAf?$AAr?$AAe?$AAe?$AA_?$AAl?$AAi@ 00508790     pjlib-i386-win32-vc8-debug:ioqueue_select.obj
 0003:0000a7e8       ??_C@_1FO@PPHPABF@?$AAp?$AAo?$AAo?$AAl?$AA?5?$AA?$CG?$AA?$CG?$AA?5?$AAi?$AAo?$AAq?$AAu?$AAe?$AAu?$AAe?$AA?5?$AA?$CG?$AA?$CG?$AA?5?$AAs?$AAo?$AAc?$AAk?$AA?5?$AA?$CB?$AA?$DN?$AA?5?$AA?$CI?$AA?9?$AA1?$AA?$CJ?$AA?5@ 005087e8     pjlib-i386-win32-vc8-debug:ioqueue_select.obj
 0003:0000a858       ??_C@_1CI@INOOPFAE@?$AAk?$AAe?$AAy?$AA?9?$AA?$DO?$AAr?$AAe?$AAf?$AA_?$AAc?$AAo?$AAu?$AAn?$AAt?$AA?5?$AA?$DN?$AA?$DN?$AA?5?$AA0?$AA?$AA@ 00508858     pjlib-i386-win32-vc8-debug:ioqueue_select.obj
 0003:0000a888       ??_C@_1CG@PJOLFMEL@?$AAi?$AAo?$AAq?$AAu?$AAe?$AAu?$AAe?$AA?9?$AA?$DO?$AAc?$AAo?$AAu?$AAn?$AAt?$AA?5?$AA?$DO?$AA?5?$AA0?$AA?$AA@ 00508888     pjlib-i386-win32-vc8-debug:ioqueue_select.obj
 0003:0000a8b8       ??_C@_1CE@KOHBIHOL@?$AAk?$AAe?$AAy?$AA?9?$AA?$DO?$AAc?$AAl?$AAo?$AAs?$AAi?$AAn?$AAg?$AA?5?$AA?$DN?$AA?$DN?$AA?5?$AA1?$AA?$AA@ 005088b8     pjlib-i386-win32-vc8-debug:ioqueue_select.obj
 0003:0000a8e4       ??_C@_1CA@OBALMACM@?$AAh?$AA?9?$AA?$DO?$AAc?$AAl?$AAo?$AAs?$AAi?$AAn?$AAg?$AA?5?$AA?$CB?$AA?$DN?$AA?5?$AA0?$AA?$AA@ 005088e4     pjlib-i386-win32-vc8-debug:ioqueue_select.obj
 0003:0000a90c       ??_C@_1CE@KOLKIPFK@?$AA?$CB?$AA?$CC?$AAI?$AAn?$AAv?$AAa?$AAl?$AAi?$AAd?$AA?5?$AAe?$AAv?$AAe?$AAn?$AAt?$AA?$CB?$AA?$CC?$AA?$AA@ 0050890c     pjlib-i386-win32-vc8-debug:ioqueue_select.obj
 0003:0000a938       ??_C@_0P@KEHJHANK@Invalid?5event?$CB?$AA@ 00508938     pjlib-i386-win32-vc8-debug:ioqueue_select.obj
 0003:0000a94c       ??_C@_03FEFJNEK@Sat?$AA@   0050894c     pjlib-i386-win32-vc8-debug:log.obj
 0003:0000a950       ??_C@_03IDIOELNC@Fri?$AA@  00508950     pjlib-i386-win32-vc8-debug:log.obj
 0003:0000a954       ??_C@_03IOFIKPDN@Thu?$AA@  00508954     pjlib-i386-win32-vc8-debug:log.obj
 0003:0000a958       ??_C@_03MHOMLAJA@Wed?$AA@  00508958     pjlib-i386-win32-vc8-debug:log.obj
 0003:0000a95c       ??_C@_03NAGEINEP@Tue?$AA@  0050895c     pjlib-i386-win32-vc8-debug:log.obj
 0003:0000a960       ??_C@_03PDAGKDH@Mon?$AA@   00508960     pjlib-i386-win32-vc8-debug:log.obj
 0003:0000a964       ??_C@_03KOEHGMDN@Sun?$AA@  00508964     pjlib-i386-win32-vc8-debug:log.obj
 0003:0000a968       ??_C@_06HGKAKJPG@DETRC?3?$AA@ 00508968     pjlib-i386-win32-vc8-debug:log.obj
 0003:0000a970       ??_C@_06ELIFFDKB@TRACE?3?$AA@ 00508970     pjlib-i386-win32-vc8-debug:log.obj
 0003:0000a978       ??_C@_06DNOFLLB@DEBUG?3?$AA@ 00508978     pjlib-i386-win32-vc8-debug:log.obj
 0003:0000a980       ??_C@_06ICKKLHPE@?5INFO?3?$AA@ 00508980     pjlib-i386-win32-vc8-debug:log.obj
 0003:0000a988       ??_C@_06OHJPOJDB@?5WARN?3?$AA@ 00508988     pjlib-i386-win32-vc8-debug:log.obj
 0003:0000a990       ??_C@_06PONDCDME@ERROR?3?$AA@ 00508990     pjlib-i386-win32-vc8-debug:log.obj
 0003:0000a998       ??_C@_06DDFOEFIF@FATAL?3?$AA@ 00508998     pjlib-i386-win32-vc8-debug:log.obj
 0003:0000a9a0       ??_C@_0BO@BGMDCDKP@?$DMlogging?5error?3?5msg?5too?5long?$DO?$AA@ 005089a0     pjlib-i386-win32-vc8-debug:log.obj
 0003:0000a9c4       ??_C@_0CK@EEOLDIAL@d?3?2mygit?2pjproject?91?44?2pjlib?2src@ 005089c4     pjlib-i386-win32-vc8-debug:log.obj
 0003:0000a9f8       ??_C@_0CK@DJAHHNOI@Unsupported?5address?5family?5?$CIPJ_E@ 005089f8     pjlib-i386-win32-vc8-debug:errno.obj
 0003:0000aa2c       ??_C@_0CH@OGOOBJBE@IPv6?5is?5not?5supported?5?$CIPJ_EIPV6N@ 00508a2c     pjlib-i386-win32-vc8-debug:errno.obj
 0003:0000aa5c       ??_C@_0BG@NBDJGAFI@Ignored?5?$CIPJ_EIGNORED?$CJ?$AA@ 00508a5c     pjlib-i386-win32-vc8-debug:errno.obj
 0003:0000aa78       ??_C@_0CB@MGGLJMNO@Size?5is?5too?5short?5?$CIPJ_ETOOSMALL?$CJ@ 00508a78     pjlib-i386-win32-vc8-debug:errno.obj
 0003:0000aaa0       ??_C@_0DB@FDCHLEID@gethostbyname?$CI?$CJ?5has?5returned?5err@ 00508aa0     pjlib-i386-win32-vc8-debug:errno.obj
 0003:0000aadc       ??_C@_0BN@PCCNBFLN@Size?5is?5too?5big?5?$CIPJ_ETOOBIG?$CJ?$AA@ 00508adc     pjlib-i386-win32-vc8-debug:errno.obj
 0003:0000ab00       ??_C@_0BG@GMBDFNLN@End?5of?5file?5?$CIPJ_EEOF?$CJ?$AA@ 00508b00     pjlib-i386-win32-vc8-debug:errno.obj
 0003:0000ab1c       ??_C@_0CD@LODOFNLC@Object?5already?5exists?5?$CIPJ_EEXIST@ 00508b1c     pjlib-i386-win32-vc8-debug:errno.obj
 0003:0000ab48       ??_C@_0CE@KDDMJLGF@Operation?5cancelled?5?$CIPJ_ECANCELL@ 00508b48     pjlib-i386-win32-vc8-debug:errno.obj
 0003:0000ab74       ??_C@_0CC@OEEEEEML@Invalid?5operation?5?$CIPJ_EINVALIDOP@ 00508b74     pjlib-i386-win32-vc8-debug:errno.obj
 0003:0000ab9c       ??_C@_0CP@BAIBJOJE@Option?1operation?5is?5not?5supporte@ 00508b9c     pjlib-i386-win32-vc8-debug:errno.obj
 0003:0000abd4       ??_C@_0BK@OMPILOH@Object?5is?5busy?5?$CIPJ_EBUSY?$CJ?$AA@ 00508bd4     pjlib-i386-win32-vc8-debug:errno.obj
 0003:0000abf4       ??_C@_0DF@MIFNAIHL@Too?5many?5objects?5of?5the?5specifie@ 00508bf4     pjlib-i386-win32-vc8-debug:errno.obj
 0003:0000ac34       ??_C@_0CD@JOGIDHPJ@Operation?5timed?5out?5?$CIPJ_ETIMEDOU@ 00508c34     pjlib-i386-win32-vc8-debug:errno.obj
 0003:0000ac60       ??_C@_0BI@HHGDCAID@BUG?5DETECTED?$CB?5?$CIPJ_EBUG?$CJ?$AA@ 00508c60     pjlib-i386-win32-vc8-debug:errno.obj
 0003:0000ac7c       ??_C@_0BO@GOLCMJKK@Not?5enough?5memory?5?$CIPJ_ENOMEM?$CJ?$AA@ 00508c7c     pjlib-i386-win32-vc8-debug:errno.obj
 0003:0000aca0       ??_C@_0BJ@JNKLPII@Not?5found?5?$CIPJ_ENOTFOUND?$CJ?$AA@ 00508ca0     pjlib-i386-win32-vc8-debug:errno.obj
 0003:0000acc0       ??_C@_0CA@GJABNEKD@Name?5too?5long?5?$CIPJ_ENAMETOOLONG?$CJ?$AA@ 00508cc0     pjlib-i386-win32-vc8-debug:errno.obj
 0003:0000ace8       ??_C@_0CG@CBCJBJGD@Invalid?5value?5or?5argument?5?$CIPJ_EI@ 00508ce8     pjlib-i386-win32-vc8-debug:errno.obj
 0003:0000ad18       ??_C@_0CO@GABEOAFF@Too?5many?5connecting?5sockets?5?$CIPJ_@ 00508d18     pjlib-i386-win32-vc8-debug:errno.obj
 0003:0000ad50       ??_C@_0CA@DCLOOJGD@Pending?5operation?5?$CIPJ_EPENDING?$CJ?$AA@ 00508d50     pjlib-i386-win32-vc8-debug:errno.obj
 0003:0000ad78       ??_C@_0BM@FLPPOGAG@Unknown?5Error?5?$CIPJ_EUNKNOWN?$CJ?$AA@ 00508d78     pjlib-i386-win32-vc8-debug:errno.obj
 0003:0000ae78       ??_C@_1FK@DLNOOHBD@?$AAs?$AAt?$AAa?$AAr?$AAt?$AA?5?$AA?$DO?$AA?$DN?$AA?5?$AA?$CI?$AA?$CI?$AA?$CI?$AA2?$AA0?$AA0?$AA0?$AA0?$AA?5?$AA?$CL?$AA?5?$AA5?$AA0?$AA0?$AA0?$AA0?$AA?$CJ?$AA?5?$AA?$CL?$AA?5?$AA5?$AA0?$AA0@ 00508e78     pjlib-i386-win32-vc8-debug:errno.obj
 0003:0000aee8       ??_C@_1HO@NFELGIHB@?$AAe?$AAr?$AAr?$AA_?$AAm?$AAs?$AAg?$AA_?$AAh?$AAn?$AAd?$AA_?$AAc?$AAn?$AAt?$AA?5?$AA?$DM?$AA?5?$AA?$CI?$AAs?$AAi?$AAz?$AAe?$AAo?$AAf?$AA?$CI?$AAe?$AAr?$AAr?$AA_?$AAm?$AAs@ 00508ee8     pjlib-i386-win32-vc8-debug:errno.obj
 0003:0000af80       ??_C@_1CI@LKNPLGGB@?$AAs?$AAt?$AAa?$AAr?$AAt?$AA?5?$AA?$CG?$AA?$CG?$AA?5?$AAs?$AAp?$AAa?$AAc?$AAe?$AA?5?$AA?$CG?$AA?$CG?$AA?5?$AAf?$AA?$AA@ 00508f80     pjlib-i386-win32-vc8-debug:errno.obj
 0003:0000afb0       ??_C@_1FI@FNLMDAID@?$AAd?$AA?3?$AA?2?$AAm?$AAy?$AAg?$AAi?$AAt?$AA?2?$AAp?$AAj?$AAp?$AAr?$AAo?$AAj?$AAe?$AAc?$AAt?$AA?9?$AA1?$AA?4?$AA4?$AA?2?$AAp?$AAj?$AAl?$AAi?$AAb?$AA?2?$AAs?$AAr?$AAc@ 00508fb0     pjlib-i386-win32-vc8-debug:errno.obj
 0003:0000b01c       ??_C@_07PBILKAFL@Success?$AA@ 0050901c     pjlib-i386-win32-vc8-debug:errno.obj
 0003:0000b028       ??_C@_1BO@OJPHOMAD@?$AAb?$AAu?$AAf?$AA?5?$AA?$CG?$AA?$CG?$AA?5?$AAb?$AAu?$AAf?$AAs?$AAi?$AAz?$AAe?$AA?$AA@ 00509028     pjlib-i386-win32-vc8-debug:errno.obj
 0003:0000b04c       ??_C@_0BH@ONDLFCEA@Unknown?5pjlib?5error?5?$CFd?$AA@ 0050904c     pjlib-i386-win32-vc8-debug:errno.obj
 0003:0000b068       ??_C@_05NAOIJFC@Error?$AA@ 00509068     pjlib-i386-win32-vc8-debug:errno.obj
 0003:0000b070       _PJ_AF_UNSPEC              00509070     pjlib-i386-win32-vc8-debug:sock_bsd.obj
 0003:0000b074       _PJ_AF_UNIX                00509074     pjlib-i386-win32-vc8-debug:sock_bsd.obj
 0003:0000b078       _PJ_AF_INET                00509078     pjlib-i386-win32-vc8-debug:sock_bsd.obj
 0003:0000b07c       _PJ_AF_INET6               0050907c     pjlib-i386-win32-vc8-debug:sock_bsd.obj
 0003:0000b080       _PJ_AF_PACKET              00509080     pjlib-i386-win32-vc8-debug:sock_bsd.obj
 0003:0000b084       _PJ_AF_IRDA                00509084     pjlib-i386-win32-vc8-debug:sock_bsd.obj
 0003:0000b088       _PJ_SOCK_STREAM            00509088     pjlib-i386-win32-vc8-debug:sock_bsd.obj
 0003:0000b08c       _PJ_SOCK_DGRAM             0050908c     pjlib-i386-win32-vc8-debug:sock_bsd.obj
 0003:0000b090       _PJ_SOCK_RAW               00509090     pjlib-i386-win32-vc8-debug:sock_bsd.obj
 0003:0000b094       _PJ_SOCK_RDM               00509094     pjlib-i386-win32-vc8-debug:sock_bsd.obj
 0003:0000b098       _PJ_SOL_SOCKET             00509098     pjlib-i386-win32-vc8-debug:sock_bsd.obj
 0003:0000b09c       _PJ_SOL_IP                 0050909c     pjlib-i386-win32-vc8-debug:sock_bsd.obj
 0003:0000b0a0       _PJ_SOL_TCP                005090a0     pjlib-i386-win32-vc8-debug:sock_bsd.obj
 0003:0000b0a4       _PJ_SOL_UDP                005090a4     pjlib-i386-win32-vc8-debug:sock_bsd.obj
 0003:0000b0a8       _PJ_SOL_IPV6               005090a8     pjlib-i386-win32-vc8-debug:sock_bsd.obj
 0003:0000b0ac       _PJ_IP_TOS                 005090ac     pjlib-i386-win32-vc8-debug:sock_bsd.obj
 0003:0000b0b0       _PJ_IPTOS_LOWDELAY         005090b0     pjlib-i386-win32-vc8-debug:sock_bsd.obj
 0003:0000b0b4       _PJ_IPTOS_THROUGHPUT       005090b4     pjlib-i386-win32-vc8-debug:sock_bsd.obj
 0003:0000b0b8       _PJ_IPTOS_RELIABILITY      005090b8     pjlib-i386-win32-vc8-debug:sock_bsd.obj
 0003:0000b0bc       _PJ_IPTOS_MINCOST          005090bc     pjlib-i386-win32-vc8-debug:sock_bsd.obj
 0003:0000b0c0       _PJ_SO_TYPE                005090c0     pjlib-i386-win32-vc8-debug:sock_bsd.obj
 0003:0000b0c4       _PJ_SO_RCVBUF              005090c4     pjlib-i386-win32-vc8-debug:sock_bsd.obj
 0003:0000b0c8       _PJ_SO_SNDBUF              005090c8     pjlib-i386-win32-vc8-debug:sock_bsd.obj
 0003:0000b0cc       _PJ_TCP_NODELAY            005090cc     pjlib-i386-win32-vc8-debug:sock_bsd.obj
 0003:0000b0d0       _PJ_SO_REUSEADDR           005090d0     pjlib-i386-win32-vc8-debug:sock_bsd.obj
 0003:0000b0d4       _PJ_SO_PRIORITY            005090d4     pjlib-i386-win32-vc8-debug:sock_bsd.obj
 0003:0000b0d8       _PJ_IP_MULTICAST_IF        005090d8     pjlib-i386-win32-vc8-debug:sock_bsd.obj
 0003:0000b0dc       _PJ_IP_MULTICAST_TTL       005090dc     pjlib-i386-win32-vc8-debug:sock_bsd.obj
 0003:0000b0e0       _PJ_IP_MULTICAST_LOOP      005090e0     pjlib-i386-win32-vc8-debug:sock_bsd.obj
 0003:0000b0e4       _PJ_IP_ADD_MEMBERSHIP      005090e4     pjlib-i386-win32-vc8-debug:sock_bsd.obj
 0003:0000b0e8       _PJ_IP_DROP_MEMBERSHIP     005090e8     pjlib-i386-win32-vc8-debug:sock_bsd.obj
 0003:0000b0ec       _PJ_MSG_OOB                005090ec     pjlib-i386-win32-vc8-debug:sock_bsd.obj
 0003:0000b0f0       _PJ_MSG_PEEK               005090f0     pjlib-i386-win32-vc8-debug:sock_bsd.obj
 0003:0000b0f4       _PJ_MSG_DONTROUTE          005090f4     pjlib-i386-win32-vc8-debug:sock_bsd.obj
 0003:0000b114       ??_C@_1CM@OEECOBPG@?$AAc?$AAp?$AA?5?$AA?$CG?$AA?$CG?$AA?5?$AAc?$AAp?$AA?9?$AA?$DO?$AAs?$AAl?$AAe?$AAn?$AA?5?$AA?$CG?$AA?$CG?$AA?5?$AAi?$AAn?$AAp?$AA?$AA@ 00509114     pjlib-i386-win32-vc8-debug:sock_bsd.obj
 0003:0000b148       ??_C@_1FO@MFHJLFFA@?$AAd?$AA?3?$AA?2?$AAm?$AAy?$AAg?$AAi?$AAt?$AA?2?$AAp?$AAj?$AAp?$AAr?$AAo?$AAj?$AAe?$AAc?$AAt?$AA?9?$AA1?$AA?4?$AA4?$AA?2?$AAp?$AAj?$AAl?$AAi?$AAb?$AA?2?$AAs?$AAr?$AAc@ 00509148     pjlib-i386-win32-vc8-debug:sock_bsd.obj
 0003:0000b1b8       ??_C@_1CI@KMDGDPGJ@?$AA?$CB?$AA?$CC?$AAS?$AAh?$AAo?$AAu?$AAl?$AAd?$AAn?$AA?8?$AAt?$AA?5?$AAh?$AAa?$AAp?$AAp?$AAe?$AAn?$AA?$CC?$AA?$AA@ 005091b8     pjlib-i386-win32-vc8-debug:sock_bsd.obj
 0003:0000b1e8       ??_C@_0BB@FMMFANH@Shouldn?8t?5happen?$AA@ 005091e8     pjlib-i386-win32-vc8-debug:sock_bsd.obj
 0003:0000b1fc       ??_C@_1DA@NIAFCNGJ@?$AAs?$AAr?$AAc?$AA?5?$AA?$CG?$AA?$CG?$AA?5?$AAs?$AAr?$AAc?$AA?9?$AA?$DO?$AAs?$AAl?$AAe?$AAn?$AA?5?$AA?$CG?$AA?$CG?$AA?5?$AAd?$AAs?$AAt?$AA?$AA@ 005091fc     pjlib-i386-win32-vc8-debug:sock_bsd.obj
 0003:0000b238       ??_C@_1DM@IJIBEIIG@?$AA?$CB?$AA?$CC?$AAU?$AAn?$AAs?$AAu?$AAp?$AAp?$AAo?$AAr?$AAt?$AAe?$AAd?$AA?5?$AAa?$AAd?$AAd?$AAr?$AAe?$AAs?$AAs?$AA?5?$AAf?$AAa?$AAm?$AAi?$AAl?$AAy?$AA?$CC?$AA?$AA@ 00509238     pjlib-i386-win32-vc8-debug:sock_bsd.obj
 0003:0000b280       ??_C@_0BL@ILIKGEFL@Unsupported?5address?5family?$AA@ 00509280     pjlib-i386-win32-vc8-debug:sock_bsd.obj
 0003:0000b2a0       ??_C@_1CG@FCIAPMOJ@?$AAs?$AAr?$AAc?$AA?5?$AA?$CG?$AA?$CG?$AA?5?$AAd?$AAs?$AAt?$AA?5?$AA?$CG?$AA?$CG?$AA?5?$AAs?$AAi?$AAz?$AAe?$AA?$AA@ 005092a0     pjlib-i386-win32-vc8-debug:sock_bsd.obj
 0003:0000b2d0       ??_C@_0CP@COLIDBCF@d?3?2mygit?2pjproject?91?44?2pjlib?2src@ 005092d0     pjlib-i386-win32-vc8-debug:sock_bsd.obj
 0003:0000b308       ??_C@_1CE@CHKBIEBK@?$AAs?$AAo?$AAc?$AAk?$AA?$CB?$AA?$DN?$AA?$CI?$AA?$CI?$AAv?$AAo?$AAi?$AAd?$AA?5?$AA?$CK?$AA?$CJ?$AA0?$AA?$CJ?$AA?$AA@ 00509308     pjlib-i386-win32-vc8-debug:sock_bsd.obj
 0003:0000b338       ??_C@_1FO@NFJOCODB@?$AAa?$AAd?$AAd?$AAr?$AA?5?$AA?$CG?$AA?$CG?$AA?5?$AAl?$AAe?$AAn?$AA?5?$AA?$DO?$AA?$DN?$AA?5?$AA?$CI?$AAi?$AAn?$AAt?$AA?$CJ?$AAs?$AAi?$AAz?$AAe?$AAo?$AAf?$AA?$CI?$AAs?$AAt?$AAr?$AAu?$AAc@ 00509338     pjlib-i386-win32-vc8-debug:sock_bsd.obj
 0003:0000b3a8       ??_C@_17JOFJILLL@?$AAl?$AAe?$AAn?$AA?$AA@ 005093a8     pjlib-i386-win32-vc8-debug:sock_bsd.obj
 0003:0000b3b4       ??_C@_1BG@KIOEFHJP@?$AAb?$AAu?$AAf?$AA?5?$AA?$CG?$AA?$CG?$AA?5?$AAl?$AAe?$AAn?$AA?$AA@ 005093b4     pjlib-i386-win32-vc8-debug:sock_bsd.obj
 0003:0000b3d0       ??_C@_1CA@EMDLJNLA@?$AAf?$AAr?$AAo?$AAm?$AA?5?$AA?$CG?$AA?$CG?$AA?5?$AAf?$AAr?$AAo?$AAm?$AAl?$AAe?$AAn?$AA?$AA@ 005093d0     pjlib-i386-win32-vc8-debug:sock_bsd.obj
 0003:0000b3f8       ??_C@_1CC@JEHODAPI@?$AAo?$AAp?$AAt?$AAv?$AAa?$AAl?$AA?5?$AA?$CG?$AA?$CG?$AA?5?$AAo?$AAp?$AAt?$AAl?$AAe?$AAn?$AA?$AA@ 005093f8     pjlib-i386-win32-vc8-debug:sock_bsd.obj
 0003:0000b420       ??_C@_1CO@HPOGKJKP@?$AAn?$AAe?$AAw?$AAs?$AAo?$AAc?$AAk?$AA?5?$AA?$CB?$AA?$DN?$AA?5?$AA?$CI?$AA?$CI?$AAv?$AAo?$AAi?$AAd?$AA?5?$AA?$CK?$AA?$CJ?$AA0?$AA?$CJ?$AA?$AA@ 00509420     pjlib-i386-win32-vc8-debug:sock_bsd.obj
 0003:0000b458       ??_C@_1CC@EAFADDBO@?$AAp?$AA?5?$AA?$CB?$AA?$DN?$AA?5?$AA?$CI?$AA?$CI?$AAv?$AAo?$AAi?$AAd?$AA?5?$AA?$CK?$AA?$CJ?$AA0?$AA?$CJ?$AA?$AA@ 00509458     pjlib-i386-win32-vc8-debug:pool.obj
 0003:0000b480       ??_C@_1FG@JDMIMKBI@?$AAd?$AA?3?$AA?2?$AAm?$AAy?$AAg?$AAi?$AAt?$AA?2?$AAp?$AAj?$AAp?$AAr?$AAo?$AAj?$AAe?$AAc?$AAt?$AA?9?$AA1?$AA?4?$AA4?$AA?2?$AAp?$AAj?$AAl?$AAi?$AAb?$AA?2?$AAs?$AAr?$AAc@ 00509480     pjlib-i386-win32-vc8-debug:pool.obj
 0003:0000b4e8       ??_C@_0CL@BHDJIK@d?3?2mygit?2pjproject?91?44?2pjlib?2src@ 005094e8     pjlib-i386-win32-vc8-debug:pool.obj
 0003:0000b51c       ??_C@_1DM@GJMPJMCP@?$AAs?$AAi?$AAz?$AAe?$AA?5?$AA?$DO?$AA?$DN?$AA?5?$AAs?$AAi?$AAz?$AAe?$AAo?$AAf?$AA?$CI?$AAp?$AAj?$AA_?$AAp?$AAo?$AAo?$AAl?$AA_?$AAb?$AAl?$AAo?$AAc?$AAk?$AA?$CJ?$AA?$AA@ 0050951c     pjlib-i386-win32-vc8-debug:pool.obj
 0003:0000b568       ??_C@_1HA@KHKDBJOJ@?$AAi?$AAn?$AAi?$AAt?$AAi?$AAa?$AAl?$AA_?$AAs?$AAi?$AAz?$AAe?$AA?5?$AA?$DO?$AA?$DN?$AA?5?$AAs?$AAi?$AAz?$AAe?$AAo?$AAf?$AA?$CI?$AAp?$AAj?$AA_?$AAp?$AAo?$AAo?$AAl?$AA_?$AAt@ 00509568     pjlib-i386-win32-vc8-debug:pool.obj
 0003:0000b5f0       ??_C@_0DB@KFPHELLI@No?5host?5data?5of?5that?5type?5was?5fo@ 005095f0     pjlib-i386-win32-vc8-debug:os_error_win32.obj
 0003:0000b62c       ??_C@_0CD@OEALOMDH@Host?5not?5found?5?$CIWSAHOST_NOT_FOUN@ 0050962c     pjlib-i386-win32-vc8-debug:os_error_win32.obj
 0003:0000b658       ??_C@_0CL@GFDHEKLB@Graceful?5shutdown?5in?5progress?5?$CIW@ 00509658     pjlib-i386-win32-vc8-debug:os_error_win32.obj
 0003:0000b68c       ??_C@_0CO@HPDHHDHA@WSAStartup?5not?5yet?5called?5?$CIWSANO@ 0050968c     pjlib-i386-win32-vc8-debug:os_error_win32.obj
 0003:0000b6c4       ??_C@_0DC@BLAKHMMJ@Winsock?5version?5out?5of?5range?5?$CIWS@ 005096c4     pjlib-i386-win32-vc8-debug:os_error_win32.obj
 0003:0000b700       ??_C@_0CP@IBAEMKGH@Network?5system?5is?5unavailable?5?$CIW@ 00509700     pjlib-i386-win32-vc8-debug:os_error_win32.obj
 0003:0000b738       ??_C@_0CP@MLAFGPOA@Too?5many?5levels?5of?5remote?5in?5pat@ 00509738     pjlib-i386-win32-vc8-debug:os_error_win32.obj
 0003:0000b770       ??_C@_0CC@IMLIDHNH@Stale?5NFS?5file?5handle?5?$CIWSAESTALE@ 00509770     pjlib-i386-win32-vc8-debug:os_error_win32.obj
 0003:0000b798       ??_C@_0CA@MIOFDKMA@Disc?5quota?5exceeded?5?$CIWSAEDQUOT?$CJ?$AA@ 00509798     pjlib-i386-win32-vc8-debug:os_error_win32.obj
 0003:0000b7c0       ??_C@_0BL@IGHJMJKO@Too?5many?5users?5?$CIWSAEUSERS?$CJ?$AA@ 005097c0     pjlib-i386-win32-vc8-debug:os_error_win32.obj
 0003:0000b7e0       ??_C@_0CB@GPCGLHOJ@Too?5many?5processes?5?$CIWSAEPROCLIM?$CJ@ 005097e0     pjlib-i386-win32-vc8-debug:os_error_win32.obj
 0003:0000b808       ??_C@_0CD@NEFLEHEG@Directory?5not?5empty?5?$CIWSAENOTEMPT@ 00509808     pjlib-i386-win32-vc8-debug:os_error_win32.obj
 0003:0000b834       ??_C@_0CD@ECJOJHBH@No?5route?5to?5host?5?$CIWSAEHOSTUNREAC@ 00509834     pjlib-i386-win32-vc8-debug:os_error_win32.obj
 0003:0000b860       ??_C@_0BM@NCJCEEDP@Host?5is?5down?5?$CIWSAEHOSTDOWN?$CJ?$AA@ 00509860     pjlib-i386-win32-vc8-debug:os_error_win32.obj
 0003:0000b884       ??_C@_0CF@MOFKOMBB@File?5name?5too?5long?5?$CIWSAENAMETOOL@ 00509884     pjlib-i386-win32-vc8-debug:os_error_win32.obj
 0003:0000b8b0       ??_C@_0CN@FCKBNFMB@Too?5many?5levels?5of?5symbolic?5link@ 005098b0     pjlib-i386-win32-vc8-debug:os_error_win32.obj
 0003:0000b8e8       ??_C@_0CF@JMKFBJH@Connection?5refused?5?$CIWSAECONNREFU@ 005098e8     pjlib-i386-win32-vc8-debug:os_error_win32.obj
 0003:0000b914       ??_C@_0CE@IIKHBGF@Connection?5timed?5out?5?$CIWSAETIMEDO@ 00509914     pjlib-i386-win32-vc8-debug:os_error_win32.obj
 0003:0000b940       ??_C@_0DE@CAILNFFE@Too?5many?5references?0?5can?8t?5splic@ 00509940     pjlib-i386-win32-vc8-debug:os_error_win32.obj
 0003:0000b980       ??_C@_0DA@JGJMJPNM@Can?8t?5send?5after?5socket?5shutdown@ 00509980     pjlib-i386-win32-vc8-debug:os_error_win32.obj
 0003:0000b9bc       ??_C@_0CG@CECDMHLL@Socket?5is?5not?5connected?5?$CIWSAENOT@ 005099bc     pjlib-i386-win32-vc8-debug:os_error_win32.obj
 0003:0000b9ec       ??_C@_0CJ@JOPBNNOD@Socket?5is?5already?5connected?5?$CIWSA@ 005099ec     pjlib-i386-win32-vc8-debug:os_error_win32.obj
 0003:0000ba20       ??_C@_0CH@EKNGIMKN@No?5buffer?5space?5available?5?$CIWSAEN@ 00509a20     pjlib-i386-win32-vc8-debug:os_error_win32.obj
 0003:0000ba50       ??_C@_0CJ@PJHCFAAN@Connection?5reset?5by?5peer?5?$CIWSAECO@ 00509a50     pjlib-i386-win32-vc8-debug:os_error_win32.obj
 0003:0000ba84       ??_C@_0DD@PGDIHOBG@Software?5caused?5connection?5abort@ 00509a84     pjlib-i386-win32-vc8-debug:os_error_win32.obj
 0003:0000bac4       ??_C@_0CE@LJEEEFEC@Net?5connection?5reset?5?$CIWSAENETRES@ 00509ac4     pjlib-i386-win32-vc8-debug:os_error_win32.obj
 0003:0000baf0       ??_C@_0CI@NKJAACME@Network?5is?5unreachable?5?$CIWSAENETU@ 00509af0     pjlib-i386-win32-vc8-debug:os_error_win32.obj
 0003:0000bb20       ??_C@_0BO@IICKDHLJ@Network?5is?5down?5?$CIWSAENETDOWN?$CJ?$AA@ 00509b20     pjlib-i386-win32-vc8-debug:os_error_win32.obj
 0003:0000bb44       ??_C@_0DC@FJJPJPOD@Can?8t?5assign?5requested?5address?5?$CI@ 00509b44     pjlib-i386-win32-vc8-debug:os_error_win32.obj
 0003:0000bb80       ??_C@_0CH@OCKNFBKE@Address?5already?5in?5use?5?$CIWSAEADDR@ 00509b80     pjlib-i386-win32-vc8-debug:os_error_win32.obj
 0003:0000bbb0       ??_C@_0CP@MMKHGIFC@Address?5family?5not?5supported?5?$CIWS@ 00509bb0     pjlib-i386-win32-vc8-debug:os_error_win32.obj
 0003:0000bbe8       ??_C@_0DA@GFNBENIG@Protocol?5family?5not?5supported?5?$CIW@ 00509be8     pjlib-i386-win32-vc8-debug:os_error_win32.obj
 0003:0000bc24       ??_C@_0DC@GJMFANID@Operation?5not?5supported?5on?5socke@ 00509c24     pjlib-i386-win32-vc8-debug:os_error_win32.obj
 0003:0000bc60       ??_C@_0CP@JLBNHCOL@Socket?5type?5not?5supported?5?$CIWSAES@ 00509c60     pjlib-i386-win32-vc8-debug:os_error_win32.obj
 0003:0000bc98       ??_C@_0CM@HPGHEHCE@Protocol?5not?5supported?5?$CIWSAEPROT@ 00509c98     pjlib-i386-win32-vc8-debug:os_error_win32.obj
 0003:0000bccc       ??_C@_0CF@HNFLHOHA@Bad?5protocol?5option?5?$CIWSAENOPROTO@ 00509ccc     pjlib-i386-win32-vc8-debug:os_error_win32.obj
 0003:0000bcf8       ??_C@_0CP@MMIMIEMF@Protocol?5wrong?5type?5for?5socket?5?$CI@ 00509cf8     pjlib-i386-win32-vc8-debug:os_error_win32.obj
 0003:0000bd30       ??_C@_0BP@LNFPBFEK@Message?5too?5long?5?$CIWSAEMSGSIZE?$CJ?$AA@ 00509d30     pjlib-i386-win32-vc8-debug:os_error_win32.obj
 0003:0000bd58       ??_C@_0CP@HCDICECK@Destination?5address?5required?5?$CIWS@ 00509d58     pjlib-i386-win32-vc8-debug:os_error_win32.obj
 0003:0000bd90       ??_C@_0CN@PAFKDEBN@Socket?5operation?5on?5non?9socket?5?$CI@ 00509d90     pjlib-i386-win32-vc8-debug:os_error_win32.obj
 0003:0000bdc8       ??_C@_0CM@BEMCBKDH@Operation?5already?5in?5progress?5?$CIW@ 00509dc8     pjlib-i386-win32-vc8-debug:os_error_win32.obj
 0003:0000bdfc       ??_C@_0CL@DKGHEPCD@Operation?5now?5in?5progress?5?$CIWSAEI@ 00509dfc     pjlib-i386-win32-vc8-debug:os_error_win32.obj
 0003:0000be30       ??_C@_0CH@GCPPFMGM@Operation?5would?5block?5?$CIWSAEWOULD@ 00509e30     pjlib-i386-win32-vc8-debug:os_error_win32.obj
 0003:0000be60       ??_C@_0CC@HMKKNDGL@Too?5many?5open?5sockets?5?$CIWSAEMFILE@ 00509e60     pjlib-i386-win32-vc8-debug:os_error_win32.obj
 0003:0000be88       ??_C@_0BN@FEIDINKH@Invalid?5argument?5?$CIWSAEINVAL?$CJ?$AA@ 00509e88     pjlib-i386-win32-vc8-debug:os_error_win32.obj
 0003:0000beac       ??_C@_0BI@LAKHPJJ@Bad?5address?5?$CIWSAEFAULT?$CJ?$AA@ 00509eac     pjlib-i386-win32-vc8-debug:os_error_win32.obj
 0003:0000bec8       ??_C@_0BO@BMBEEPBP@Permission?5denied?5?$CIWSAEACCES?$CJ?$AA@ 00509ec8     pjlib-i386-win32-vc8-debug:os_error_win32.obj
 0003:0000beec       ??_C@_0BL@OKPDNKLH@Bad?5file?5number?5?$CIWSAEBADF?$CJ?$AA@ 00509eec     pjlib-i386-win32-vc8-debug:os_error_win32.obj
 0003:0000bf0c       ??_C@_0CD@FNMHLHMI@Interrupted?5system?5call?5?$CIWSAEINT@ 00509f0c     pjlib-i386-win32-vc8-debug:os_error_win32.obj
 0003:0000c118       ??_C@_0BE@JPHLLAEM@Win32?5error?5code?5?$CFu?$AA@ 0050a118     pjlib-i386-win32-vc8-debug:os_error_win32.obj
 0003:0000c130       ??_C@_1BK@KKHIEKEI@?$AAb?$AAu?$AAf?$AAs?$AAi?$AAz?$AAe?$AA?5?$AA?$DO?$AA?$DN?$AA?5?$AA0?$AA?$AA@ 0050a130     pjlib-i386-win32-vc8-debug:os_error_win32.obj
 0003:0000c150       ??_C@_1CG@MKDKEIKM@?$AAb?$AAu?$AAf?$AA?5?$AA?$CB?$AA?$DN?$AA?5?$AA?$CI?$AA?$CI?$AAv?$AAo?$AAi?$AAd?$AA?5?$AA?$CK?$AA?$CJ?$AA0?$AA?$CJ?$AA?$AA@ 0050a150     pjlib-i386-win32-vc8-debug:os_error_win32.obj
 0003:0000c180       ??_C@_1GK@JKFBBHJD@?$AAd?$AA?3?$AA?2?$AAm?$AAy?$AAg?$AAi?$AAt?$AA?2?$AAp?$AAj?$AAp?$AAr?$AAo?$AAj?$AAe?$AAc?$AAt?$AA?9?$AA1?$AA?4?$AA4?$AA?2?$AAp?$AAj?$AAl?$AAi?$AAb?$AA?2?$AAs?$AAr?$AAc@ 0050a180     pjlib-i386-win32-vc8-debug:os_error_win32.obj
 0003:0000c200       ??_C@_0DI@PKGPCBFN@d?3?2mygit?2pjproject?91?44?2pjlib?2src@ 0050a200     pjlib-i386-win32-vc8-debug:log_writer_stdout.obj
 0003:0000c244       ??_C@_08KJEDNCKC@?$CFs?$CFs?$CFs?$CFs?$AA@ 0050a244     pjlib-i386-win32-vc8-debug:sock_common.obj
 0003:0000c250       ??_C@_03HODKBCIO@?3?$CFd?$AA@ 0050a250     pjlib-i386-win32-vc8-debug:sock_common.obj
 0003:0000c254       ??_C@_01LBDDMOBJ@?$FN?$AA@ 0050a254     pjlib-i386-win32-vc8-debug:sock_common.obj
 0003:0000c258       ??_C@_01OHGJGJJP@?$FL?$AA@ 0050a258     pjlib-i386-win32-vc8-debug:sock_common.obj
 0003:0000c260       ??_C@_1EI@LMAIDKEG@?$AA?$CB?$AAs?$AAt?$AAr?$AA_?$AAa?$AAd?$AAd?$AAr?$AA?5?$AA?$HM?$AA?$HM?$AA?5?$AAs?$AAt?$AAr?$AA_?$AAa?$AAd?$AAd?$AAr?$AA?9?$AA?$DO?$AAs?$AAl?$AAe?$AAn?$AA?5?$AA?$DM?$AA?5?$AA?$CI?$AA1@ 0050a260     pjlib-i386-win32-vc8-debug:sock_common.obj
 0003:0000c2b8       ??_C@_1GE@NJGOJLHF@?$AAd?$AA?3?$AA?2?$AAm?$AAy?$AAg?$AAi?$AAt?$AA?2?$AAp?$AAj?$AAp?$AAr?$AAo?$AAj?$AAe?$AAc?$AAt?$AA?9?$AA1?$AA?4?$AA4?$AA?2?$AAp?$AAj?$AAl?$AAi?$AAb?$AA?2?$AAs?$AAr?$AAc@ 0050a2b8     pjlib-i386-win32-vc8-debug:sock_common.obj
 0003:0000c330       ??_C@_0DC@HPFAILKA@d?3?2mygit?2pjproject?91?44?2pjlib?2src@ 0050a330     pjlib-i386-win32-vc8-debug:sock_common.obj
 0003:0000c36c       ??_C@_1CA@EINGOHHA@?$AAa?$AAf?$AA?$DN?$AA?$DN?$AAP?$AAJ?$AA_?$AAA?$AAF?$AA_?$AAI?$AAN?$AAE?$AAT?$AA6?$AA?$AA@ 0050a36c     pjlib-i386-win32-vc8-debug:sock_common.obj
 0003:0000c394       ??_C@_19CEKCHDNN@?$AAa?$AAd?$AAd?$AAr?$AA?$AA@ 0050a394     pjlib-i386-win32-vc8-debug:sock_common.obj
 0003:0000c3a0       ??_C@_1II@IEDNCJLG@?$AAa?$AA?9?$AA?$DO?$AAa?$AAd?$AAd?$AAr?$AA?4?$AAs?$AAa?$AA_?$AAf?$AAa?$AAm?$AAi?$AAl?$AAy?$AA?5?$AA?$DN?$AA?$DN?$AA?5?$AAP?$AAJ?$AA_?$AAA?$AAF?$AA_?$AAI?$AAN?$AAE?$AAT?$AA?5@ 0050a3a0     pjlib-i386-win32-vc8-debug:sock_common.obj
 0003:0000c448       ??_C@_1LE@BCBAMGPH@?$AA?$CI?$AAa?$AAf?$AA?$DN?$AA?$DN?$AAP?$AAJ?$AA_?$AAA?$AAF?$AA_?$AAI?$AAN?$AAE?$AAT?$AA?5?$AA?$HM?$AA?$HM?$AA?5?$AAa?$AAf?$AA?$DN?$AA?$DN?$AAP?$AAJ?$AA_?$AAA?$AAF?$AA_?$AAI?$AAN?$AAE@ 0050a448     pjlib-i386-win32-vc8-debug:sock_common.obj
 0003:0000c520       ??_C@_1GM@GCDHCLKA@?$AAa?$AAf?$AA?$DN?$AA?$DN?$AAP?$AAJ?$AA_?$AAA?$AAF?$AA_?$AAU?$AAN?$AAS?$AAP?$AAE?$AAC?$AA?5?$AA?$HM?$AA?$HM?$AA?5?$AAa?$AAf?$AA?$DN?$AA?$DN?$AAP?$AAJ?$AA_?$AAA?$AAF?$AA_?$AAI?$AAN@ 0050a520     pjlib-i386-win32-vc8-debug:sock_common.obj
 0003:0000c5a8       ??_C@_1FK@OKOAJPPE@?$AAa?$AAi?$AA?4?$AAa?$AAi?$AA_?$AAa?$AAd?$AAd?$AAr?$AA?4?$AAa?$AAd?$AAd?$AAr?$AA?4?$AAs?$AAa?$AA_?$AAf?$AAa?$AAm?$AAi?$AAl?$AAy?$AA?5?$AA?$DN?$AA?$DN?$AA?5?$AA?$CI?$AAp?$AAj@ 0050a5a8     pjlib-i386-win32-vc8-debug:sock_common.obj
 0003:0000c614       ??_C@_04NFKLOGOF@1?3?31?$AA@ 0050a614     pjlib-i386-win32-vc8-debug:sock_common.obj
 0003:0000c61c       ??_C@_07EBPGIHEF@1?41?41?41?$AA@ 0050a61c     pjlib-i386-win32-vc8-debug:sock_common.obj
 0003:0000c628       ??_C@_09LHLPNNII@1?46?9trunk?$AA@ 0050a628     pjlib-i386-win32-vc8-debug:config.obj
 0003:0000c634       ??_C@_08DOCHLGNA@config?4c?$AA@ 0050a634     pjlib-i386-win32-vc8-debug:config.obj
 0003:0000c640       ??_C@_0CA@HPFADEMC@?5PJ_HAS_HIGH_RES_TIMER?5?5?5?5?5?3?5?$CFd?$AA@ 0050a640     pjlib-i386-win32-vc8-debug:config.obj
 0003:0000c668       ??_C@_0CA@KNFEOAMF@?5PJ_OS_HAS_CHECK_STACK?5?5?5?5?5?3?5?$CFd?$AA@ 0050a668     pjlib-i386-win32-vc8-debug:config.obj
 0003:0000c690       ??_C@_0CA@ELABDFDK@?5PJ_TIMESTAMP_USE_RDTSC?3?5?5?5?3?5?$CFd?$AA@ 0050a690     pjlib-i386-win32-vc8-debug:config.obj
 0003:0000c6b8       ??_C@_0CA@JCLOPIAE@?5PJ_EXCEPTION_USE_WIN32_SEH?3?5?$CFd?$AA@ 0050a6b8     pjlib-i386-win32-vc8-debug:config.obj
 0003:0000c6e0       ??_C@_0CA@PDHBELMF@?5PJ_MAX_EXCEPTION_ID?5?5?5?5?5?5?5?3?5?$CFd?$AA@ 0050a6e0     pjlib-i386-win32-vc8-debug:config.obj
 0003:0000c708       ??_C@_0CA@KBIPPCDM@?5PJ_HAS_EXCEPTION_NAMES?5?5?5?5?3?5?$CFd?$AA@ 0050a708     pjlib-i386-win32-vc8-debug:config.obj
 0003:0000c730       ??_C@_0CA@HDOPKKCK@?5PJ_ENABLE_EXTRA_CHECK?5?5?5?5?5?3?5?$CFd?$AA@ 0050a730     pjlib-i386-win32-vc8-debug:config.obj
 0003:0000c758       ??_C@_0CA@PPJIFE@?5PJ_HAS_EVENT_OBJ?5?5?5?5?5?5?5?5?5?5?3?5?$CFd?$AA@ 0050a758     pjlib-i386-win32-vc8-debug:config.obj
 0003:0000c780       ??_C@_0CA@MDECAGDJ@?5PJ_HAS_SEMAPHORE?5?5?5?5?5?5?5?5?5?5?3?5?$CFd?$AA@ 0050a780     pjlib-i386-win32-vc8-debug:config.obj
 0003:0000c7a8       ??_C@_0CA@KKPKMEKG@?5PJ_HAS_THREADS?5?5?5?5?5?5?5?5?5?5?5?5?3?5?$CFd?$AA@ 0050a7a8     pjlib-i386-win32-vc8-debug:config.obj
 0003:0000c7d0       ??_C@_0CA@EOIHPMGI@?5PJ_IOQUEUE_HAS_SAFE_UNREG?5?3?5?$CFd?$AA@ 0050a7d0     pjlib-i386-win32-vc8-debug:config.obj
 0003:0000c7f8       ??_C@_0CA@MFIGELPB@?5PJ_IOQUEUE_MAX_HANDLES?5?5?5?5?3?5?$CFd?$AA@ 0050a7f8     pjlib-i386-win32-vc8-debug:config.obj
 0003:0000c820       ??_C@_0CA@IFEKDPPK@?5ioqueue?5type?5?5?5?5?5?5?5?5?5?5?5?5?5?5?3?5?$CFs?$AA@ 0050a820     pjlib-i386-win32-vc8-debug:config.obj
 0003:0000c848       ??_C@_0CA@IJPJLFMD@?5PJ_MAX_HOSTNAME?5?5?5?5?5?5?5?5?5?5?5?3?5?$CFd?$AA@ 0050a848     pjlib-i386-win32-vc8-debug:config.obj
 0003:0000c870       ??_C@_0CA@PHJFINJO@?5PJ_HAS_TCP?5?5?5?5?5?5?5?5?5?5?5?5?5?5?5?5?3?5?$CFd?$AA@ 0050a870     pjlib-i386-win32-vc8-debug:config.obj
 0003:0000c898       ??_C@_0CA@JFMEIGNB@?5PJ_HAS_POOL_ALT_API?5?5?5?5?5?5?5?3?5?$CFd?$AA@ 0050a898     pjlib-i386-win32-vc8-debug:config.obj
 0003:0000c8c0       ??_C@_0CA@HLGIANHB@?5PJ_POOL_DEBUG?5?5?5?5?5?5?5?5?5?5?5?5?5?3?5?$CFd?$AA@ 0050a8c0     pjlib-i386-win32-vc8-debug:config.obj
 0003:0000c8e8       ??_C@_0CA@LNDGNGPB@?5PJ_LOG_USE_STACK_BUFFER?5?5?5?3?5?$CFd?$AA@ 0050a8e8     pjlib-i386-win32-vc8-debug:config.obj
 0003:0000c910       ??_C@_0CA@JKBDOCPB@?5PJ_LOG_MAX_SIZE?5?5?5?5?5?5?5?5?5?5?5?3?5?$CFd?$AA@ 0050a910     pjlib-i386-win32-vc8-debug:config.obj
 0003:0000c938       ??_C@_0CA@GEBJAONH@?5PJ_LOG_MAX_LEVEL?5?5?5?5?5?5?5?5?5?5?3?5?$CFd?$AA@ 0050a938     pjlib-i386-win32-vc8-debug:config.obj
 0003:0000c960       ??_C@_0CA@PKIHIMKF@?5PJ_FUNCTIONS_ARE_INLINED?5?5?3?5?$CFd?$AA@ 0050a960     pjlib-i386-win32-vc8-debug:config.obj
 0003:0000c988       ??_C@_0CA@NBBHLDIH@?5PJ_DEBUG?5?5?5?5?5?5?5?5?5?5?5?5?5?5?5?5?5?5?3?5?$CFd?$AA@ 0050a988     pjlib-i386-win32-vc8-debug:config.obj
 0003:0000c9b0       ??_C@_0CA@LMENGBAP@?5PJ_HAS_FLOATING_POINT?5?5?5?5?5?3?5?$CFd?$AA@ 0050a9b0     pjlib-i386-win32-vc8-debug:config.obj
 0003:0000c9d8       ??_C@_0CA@GGBFPJFC@?5PJ_HAS_INT64?5?5?5?5?5?5?5?5?5?5?5?5?5?5?3?5?$CFd?$AA@ 0050a9d8     pjlib-i386-win32-vc8-debug:config.obj
 0003:0000ca00       ??_C@_0CA@CNKKKLLD@?5PJ_IS_?$CIBIG?1LITTLE?$CJ_ENDIAN?5?3?5?$CFs?$AA@ 0050aa00     pjlib-i386-win32-vc8-debug:config.obj
 0003:0000ca28       ??_C@_0O@KEGGAHLA@little?9endian?$AA@ 0050aa28     pjlib-i386-win32-vc8-debug:config.obj
 0003:0000ca38       ??_C@_0CJ@BAKBAPNO@?5PJ_CC_NAME?1VER_?$CI1?02?03?$CJ?5?5?5?5?3?5?$CFs?9@ 0050aa38     pjlib-i386-win32-vc8-debug:config.obj
 0003:0000ca6c       ??_C@_04DPFJJIOK@msvc?$AA@ 0050aa6c     pjlib-i386-win32-vc8-debug:config.obj
 0003:0000ca74       ??_C@_0CA@GPBHGDBG@?5PJ_OS_NAME?5?5?5?5?5?5?5?5?5?5?5?5?5?5?5?5?3?5?$CFs?$AA@ 0050aa74     pjlib-i386-win32-vc8-debug:config.obj
 0003:0000ca9c       ??_C@_05NMJMPJJB@win32?$AA@ 0050aa9c     pjlib-i386-win32-vc8-debug:config.obj
 0003:0000caa4       ??_C@_0CA@KOLEBPNK@?5PJ_HAS_PENTIUM?5?5?5?5?5?5?5?5?5?5?5?5?3?5?$CFd?$AA@ 0050aaa4     pjlib-i386-win32-vc8-debug:config.obj
 0003:0000cacc       ??_C@_0CA@NCEBBBBA@?5PJ_M_NAME?5?5?5?5?5?5?5?5?5?5?5?5?5?5?5?5?5?3?5?$CFs?$AA@ 0050aacc     pjlib-i386-win32-vc8-debug:config.obj
 0003:0000caf4       ??_C@_04OMAFGPMM@i386?$AA@ 0050aaf4     pjlib-i386-win32-vc8-debug:config.obj
 0003:0000cafc       ??_C@_0CA@JHFFEGGP@?5PJ_VERSION?5?5?5?5?5?5?5?5?5?5?5?5?5?5?5?5?3?5?$CFs?$AA@ 0050aafc     pjlib-i386-win32-vc8-debug:config.obj
 0003:0000cb24       ??_C@_0BI@GDBJIAMF@Dumping?5configurations?3?$AA@ 0050ab24     pjlib-i386-win32-vc8-debug:config.obj
 0003:0000cb40       ??_C@_0BO@KNCHBKC@PJLIB?5?$CIc?$CJ2008?92009?5Teluu?5Inc?4?$AA@ 0050ab40     pjlib-i386-win32-vc8-debug:config.obj
 0003:0000cb64       ??_C@_1BK@HMAALPLD@?$AAp?$AAo?$AAo?$AAl?$AA?5?$AA?$CG?$AA?$CG?$AA?5?$AAl?$AAo?$AAc?$AAk?$AA?$AA@ 0050ab64     pjlib-i386-win32-vc8-debug:lock.obj
 0003:0000cb88       ??_C@_1FG@MPHGIOMO@?$AAd?$AA?3?$AA?2?$AAm?$AAy?$AAg?$AAi?$AAt?$AA?2?$AAp?$AAj?$AAp?$AAr?$AAo?$AAj?$AAe?$AAc?$AAt?$AA?9?$AA1?$AA?4?$AA4?$AA?2?$AAp?$AAj?$AAl?$AAi?$AAb?$AA?2?$AAs?$AAr?$AAc@ 0050ab88     pjlib-i386-win32-vc8-debug:lock.obj
 0003:0000cbf0       ??_C@_19LMCCMMJG@?$AAl?$AAo?$AAc?$AAk?$AA?$AA@ 0050abf0     pjlib-i386-win32-vc8-debug:lock.obj
 0003:0000cbfc       ??_C@_1CI@EGCMNLMJ@?$AAl?$AAo?$AAc?$AAk?$AA?5?$AA?$CB?$AA?$DN?$AA?5?$AA?$CI?$AA?$CI?$AAv?$AAo?$AAi?$AAd?$AA?5?$AA?$CK?$AA?$CJ?$AA0?$AA?$CJ?$AA?$AA@ 0050abfc     pjlib-i386-win32-vc8-debug:lock.obj
 0003:0000cc2c       ??_C@_0CM@HNEMPJLO@d?3?2mygit?2pjproject?91?44?2pjlib?2src@ 0050ac2c     pjlib-i386-win32-vc8-debug:types.obj
 0003:0000cc60       ??_C@_1BG@OJJHGIJH@?$AAc?$AAo?$AAu?$AAn?$AAt?$AA?5?$AA?$CB?$AA?$DN?$AA?5?$AA0?$AA?$AA@ 0050ac60     pjlib-i386-win32-vc8-debug:array.obj
 0003:0000cc80       ??_C@_1FI@MCFCBPCF@?$AAd?$AA?3?$AA?2?$AAm?$AAy?$AAg?$AAi?$AAt?$AA?2?$AAp?$AAj?$AAp?$AAr?$AAo?$AAj?$AAe?$AAc?$AAt?$AA?9?$AA1?$AA?4?$AA4?$AA?2?$AAp?$AAj?$AAl?$AAi?$AAb?$AA?2?$AAs?$AAr?$AAc@ 0050ac80     pjlib-i386-win32-vc8-debug:array.obj
 0003:0000ccec       ??_C@_0CL@EEFOGHIH@d?3?2mygit?2pjproject?91?44?2pjlib?2src@ 0050acec     pjlib-i386-win32-vc8-debug:hash.obj
 0003:0000cd20       ??_C@_1CI@KPEGEECM@?$AAp?$AAo?$AAo?$AAl?$AA?5?$AA?$CB?$AA?$DN?$AA?5?$AA?$CI?$AA?$CI?$AAv?$AAo?$AAi?$AAd?$AA?5?$AA?$CK?$AA?$CJ?$AA0?$AA?$CJ?$AA?$AA@ 0050ad20     pjlib-i386-win32-vc8-debug:hash.obj
 0003:0000cd50       ??_C@_1FG@JGMKFEMA@?$AAd?$AA?3?$AA?2?$AAm?$AAy?$AAg?$AAi?$AAt?$AA?2?$AAp?$AAj?$AAp?$AAr?$AAo?$AAj?$AAe?$AAc?$AAt?$AA?9?$AA1?$AA?4?$AA4?$AA?2?$AAp?$AAj?$AAl?$AAi?$AAb?$AA?2?$AAs?$AAr?$AAc@ 0050ad50     pjlib-i386-win32-vc8-debug:hash.obj
 0003:0000cdb8       ??_C@_0CL@FFFGEIIM@d?3?2mygit?2pjproject?91?44?2pjlib?2src@ 0050adb8     pjlib-i386-win32-vc8-debug:rand.obj
 0003:0000cdec       ??_C@_1DI@IDGEEHNC@?$AA?$CB?$AAo?$AAp?$AAt?$AA?5?$AA?$HM?$AA?$HM?$AA?5?$AAo?$AAp?$AAt?$AA?9?$AA?$DO?$AAa?$AAs?$AAy?$AAn?$AAc?$AA_?$AAc?$AAn?$AAt?$AA?5?$AA?$DO?$AA?$DN?$AA?5?$AA1?$AA?$AA@ 0050adec     pjlib-i386-win32-vc8-debug:activesock.obj
 0003:0000ce30       ??_C@_1GM@HNEOJPGK@?$AAs?$AAo?$AAc?$AAk?$AA_?$AAt?$AAy?$AAp?$AAe?$AA?$DN?$AA?$DN?$AAP?$AAJ?$AA_?$AAS?$AAO?$AAC?$AAK?$AA_?$AAS?$AAT?$AAR?$AAE?$AAA?$AAM?$AA?5?$AA?$HM?$AA?$HM?$AA?5?$AAs?$AAo?$AAc@ 0050ae30     pjlib-i386-win32-vc8-debug:activesock.obj
 0003:0000ceb4       ??_C@_1CM@DFNNFLPB@?$AAs?$AAo?$AAc?$AAk?$AA?$CB?$AA?$DN?$AA0?$AA?5?$AA?$CG?$AA?$CG?$AA?5?$AAs?$AAo?$AAc?$AAk?$AA?$CB?$AA?$DN?$AA?$CI?$AA?9?$AA1?$AA?$CJ?$AA?$AA@ 0050aeb4     pjlib-i386-win32-vc8-debug:activesock.obj
 0003:0000cee8       ??_C@_1EC@OFAEOALN@?$AAp?$AAo?$AAo?$AAl?$AA?5?$AA?$CG?$AA?$CG?$AA?5?$AAi?$AAo?$AAq?$AAu?$AAe?$AAu?$AAe?$AA?5?$AA?$CG?$AA?$CG?$AA?5?$AAc?$AAb?$AA?5?$AA?$CG?$AA?$CG?$AA?5?$AAp?$AA_?$AAa?$AAs?$AAo?$AAc?$AAk@ 0050aee8     pjlib-i386-win32-vc8-debug:activesock.obj
 0003:0000cf38       ??_C@_1GC@JKCCCAAK@?$AAd?$AA?3?$AA?2?$AAm?$AAy?$AAg?$AAi?$AAt?$AA?2?$AAp?$AAj?$AAp?$AAr?$AAo?$AAj?$AAe?$AAc?$AAt?$AA?9?$AA1?$AA?4?$AA4?$AA?2?$AAp?$AAj?$AAl?$AAi?$AAb?$AA?2?$AAs?$AAr?$AAc@ 0050af38     pjlib-i386-win32-vc8-debug:activesock.obj
 0003:0000cfb0       ??_C@_1M@EBCPJIIN@?$AAa?$AAs?$AAo?$AAc?$AAk?$AA?$AA@ 0050afb0     pjlib-i386-win32-vc8-debug:activesock.obj
 0003:0000cfc0       ??_C@_1DG@HNFIMNHE@?$AAa?$AAs?$AAo?$AAc?$AAk?$AA?5?$AA?$CG?$AA?$CG?$AA?5?$AAp?$AAo?$AAo?$AAl?$AA?5?$AA?$CG?$AA?$CG?$AA?5?$AAb?$AAu?$AAf?$AAf?$AA_?$AAs?$AAi?$AAz?$AAe?$AA?$AA@ 0050afc0     pjlib-i386-win32-vc8-debug:activesock.obj
 0003:0000d000       ??_C@_1DM@HJJJAFAG@?$AAa?$AAs?$AAo?$AAc?$AAk?$AA?9?$AA?$DO?$AAr?$AAe?$AAa?$AAd?$AA_?$AAo?$AAp?$AA?5?$AA?$DN?$AA?$DN?$AA?5?$AA?$CI?$AA?$CI?$AAv?$AAo?$AAi?$AAd?$AA?5?$AA?$CK?$AA?$CJ?$AA0?$AA?$CJ?$AA?$AA@ 0050b000     pjlib-i386-win32-vc8-debug:activesock.obj
 0003:0000d048       ??_C@_1DM@GLFIDNND@?$AAa?$AAs?$AAo?$AAc?$AAk?$AA?9?$AA?$DO?$AAr?$AAe?$AAa?$AAd?$AA_?$AAt?$AAy?$AAp?$AAe?$AA?5?$AA?$DN?$AA?$DN?$AA?5?$AAT?$AAY?$AAP?$AAE?$AA_?$AAN?$AAO?$AAN?$AAE?$AA?$AA@ 0050b048     pjlib-i386-win32-vc8-debug:activesock.obj
 0003:0000d090       ??_C@_1EE@KJNPGMJN@?$AAa?$AAs?$AAo?$AAc?$AAk?$AA?5?$AA?$CG?$AA?$CG?$AA?5?$AAs?$AAe?$AAn?$AAd?$AA_?$AAk?$AAe?$AAy?$AA?5?$AA?$CG?$AA?$CG?$AA?5?$AAd?$AAa?$AAt?$AAa?$AA?5?$AA?$CG?$AA?$CG?$AA?5?$AAs?$AAi?$AAz@ 0050b090     pjlib-i386-win32-vc8-debug:activesock.obj
 0003:0000d0e8       ??_C@_1GM@HNOPOOMA@?$AAa?$AAs?$AAo?$AAc?$AAk?$AA?5?$AA?$CG?$AA?$CG?$AA?5?$AAs?$AAe?$AAn?$AAd?$AA_?$AAk?$AAe?$AAy?$AA?5?$AA?$CG?$AA?$CG?$AA?5?$AAd?$AAa?$AAt?$AAa?$AA?5?$AA?$CG?$AA?$CG?$AA?5?$AAs?$AAi?$AAz@ 0050b0e8     pjlib-i386-win32-vc8-debug:activesock.obj
 0003:0000d16c       ??_C@_1DM@PMMGBNAB@?$AAa?$AAs?$AAo?$AAc?$AAk?$AA?9?$AA?$DO?$AAa?$AAc?$AAc?$AAe?$AAp?$AAt?$AA_?$AAo?$AAp?$AA?$DN?$AA?$DN?$AA?$CI?$AA?$CI?$AAv?$AAo?$AAi?$AAd?$AA?5?$AA?$CK?$AA?$CJ?$AA0?$AA?$CJ?$AA?$AA@ 0050b16c     pjlib-i386-win32-vc8-debug:activesock.obj
 0003:0000d1e8       ??_C@_1EK@FDLHHEKP@?$AAt?$AAy?$AAp?$AAe?$AA?$DM?$AA?$DN?$AAP?$AAJ?$AA_?$AAQ?$AAO?$AAS?$AA_?$AAT?$AAY?$AAP?$AAE?$AA_?$AAC?$AAO?$AAN?$AAT?$AAR?$AAO?$AAL?$AA?5?$AA?$CG?$AA?$CG?$AA?5?$AAp?$AA_?$AAp@ 0050b1e8     pjlib-i386-win32-vc8-debug:sock_qos_common.obj
 0003:0000d240       ??_C@_1GM@MFANFNDE@?$AAd?$AA?3?$AA?2?$AAm?$AAy?$AAg?$AAi?$AAt?$AA?2?$AAp?$AAj?$AAp?$AAr?$AAo?$AAj?$AAe?$AAc?$AAt?$AA?9?$AA1?$AA?4?$AA4?$AA?2?$AAp?$AAj?$AAl?$AAi?$AAb?$AA?2?$AAs?$AAr?$AAc@ 0050b240     pjlib-i386-win32-vc8-debug:sock_qos_common.obj
 0003:0000d2c4       ??_C@_1CA@MBGCEBMK@?$AAp?$AAa?$AAr?$AAa?$AAm?$AA?5?$AA?$CG?$AA?$CG?$AA?5?$AAp?$AA_?$AAt?$AAy?$AAp?$AAe?$AA?$AA@ 0050b2c4     pjlib-i386-win32-vc8-debug:sock_qos_common.obj
 0003:0000d2ec       ??_C@_0CK@CGDCCPNL@Error?5setting?5QoS?5params?5?$CIflags?$DN@ 0050b2ec     pjlib-i386-win32-vc8-debug:sock_qos_common.obj
 0003:0000d320       ??_C@_0CA@EBJCMLJI@Error?5setting?5QoS?5type?5?$CFd?5to?5?$CFs?$AA@ 0050b320     pjlib-i386-win32-vc8-debug:sock_qos_common.obj
 0003:0000d348       ??_C@_06HBELJPBO@socket?$AA@ 0050b348     pjlib-i386-win32-vc8-debug:sock_qos_common.obj
 0003:0000d350       ??_C@_0BC@GPHMAKPK@sock_qos_common?4c?$AA@ 0050b350     pjlib-i386-win32-vc8-debug:sock_qos_common.obj
 0003:0000d368       ??_C@_1EI@LHIOBFFM@?$AAh?$AAo?$AAs?$AAt?$AAn?$AAa?$AAm?$AAe?$AA?5?$AA?$CG?$AA?$CG?$AA?5?$AAh?$AAo?$AAs?$AAt?$AAn?$AAa?$AAm?$AAe?$AA?5?$AA?9?$AA?$DO?$AAs?$AAl?$AAe?$AAn?$AA?5?$AA?$DM?$AA?5?$AA?$CI?$AA1@ 0050b368     pjlib-i386-win32-vc8-debug:addr_resolv_sock.obj
 0003:0000d3c0       ??_C@_1GO@CDNHLFLG@?$AAd?$AA?3?$AA?2?$AAm?$AAy?$AAg?$AAi?$AAt?$AA?2?$AAp?$AAj?$AAp?$AAr?$AAo?$AAj?$AAe?$AAc?$AAt?$AA?9?$AA1?$AA?4?$AA4?$AA?2?$AAp?$AAj?$AAl?$AAi?$AAb?$AA?2?$AAs?$AAr?$AAc@ 0050b3c0     pjlib-i386-win32-vc8-debug:addr_resolv_sock.obj
 0003:0000d444       ??_C@_1CA@LMDHKGAC@?$AAc?$AAo?$AAu?$AAn?$AAt?$AA?5?$AA?$CG?$AA?$CG?$AA?5?$AA?$CK?$AAc?$AAo?$AAu?$AAn?$AAt?$AA?$AA@ 0050b444     pjlib-i386-win32-vc8-debug:addr_resolv_sock.obj
 0003:0000d46c       ??_C@_1BK@HGDCMKGI@?$AAp?$AA_?$AAc?$AAn?$AAt?$AA?5?$AA?$CG?$AA?$CG?$AA?5?$AAi?$AAf?$AAs?$AA?$AA@ 0050b46c     pjlib-i386-win32-vc8-debug:ip_helper_win32.obj
 0003:0000d490       ??_C@_1GM@LOEKENEL@?$AAd?$AA?3?$AA?2?$AAm?$AAy?$AAg?$AAi?$AAt?$AA?2?$AAp?$AAj?$AAp?$AAr?$AAo?$AAj?$AAe?$AAc?$AAt?$AA?9?$AA1?$AA?4?$AA4?$AA?2?$AAp?$AAj?$AAl?$AAi?$AAb?$AA?2?$AAs?$AAr?$AAc@ 0050b490     pjlib-i386-win32-vc8-debug:ip_helper_win32.obj
 0003:0000d514       ??_C@_0P@PMIJPFPM@GetIpAddrTable?$AA@ 0050b514     pjlib-i386-win32-vc8-debug:ip_helper_win32.obj
 0003:0000d528       ??_C@_08PFPBFMIL@IpHlpApi?$AA@ 0050b528     pjlib-i386-win32-vc8-debug:ip_helper_win32.obj
 0003:0000d534       ??_C@_0L@BLHMKEDC@GetIfEntry?$AA@ 0050b534     pjlib-i386-win32-vc8-debug:ip_helper_win32.obj
 0003:0000d544       ??_C@_0BF@LHFCIIHE@GetAdaptersAddresses?$AA@ 0050b544     pjlib-i386-win32-vc8-debug:ip_helper_win32.obj
 0003:0000d560       ??_C@_1CA@PNMIBKCD@?$AAp?$AA_?$AAc?$AAn?$AAt?$AA?5?$AA?$CG?$AA?$CG?$AA?5?$AAr?$AAo?$AAu?$AAt?$AAe?$AAs?$AA?$AA@ 0050b560     pjlib-i386-win32-vc8-debug:ip_helper_win32.obj
 0003:0000d588       ??_C@_0BC@MNHJPEOP@GetIpForwardTable?$AA@ 0050b588     pjlib-i386-win32-vc8-debug:ip_helper_win32.obj
 0003:0000d5a0       ??_C@_1CO@MDLDAOGN@?$AAh?$AAa?$AAn?$AAd?$AAl?$AAe?$AAr?$AA?5?$AA?$CB?$AA?$DN?$AA?5?$AA?$CI?$AA?$CI?$AAv?$AAo?$AAi?$AAd?$AA?5?$AA?$CK?$AA?$CJ?$AA0?$AA?$CJ?$AA?$AA@ 0050b5a0     pjlib-i386-win32-vc8-debug:except.obj
 0003:0000d5d8       ??_C@_1FK@MAPNBBJE@?$AAd?$AA?3?$AA?2?$AAm?$AAy?$AAg?$AAi?$AAt?$AA?2?$AAp?$AAj?$AAp?$AAr?$AAo?$AAj?$AAe?$AAc?$AAt?$AA?9?$AA1?$AA?4?$AA4?$AA?2?$AAp?$AAj?$AAl?$AAi?$AAb?$AA?2?$AAs?$AAr?$AAc@ 0050b5d8     pjlib-i386-win32-vc8-debug:except.obj
 0003:0000d644       ??_C@_08PDFMOJIE@except?4c?$AA@ 0050b644     pjlib-i386-win32-vc8-debug:except.obj
 0003:0000d650       ??_C@_0CD@KFHCCJFN@?$CB?$CB?$CBFATAL?3?5unhandled?5exception?5?$CFs@ 0050b650     pjlib-i386-win32-vc8-debug:except.obj
 0003:0000d67c       ??_C@_1CM@CIICDJMC@?$AAt?$AAh?$AAr?$AAe?$AAa?$AAd?$AA_?$AAl?$AAo?$AAc?$AAa?$AAl?$AA_?$AAi?$AAd?$AA?5?$AA?$CB?$AA?$DN?$AA?5?$AA?9?$AA1?$AA?$AA@ 0050b67c     pjlib-i386-win32-vc8-debug:except.obj
 0003:0000d6b0       ??_C@_1BM@OONEPGEP@?$AAi?$AAd?$AA?$DO?$AA0?$AA?5?$AA?$CG?$AA?$CG?$AA?5?$AAi?$AAd?$AA?$DM?$AA1?$AA6?$AA?$AA@ 0050b6b0     pjlib-i386-win32-vc8-debug:except.obj
 0003:0000d6d4       ??_C@_0N@LJPLLMIL@exception?5?$CFd?$AA@ 0050b6d4     pjlib-i386-win32-vc8-debug:except.obj
 0003:0000d6e4       ??_C@_0N@GJOLEKJC@?$DMInvalid?5ID?$DO?$AA@ 0050b6e4     pjlib-i386-win32-vc8-debug:except.obj
 0003:0000d6f4       ??_C@_1BI@BGGDHCPA@?$AAb?$AAu?$AAf?$AA?5?$AA?$CG?$AA?$CG?$AA?5?$AAs?$AAi?$AAz?$AAe?$AA?$AA@ 0050b6f4     pjlib-i386-win32-vc8-debug:pool_buf.obj
 0003:0000d710       ??_C@_1FO@FCDKOOFF@?$AAd?$AA?3?$AA?2?$AAm?$AAy?$AAg?$AAi?$AAt?$AA?2?$AAp?$AAj?$AAp?$AAr?$AAo?$AAj?$AAe?$AAc?$AAt?$AA?9?$AA1?$AA?4?$AA4?$AA?2?$AAp?$AAj?$AAl?$AAi?$AAb?$AA?2?$AAs?$AAr?$AAc@ 0050b710     pjlib-i386-win32-vc8-debug:pool_buf.obj
 0003:0000d780       ??_C@_1CI@HJOGHDAN@?$AAs?$AAi?$AAz?$AAe?$AA?5?$AA?$DM?$AA?$DN?$AA?5?$AAp?$AAa?$AAr?$AAa?$AAm?$AA?9?$AA?$DO?$AAs?$AAi?$AAz?$AAe?$AA?$AA@ 0050b780     pjlib-i386-win32-vc8-debug:pool_buf.obj
 0003:0000d7b0       _PJ_GUID_STRING_LENGTH     0050b7b0     pjlib-i386-win32-vc8-debug:guid_win32.obj
 0003:0000d7b4       ??_C@_0DB@PJLEIDGO@d?3?2mygit?2pjproject?91?44?2pjlib?2src@ 0050b7b4     pjlib-i386-win32-vc8-debug:guid_win32.obj
 0003:0000d7f0       ??_C@_0DJ@OCCONKIP@d?3?2mygit?2pjproject?91?44?2pjlib?2src@ 0050b7f0     pjlib-i386-win32-vc8-debug:pool_policy_malloc.obj
 0003:0000d834       ??_C@_0DC@PCCAAGDK@d?3?2mygit?2pjproject?91?44?2pjlib?2src@ 0050b834     pjlib-i386-win32-vc8-debug:sock_select.obj
 0003:0000d870       ??_C@_1O@GKDHFACN@?$AAp?$AAr?$AAi?$AAn?$AAt?$AAf?$AA?$AA@ 0050b870     LIBCMTD:printf.obj
 0003:0000d880       ??_C@_1BC@BHLBENIK@?$AAp?$AAr?$AAi?$AAn?$AAt?$AAf?$AA?4?$AAc?$AA?$AA@ 0050b880     LIBCMTD:printf.obj
 0003:0000d898       ??_C@_1CC@MGIEJOME@?$AA?$CI?$AAf?$AAo?$AAr?$AAm?$AAa?$AAt?$AA?5?$AA?$CB?$AA?$DN?$AA?5?$AAN?$AAU?$AAL?$AAL?$AA?$CJ?$AA?$AA@ 0050b898     LIBCMTD:printf.obj
 0003:0000d8c0       ??_C@_1BAE@CBLKKPB@?$AA?$CI?$AA?5?$AA?$CI?$AA_?$AAS?$AAt?$AAr?$AAe?$AAa?$AAm?$AA?9?$AA?$DO?$AA_?$AAf?$AAl?$AAa?$AAg?$AA?5?$AA?$CG?$AA?5?$AA_?$AAI?$AAO?$AAS?$AAT?$AAR?$AAG?$AA?$CJ?$AA?5?$AA?$HM?$AA?$HM?$AA?5@ 0050b8c0     LIBCMTD:puts.obj
 0003:0000d9f8       ??_C@_19OHLFMNEA@?$AAp?$AAu?$AAt?$AAs?$AA?$AA@ 0050b9f8     LIBCMTD:puts.obj
 0003:0000da04       ??_C@_1O@LBIKEMKD@?$AAp?$AAu?$AAt?$AAs?$AA?4?$AAc?$AA?$AA@ 0050ba04     LIBCMTD:puts.obj
 0003:0000da14       ??_C@_1CC@OLIJCKA@?$AA?$CI?$AAs?$AAt?$AAr?$AAi?$AAn?$AAg?$AA?5?$AA?$CB?$AA?$DN?$AA?5?$AAN?$AAU?$AAL?$AAL?$AA?$CJ?$AA?$AA@ 0050ba14     LIBCMTD:puts.obj
 0003:0000da3c       ??_C@_0P@MIGLKIOC@CorExitProcess?$AA@ 0050ba3c     LIBCMTD:crt0dat.obj
 0003:0000da50       ??_C@_0M@MBOPBNBK@mscoree?4dll?$AA@ 0050ba50     LIBCMTD:crt0dat.obj
 0003:0000da60       ??_C@_1BO@PCPNBEJP@?$AA_?$AAo?$AAs?$AAp?$AAl?$AAa?$AAt?$AAf?$AAo?$AAr?$AAm?$AA?$CB?$AA?$DN?$AA0?$AA?$AA@ 0050ba60     LIBCMTD:crt0dat.obj
 0003:0000da84       ??_C@_1CA@HBJLODAG@?$AA_?$AAg?$AAe?$AAt?$AA_?$AAo?$AAs?$AAp?$AAl?$AAa?$AAt?$AAf?$AAo?$AAr?$AAm?$AA?$AA@ 0050ba84     LIBCMTD:crt0dat.obj
 0003:0000daac       ??_C@_1BE@DFOEAGLM@?$AAc?$AAr?$AAt?$AA0?$AAd?$AAa?$AAt?$AA?4?$AAc?$AA?$AA@ 0050baac     LIBCMTD:crt0dat.obj
 0003:0000dac4       ??_C@_1BO@LKEBEKJP@?$AAp?$AAV?$AAa?$AAl?$AAu?$AAe?$AA?5?$AA?$CB?$AA?$DN?$AA?5?$AAN?$AAU?$AAL?$AAL?$AA?$AA@ 0050bac4     LIBCMTD:crt0dat.obj
 0003:0000dae8       ??_C@_1BG@OLMEODBO@?$AA_?$AAg?$AAe?$AAt?$AA_?$AAo?$AAs?$AAv?$AAe?$AAr?$AA?$AA@ 0050bae8     LIBCMTD:crt0dat.obj
 0003:0000db04       ??_C@_1BI@EHCOONPO@?$AA_?$AAg?$AAe?$AAt?$AA_?$AAw?$AAi?$AAn?$AAv?$AAe?$AAr?$AA?$AA@ 0050bb04     LIBCMTD:crt0dat.obj
 0003:0000db20       ??_C@_1BM@MHJHOJPG@?$AA_?$AAg?$AAe?$AAt?$AA_?$AAw?$AAi?$AAn?$AAm?$AAa?$AAj?$AAo?$AAr?$AA?$AA@ 0050bb20     LIBCMTD:crt0dat.obj
 0003:0000db44       ??_C@_1BM@FAAKKHPI@?$AA_?$AAg?$AAe?$AAt?$AA_?$AAw?$AAi?$AAn?$AAm?$AAi?$AAn?$AAo?$AAr?$AA?$AA@ 0050bb44     LIBCMTD:crt0dat.obj
 0003:0000db68       ??_C@_1CC@CDIPMFPD@?$AA_?$AAw?$AAp?$AAg?$AAm?$AAp?$AAt?$AAr?$AA?5?$AA?$CB?$AA?$DN?$AA?5?$AAN?$AAU?$AAL?$AAL?$AA?$AA@ 0050bb68     LIBCMTD:crt0dat.obj
 0003:0000db90       ??_C@_1BK@PNLDCCDP@?$AA_?$AAg?$AAe?$AAt?$AA_?$AAw?$AAp?$AAg?$AAm?$AAp?$AAt?$AAr?$AA?$AA@ 0050bb90     LIBCMTD:crt0dat.obj
 0003:0000dbb0       ??_C@_1CA@BBNAFCKO@?$AA_?$AAp?$AAg?$AAm?$AAp?$AAt?$AAr?$AA?5?$AA?$CB?$AA?$DN?$AA?5?$AAN?$AAU?$AAL?$AAL?$AA?$AA@ 0050bbb0     LIBCMTD:crt0dat.obj
 0003:0000dbd8       ??_C@_1BI@COAAPHJK@?$AA_?$AAg?$AAe?$AAt?$AA_?$AAp?$AAg?$AAm?$AAp?$AAt?$AAr?$AA?$AA@ 0050bbd8     LIBCMTD:crt0dat.obj
 0003:0000dbf4       ??_C@_1O@EGMJNCOI@?$AAf?$AAc?$AAl?$AAo?$AAs?$AAe?$AA?$AA@ 0050bbf4     LIBCMTD:fclose.obj
 0003:0000dc04       ??_C@_1BC@MHEDMIA@?$AAf?$AAc?$AAl?$AAo?$AAs?$AAe?$AA?4?$AAc?$AA?$AA@ 0050bc04     LIBCMTD:fclose.obj
 0003:0000dc1c       ??_C@_1CC@FADMNIL@?$AA?$CI?$AAs?$AAt?$AAr?$AAe?$AAa?$AAm?$AA?5?$AA?$CB?$AA?$DN?$AA?5?$AAN?$AAU?$AAL?$AAL?$AA?$CJ?$AA?$AA@ 0050bc1c     LIBCMTD:fclose.obj
 0003:0000dc44       ??_C@_1BO@JINCABEC@?$AA_?$AAf?$AAc?$AAl?$AAo?$AAs?$AAe?$AA_?$AAn?$AAo?$AAl?$AAo?$AAc?$AAk?$AA?$AA@ 0050bc44     LIBCMTD:fclose.obj
 0003:0000dc68       ??_C@_1BM@JMKHIAHP@?$AA?$CI?$AAs?$AAt?$AAr?$AA?5?$AA?$CB?$AA?$DN?$AA?5?$AAN?$AAU?$AAL?$AAL?$AA?$CJ?$AA?$AA@ 0050bc68     LIBCMTD:fclose.obj
 0003:0000dc8c       ??_C@_1CI@HBNALCBB@?$AA?$CI?$AA?$CK?$AAm?$AAo?$AAd?$AAe?$AA?5?$AA?$CB?$AA?$DN?$AA?5?$AA_?$AAT?$AA?$CI?$AA?8?$AA?2?$AA0?$AA?8?$AA?$CJ?$AA?$CJ?$AA?$AA@ 0050bc8c     LIBCMTD:fopen.obj
 0003:0000dcbc       ??_C@_1BO@MJMKAKCJ@?$AA?$CI?$AAm?$AAo?$AAd?$AAe?$AA?5?$AA?$CB?$AA?$DN?$AA?5?$AAN?$AAU?$AAL?$AAL?$AA?$CJ?$AA?$AA@ 0050bcbc     LIBCMTD:fopen.obj
 0003:0000dce0       ??_C@_1BA@HNEAFMNL@?$AA_?$AAf?$AAs?$AAo?$AAp?$AAe?$AAn?$AA?$AA@ 0050bce0     LIBCMTD:fopen.obj
 0003:0000dcf4       ??_C@_1BA@GBANKLPE@?$AAf?$AAo?$AAp?$AAe?$AAn?$AA?4?$AAc?$AA?$AA@ 0050bcf4     LIBCMTD:fopen.obj
 0003:0000dd08       ??_C@_1BO@CLGIAEOJ@?$AA?$CI?$AAf?$AAi?$AAl?$AAe?$AA?5?$AA?$CB?$AA?$DN?$AA?5?$AAN?$AAU?$AAL?$AAL?$AA?$CJ?$AA?$AA@ 0050bd08     LIBCMTD:fopen.obj
 0003:0000dd2c       ??_C@_1BA@PBGKCCAP@?$AAf?$AAo?$AAp?$AAe?$AAn?$AA_?$AAs?$AA?$AA@ 0050bd2c     LIBCMTD:fopen.obj
 0003:0000dd40       ??_C@_1CA@LLJLFCDN@?$AA?$CI?$AAp?$AAf?$AAi?$AAl?$AAe?$AA?5?$AA?$CB?$AA?$DN?$AA?5?$AAN?$AAU?$AAL?$AAL?$AA?$CJ?$AA?$AA@ 0050bd40     LIBCMTD:fopen.obj
 0003:0000dd68       ??_C@_15IABLJNFO@?$AA?6?$AA?6?$AA?$AA@ 0050bd68     LIBCMTD:wassert.obj
 0003:0000dd70       ??_C@_13LBAGMAIH@?$AA?6?$AA?$AA@ 0050bd70     LIBCMTD:wassert.obj
 0003:0000dd74       ??_C@_17LGKOMLJ@?$AA?4?$AA?4?$AA?4?$AA?$AA@ 0050bd74     LIBCMTD:wassert.obj
 0003:0000dd80       ??_C@_1EK@MBDPDCGA@?$AAM?$AAi?$AAc?$AAr?$AAo?$AAs?$AAo?$AAf?$AAt?$AA?5?$AAV?$AAi?$AAs?$AAu?$AAa?$AAl?$AA?5?$AAC?$AA?$CL?$AA?$CL?$AA?5?$AAR?$AAu?$AAn?$AAt?$AAi?$AAm?$AAe?$AA?5?$AAL?$AAi?$AAb@ 0050bd80     LIBCMTD:wassert.obj
 0003:0000ddd8       ??_C@_1HK@POCJMFGK@?$AA?$CI?$AAP?$AAr?$AAe?$AAs?$AAs?$AA?5?$AAR?$AAe?$AAt?$AAr?$AAy?$AA?5?$AAt?$AAo?$AA?5?$AAd?$AAe?$AAb?$AAu?$AAg?$AA?5?$AAt?$AAh?$AAe?$AA?5?$AAa?$AAp?$AAp?$AAl?$AAi?$AAc@ 0050bdd8     LIBCMTD:wassert.obj
 0003:0000de70       ??_C@_1LO@HBAMOOPN@?$AAw?$AAc?$AAs?$AAc?$AAa?$AAt?$AA_?$AAs?$AA?$CI?$AAa?$AAs?$AAs?$AAe?$AAr?$AAt?$AAb?$AAu?$AAf?$AA?0?$AA?5?$AA?$CI?$AA6?$AA0?$AA?5?$AA?$CK?$AA?5?$AA9?$AA?$CJ?$AA?0?$AA?5?$AAL?$AA?$CC@ 0050be70     LIBCMTD:wassert.obj
 0003:0000df58       ??_C@_1FG@GMPCGFKH@?$AAw?$AAc?$AAs?$AAc?$AAa?$AAt?$AA_?$AAs?$AA?$CI?$AAa?$AAs?$AAs?$AAe?$AAr?$AAt?$AAb?$AAu?$AAf?$AA?0?$AA?5?$AA?$CI?$AA6?$AA0?$AA?5?$AA?$CK?$AA?5?$AA9?$AA?$CJ?$AA?0?$AA?5?$AAd?$AAb@ 0050bf58     LIBCMTD:wassert.obj
 0003:0000dfc0       ??_C@_1OA@EGMLFBHJ@?$AAF?$AAo?$AAr?$AA?5?$AAi?$AAn?$AAf?$AAo?$AAr?$AAm?$AAa?$AAt?$AAi?$AAo?$AAn?$AA?5?$AAo?$AAn?$AA?5?$AAh?$AAo?$AAw?$AA?5?$AAy?$AAo?$AAu?$AAr?$AA?5?$AAp?$AAr?$AAo?$AAg@ 0050bfc0     LIBCMTD:wassert.obj
 0003:0000e0d0       ??_C@_1BCO@FMFFDPPF@?$AAw?$AAc?$AAs?$AAc?$AAa?$AAt?$AA_?$AAs?$AA?$CI?$AAa?$AAs?$AAs?$AAe?$AAr?$AAt?$AAb?$AAu?$AAf?$AA?0?$AA?5?$AA?$CI?$AA6?$AA0?$AA?5?$AA?$CK?$AA?5?$AA9?$AA?$CJ?$AA?0?$AA?5?$AAL?$AA?$CC@ 0050c0d0     LIBCMTD:wassert.obj
 0003:0000e240       ??_C@_1EM@MBEKCGIC@?$AAw?$AAc?$AAs?$AAc?$AAa?$AAt?$AA_?$AAs?$AA?$CI?$AA?5?$AAa?$AAs?$AAs?$AAe?$AAr?$AAt?$AAb?$AAu?$AAf?$AA?0?$AA?5?$AA?$CI?$AA6?$AA0?$AA?5?$AA?$CK?$AA?5?$AA9?$AA?$CJ?$AA?0?$AA?5?$AAe@ 0050c240     LIBCMTD:wassert.obj
 0003:0000e2a0       ??_C@_1CHM@CEIMNDLH@?$AAw?$AAc?$AAs?$AAn?$AAc?$AAa?$AAt?$AA_?$AAs?$AA?$CI?$AA?5?$AAa?$AAs?$AAs?$AAe?$AAr?$AAt?$AAb?$AAu?$AAf?$AA?0?$AA?5?$AA?$CI?$AA6?$AA0?$AA?5?$AA?$CK?$AA?5?$AA9?$AA?$CJ?$AA?0?$AA?5@ 0050c2a0     LIBCMTD:wassert.obj
 0003:0000e59c       ??_C@_1BK@PEDCIPMA@?$AAE?$AAx?$AAp?$AAr?$AAe?$AAs?$AAs?$AAi?$AAo?$AAn?$AA?3?$AA?5?$AA?$AA@ 0050c59c     LIBCMTD:wassert.obj
 0003:0000e5c0       ??_C@_1GC@HOBBPFHJ@?$AAw?$AAc?$AAs?$AAc?$AAa?$AAt?$AA_?$AAs?$AA?$CI?$AA?5?$AAa?$AAs?$AAs?$AAe?$AAr?$AAt?$AAb?$AAu?$AAf?$AA?0?$AA?5?$AA?$CI?$AA6?$AA0?$AA?5?$AA?$CK?$AA?5?$AA9?$AA?$CJ?$AA?0?$AA?5?$AAL@ 0050c5c0     LIBCMTD:wassert.obj
 0003:0000e638       ??_C@_1KG@CFEIMPNH@?$AA_?$AAi?$AAt?$AAo?$AAw?$AA_?$AAs?$AA?$CI?$AA?5?$AAl?$AAi?$AAn?$AAe?$AAn?$AAo?$AA?0?$AA?5?$AAa?$AAs?$AAs?$AAe?$AAr?$AAt?$AAb?$AAu?$AAf?$AA?5?$AA?$CL?$AA?5?$AAw?$AAc?$AAs@ 0050c638     LIBCMTD:wassert.obj
 0003:0000e700       ??_C@_1O@KCAFKHJE@?$AAL?$AAi?$AAn?$AAe?$AA?3?$AA?5?$AA?$AA@ 0050c700     LIBCMTD:wassert.obj
 0003:0000e710       ??_C@_1FG@NHDGJLMI@?$AAw?$AAc?$AAs?$AAc?$AAa?$AAt?$AA_?$AAs?$AA?$CI?$AA?5?$AAa?$AAs?$AAs?$AAe?$AAr?$AAt?$AAb?$AAu?$AAf?$AA?0?$AA?5?$AA?$CI?$AA6?$AA0?$AA?5?$AA?$CK?$AA?5?$AA9?$AA?$CJ?$AA?0?$AA?5?$AAL@ 0050c710     LIBCMTD:wassert.obj
 0003:0000e778       ??_C@_1FE@IIFBBPFI@?$AAw?$AAc?$AAs?$AAc?$AAa?$AAt?$AA_?$AAs?$AA?$CI?$AA?5?$AAa?$AAs?$AAs?$AAe?$AAr?$AAt?$AAb?$AAu?$AAf?$AA?0?$AA?5?$AA?$CI?$AA6?$AA0?$AA?5?$AA?$CK?$AA?5?$AA9?$AA?$CJ?$AA?0?$AA?5?$AAf@ 0050c778     LIBCMTD:wassert.obj
 0003:0000e7e0       ??_C@_1IC@CFFJBMAD@?$AAw?$AAc?$AAs?$AAc?$AAa?$AAt?$AA_?$AAs?$AA?$CI?$AA?5?$AAa?$AAs?$AAs?$AAe?$AAr?$AAt?$AAb?$AAu?$AAf?$AA?0?$AA?5?$AA?$CI?$AA6?$AA0?$AA?5?$AA?$CK?$AA?5?$AA9?$AA?$CJ?$AA?0?$AA?5?$AAp@ 0050c7e0     LIBCMTD:wassert.obj
 0003:0000e880       ??_C@_1HG@OJJMBIKO@?$AAw?$AAc?$AAs?$AAn?$AAc?$AAa?$AAt?$AA_?$AAs?$AA?$CI?$AA?5?$AAa?$AAs?$AAs?$AAe?$AAr?$AAt?$AAb?$AAu?$AAf?$AA?0?$AA?5?$AA?$CI?$AA6?$AA0?$AA?5?$AA?$CK?$AA?5?$AA9?$AA?$CJ?$AA?0?$AA?5@ 0050c880     LIBCMTD:wassert.obj
 0003:0000e910       ??_C@_1GO@BIHLMMND@?$AAw?$AAc?$AAs?$AAn?$AAc?$AAa?$AAt?$AA_?$AAs?$AA?$CI?$AA?5?$AAa?$AAs?$AAs?$AAe?$AAr?$AAt?$AAb?$AAu?$AAf?$AA?0?$AA?5?$AA?$CI?$AA6?$AA0?$AA?5?$AA?$CK?$AA?5?$AA9?$AA?$CJ?$AA?0?$AA?5@ 0050c910     LIBCMTD:wassert.obj
 0003:0000e998       ??_C@_1FO@IJLLDBEB@?$AAw?$AAc?$AAs?$AAc?$AAa?$AAt?$AA_?$AAs?$AA?$CI?$AA?5?$AAa?$AAs?$AAs?$AAe?$AAr?$AAt?$AAb?$AAu?$AAf?$AA?0?$AA?5?$AA?$CI?$AA6?$AA0?$AA?5?$AA?$CK?$AA?5?$AA9?$AA?$CJ?$AA?0?$AA?5?$AAp@ 0050c998     LIBCMTD:wassert.obj
 0003:0000ea08       ??_C@_1FG@CLEECKIJ@?$AAw?$AAc?$AAs?$AAc?$AAa?$AAt?$AA_?$AAs?$AA?$CI?$AA?5?$AAa?$AAs?$AAs?$AAe?$AAr?$AAt?$AAb?$AAu?$AAf?$AA?0?$AA?5?$AA?$CI?$AA6?$AA0?$AA?5?$AA?$CK?$AA?5?$AA9?$AA?$CJ?$AA?0?$AA?5?$AAd@ 0050ca08     LIBCMTD:wassert.obj
 0003:0000ea70       ??_C@_1GG@PMHOPJKA@?$AAw?$AAc?$AAs?$AAn?$AAc?$AAa?$AAt?$AA_?$AAs?$AA?$CI?$AA?5?$AAa?$AAs?$AAs?$AAe?$AAr?$AAt?$AAb?$AAu?$AAf?$AA?0?$AA?5?$AA?$CI?$AA6?$AA0?$AA?5?$AA?$CK?$AA?5?$AA9?$AA?$CJ?$AA?0?$AA?5@ 0050ca70     LIBCMTD:wassert.obj
 0003:0000eaec       ??_C@_1O@HEMHKNDC@?$AAF?$AAi?$AAl?$AAe?$AA?3?$AA?5?$AA?$AA@ 0050caec     LIBCMTD:wassert.obj
 0003:0000eb00       ??_C@_1FG@HIDBOJF@?$AAw?$AAc?$AAs?$AAc?$AAa?$AAt?$AA_?$AAs?$AA?$CI?$AA?5?$AAa?$AAs?$AAs?$AAe?$AAr?$AAt?$AAb?$AAu?$AAf?$AA?0?$AA?5?$AA?$CI?$AA6?$AA0?$AA?5?$AA?$CK?$AA?5?$AA9?$AA?$CJ?$AA?0?$AA?5?$AAL@ 0050cb00     LIBCMTD:wassert.obj
 0003:0000eb68       ??_C@_1FC@FFKGGIKO@?$AAw?$AAc?$AAs?$AAc?$AAa?$AAt?$AA_?$AAs?$AA?$CI?$AA?5?$AAa?$AAs?$AAs?$AAe?$AAr?$AAt?$AAb?$AAu?$AAf?$AA?0?$AA?5?$AA?$CI?$AA6?$AA0?$AA?5?$AA?$CK?$AA?5?$AA9?$AA?$CJ?$AA?0?$AA?5?$AAn@ 0050cb68     LIBCMTD:wassert.obj
 0003:0000ebd0       ??_C@_1EK@BDNABPEK@?$AAw?$AAc?$AAs?$AAc?$AAa?$AAt?$AA_?$AAs?$AA?$CI?$AA?5?$AAa?$AAs?$AAs?$AAe?$AAr?$AAt?$AAb?$AAu?$AAf?$AA?0?$AA?5?$AA?$CI?$AA6?$AA0?$AA?5?$AA?$CK?$AA?5?$AA9?$AA?$CJ?$AA?0?$AA?5?$AAp@ 0050cbd0     LIBCMTD:wassert.obj
 0003:0000ec28       ??_C@_1HK@JKBDGMGN@?$AAw?$AAc?$AAs?$AAn?$AAc?$AAp?$AAy?$AA_?$AAs?$AA?$CI?$AA?5?$AAp?$AAc?$AAh?$AA?0?$AA?5?$AA?$CI?$AA2?$AA6?$AA0?$AA?5?$AA?$CL?$AA?5?$AA1?$AA?$CJ?$AA?5?$AA?9?$AA?5?$AA?$CI?$AAp?$AAc?$AAh@ 0050cc28     LIBCMTD:wassert.obj
 0003:0000ecbc       ??_C@_1CO@EAEJAADC@?$AA?$DM?$AAp?$AAr?$AAo?$AAg?$AAr?$AAa?$AAm?$AA?5?$AAn?$AAa?$AAm?$AAe?$AA?5?$AAu?$AAn?$AAk?$AAn?$AAo?$AAw?$AAn?$AA?$DO?$AA?$AA@ 0050ccbc     LIBCMTD:wassert.obj
 0003:0000ecf8       ??_C@_1HA@EPFCONEE@?$AAw?$AAc?$AAs?$AAc?$AAp?$AAy?$AA_?$AAs?$AA?$CI?$AA?5?$AAp?$AAr?$AAo?$AAg?$AAn?$AAa?$AAm?$AAe?$AA?0?$AA?5?$AA2?$AA6?$AA0?$AA?5?$AA?$CL?$AA?5?$AA1?$AA?0?$AA?5?$AAL?$AA?$CC?$AA?$DM@ 0050ccf8     LIBCMTD:wassert.obj
 0003:0000ed80       ??_C@_1BE@PHKBBGE@?$AAP?$AAr?$AAo?$AAg?$AAr?$AAa?$AAm?$AA?3?$AA?5?$AA?$AA@ 0050cd80     LIBCMTD:wassert.obj
 0003:0000ed98       ??_C@_1FM@LKICECBD@?$AAw?$AAc?$AAs?$AAc?$AAa?$AAt?$AA_?$AAs?$AA?$CI?$AA?5?$AAa?$AAs?$AAs?$AAe?$AAr?$AAt?$AAb?$AAu?$AAf?$AA?0?$AA?5?$AA?$CI?$AA6?$AA0?$AA?5?$AA?$CK?$AA?5?$AA9?$AA?$CJ?$AA?0?$AA?5?$AAL@ 0050cd98     LIBCMTD:wassert.obj
 0003:0000ee08       ??_C@_1FI@JIGMFG@?$AAw?$AAc?$AAs?$AAc?$AAa?$AAt?$AA_?$AAs?$AA?$CI?$AA?5?$AAa?$AAs?$AAs?$AAe?$AAr?$AAt?$AAb?$AAu?$AAf?$AA?0?$AA?5?$AA?$CI?$AA6?$AA0?$AA?5?$AA?$CK?$AA?5?$AA9?$AA?$CJ?$AA?0?$AA?5?$AAd@ 0050ce08     LIBCMTD:wassert.obj
 0003:0000ee74       ??_C@_1CE@OJBNHDMO@?$AAA?$AAs?$AAs?$AAe?$AAr?$AAt?$AAi?$AAo?$AAn?$AA?5?$AAf?$AAa?$AAi?$AAl?$AAe?$AAd?$AA?$CB?$AA?$AA@ 0050ce74     LIBCMTD:wassert.obj
 0003:0000eea0       ??_C@_1GM@EFCJNBAA@?$AAw?$AAc?$AAs?$AAc?$AAp?$AAy?$AA_?$AAs?$AA?$CI?$AA?5?$AAa?$AAs?$AAs?$AAe?$AAr?$AAt?$AAb?$AAu?$AAf?$AA?0?$AA?5?$AA?$CI?$AA6?$AA0?$AA?5?$AA?$CK?$AA?5?$AA9?$AA?$CJ?$AA?0?$AA?5?$AAL@ 0050cea0     LIBCMTD:wassert.obj
 0003:0000ef24       ??_C@_0CG@KNFFOMBO@Filename?5cannot?5be?5displayed?5on?5@ 0050cf24     LIBCMTD:wassert.obj
 0003:0000ef58       ??_C@_1IG@IGPDOJOE@?$AAs?$AAt?$AAr?$AAc?$AAp?$AAy?$AA_?$AAs?$AA?$CI?$AAa?$AAe?$AAx?$AAp?$AAr?$AA?0?$AA?5?$AA?$CI?$AA6?$AA0?$AA?5?$AA?$CK?$AA?5?$AA9?$AA?$CJ?$AA?0?$AA?5?$AA?$CC?$AAF?$AAi?$AAl?$AAe?$AAn@ 0050cf58     LIBCMTD:wassert.obj
 0003:0000eff8       ??_C@_1EK@EDAIPDBP@?$AAs?$AAt?$AAr?$AAc?$AAa?$AAt?$AA_?$AAs?$AA?$CI?$AAa?$AAf?$AAi?$AAl?$AAe?$AAn?$AAa?$AAm?$AAe?$AA?0?$AA?5?$AA?$CI?$AA6?$AA0?$AA?5?$AA?$CK?$AA?5?$AA9?$AA?$CJ?$AA?0?$AA?5?$AA?$CC?$AA?4@ 0050cff8     LIBCMTD:wassert.obj
 0003:0000f050       ??_C@_1IK@MDEEAGJC@?$AAw?$AAc?$AAs?$AAt?$AAo?$AAm?$AAb?$AAs?$AA_?$AAs?$AA?$CI?$AA?$CI?$AA?$CI?$AAv?$AAo?$AAi?$AAd?$AA?5?$AA?$CK?$AA?$CJ?$AA0?$AA?$CJ?$AA?0?$AA?5?$AAa?$AAf?$AAi?$AAl?$AAe?$AAn?$AAa?$AAm@ 0050d050     LIBCMTD:wassert.obj
 0003:0000f0f8       ??_C@_0CI@FDIHEIE@Expression?5cannot?5be?5displayed?5o@ 0050d0f8     LIBCMTD:wassert.obj
 0003:0000f128       ??_C@_1IK@ONGNJJEH@?$AAs?$AAt?$AAr?$AAc?$AAp?$AAy?$AA_?$AAs?$AA?$CI?$AAa?$AAe?$AAx?$AAp?$AAr?$AA?0?$AA?5?$AA?$CI?$AA6?$AA0?$AA?5?$AA?$CK?$AA?5?$AA9?$AA?$CJ?$AA?0?$AA?5?$AA?$CC?$AAE?$AAx?$AAp?$AAr?$AAe@ 0050d128     LIBCMTD:wassert.obj
 0003:0000f1d0       ??_C@_03KHICJKCI@?4?4?4?$AA@ 0050d1d0     LIBCMTD:wassert.obj
 0003:0000f1d8       ??_C@_1EC@IFDALDOK@?$AAs?$AAt?$AAr?$AAc?$AAa?$AAt?$AA_?$AAs?$AA?$CI?$AAa?$AAe?$AAx?$AAp?$AAr?$AA?0?$AA?5?$AA?$CI?$AA6?$AA0?$AA?5?$AA?$CK?$AA?5?$AA9?$AA?$CJ?$AA?0?$AA?5?$AA?$CC?$AA?4?$AA?4?$AA?4?$AA?$CC?$AA?$CJ@ 0050d1d8     LIBCMTD:wassert.obj
 0003:0000f228       ??_C@_1HK@ENOPLEGF@?$AAw?$AAc?$AAs?$AAt?$AAo?$AAm?$AAb?$AAs?$AA_?$AAs?$AA?$CI?$AA?$CI?$AA?$CI?$AAv?$AAo?$AAi?$AAd?$AA?5?$AA?$CK?$AA?$CJ?$AA0?$AA?$CJ?$AA?0?$AA?5?$AAa?$AAe?$AAx?$AAp?$AAr?$AA?0?$AA?5?$AA?$CI@ 0050d228     LIBCMTD:wassert.obj
 0003:0000f2bc       ??_C@_1BC@LNOOMFNA@?$AA_?$AAw?$AAa?$AAs?$AAs?$AAe?$AAr?$AAt?$AA?$AA@ 0050d2bc     LIBCMTD:wassert.obj
 0003:0000f2d8       ??_C@_1GA@PJFCHOLB@?$AAf?$AA?3?$AA?2?$AAs?$AAp?$AA?2?$AAv?$AAc?$AAt?$AAo?$AAo?$AAl?$AAs?$AA?2?$AAc?$AAr?$AAt?$AA_?$AAb?$AAl?$AAd?$AA?2?$AAs?$AAe?$AAl?$AAf?$AA_?$AAx?$AA8?$AA6?$AA?2?$AAc@ 0050d2d8     LIBCMTD:wassert.obj
 0003:0000f34c       ??_C@_1O@KLNKIMAP@?$AAf?$AAw?$AAr?$AAi?$AAt?$AAe?$AA?$AA@ 0050d34c     LIBCMTD:fwrite.obj
 0003:0000f35c       ??_C@_1BC@JOKKJJOM@?$AAf?$AAw?$AAr?$AAi?$AAt?$AAe?$AA?4?$AAc?$AA?$AA@ 0050d35c     LIBCMTD:fwrite.obj
 0003:0000f378       ??_C@_1LG@DCNDJCHK@?$AA?$CI?$AA?$CC?$AAI?$AAn?$AAc?$AAo?$AAn?$AAs?$AAi?$AAs?$AAt?$AAe?$AAn?$AAt?$AA?5?$AAS?$AAt?$AAr?$AAe?$AAa?$AAm?$AA?5?$AAC?$AAo?$AAu?$AAn?$AAt?$AA?4?$AA?5?$AAF?$AAl?$AAu@ 0050d378     LIBCMTD:fwrite.obj
 0003:0000f454       ??_C@_1DC@FHEPNAPF@?$AAn?$AAu?$AAm?$AA?5?$AA?$DM?$AA?$DN?$AA?5?$AA?$CI?$AAS?$AAI?$AAZ?$AAE?$AA_?$AAM?$AAA?$AAX?$AA?5?$AA?1?$AA?5?$AAs?$AAi?$AAz?$AAe?$AA?$CJ?$AA?$AA@ 0050d454     LIBCMTD:fwrite.obj
 0003:0000f490       ??_C@_1CC@CGFEEBMC@?$AA?$CI?$AAb?$AAu?$AAf?$AAf?$AAe?$AAr?$AA?5?$AA?$CB?$AA?$DN?$AA?5?$AAN?$AAU?$AAL?$AAL?$AA?$CJ?$AA?$AA@ 0050d490     LIBCMTD:fwrite.obj
 0003:0000f4b8       ??_C@_1BO@JGPKCBCE@?$AA_?$AAf?$AAw?$AAr?$AAi?$AAt?$AAe?$AA_?$AAn?$AAo?$AAl?$AAo?$AAc?$AAk?$AA?$AA@ 0050d4b8     LIBCMTD:fwrite.obj
 0003:0000f4dc       ??_C@_1CA@EHPEFHFN@?$AA?$CI?$AA?5?$AAs?$AAt?$AAr?$AA?5?$AA?$CB?$AA?$DN?$AA?5?$AAN?$AAU?$AAL?$AAL?$AA?5?$AA?$CJ?$AA?$AA@ 0050d4dc     LIBCMTD:fgets.obj
 0003:0000f504       ??_C@_1BO@CLMMCNLO@?$AA?$CI?$AA?5?$AAc?$AAo?$AAu?$AAn?$AAt?$AA?5?$AA?$DO?$AA?$DN?$AA?5?$AA0?$AA?5?$AA?$CJ?$AA?$AA@ 0050d504     LIBCMTD:fgets.obj
 0003:0000f528       ??_C@_1M@BEMABAL@?$AAf?$AAg?$AAe?$AAt?$AAs?$AA?$AA@ 0050d528     LIBCMTD:fgets.obj
 0003:0000f538       ??_C@_1BA@OJDNOBAC@?$AAf?$AAg?$AAe?$AAt?$AAs?$AA?4?$AAc?$AA?$AA@ 0050d538     LIBCMTD:fgets.obj
 0003:0000f550       ??_C@_1EK@KICPAPCG@?$AA?$CI?$AA?5?$AAs?$AAt?$AAr?$AAi?$AAn?$AAg?$AA?5?$AA?$CB?$AA?$DN?$AA?5?$AAN?$AAU?$AAL?$AAL?$AA?5?$AA?$CJ?$AA?5?$AA?$HM?$AA?$HM?$AA?5?$AA?$CI?$AA?5?$AAc?$AAo?$AAu?$AAn?$AAt?$AA?5?$AA?$DN?$AA?$DN@ 0050d550     LIBCMTD:fgets.obj
 0003:0000f5a8       ??_C@_07PNHPCIEC@_file?4c?$AA@ 0050d5a8     LIBCMTD:_file.obj
 0003:0000f5b4       ?ProcessDetach@NativeDll@<CrtImplementationDetails>@@0IB 0050d5b4     LIBCMTD:tolower.obj
 0003:0000f5b8       ?ProcessAttach@NativeDll@<CrtImplementationDetails>@@0IB 0050d5b8     LIBCMTD:tolower.obj
 0003:0000f5bc       ?ThreadAttach@NativeDll@<CrtImplementationDetails>@@0IB 0050d5bc     LIBCMTD:tolower.obj
 0003:0000f5c0       ?ThreadDetach@NativeDll@<CrtImplementationDetails>@@0IB 0050d5c0     LIBCMTD:tolower.obj
 0003:0000f5c4       ?ProcessVerifier@NativeDll@<CrtImplementationDetails>@@0IB 0050d5c4     LIBCMTD:tolower.obj
 0003:0000f5c8       ??_C@_1EC@FABAOFFO@?$AA?$CI?$AAc?$AAo?$AAu?$AAn?$AAt?$AA?5?$AA?$DN?$AA?$DN?$AA?5?$AA0?$AA?$CJ?$AA?5?$AA?$HM?$AA?$HM?$AA?5?$AA?$CI?$AAs?$AAt?$AAr?$AAi?$AAn?$AAg?$AA?5?$AA?$CB?$AA?$DN?$AA?5?$AAN?$AAU?$AAL?$AAL?$AA?$CJ@ 0050d5c8     LIBCMTD:snprintf.obj
 0003:0000f618       ??_C@_1BE@CHNFPLHD@?$AA_?$AAs?$AAn?$AAp?$AAr?$AAi?$AAn?$AAt?$AAf?$AA?$AA@ 0050d618     LIBCMTD:snprintf.obj
 0003:0000f630       ??_C@_1GC@GHEPACJN@?$AAf?$AA?3?$AA?2?$AAs?$AAp?$AA?2?$AAv?$AAc?$AAt?$AAo?$AAo?$AAl?$AAs?$AA?2?$AAc?$AAr?$AAt?$AA_?$AAb?$AAl?$AAd?$AA?2?$AAs?$AAe?$AAl?$AAf?$AA_?$AAx?$AA8?$AA6?$AA?2?$AAc@ 0050d630     LIBCMTD:snprintf.obj
 0003:0000f6a8       ??_C@_1BC@KMGJCMNP@?$AAv?$AAs?$AAc?$AAa?$AAn?$AA_?$AAf?$AAn?$AA?$AA@ 0050d6a8     LIBCMTD:sscanf.obj
 0003:0000f6c0       ??_C@_1BC@MDHAFFLC@?$AAs?$AAs?$AAc?$AAa?$AAn?$AAf?$AA?4?$AAc?$AA?$AA@ 0050d6c0     LIBCMTD:sscanf.obj
 0003:0000f6d8       ??_C@_1BA@KBJJGFFE@?$AAs?$AAp?$AAr?$AAi?$AAn?$AAt?$AAf?$AA?$AA@ 0050d6d8     LIBCMTD:sprintf.obj
 0003:0000f6ec       ??_C@_1BE@BPBEAPLI@?$AAs?$AAp?$AAr?$AAi?$AAn?$AAt?$AAf?$AA?4?$AAc?$AA?$AA@ 0050d6ec     LIBCMTD:sprintf.obj
 0003:0000f704       ??_C@_1CC@JLPHKJPH@?$AAc?$AAo?$AAu?$AAn?$AAt?$AA?5?$AA?$DM?$AA?$DN?$AA?5?$AAI?$AAN?$AAT?$AA_?$AAM?$AAA?$AAX?$AA?$AA@ 0050d704     LIBCMTD:strnicmp.obj
 0003:0000f72c       ??_C@_1BI@DCHLDCPP@?$AAs?$AAr?$AAc?$AA?5?$AA?$CB?$AA?$DN?$AA?5?$AAN?$AAU?$AAL?$AAL?$AA?$AA@ 0050d72c     LIBCMTD:strnicmp.obj
 0003:0000f748       ??_C@_1BI@BJLEPLEF@?$AA_?$AAs?$AAt?$AAr?$AAn?$AAi?$AAc?$AAm?$AAp?$AA_?$AAl?$AA?$AA@ 0050d748     LIBCMTD:strnicmp.obj
 0003:0000f764       ??_C@_1BG@DAODMAPG@?$AAs?$AAt?$AAr?$AAn?$AAi?$AAc?$AAm?$AAp?$AA?4?$AAc?$AA?$AA@ 0050d764     LIBCMTD:strnicmp.obj
 0003:0000f780       ??_C@_1BI@GKKCBDMD@?$AAd?$AAs?$AAt?$AA?5?$AA?$CB?$AA?$DN?$AA?5?$AAN?$AAU?$AAL?$AAL?$AA?$AA@ 0050d780     LIBCMTD:strnicmp.obj
 0003:0000f79c       ??_C@_1BE@BHJDFFNA@?$AA_?$AAs?$AAt?$AAr?$AAn?$AAi?$AAc?$AAm?$AAp?$AA?$AA@ 0050d79c     LIBCMTD:strnicmp.obj
 0003:0000f7b4       ??_C@_1BK@FHMHFMNL@?$AA_?$AAv?$AAs?$AAn?$AAp?$AAr?$AAi?$AAn?$AAt?$AAf?$AA_?$AAl?$AA?$AA@ 0050d7b4     LIBCMTD:vsnprint.obj
 0003:0000f7d8       ??_C@_1GE@LHHNFABB@?$AAf?$AA?3?$AA?2?$AAs?$AAp?$AA?2?$AAv?$AAc?$AAt?$AAo?$AAo?$AAl?$AAs?$AA?2?$AAc?$AAr?$AAt?$AA_?$AAb?$AAl?$AAd?$AA?2?$AAs?$AAe?$AAl?$AAf?$AA_?$AAx?$AA8?$AA6?$AA?2?$AAc@ 0050d7d8     LIBCMTD:vsnprint.obj
 0003:0000f850       ??_C@_06PJIGMIJB@Client?$AA@ 0050d850     LIBCMTD:dbgheap.obj
 0003:0000f858       ??_C@_06KMEJCCGM@Ignore?$AA@ 0050d858     LIBCMTD:dbgheap.obj
 0003:0000f860       ??_C@_03OGPFLFLO@CRT?$AA@  0050d860     LIBCMTD:dbgheap.obj
 0003:0000f864       ??_C@_06EFAGIKOH@Normal?$AA@ 0050d864     LIBCMTD:dbgheap.obj
 0003:0000f86c       ??_C@_04HJMOFLDF@Free?$AA@ 0050d86c     LIBCMTD:dbgheap.obj
 0003:0000f88c       ??_C@_0DC@JEMAGEKG@Error?3?5memory?5allocation?3?5bad?5me@ 0050d88c     LIBCMTD:dbgheap.obj
 0003:0000f8c8       ??_C@_0CF@BICKFLAF@Invalid?5allocation?5size?3?5?$CFIu?5byt@ 0050d8c8     LIBCMTD:dbgheap.obj
 0003:0000f8f4       ??_C@_0CB@CCLOLAHO@Client?5hook?5allocation?5failure?4?6@ 0050d8f4     LIBCMTD:dbgheap.obj
 0003:0000f91c       ??_C@_0DF@BBEGIFEK@Client?5hook?5allocation?5failure?5a@ 0050d91c     LIBCMTD:dbgheap.obj
 0003:0000f95c       ??_C@_1BE@DOFBOBGF@?$AAd?$AAb?$AAg?$AAh?$AAe?$AAa?$AAp?$AA?4?$AAc?$AA?$AA@ 0050d95c     LIBCMTD:dbgheap.obj
 0003:0000f974       ??_C@_1CE@LJFEPPMP@?$AA_?$AAC?$AAr?$AAt?$AAC?$AAh?$AAe?$AAc?$AAk?$AAM?$AAe?$AAm?$AAo?$AAr?$AAy?$AA?$CI?$AA?$CJ?$AA?$AA@ 0050d974     LIBCMTD:dbgheap.obj
 0003:0000f9a0       ??_C@_1BI@MIPBBENM@?$AA_?$AAc?$AAa?$AAl?$AAl?$AAo?$AAc?$AA_?$AAd?$AAb?$AAg?$AA?$AA@ 0050d9a0     LIBCMTD:dbgheap.obj
 0003:0000f9bc       ??_C@_1DO@MEOGCGBN@?$AA?$CI?$AA_?$AAH?$AAE?$AAA?$AAP?$AA_?$AAM?$AAA?$AAX?$AAR?$AAE?$AAQ?$AA?5?$AA?1?$AA?5?$AAn?$AAN?$AAu?$AAm?$AA?$CJ?$AA?5?$AA?$DO?$AA?$DN?$AA?5?$AAn?$AAS?$AAi?$AAz?$AAe?$AA?$AA@ 0050d9bc     LIBCMTD:dbgheap.obj
 0003:0000fa08       ??_C@_1DE@KOOKLFBB@?$AA_?$AAp?$AAF?$AAi?$AAr?$AAs?$AAt?$AAB?$AAl?$AAo?$AAc?$AAk?$AA?5?$AA?$DN?$AA?$DN?$AA?5?$AAp?$AAO?$AAl?$AAd?$AAB?$AAl?$AAo?$AAc?$AAk?$AA?$AA@ 0050da08     LIBCMTD:dbgheap.obj
 0003:0000fa48       ??_C@_1DC@GEFKNOOL@?$AA_?$AAp?$AAL?$AAa?$AAs?$AAt?$AAB?$AAl?$AAo?$AAc?$AAk?$AA?5?$AA?$DN?$AA?$DN?$AA?5?$AAp?$AAO?$AAl?$AAd?$AAB?$AAl?$AAo?$AAc?$AAk?$AA?$AA@ 0050da48     LIBCMTD:dbgheap.obj
 0003:0000fa88       ??_C@_1GE@PCKLOLAO@?$AAf?$AAR?$AAe?$AAa?$AAl?$AAl?$AAo?$AAc?$AA?5?$AA?$HM?$AA?$HM?$AA?5?$AA?$CI?$AA?$CB?$AAf?$AAR?$AAe?$AAa?$AAl?$AAl?$AAo?$AAc?$AA?5?$AA?$CG?$AA?$CG?$AA?5?$AAp?$AAN?$AAe?$AAw?$AAB?$AAl@ 0050da88     LIBCMTD:dbgheap.obj
 0003:0000fb00       ??_C@_1IK@DCPKDGNH@?$AAp?$AAO?$AAl?$AAd?$AAB?$AAl?$AAo?$AAc?$AAk?$AA?9?$AA?$DO?$AAn?$AAL?$AAi?$AAn?$AAe?$AA?5?$AA?$DN?$AA?$DN?$AA?5?$AAI?$AAG?$AAN?$AAO?$AAR?$AAE?$AA_?$AAL?$AAI?$AAN?$AAE?$AA?5@ 0050db00     LIBCMTD:dbgheap.obj
 0003:0000fba8       ??_C@_1EE@GFOPCECE@?$AA_?$AAC?$AAr?$AAt?$AAI?$AAs?$AAV?$AAa?$AAl?$AAi?$AAd?$AAH?$AAe?$AAa?$AAp?$AAP?$AAo?$AAi?$AAn?$AAt?$AAe?$AAr?$AA?$CI?$AAp?$AAU?$AAs?$AAe?$AAr?$AAD?$AAa?$AAt?$AAa@ 0050dba8     LIBCMTD:dbgheap.obj
 0003:0000fc00       ??_C@_0EM@LGFLMAGJ@The?5Block?5at?50x?$CFp?5was?5allocated?5@ 0050dc00     LIBCMTD:dbgheap.obj
 0003:0000fc60       ??_C@_0FA@EFEIGJKG@Error?3?5memory?5allocation?3?5bad?5me@ 0050dc60     LIBCMTD:dbgheap.obj
 0003:0000fcc0       ??_C@_0ED@GPCPBAGP@Invalid?5allocation?5size?3?5?$CFIu?5byt@ 0050dcc0     LIBCMTD:dbgheap.obj
 0003:0000fd10       ??_C@_0CE@DOFMDOL@Client?5hook?5re?9allocation?5failur@ 0050dd10     LIBCMTD:dbgheap.obj
 0003:0000fd3c       ??_C@_0DI@KKJPDPGM@Client?5hook?5re?9allocation?5failur@ 0050dd3c     LIBCMTD:dbgheap.obj
 0003:0000fd80       ??_C@_1BM@OKFKJCEN@?$AA_?$AAr?$AAe?$AAc?$AAa?$AAl?$AAl?$AAo?$AAc?$AA_?$AAd?$AAb?$AAg?$AA?$AA@ 0050dd80     LIBCMTD:dbgheap.obj
 0003:0000fda4       ??_C@_1DO@GOKJCEHJ@?$AA?$CI?$AA_?$AAH?$AAE?$AAA?$AAP?$AA_?$AAM?$AAA?$AAX?$AAR?$AAE?$AAQ?$AA?5?$AA?1?$AA?5?$AAc?$AAo?$AAu?$AAn?$AAt?$AA?$CJ?$AA?5?$AA?$DO?$AA?$DN?$AA?5?$AAs?$AAi?$AAz?$AAe?$AA?$AA@ 0050dda4     LIBCMTD:dbgheap.obj
 0003:0000fdf0       ??_C@_1BI@HAPNGHDP@?$AA_?$AAe?$AAx?$AAp?$AAa?$AAn?$AAd?$AA_?$AAd?$AAb?$AAg?$AA?$AA@ 0050ddf0     LIBCMTD:dbgheap.obj
 0003:0000fe0c       ??_C@_1CE@CJACEFBA@?$AAp?$AAU?$AAs?$AAe?$AAr?$AAD?$AAa?$AAt?$AAa?$AA?5?$AA?$CB?$AA?$DN?$AA?5?$AAN?$AAU?$AAL?$AAL?$AA?$AA@ 0050de0c     LIBCMTD:dbgheap.obj
 0003:0000fe38       ??_C@_1CM@MMAADDMD@?$AA_?$AAp?$AAF?$AAi?$AAr?$AAs?$AAt?$AAB?$AAl?$AAo?$AAc?$AAk?$AA?5?$AA?$DN?$AA?$DN?$AA?5?$AAp?$AAH?$AAe?$AAa?$AAd?$AA?$AA@ 0050de38     LIBCMTD:dbgheap.obj
 0003:0000fe6c       ??_C@_1CK@DMAGEMBG@?$AA_?$AAp?$AAL?$AAa?$AAs?$AAt?$AAB?$AAl?$AAo?$AAc?$AAk?$AA?5?$AA?$DN?$AA?$DN?$AA?5?$AAp?$AAH?$AAe?$AAa?$AAd?$AA?$AA@ 0050de6c     LIBCMTD:dbgheap.obj
 0003:0000fea0       ??_C@_1DM@ODCJIDCP@?$AAp?$AAH?$AAe?$AAa?$AAd?$AA?9?$AA?$DO?$AAn?$AAB?$AAl?$AAo?$AAc?$AAk?$AAU?$AAs?$AAe?$AA?5?$AA?$DN?$AA?$DN?$AA?5?$AAn?$AAB?$AAl?$AAo?$AAc?$AAk?$AAU?$AAs?$AAe?$AA?$AA@ 0050dea0     LIBCMTD:dbgheap.obj
 0003:0000fee8       ??_C@_1HK@HPCBMDFG@?$AAp?$AAH?$AAe?$AAa?$AAd?$AA?9?$AA?$DO?$AAn?$AAL?$AAi?$AAn?$AAe?$AA?5?$AA?$DN?$AA?$DN?$AA?5?$AAI?$AAG?$AAN?$AAO?$AAR?$AAE?$AA_?$AAL?$AAI?$AAN?$AAE?$AA?5?$AA?$CG?$AA?$CG?$AA?5?$AAp@ 0050dee8     LIBCMTD:dbgheap.obj
 0003:0000ff80       ??_C@_0IG@LEMBDCJK@HEAP?5CORRUPTION?5DETECTED?3?5after?5@ 0050df80     LIBCMTD:dbgheap.obj
 0003:00010020       ??_C@_0KE@MBMNHHHN@HEAP?5CORRUPTION?5DETECTED?3?5after?5@ 0050e020     LIBCMTD:dbgheap.obj
 0003:000100e8       ??_C@_0IK@PJCGLBOB@HEAP?5CORRUPTION?5DETECTED?3?5before@ 0050e0e8     LIBCMTD:dbgheap.obj
 0003:00010190       ??_C@_0KI@JGFOHMEB@HEAP?5CORRUPTION?5DETECTED?3?5before@ 0050e190     LIBCMTD:dbgheap.obj
 0003:00010260       ??_C@_1EO@LHDAJOCM@?$AA_?$AAB?$AAL?$AAO?$AAC?$AAK?$AA_?$AAT?$AAY?$AAP?$AAE?$AA_?$AAI?$AAS?$AA_?$AAV?$AAA?$AAL?$AAI?$AAD?$AA?$CI?$AAp?$AAH?$AAe?$AAa?$AAd?$AA?9?$AA?$DO?$AAn?$AAB?$AAl?$AAo@ 0050e260     LIBCMTD:dbgheap.obj
 0003:000102c0       ??_C@_0BL@KEIPLFAC@Client?5hook?5free?5failure?4?6?$AA@ 0050e2c0     LIBCMTD:dbgheap.obj
 0003:000102e0       ??_C@_0EJ@HEIBCIMJ@The?5Block?5at?50x?$CFp?5was?5allocated?5@ 0050e2e0     LIBCMTD:dbgheap.obj
 0003:00010338       ??_C@_1BG@MBKOGDLD@?$AA_?$AAm?$AAs?$AAi?$AAz?$AAe?$AA_?$AAd?$AAb?$AAg?$AA?$AA@ 0050e338     LIBCMTD:dbgheap.obj
 0003:00010354       ??_C@_0CI@JMLBEDHJ@?$CFhs?5located?5at?50x?$CFp?5is?5?$CFIu?5bytes@ 0050e354     LIBCMTD:dbgheap.obj
 0003:00010388       ??_C@_0EG@DGJMPDBH@?$CFhs?5located?5at?50x?$CFp?5is?5?$CFIu?5bytes@ 0050e388     LIBCMTD:dbgheap.obj
 0003:000103e0       ??_C@_0IC@BBJIOOJH@HEAP?5CORRUPTION?5DETECTED?3?5on?5top@ 0050e3e0     LIBCMTD:dbgheap.obj
 0003:00010480       ??_C@_0KA@IHNJJKPL@HEAP?5CORRUPTION?5DETECTED?3?5on?5top@ 0050e480     LIBCMTD:dbgheap.obj
 0003:00010540       ??_C@_07OHKEFPKJ@DAMAGED?$AA@ 0050e540     LIBCMTD:dbgheap.obj
 0003:0001054c       ??_C@_0CL@HNNNMKMJ@_heapchk?5fails?5with?5unknown?5retu@ 0050e54c     LIBCMTD:dbgheap.obj
 0003:00010580       ??_C@_0CC@MFFCHFHO@_heapchk?5fails?5with?5_HEAPBADPTR?4@ 0050e580     LIBCMTD:dbgheap.obj
 0003:000105a8       ??_C@_0CC@MJGLGBDG@_heapchk?5fails?5with?5_HEAPBADEND?4@ 0050e5a8     LIBCMTD:dbgheap.obj
 0003:000105d0       ??_C@_0CD@CPKEAPBD@_heapchk?5fails?5with?5_HEAPBADNODE@ 0050e5d0     LIBCMTD:dbgheap.obj
 0003:000105fc       ??_C@_0CE@MKKHMBMK@_heapchk?5fails?5with?5_HEAPBADBEGI@ 0050e5fc     LIBCMTD:dbgheap.obj
 0003:00010628       ??_C@_1BO@GJFDNMNF@?$AA_?$AAC?$AAr?$AAt?$AAS?$AAe?$AAt?$AAD?$AAb?$AAg?$AAF?$AAl?$AAa?$AAg?$AA?$AA@ 0050e628     LIBCMTD:dbgheap.obj
 0003:00010650       ??_C@_1BHO@NNANJNF@?$AA?$CI?$AAf?$AAN?$AAe?$AAw?$AAB?$AAi?$AAt?$AAs?$AA?$DN?$AA?$DN?$AA_?$AAC?$AAR?$AAT?$AAD?$AAB?$AAG?$AA_?$AAR?$AAE?$AAP?$AAO?$AAR?$AAT?$AA_?$AAF?$AAL?$AAA?$AAG?$AA?$CJ?$AA?5@ 0050e650     LIBCMTD:dbgheap.obj
 0003:0001081c       ??_C@_1DE@GJCKCKEC@?$AA_?$AAC?$AAr?$AAt?$AAD?$AAo?$AAF?$AAo?$AAr?$AAA?$AAl?$AAl?$AAC?$AAl?$AAi?$AAe?$AAn?$AAt?$AAO?$AAb?$AAj?$AAe?$AAc?$AAt?$AAs?$AA?$AA@ 0050e81c     LIBCMTD:dbgheap.obj
 0003:0001085c       ??_C@_1BI@CJGCEEDL@?$AAp?$AAf?$AAn?$AA?5?$AA?$CB?$AA?$DN?$AA?5?$AAN?$AAU?$AAL?$AAL?$AA?$AA@ 0050e85c     LIBCMTD:dbgheap.obj
 0003:00010878       ??_C@_1CG@DGPPLLPG@?$AA_?$AAg?$AAe?$AAt?$AA_?$AAo?$AAs?$AAv?$AAe?$AAr?$AA?$CI?$AA?$CG?$AAo?$AAs?$AAv?$AAe?$AAr?$AA?$CJ?$AA?$AA@ 0050e878     LIBCMTD:dbgheap.obj
 0003:000108a8       ??_C@_1CO@JHPAACDJ@?$AA_?$AAC?$AAr?$AAt?$AAI?$AAs?$AAV?$AAa?$AAl?$AAi?$AAd?$AAH?$AAe?$AAa?$AAp?$AAP?$AAo?$AAi?$AAn?$AAt?$AAe?$AAr?$AA?$AA@ 0050e8a8     LIBCMTD:dbgheap.obj
 0003:000108e0       ??_C@_0CB@EAAIGELO@Bad?5memory?5block?5found?5at?50x?$CFp?4?6@ 0050e8e0     LIBCMTD:dbgheap.obj
 0003:00010908       ??_C@_0DP@LEFMFBOD@Bad?5memory?5block?5found?5at?50x?$CFp?4?6@ 0050e908     LIBCMTD:dbgheap.obj
 0003:00010954       ??_C@_1CE@NJJKELF@?$AA_?$AAC?$AAr?$AAt?$AAM?$AAe?$AAm?$AAC?$AAh?$AAe?$AAc?$AAk?$AAp?$AAo?$AAi?$AAn?$AAt?$AA?$AA@ 0050e954     LIBCMTD:dbgheap.obj
 0003:00010980       ??_C@_1BM@MIMANDHC@?$AAs?$AAt?$AAa?$AAt?$AAe?$AA?5?$AA?$CB?$AA?$DN?$AA?5?$AAN?$AAU?$AAL?$AAL?$AA?$AA@ 0050e980     LIBCMTD:dbgheap.obj
 0003:000109a4       ??_C@_1CC@DFPEDFBP@?$AAn?$AAe?$AAw?$AAS?$AAt?$AAa?$AAt?$AAe?$AA?5?$AA?$CB?$AA?$DN?$AA?5?$AAN?$AAU?$AAL?$AAL?$AA?$AA@ 0050e9a4     LIBCMTD:dbgheap.obj
 0003:000109cc       ??_C@_1CC@DHPFEMMN@?$AAo?$AAl?$AAd?$AAS?$AAt?$AAa?$AAt?$AAe?$AA?5?$AA?$CB?$AA?$DN?$AA?5?$AAN?$AAU?$AAL?$AAL?$AA?$AA@ 0050e9cc     LIBCMTD:dbgheap.obj
 0003:000109f4       ??_C@_1CE@PDIENACM@?$AA_?$AAC?$AAr?$AAt?$AAM?$AAe?$AAm?$AAD?$AAi?$AAf?$AAf?$AAe?$AAr?$AAe?$AAn?$AAc?$AAe?$AA?$AA@ 0050e9f4     LIBCMTD:dbgheap.obj
 0003:00010a20       ??_C@_0BH@GFGKJDCO@Object?5dump?5complete?4?6?$AA@ 0050ea20     LIBCMTD:dbgheap.obj
 0003:00010a3c       ??_C@_0DA@MDLBNIBM@crt?5block?5at?50x?$CFp?0?5subtype?5?$CFx?0?5?$CF@ 0050ea3c     LIBCMTD:dbgheap.obj
 0003:00010a78       ??_C@_0CH@FAGDDGPN@normal?5block?5at?50x?$CFp?0?5?$CFIu?5bytes?5@ 0050ea78     LIBCMTD:dbgheap.obj
 0003:00010aa8       ??_C@_0DD@GHNAAKBB@client?5block?5at?50x?$CFp?0?5subtype?5?$CFx@ 0050eaa8     LIBCMTD:dbgheap.obj
 0003:00010ae8       ??_C@_06PKLGBFGM@?$HL?$CFld?$HN?5?$AA@ 0050eae8     LIBCMTD:dbgheap.obj
 0003:00010af0       ??_C@_0L@JMEFFCCJ@?$CFhs?$CI?$CFd?$CJ?5?3?5?$AA@ 0050eaf0     LIBCMTD:dbgheap.obj
 0003:00010b00       ??_C@_0BE@OIEFNFL@?$CDFile?5Error?$CD?$CI?$CFd?$CJ?5?3?5?$AA@ 0050eb00     LIBCMTD:dbgheap.obj
 0003:00010b18       ??_C@_0BE@KCIPKCIA@Dumping?5objects?5?9?$DO?6?$AA@ 0050eb18     LIBCMTD:dbgheap.obj
 0003:00010b30       ??_C@_0BA@HJBKCELP@?5Data?3?5?$DM?$CFs?$DO?5?$CFs?6?$AA@ 0050eb30     LIBCMTD:dbgheap.obj
 0003:00010b44       ??_C@_1BI@KALLJECN@?$AA?$CI?$AA?$CK?$AA_?$AAe?$AAr?$AAr?$AAn?$AAo?$AA?$CI?$AA?$CJ?$AA?$CJ?$AA?$AA@ 0050eb44     LIBCMTD:dbgheap.obj
 0003:00010b60       ??_C@_1CG@LPFIACGM@?$AA_?$AAp?$AAr?$AAi?$AAn?$AAt?$AAM?$AAe?$AAm?$AAB?$AAl?$AAo?$AAc?$AAk?$AAD?$AAa?$AAt?$AAa?$AA?$AA@ 0050eb60     LIBCMTD:dbgheap.obj
 0003:00010b90       ??_C@_05MKKEDADM@?$CF?42X?5?$AA@ 0050eb90     LIBCMTD:dbgheap.obj
 0003:00010b98       ??_C@_0BI@JBFPOEJA@Detected?5memory?5leaks?$CB?6?$AA@ 0050eb98     LIBCMTD:dbgheap.obj
 0003:00010bb4       ??_C@_0BP@DEDHGGGI@Total?5allocations?3?5?$CFId?5bytes?4?6?$AA@ 0050ebb4     LIBCMTD:dbgheap.obj
 0003:00010bdc       ??_C@_0CB@BLHDAFNE@Largest?5number?5used?3?5?$CFId?5bytes?4?6@ 0050ebdc     LIBCMTD:dbgheap.obj
 0003:00010c04       ??_C@_0BO@DACNIABB@?$CFId?5bytes?5in?5?$CFId?5?$CFhs?5Blocks?4?6?$AA@ 0050ec04     LIBCMTD:dbgheap.obj
 0003:00010c28       ??_C@_1CM@MPNIBKGK@?$AA_?$AAC?$AAr?$AAt?$AAM?$AAe?$AAm?$AAD?$AAu?$AAm?$AAp?$AAS?$AAt?$AAa?$AAt?$AAi?$AAs?$AAt?$AAi?$AAc?$AAs?$AA?$AA@ 0050ec28     LIBCMTD:dbgheap.obj
 0003:00010c5c       ??_C@_1DK@LFLKFPDA@?$AAo?$AAf?$AAf?$AAs?$AAe?$AAt?$AA?5?$AA?$DN?$AA?$DN?$AA?5?$AA0?$AA?5?$AA?$HM?$AA?$HM?$AA?5?$AAo?$AAf?$AAf?$AAs?$AAe?$AAt?$AA?5?$AA?$DM?$AA?5?$AAs?$AAi?$AAz?$AAe?$AA?$AA@ 0050ec5c     LIBCMTD:dbgheap.obj
 0003:00010ca4       ??_C@_1DG@DONCJBBJ@?$AA_?$AAa?$AAl?$AAi?$AAg?$AAn?$AAe?$AAd?$AA_?$AAo?$AAf?$AAf?$AAs?$AAe?$AAt?$AA_?$AAm?$AAa?$AAl?$AAl?$AAo?$AAc?$AA_?$AAd?$AAb?$AAg?$AA?$AA@ 0050eca4     LIBCMTD:dbgheap.obj
 0003:00010ce4       ??_C@_1CE@NPMGPNNP@?$AAI?$AAS?$AA_?$AA2?$AA_?$AAP?$AAO?$AAW?$AA_?$AAN?$AA?$CI?$AAa?$AAl?$AAi?$AAg?$AAn?$AA?$CJ?$AA?$AA@ 0050ece4     LIBCMTD:dbgheap.obj
 0003:00010d10       ??_C@_1DI@NINIKFFK@?$AA_?$AAa?$AAl?$AAi?$AAg?$AAn?$AAe?$AAd?$AA_?$AAo?$AAf?$AAf?$AAs?$AAe?$AAt?$AA_?$AAr?$AAe?$AAa?$AAl?$AAl?$AAo?$AAc?$AA_?$AAd?$AAb?$AAg?$AA?$AA@ 0050ed10     LIBCMTD:dbgheap.obj
 0003:00010d54       ??_C@_0DL@PGHMMKNE@Damage?5before?50x?$CFp?5which?5was?5all@ 0050ed54     LIBCMTD:dbgheap.obj
 0003:00010da0       ??_C@_0EI@NDNJMAJK@The?5block?5at?50x?$CFp?5was?5not?5alloca@ 0050eda0     LIBCMTD:dbgheap.obj
 0003:00010df8       ??_C@_1DK@MMLHIFFH@?$AA_?$AAa?$AAl?$AAi?$AAg?$AAn?$AAe?$AAd?$AA_?$AAo?$AAf?$AAf?$AAs?$AAe?$AAt?$AA_?$AAr?$AAe?$AAc?$AAa?$AAl?$AAl?$AAo?$AAc?$AA_?$AAd?$AAb?$AAg?$AA?$AA@ 0050edf8     LIBCMTD:dbgheap.obj
 0003:00010e40       ??_C@_0EF@PGELACII@The?5block?5at?50x?$CFp?5was?5not?5alloca@ 0050ee40     LIBCMTD:dbgheap.obj
 0003:00010e94       ??_C@_1CG@CEGMHIMN@?$AA_?$AAa?$AAl?$AAi?$AAg?$AAn?$AAe?$AAd?$AA_?$AAm?$AAs?$AAi?$AAz?$AAe?$AA_?$AAd?$AAb?$AAg?$AA?$AA@ 0050ee94     LIBCMTD:dbgheap.obj
 0003:00010ec4       ??_C@_1CC@MOBIKHH@?$AAm?$AAe?$AAm?$AAb?$AAl?$AAo?$AAc?$AAk?$AA?5?$AA?$CB?$AA?$DN?$AA?5?$AAN?$AAU?$AAL?$AAL?$AA?$AA@ 0050eec4     LIBCMTD:dbgheap.obj
 0003:00010eec       ??_C@_09IFKHNCOH@_sftbuf?4c?$AA@ 0050eeec     LIBCMTD:_sftbuf.obj
 0003:00010ef8       ??_C@_1BE@DFMOKHKL@?$AA_?$AAs?$AAf?$AAt?$AAb?$AAu?$AAf?$AA?4?$AAc?$AA?$AA@ 0050eef8     LIBCMTD:_sftbuf.obj
 0003:00010f10       ??_C@_1BI@MFCLPIBM@?$AAs?$AAt?$AAr?$AA?5?$AA?$CB?$AA?$DN?$AA?5?$AAN?$AAU?$AAL?$AAL?$AA?$AA@ 0050ef10     LIBCMTD:_sftbuf.obj
 0003:00010f2c       ??_C@_1CO@KCKAACMI@?$AAf?$AAl?$AAa?$AAg?$AA?5?$AA?$DN?$AA?$DN?$AA?5?$AA0?$AA?5?$AA?$HM?$AA?$HM?$AA?5?$AAf?$AAl?$AAa?$AAg?$AA?5?$AA?$DN?$AA?$DN?$AA?5?$AA1?$AA?$AA@ 0050ef2c     LIBCMTD:_sftbuf.obj
 0003:00010f64       ??_C@_1O@CEDCILHN@?$AA?$CI?$AAn?$AAu?$AAl?$AAl?$AA?$CJ?$AA?$AA@ 0050ef64     LIBCMTD:output.obj
 0003:00010f74       ??_C@_06OJHGLDPL@?$CInull?$CJ?$AA@ 0050ef74     LIBCMTD:output.obj
 0003:00010f80       ___lookuptable             0050ef80     LIBCMTD:output.obj
 0003:00010fec       ??_C@_08MEPFMIND@output?4c?$AA@ 0050efec     LIBCMTD:output.obj
 0003:00010ff8       ??_C@_1EK@PNGFDECN@?$AA?$CI?$AA?$CC?$AA?8?$AAn?$AA?8?$AA?5?$AAf?$AAo?$AAr?$AAm?$AAa?$AAt?$AA?5?$AAs?$AAp?$AAe?$AAc?$AAi?$AAf?$AAi?$AAe?$AAr?$AA?5?$AAd?$AAi?$AAs?$AAa?$AAb?$AAl?$AAe?$AAd?$AA?$CC@ 0050eff8     LIBCMTD:output.obj
 0003:00011050       ??_C@_1CC@IFFHEMNF@?$AA?$CI?$AAc?$AAh?$AA?5?$AA?$CB?$AA?$DN?$AA?5?$AA_?$AAT?$AA?$CI?$AA?8?$AA?2?$AA0?$AA?8?$AA?$CJ?$AA?$CJ?$AA?$AA@ 0050f050     LIBCMTD:output.obj
 0003:00011078       ??_C@_1BE@IONLIDNC@?$AA_?$AAo?$AAu?$AAt?$AAp?$AAu?$AAt?$AA_?$AAl?$AA?$AA@ 0050f078     LIBCMTD:output.obj
 0003:00011090       ??_C@_1BC@NHKJGCDC@?$AAo?$AAu?$AAt?$AAp?$AAu?$AAt?$AA?4?$AAc?$AA?$AA@ 0050f090     LIBCMTD:output.obj
 0003:000110a8       ??_C@_1BG@KCMPBBDK@?$AA_?$AAg?$AAe?$AAt?$AA_?$AAe?$AAr?$AAr?$AAn?$AAo?$AA?$AA@ 0050f0a8     LIBCMTD:dosmap.obj
 0003:000110c4       ??_C@_1BC@GFJPPMFE@?$AAd?$AAo?$AAs?$AAm?$AAa?$AAp?$AA?4?$AAc?$AA?$AA@ 0050f0c4     LIBCMTD:dosmap.obj
 0003:000110dc       ??_C@_1BM@INIPHHDD@?$AA_?$AAg?$AAe?$AAt?$AA_?$AAd?$AAo?$AAs?$AAe?$AAr?$AAr?$AAn?$AAo?$AA?$AA@ 0050f0dc     LIBCMTD:dosmap.obj
 0003:00011100       ??_C@_1CC@CGHMNGDG@?$AAA?$AAs?$AAs?$AAe?$AAr?$AAt?$AAi?$AAo?$AAn?$AA?5?$AAF?$AAa?$AAi?$AAl?$AAe?$AAd?$AA?$AA@ 0050f100     LIBCMTD:dbgrptw.obj
 0003:00011128       ??_C@_1M@ILHOPKA@?$AAE?$AAr?$AAr?$AAo?$AAr?$AA?$AA@ 0050f128     LIBCMTD:dbgrptw.obj
 0003:00011138       ??_C@_1BA@GLMCNLEM@?$AAW?$AAa?$AAr?$AAn?$AAi?$AAn?$AAg?$AA?$AA@ 0050f138     LIBCMTD:dbgrptw.obj
 0003:0001114c       ??_C@_0DA@HAFNAKMA@f?3?2sp?2vctools?2crt_bld?2self_x86?2c@ 0050f14c     LIBCMTD:dbgrptw.obj
 0003:00011188       ??_C@_1FI@PHIAFFHM@?$AA?$CI?$AA?$CC?$AAT?$AAh?$AAe?$AA?5?$AAh?$AAo?$AAo?$AAk?$AA?5?$AAf?$AAu?$AAn?$AAc?$AAt?$AAi?$AAo?$AAn?$AA?5?$AAi?$AAs?$AA?5?$AAn?$AAo?$AAt?$AA?5?$AAi?$AAn?$AA?5?$AAt?$AAh@ 0050f188     LIBCMTD:dbgrptw.obj
 0003:000111f4       ??_C@_1CG@JBJEFOCM@?$AAp?$AAf?$AAn?$AAN?$AAe?$AAw?$AAH?$AAo?$AAo?$AAk?$AA?5?$AA?$CB?$AA?$DN?$AA?5?$AAN?$AAU?$AAL?$AAL?$AA?$AA@ 0050f1f4     LIBCMTD:dbgrptw.obj
 0003:00011224       ??_C@_1CI@IIHEAKEI@?$AA_?$AAC?$AAr?$AAt?$AAS?$AAe?$AAt?$AAR?$AAe?$AAp?$AAo?$AAr?$AAt?$AAH?$AAo?$AAo?$AAk?$AAW?$AA2?$AA?$AA@ 0050f224     LIBCMTD:dbgrptw.obj
 0003:00011258       ??_C@_1GA@FGIMNHGA@?$AAf?$AA?3?$AA?2?$AAs?$AAp?$AA?2?$AAv?$AAc?$AAt?$AAo?$AAo?$AAl?$AAs?$AA?2?$AAc?$AAr?$AAt?$AA_?$AAb?$AAl?$AAd?$AA?2?$AAs?$AAe?$AAl?$AAf?$AA_?$AAx?$AA8?$AA6?$AA?2?$AAc@ 0050f258     LIBCMTD:dbgrptw.obj
 0003:000112d0       ??_C@_1HI@OFEHGPPC@?$AAm?$AAo?$AAd?$AAe?$AA?5?$AA?$DN?$AA?$DN?$AA?5?$AA_?$AAC?$AAR?$AAT?$AA_?$AAR?$AAP?$AAT?$AAH?$AAO?$AAO?$AAK?$AA_?$AAI?$AAN?$AAS?$AAT?$AAA?$AAL?$AAL?$AA?5?$AA?$HM?$AA?$HM?$AA?5@ 0050f2d0     LIBCMTD:dbgrptw.obj
 0003:00011360       ??_C@_0DP@GNPEPHJD@_CrtDbgReport?3?5String?5too?5long?5o@ 0050f360     LIBCMTD:dbgrptw.obj
 0003:000113b0       ??_C@_1LI@CIHKNEBA@?$AAs?$AAt?$AAr?$AAc?$AAp?$AAy?$AA_?$AAs?$AA?$CI?$AAs?$AAz?$AAa?$AAF?$AAo?$AAr?$AAm?$AAa?$AAt?$AA?0?$AA?5?$AA4?$AA0?$AA9?$AA6?$AA?0?$AA?5?$AA?$CC?$AA_?$AAC?$AAr?$AAt?$AAD@ 0050f3b0     LIBCMTD:dbgrptw.obj
 0003:00011490       ??_C@_1GO@BIBJILHL@?$AAw?$AAc?$AAs?$AAt?$AAo?$AAm?$AAb?$AAs?$AA_?$AAs?$AA?$CI?$AA0?$AA?0?$AA?5?$AAs?$AAz?$AAa?$AAF?$AAo?$AAr?$AAm?$AAa?$AAt?$AA?0?$AA?5?$AA4?$AA0?$AA9?$AA6?$AA?0?$AA?5?$AAs@ 0050f490     LIBCMTD:dbgrptw.obj
 0003:00011518       ??_C@_1IK@NOIOPCJD@?$AAs?$AAt?$AAr?$AAc?$AAp?$AAy?$AA_?$AAs?$AA?$CI?$AAs?$AAz?$AAa?$AAM?$AAo?$AAd?$AAu?$AAl?$AAe?$AA?0?$AA?5?$AA4?$AA0?$AA9?$AA6?$AA?0?$AA?5?$AA?$CC?$AAE?$AAx?$AAp?$AAr?$AAe@ 0050f518     LIBCMTD:dbgrptw.obj
 0003:000115c0       ??_C@_1GO@EIJIKMJN@?$AAw?$AAc?$AAs?$AAt?$AAo?$AAm?$AAb?$AAs?$AA_?$AAs?$AA?$CI?$AA0?$AA?0?$AA?5?$AAs?$AAz?$AAa?$AAM?$AAo?$AAd?$AAu?$AAl?$AAe?$AA?0?$AA?5?$AA4?$AA0?$AA9?$AA6?$AA?0?$AA?5?$AAs@ 0050f5c0     LIBCMTD:dbgrptw.obj
 0003:00011648       ??_C@_1IG@KNLLJKPP@?$AAs?$AAt?$AAr?$AAc?$AAp?$AAy?$AA_?$AAs?$AA?$CI?$AAs?$AAz?$AAa?$AAF?$AAi?$AAl?$AAe?$AA?0?$AA?5?$AA4?$AA0?$AA9?$AA6?$AA?0?$AA?5?$AA?$CC?$AAE?$AAx?$AAp?$AAr?$AAe?$AAs?$AAs@ 0050f648     LIBCMTD:dbgrptw.obj
 0003:000116e8       ??_C@_1DO@CNMELOIB@?$AAs?$AAt?$AAr?$AAc?$AAa?$AAt?$AA_?$AAs?$AA?$CI?$AAs?$AAz?$AAa?$AAF?$AAi?$AAl?$AAe?$AA?0?$AA?5?$AA4?$AA0?$AA9?$AA6?$AA?0?$AA?5?$AA?$CC?$AA?4?$AA?4?$AA?4?$AA?$CC?$AA?$CJ?$AA?$AA@ 0050f6e8     LIBCMTD:dbgrptw.obj
 0003:00011738       ??_C@_1GG@OHDJJHOI@?$AAw?$AAc?$AAs?$AAt?$AAo?$AAm?$AAb?$AAs?$AA_?$AAs?$AA?$CI?$AA0?$AA?0?$AA?5?$AAs?$AAz?$AAa?$AAF?$AAi?$AAl?$AAe?$AA?0?$AA?5?$AA4?$AA0?$AA9?$AA6?$AA?0?$AA?5?$AAs?$AAz?$AAF@ 0050f738     LIBCMTD:dbgrptw.obj
 0003:000117b4       ??_C@_1DK@NLBDKACM@?$AA_?$AAg?$AAe?$AAt?$AA_?$AAo?$AAs?$AAp?$AAl?$AAa?$AAt?$AAf?$AAo?$AAr?$AAm?$AA?$CI?$AA?$CG?$AAo?$AAs?$AAp?$AAl?$AAa?$AAt?$AAf?$AAo?$AAr?$AAm?$AA?$CJ?$AA?$AA@ 0050f7b4     LIBCMTD:dbgrptw.obj
 0003:000117fc       ??_C@_1CA@KLAOOAPJ@?$AA_?$AAC?$AAr?$AAt?$AAD?$AAb?$AAg?$AAR?$AAe?$AAp?$AAo?$AAr?$AAt?$AAW?$AAV?$AA?$AA@ 0050f7fc     LIBCMTD:dbgrptw.obj
 0003:00011828       ??_C@_1EG@PEOEAKBB@?$AAM?$AAi?$AAc?$AAr?$AAo?$AAs?$AAo?$AAf?$AAt?$AA?5?$AAV?$AAi?$AAs?$AAu?$AAa?$AAl?$AA?5?$AAC?$AA?$CL?$AA?$CL?$AA?5?$AAD?$AAe?$AAb?$AAu?$AAg?$AA?5?$AAL?$AAi?$AAb?$AAr?$AAa@ 0050f828     LIBCMTD:dbgrptw.obj
 0003:00011880       ??_C@_1FG@BBOLDHGF@?$AA_?$AAC?$AAr?$AAt?$AAD?$AAb?$AAg?$AAR?$AAe?$AAp?$AAo?$AAr?$AAt?$AA?3?$AA?5?$AAS?$AAt?$AAr?$AAi?$AAn?$AAg?$AA?5?$AAt?$AAo?$AAo?$AA?5?$AAl?$AAo?$AAn?$AAg?$AA?5?$AAo@ 0050f880     LIBCMTD:dbgrptw.obj
 0003:000118e8       ??_C@_1JI@EACPGHID@?$AAw?$AAc?$AAs?$AAc?$AAp?$AAy?$AA_?$AAs?$AA?$CI?$AAs?$AAz?$AAO?$AAu?$AAt?$AAM?$AAe?$AAs?$AAs?$AAa?$AAg?$AAe?$AA?0?$AA?5?$AA4?$AA0?$AA9?$AA6?$AA?0?$AA?5?$AAL?$AA?$CC?$AA_@ 0050f8e8     LIBCMTD:dbgrptw.obj
 0003:000119a0       ??_C@_1KK@MEFMPOLM@?$AAD?$AAe?$AAb?$AAu?$AAg?$AA?5?$AA?$CF?$AAs?$AA?$CB?$AA?6?$AA?6?$AAP?$AAr?$AAo?$AAg?$AAr?$AAa?$AAm?$AA?3?$AA?5?$AA?$CF?$AAs?$AA?$CF?$AAs?$AA?$CF?$AAs?$AA?$CF?$AAs?$AA?$CF?$AAs?$AA?$CF?$AAs@ 0050f9a0     LIBCMTD:dbgrptw.obj
 0003:00011a6c       ??_C@_1BE@CGCJKGHI@?$AA?6?$AAM?$AAo?$AAd?$AAu?$AAl?$AAe?$AA?3?$AA?5?$AA?$AA@ 0050fa6c     LIBCMTD:dbgrptw.obj
 0003:00011a84       ??_C@_1BA@LNHECFIM@?$AA?6?$AAF?$AAi?$AAl?$AAe?$AA?3?$AA?5?$AA?$AA@ 0050fa84     LIBCMTD:dbgrptw.obj
 0003:00011a98       ??_C@_1BA@GLLGCPCK@?$AA?6?$AAL?$AAi?$AAn?$AAe?$AA?3?$AA?5?$AA?$AA@ 0050fa98     LIBCMTD:dbgrptw.obj
 0003:00011aac       ??_C@_11LOCGONAA@?$AA?$AA@ 0050faac     LIBCMTD:dbgrptw.obj
 0003:00011ab0       ??_C@_1OG@PMPPFHAF@?$AA?6?$AA?6?$AAF?$AAo?$AAr?$AA?5?$AAi?$AAn?$AAf?$AAo?$AAr?$AAm?$AAa?$AAt?$AAi?$AAo?$AAn?$AA?5?$AAo?$AAn?$AA?5?$AAh?$AAo?$AAw?$AA?5?$AAy?$AAo?$AAu?$AAr?$AA?5?$AAp?$AAr@ 0050fab0     LIBCMTD:dbgrptw.obj
 0003:00011bc8       ??_C@_1JM@GKDPCMEA@?$AAw?$AAc?$AAs?$AAn?$AAc?$AAp?$AAy?$AA_?$AAs?$AA?$CI?$AAs?$AAz?$AAS?$AAh?$AAo?$AAr?$AAt?$AAP?$AAr?$AAo?$AAg?$AAN?$AAa?$AAm?$AAe?$AA?0?$AA?5?$AA2?$AA6?$AA0?$AA?5?$AA?9@ 0050fbc8     LIBCMTD:dbgrptw.obj
 0003:00011c88       ??_C@_1GI@DEDNNLCI@?$AAw?$AAc?$AAs?$AAc?$AAp?$AAy?$AA_?$AAs?$AA?$CI?$AAs?$AAz?$AAE?$AAx?$AAe?$AAN?$AAa?$AAm?$AAe?$AA?0?$AA?5?$AA2?$AA6?$AA0?$AA?0?$AA?5?$AAL?$AA?$CC?$AA?$DM?$AAp?$AAr?$AAo?$AAg@ 0050fc88     LIBCMTD:dbgrptw.obj
 0003:00011d04       ??_C@_1CI@PGJIFDEK@?$AA_?$AA_?$AAc?$AAr?$AAt?$AAM?$AAe?$AAs?$AAs?$AAa?$AAg?$AAe?$AAW?$AAi?$AAn?$AAd?$AAo?$AAw?$AAW?$AA?$AA@ 0050fd04     LIBCMTD:dbgrptw.obj
 0003:00011d34       ??_C@_1BO@JGFPDJCP@?$AAv?$AAp?$AAr?$AAi?$AAn?$AAt?$AAf?$AA_?$AAh?$AAe?$AAl?$AAp?$AAe?$AAr?$AA?$AA@ 0050fd34     LIBCMTD:vprintf.obj
 0003:00011d58       ??_C@_1BE@DEJONPKH@?$AAv?$AAp?$AAr?$AAi?$AAn?$AAt?$AAf?$AA?4?$AAc?$AA?$AA@ 0050fd58     LIBCMTD:vprintf.obj
 0003:00011d70       ??_C@_1HO@MLMGPAFH@?$AA?$CI?$AA?$CC?$AAi?$AAn?$AAc?$AAo?$AAn?$AAs?$AAi?$AAs?$AAt?$AAe?$AAn?$AAt?$AA?5?$AAI?$AAO?$AAB?$AA?5?$AAf?$AAi?$AAe?$AAl?$AAd?$AAs?$AA?$CC?$AA?0?$AA?5?$AAs?$AAt?$AAr?$AAe@ 0050fd70     LIBCMTD:_flsbuf.obj
 0003:00011e08       ??_C@_1BE@GOOJIKLI@?$AA_?$AAf?$AAl?$AAs?$AAb?$AAu?$AAf?$AA?4?$AAc?$AA?$AA@ 0050fe08     LIBCMTD:_flsbuf.obj
 0003:00011e20       ??_C@_08MAFBHINM@ioinit?4c?$AA@ 0050fe20     LIBCMTD:ioinit.obj
 0003:00011e2c       ??_C@_1BA@JGHIEKKM@?$AA_?$AAf?$AAi?$AAl?$AAe?$AAn?$AAo?$AA?$AA@ 0050fe2c     LIBCMTD:fileno.obj
 0003:00011e40       ??_C@_1BC@FBGAHIFN@?$AAf?$AAi?$AAl?$AAe?$AAn?$AAo?$AA?4?$AAc?$AA?$AA@ 0050fe40     LIBCMTD:fileno.obj
 0003:00011e58       ??_C@_1FE@CEHLKAHD@?$AAi?$AAb?$AAa?$AAs?$AAe?$AA?5?$AA?$DN?$AA?$DN?$AA?5?$AA0?$AA?5?$AA?$HM?$AA?$HM?$AA?5?$AA?$CI?$AA2?$AA?5?$AA?$DM?$AA?$DN?$AA?5?$AAi?$AAb?$AAa?$AAs?$AAe?$AA?5?$AA?$CG?$AA?$CG?$AA?5?$AAi?$AAb?$AAa@ 0050fe58     LIBCMTD:strtol.obj
 0003:00011ebc       ??_C@_1BA@LOLAMAJG@?$AAs?$AAt?$AAr?$AAt?$AAo?$AAx?$AAl?$AA?$AA@ 0050febc     LIBCMTD:strtol.obj
 0003:00011ed0       ??_C@_1BC@CPINJNMH@?$AAs?$AAt?$AAr?$AAt?$AAo?$AAl?$AA?4?$AAc?$AA?$AA@ 0050fed0     LIBCMTD:strtol.obj
 0003:00011ee8       ??_C@_1BK@LAOAACLJ@?$AAn?$AAp?$AAt?$AAr?$AA?5?$AA?$CB?$AA?$DN?$AA?5?$AAN?$AAU?$AAL?$AAL?$AA?$AA@ 0050fee8     LIBCMTD:strtol.obj
 0003:00011f08       ??_C@_1BA@BMMDEPNE@?$AAs?$AAt?$AAr?$AAt?$AAo?$AAx?$AAq?$AA?$AA@ 0050ff08     LIBCMTD:strtoq.obj
 0003:00011f1c       ??_C@_1BC@MIDDLJDN@?$AAs?$AAt?$AAr?$AAt?$AAo?$AAq?$AA?4?$AAc?$AA?$AA@ 0050ff1c     LIBCMTD:strtoq.obj
 0003:00011f34       ??_C@_08GNMOIKDK@onexit?4c?$AA@ 0050ff34     LIBCMTD:onexit.obj
 0003:00011f40       ??_C@_0O@NLDKAIKN@EncodePointer?$AA@ 0050ff40     LIBCMTD:tidtable.obj
 0003:00011f50       ??_C@_0N@NHGLKGEC@KERNEL32?4DLL?$AA@ 0050ff50     LIBCMTD:tidtable.obj
 0003:00011f60       ??_C@_07EPKMNAGK@?4mixcrt?$AA@ 0050ff60     LIBCMTD:tidtable.obj
 0003:00011f6c       ??_C@_0O@KBPMFGHI@DecodePointer?$AA@ 0050ff6c     LIBCMTD:tidtable.obj
 0003:00011f7c       ??_C@_0L@JKCACIOJ@tidtable?4c?$AA@ 0050ff7c     LIBCMTD:tidtable.obj
 0003:00011f8c       ??_C@_07PEJMOBNF@FlsFree?$AA@ 0050ff8c     LIBCMTD:tidtable.obj
 0003:00011f98       ??_C@_0M@JCPCPOEF@FlsSetValue?$AA@ 0050ff98     LIBCMTD:tidtable.obj
 0003:00011fa8       ??_C@_0M@GDNOONDI@FlsGetValue?$AA@ 0050ffa8     LIBCMTD:tidtable.obj
 0003:00011fb8       ??_C@_08KNHFBNJ@FlsAlloc?$AA@ 0050ffb8     LIBCMTD:tidtable.obj
 0003:00011fc4       ??_C@_0P@GGKDKEEG@runtime?5error?5?$AA@ 0050ffc4     LIBCMTD:crt0msg.obj
 0003:00011fd8       ??_C@_02PCIJFNDE@?$AN?6?$AA@ 0050ffd8     LIBCMTD:crt0msg.obj
 0003:00011fdc       ??_C@_0O@MJNIPGOH@TLOSS?5error?$AN?6?$AA@ 0050ffdc     LIBCMTD:crt0msg.obj
 0003:00011fec       ??_C@_0N@BONNPDHF@SING?5error?$AN?6?$AA@ 0050ffec     LIBCMTD:crt0msg.obj
 0003:00011ffc       ??_C@_0P@MBDAJNE@DOMAIN?5error?$AN?6?$AA@ 0050fffc     LIBCMTD:crt0msg.obj
 0003:00012010       ??_C@_0BFB@HKKMCDOL@R6034?$AN?6An?5application?5has?5made?5a@ 00510010     LIBCMTD:crt0msg.obj
 0003:000121a8       ??_C@_0PH@EPAFIJ@R6033?$AN?6?9?5Attempt?5to?5use?5MSIL?5cod@ 005101a8     LIBCMTD:crt0msg.obj
 0003:000122d0       ??_C@_0DD@BKEEABMM@R6032?$AN?6?9?5not?5enough?5space?5for?5lo@ 005102d0     LIBCMTD:crt0msg.obj
 0003:00012310       ??_C@_0GD@OFKILIED@R6031?$AN?6?9?5Attempt?5to?5initialize?5t@ 00510310     LIBCMTD:crt0msg.obj
 0003:00012388       ??_C@_0BP@LPMHJOKI@R6030?$AN?6?9?5CRT?5not?5initialized?$AN?6?$AA@ 00510388     LIBCMTD:crt0msg.obj
 0003:000123b0       ??_C@_0CF@KJDAIALP@R6028?$AN?6?9?5unable?5to?5initialize?5he@ 005103b0     LIBCMTD:crt0msg.obj
 0003:000123dc       ??_C@_0DF@GAKBPDFP@R6027?$AN?6?9?5not?5enough?5space?5for?5lo@ 005103dc     LIBCMTD:crt0msg.obj
 0003:0001241c       ??_C@_0DF@IBLNNAIG@R6026?$AN?6?9?5not?5enough?5space?5for?5st@ 0051041c     LIBCMTD:crt0msg.obj
 0003:0001245c       ??_C@_0CG@IOHKGFNJ@R6025?$AN?6?9?5pure?5virtual?5function?5c@ 0051045c     LIBCMTD:crt0msg.obj
 0003:0001248c       ??_C@_0DF@JIJJFJDC@R6024?$AN?6?9?5not?5enough?5space?5for?5_o@ 0051048c     LIBCMTD:crt0msg.obj
 0003:000124cc       ??_C@_0CJ@EGEJHFME@R6019?$AN?6?9?5unable?5to?5open?5console?5@ 005104cc     LIBCMTD:crt0msg.obj
 0003:00012500       ??_C@_0CB@GNHNIELH@R6018?$AN?6?9?5unexpected?5heap?5error?$AN?6@ 00510500     LIBCMTD:crt0msg.obj
 0003:00012528       ??_C@_0CN@FOLDKNG@R6017?$AN?6?9?5unexpected?5multithread?5@ 00510528     LIBCMTD:crt0msg.obj
 0003:00012560       ??_C@_0CM@FAHFJNHO@R6016?$AN?6?9?5not?5enough?5space?5for?5th@ 00510560     LIBCMTD:crt0msg.obj
 0003:00012598       ??_C@_0JG@LBKMGKLD@?$AN?6This?5application?5has?5requested@ 00510598     LIBCMTD:crt0msg.obj
 0003:0001264c       ??_C@_0CM@FLCNIPKK@R6009?$AN?6?9?5not?5enough?5space?5for?5en@ 0051064c     LIBCMTD:crt0msg.obj
 0003:00012680       ??_C@_0CK@KMMJOAPP@R6008?$AN?6?9?5not?5enough?5space?5for?5ar@ 00510680     LIBCMTD:crt0msg.obj
 0003:000126b4       ??_C@_0CN@LEKKICBM@R6002?$AN?6?9?5floating?5point?5support?5@ 005106b4     LIBCMTD:crt0msg.obj
 0003:000126ec       ??_C@_0CF@GOGNBNAK@Microsoft?5Visual?5C?$CL?$CL?5Runtime?5Lib@ 005106ec     LIBCMTD:crt0msg.obj
 0003:00012718       ??_C@_1KC@JBIKIPNF@?$AAs?$AAt?$AAr?$AAc?$AAa?$AAt?$AA_?$AAs?$AA?$CI?$AAo?$AAu?$AAt?$AAm?$AAs?$AAg?$AA?0?$AA?5?$AA?$CI?$AAs?$AAi?$AAz?$AAe?$AAo?$AAf?$AA?$CI?$AAo?$AAu?$AAt?$AAm?$AAs?$AAg?$AA?$CJ@ 00510718     LIBCMTD:crt0msg.obj
 0003:000127dc       ??_C@_02PHMGELLB@?6?6?$AA@ 005107dc     LIBCMTD:crt0msg.obj
 0003:000127e0       ??_C@_1HO@POLIDBMF@?$AAs?$AAt?$AAr?$AAc?$AAa?$AAt?$AA_?$AAs?$AA?$CI?$AAo?$AAu?$AAt?$AAm?$AAs?$AAg?$AA?0?$AA?5?$AA?$CI?$AAs?$AAi?$AAz?$AAe?$AAo?$AAf?$AA?$CI?$AAo?$AAu?$AAt?$AAm?$AAs?$AAg?$AA?$CJ@ 005107e0     LIBCMTD:crt0msg.obj
 0003:00012878       ??_C@_1HG@CJJGKFHK@?$AAs?$AAt?$AAr?$AAn?$AAc?$AAp?$AAy?$AA_?$AAs?$AA?$CI?$AAp?$AAc?$AAh?$AA?0?$AA?5?$AAp?$AAr?$AAo?$AAg?$AAn?$AAa?$AAm?$AAe?$AA_?$AAs?$AAi?$AAz?$AAe?$AA?5?$AA?9?$AA?5?$AA?$CI@ 00510878     LIBCMTD:crt0msg.obj
 0003:00012908       ??_C@_0BH@DNAGHKFM@?$DMprogram?5name?5unknown?$DO?$AA@ 00510908     LIBCMTD:crt0msg.obj
 0003:00012928       ??_C@_1HI@FOOPEDMH@?$AAs?$AAt?$AAr?$AAc?$AAp?$AAy?$AA_?$AAs?$AA?$CI?$AAp?$AAr?$AAo?$AAg?$AAn?$AAa?$AAm?$AAe?$AA?0?$AA?5?$AAp?$AAr?$AAo?$AAg?$AAn?$AAa?$AAm?$AAe?$AA_?$AAs?$AAi?$AAz?$AAe@ 00510928     LIBCMTD:crt0msg.obj
 0003:000129b8       ??_C@_0BK@OFGJDLJJ@Runtime?5Error?$CB?6?6Program?3?5?$AA@ 005109b8     LIBCMTD:crt0msg.obj
 0003:000129d8       ??_C@_1KM@NKKPELHG@?$AAs?$AAt?$AAr?$AAc?$AAp?$AAy?$AA_?$AAs?$AA?$CI?$AAo?$AAu?$AAt?$AAm?$AAs?$AAg?$AA?0?$AA?5?$AA?$CI?$AAs?$AAi?$AAz?$AAe?$AAo?$AAf?$AA?$CI?$AAo?$AAu?$AAt?$AAm?$AAs?$AAg?$AA?$CJ@ 005109d8     LIBCMTD:crt0msg.obj
 0003:00012aa8       ??_C@_1BI@EAHMBMEC@?$AA_?$AAN?$AAM?$AAS?$AAG?$AA_?$AAW?$AAR?$AAI?$AAT?$AAE?$AA?$AA@ 00510aa8     LIBCMTD:crt0msg.obj
 0003:00012ac4       ??_C@_1BE@HJCCFLDA@?$AAc?$AAr?$AAt?$AA0?$AAm?$AAs?$AAg?$AA?4?$AAc?$AA?$AA@ 00510ac4     LIBCMTD:crt0msg.obj
 0003:00012adc       ??_C@_09KJLOAKHC@mbctype?4c?$AA@ 00510adc     LIBCMTD:mbctype.obj
 0003:00012ae8       ??_C@_07CKDBCAPD@mlock?4c?$AA@ 00510ae8     LIBCMTD:mlock.obj
 0003:00012af4       ??_C@_1O@EJLDHPPL@?$AAs?$AAi?$AAg?$AAn?$AAa?$AAl?$AA?$AA@ 00510af4     LIBCMTD:winsig.obj
 0003:00012b04       ??_C@_1BC@KDODBONJ@?$AAw?$AAi?$AAn?$AAs?$AAi?$AAg?$AA?4?$AAc?$AA?$AA@ 00510b04     LIBCMTD:winsig.obj
 0003:00012b1c       ??_C@_1DO@MLNEDKGB@?$AA?$CI?$AA?$CC?$AAI?$AAn?$AAv?$AAa?$AAl?$AAi?$AAd?$AA?5?$AAs?$AAi?$AAg?$AAn?$AAa?$AAl?$AA?5?$AAo?$AAr?$AA?5?$AAe?$AAr?$AAr?$AAo?$AAr?$AA?$CC?$AA?0?$AA?5?$AA0?$AA?$CJ?$AA?$AA@ 00510b1c     LIBCMTD:winsig.obj
 0003:00012b68       ??_C@_08FKHPDPAC@winsig?4c?$AA@ 00510b68     LIBCMTD:winsig.obj
 0003:00012b74       ??_C@_1M@DMJEIKHL@?$AAr?$AAa?$AAi?$AAs?$AAe?$AA?$AA@ 00510b74     LIBCMTD:winsig.obj
 0003:00012b84       ??_C@_0BC@JEAENNKH@SystemFunction036?$AA@ 00510b84     LIBCMTD:rand_s.obj
 0003:00012ba0       ??_C@_1GA@EBEDGGGB@?$AA?$CI?$AA?$CC?$AAr?$AAa?$AAn?$AAd?$AA_?$AAs?$AA?5?$AAi?$AAs?$AA?5?$AAn?$AAo?$AAt?$AA?5?$AAa?$AAv?$AAa?$AAi?$AAl?$AAa?$AAb?$AAl?$AAe?$AA?5?$AAo?$AAn?$AA?5?$AAt?$AAh?$AAi@ 00510ba0     LIBCMTD:rand_s.obj
 0003:00012c14       ??_C@_0N@JJPEKNFO@ADVAPI32?4DLL?$AA@ 00510c14     LIBCMTD:rand_s.obj
 0003:00012c24       ??_C@_1O@IJGPPOGF@?$AAr?$AAa?$AAn?$AAd?$AA_?$AAs?$AA?$AA@ 00510c24     LIBCMTD:rand_s.obj
 0003:00012c34       ??_C@_1BC@NBJGCJKM@?$AAr?$AAa?$AAn?$AAd?$AA_?$AAs?$AA?4?$AAc?$AA?$AA@ 00510c34     LIBCMTD:rand_s.obj
 0003:00012c4c       ??_C@_1CK@GFDNDKK@?$AA_?$AAR?$AAa?$AAn?$AAd?$AAo?$AAm?$AAV?$AAa?$AAl?$AAu?$AAe?$AA?5?$AA?$CB?$AA?$DN?$AA?5?$AAN?$AAU?$AAL?$AAL?$AA?$AA@ 00510c4c     LIBCMTD:rand_s.obj
 0003:00012c80       ??_C@_1GO@NGIGJNHH@?$AAs?$AAt?$AAr?$AAn?$AAc?$AAp?$AAy?$AA_?$AAs?$AA?$CI?$AA?$CK?$AAs?$AAt?$AAr?$AAa?$AAd?$AAd?$AAr?$AAe?$AAs?$AAs?$AA?0?$AA?5?$AAo?$AAu?$AAt?$AAs?$AAi?$AAz?$AAe?$AA?0?$AA?5@ 00510c80     LIBCMTD:inithelp.obj
 0003:00012d04       ??_C@_1CA@KHHCPEI@?$AA_?$AA_?$AAg?$AAe?$AAt?$AAl?$AAo?$AAc?$AAa?$AAl?$AAe?$AAi?$AAn?$AAf?$AAo?$AA?$AA@ 00510d04     LIBCMTD:inithelp.obj
 0003:00012d2c       ??_C@_1BG@OFMEOKEA@?$AAi?$AAn?$AAi?$AAt?$AAh?$AAe?$AAl?$AAp?$AA?4?$AAc?$AA?$AA@ 00510d2c     LIBCMTD:inithelp.obj
 0003:00012d48       ??_C@_0L@DILIPMN@inithelp?4c?$AA@ 00510d48     LIBCMTD:inithelp.obj
 0003:00012d58       ??_C@_0CG@PKBDLMEO@InitializeCriticalSectionAndSpin@ 00510d58     LIBCMTD:initcrit.obj
 0003:00012d88       ??_C@_0N@MDJJJHMB@kernel32?4dll?$AA@ 00510d88     LIBCMTD:initcrit.obj
 0003:00012d98       ??_C@_1DK@EGKDBLND@?$AA_?$AA_?$AAc?$AAr?$AAt?$AAI?$AAn?$AAi?$AAt?$AAC?$AAr?$AAi?$AAt?$AAS?$AAe?$AAc?$AAA?$AAn?$AAd?$AAS?$AAp?$AAi?$AAn?$AAC?$AAo?$AAu?$AAn?$AAt?$AA?$AA@ 00510d98     LIBCMTD:initcrit.obj
 0003:00012de0       ??_C@_1BG@LABPBAGA@?$AAi?$AAn?$AAi?$AAt?$AAc?$AAr?$AAi?$AAt?$AA?4?$AAc?$AA?$AA@ 00510de0     LIBCMTD:initcrit.obj
 0003:00012dfc       ??_C@_1BI@OINOOFEA@?$AAh?$AAa?$AAn?$AAd?$AAl?$AAe?$AAr?$AA?4?$AAc?$AAp?$AAp?$AA?$AA@ 00510dfc     LIBCMTD:handler.obj
 0003:00012e18       ??_C@_1BC@JLLICHIC@?$AAp?$AAn?$AAh?$AA?5?$AA?$DN?$AA?$DN?$AA?5?$AA0?$AA?$AA@ 00510e18     LIBCMTD:handler.obj
 0003:00012e30       ??_C@_1JE@ECKHFIFP@?$AA?$CI?$AA?$CC?$AAI?$AAn?$AAv?$AAa?$AAl?$AAi?$AAd?$AA?5?$AAf?$AAi?$AAl?$AAe?$AA?5?$AAd?$AAe?$AAs?$AAc?$AAr?$AAi?$AAp?$AAt?$AAo?$AAr?$AA?4?$AA?5?$AAF?$AAi?$AAl?$AAe?$AA?5@ 00510e30     LIBCMTD:close.obj
 0003:00012ee4       ??_C@_1CM@OKGMMMDH@?$AA?$CI?$AA_?$AAo?$AAs?$AAf?$AAi?$AAl?$AAe?$AA?$CI?$AAf?$AAh?$AA?$CJ?$AA?5?$AA?$CG?$AA?5?$AAF?$AAO?$AAP?$AAE?$AAN?$AA?$CJ?$AA?$AA@ 00510ee4     LIBCMTD:close.obj
 0003:00012f18       ??_C@_1O@EDEJGJBM@?$AA_?$AAc?$AAl?$AAo?$AAs?$AAe?$AA?$AA@ 00510f18     LIBCMTD:close.obj
 0003:00012f28       ??_C@_1BA@GOGDMMEN@?$AAc?$AAl?$AAo?$AAs?$AAe?$AA?4?$AAc?$AA?$AA@ 00510f28     LIBCMTD:close.obj
 0003:00012f40       ??_C@_1FO@LPCLHKGE@?$AA?$CI?$AAf?$AAh?$AA?5?$AA?$DO?$AA?$DN?$AA?5?$AA0?$AA?5?$AA?$CG?$AA?$CG?$AA?5?$AA?$CI?$AAu?$AAn?$AAs?$AAi?$AAg?$AAn?$AAe?$AAd?$AA?$CJ?$AAf?$AAh?$AA?5?$AA?$DM?$AA?5?$AA?$CI?$AAu?$AAn?$AAs?$AAi@ 00510f40     LIBCMTD:close.obj
 0003:00012fb0       ??_C@_1BG@BCLADFND@?$AA_?$AAf?$AAr?$AAe?$AAe?$AAb?$AAu?$AAf?$AA?4?$AAc?$AA?$AA@ 00510fb0     LIBCMTD:_freebuf.obj
 0003:00012fcc       ??_C@_1BO@KIJENGPH@?$AAs?$AAt?$AAr?$AAe?$AAa?$AAm?$AA?5?$AA?$CB?$AA?$DN?$AA?5?$AAN?$AAU?$AAL?$AAL?$AA?$AA@ 00510fcc     LIBCMTD:_freebuf.obj
 0003:00013028       ??_C@_1CI@KEDPFCAL@?$AA?$CI?$AA?$CK?$AAm?$AAo?$AAd?$AAe?$AA?5?$AA?$DN?$AA?$DN?$AA?5?$AA_?$AAT?$AA?$CI?$AA?8?$AA?2?$AA0?$AA?8?$AA?$CJ?$AA?$CJ?$AA?$AA@ 00511028     LIBCMTD:_open.obj
 0003:00013058       ??_C@_1BE@DONHJJKE@?$AA_?$AAo?$AAp?$AAe?$AAn?$AAf?$AAi?$AAl?$AAe?$AA?$AA@ 00511058     LIBCMTD:_open.obj
 0003:00013070       ??_C@_1DK@PKMJBLLN@?$AA?$CI?$AA?$CC?$AAI?$AAn?$AAv?$AAa?$AAl?$AAi?$AAd?$AA?5?$AAf?$AAi?$AAl?$AAe?$AA?5?$AAo?$AAp?$AAe?$AAn?$AA?5?$AAm?$AAo?$AAd?$AAe?$AA?$CC?$AA?0?$AA0?$AA?$CJ?$AA?$AA@ 00511070     LIBCMTD:_open.obj
 0003:000130b8       ??_C@_1BK@HGLMNMEC@?$AAm?$AAo?$AAd?$AAe?$AA?5?$AA?$CB?$AA?$DN?$AA?5?$AAN?$AAU?$AAL?$AAL?$AA?$AA@ 005110b8     LIBCMTD:_open.obj
 0003:000130d8       ??_C@_1BA@ENGOOAMJ@?$AA_?$AAo?$AAp?$AAe?$AAn?$AA?4?$AAc?$AA?$AA@ 005110d8     LIBCMTD:_open.obj
 0003:000130ec       ??_C@_1CC@JBMDNKJP@?$AAf?$AAi?$AAl?$AAe?$AAn?$AAa?$AAm?$AAe?$AA?5?$AA?$CB?$AA?$DN?$AA?5?$AAN?$AAU?$AAL?$AAL?$AA?$AA@ 005110ec     LIBCMTD:_open.obj
 0003:00013114       ??_C@_08MKBBPGGN@stream?4c?$AA@ 00511114     LIBCMTD:stream.obj
 0003:00013120       ??_C@_1DC@OIOKIELJ@?$AA_?$AAg?$AAe?$AAt?$AA_?$AAw?$AAi?$AAn?$AAm?$AAa?$AAj?$AAo?$AAr?$AA?$CI?$AA?$CG?$AAw?$AAi?$AAn?$AAm?$AAa?$AAj?$AAo?$AAr?$AA?$CJ?$AA?$AA@ 00511120     LIBCMTD:crtmboxw.obj
 0003:0001315c       ??_C@_0BI@DFKBFLJE@GetProcessWindowStation?$AA@ 0051115c     LIBCMTD:crtmboxw.obj
 0003:00013178       ??_C@_0BK@DEKFELLI@GetUserObjectInformationW?$AA@ 00511178     LIBCMTD:crtmboxw.obj
 0003:00013198       ??_C@_1CC@LBPMICNL@?$AA_?$AA_?$AAc?$AAr?$AAt?$AAM?$AAe?$AAs?$AAs?$AAa?$AAg?$AAe?$AAB?$AAo?$AAx?$AAW?$AA?$AA@ 00511198     LIBCMTD:crtmboxw.obj
 0003:000131c0       ??_C@_1GC@HLBFDAED@?$AAf?$AA?3?$AA?2?$AAs?$AAp?$AA?2?$AAv?$AAc?$AAt?$AAo?$AAo?$AAl?$AAs?$AA?2?$AAc?$AAr?$AAt?$AA_?$AAb?$AAl?$AAd?$AA?2?$AAs?$AAe?$AAl?$AAf?$AA_?$AAx?$AA8?$AA6?$AA?2?$AAc@ 005111c0     LIBCMTD:crtmboxw.obj
 0003:00013238       ??_C@_0BD@HHGDFDBJ@GetLastActivePopup?$AA@ 00511238     LIBCMTD:crtmboxw.obj
 0003:00013250       ??_C@_0BA@HNOPNCHB@GetActiveWindow?$AA@ 00511250     LIBCMTD:crtmboxw.obj
 0003:00013264       ??_C@_0M@DLDCCGNP@MessageBoxW?$AA@ 00511264     LIBCMTD:crtmboxw.obj
 0003:00013274       ??_C@_1BG@GOEBHBDC@?$AAU?$AAS?$AAE?$AAR?$AA3?$AA2?$AA?4?$AAD?$AAL?$AAL?$AA?$AA@ 00511274     LIBCMTD:crtmboxw.obj
 0003:00013290       ??_C@_1CM@HABGDNLJ@?$AAl?$AAe?$AAn?$AAg?$AAt?$AAh?$AA?5?$AA?$DM?$AA?5?$AAs?$AAi?$AAz?$AAe?$AAI?$AAn?$AAT?$AAC?$AAh?$AAa?$AAr?$AAs?$AA?$AA@ 00511290     LIBCMTD:xtows.obj
 0003:000132c4       ??_C@_1DE@PCJGDBBD@?$AA2?$AA?5?$AA?$DM?$AA?$DN?$AA?5?$AAr?$AAa?$AAd?$AAi?$AAx?$AA?5?$AA?$CG?$AA?$CG?$AA?5?$AAr?$AAa?$AAd?$AAi?$AAx?$AA?5?$AA?$DM?$AA?$DN?$AA?5?$AA3?$AA6?$AA?$AA@ 005112c4     LIBCMTD:xtows.obj
 0003:00013308       ??_C@_1FA@MKGGAGEI@?$AAs?$AAi?$AAz?$AAe?$AAI?$AAn?$AAT?$AAC?$AAh?$AAa?$AAr?$AAs?$AA?5?$AA?$DO?$AA?5?$AA?$CI?$AAs?$AAi?$AAz?$AAe?$AA_?$AAt?$AA?$CJ?$AA?$CI?$AAi?$AAs?$AA_?$AAn?$AAe?$AAg?$AA?5?$AA?$DP@ 00511308     LIBCMTD:xtows.obj
 0003:00013368       ??_C@_1CC@JNJFIMGE@?$AAs?$AAi?$AAz?$AAe?$AAI?$AAn?$AAT?$AAC?$AAh?$AAa?$AAr?$AAs?$AA?5?$AA?$DO?$AA?5?$AA0?$AA?$AA@ 00511368     LIBCMTD:xtows.obj
 0003:00013390       ??_C@_1O@NCBFODOE@?$AAx?$AAt?$AAo?$AAw?$AA_?$AAs?$AA?$AA@ 00511390     LIBCMTD:xtows.obj
 0003:000133a0       ??_C@_1FM@LINCFGBD@?$AAf?$AA?3?$AA?2?$AAs?$AAp?$AA?2?$AAv?$AAc?$AAt?$AAo?$AAo?$AAl?$AAs?$AA?2?$AAc?$AAr?$AAt?$AA_?$AAb?$AAl?$AAd?$AA?2?$AAs?$AAe?$AAl?$AAf?$AA_?$AAx?$AA8?$AA6?$AA?2?$AAc@ 005113a0     LIBCMTD:xtows.obj
 0003:00013410       ??_C@_1BI@ICGGMGLK@?$AAb?$AAu?$AAf?$AA?5?$AA?$CB?$AA?$DN?$AA?5?$AAN?$AAU?$AAL?$AAL?$AA?$AA@ 00511410     LIBCMTD:xtows.obj
 0003:0001342c       ??_C@_1BC@HDEJCFPB@?$AAx?$AA6?$AA4?$AAt?$AAo?$AAw?$AA_?$AAs?$AA?$AA@ 0051142c     LIBCMTD:xtows.obj
 0003:00013444       ??_C@_1DM@MADKGDLO@?$AA?$CI?$AAL?$AA?$CC?$AAB?$AAu?$AAf?$AAf?$AAe?$AAr?$AA?5?$AAi?$AAs?$AA?5?$AAt?$AAo?$AAo?$AA?5?$AAs?$AAm?$AAa?$AAl?$AAl?$AA?$CC?$AA?5?$AA?$CG?$AA?$CG?$AA?5?$AA0?$AA?$CJ?$AA?$AA@ 00511444     LIBCMTD:wcsncat_s.obj
 0003:0001348c       ??_C@_1CI@HCPHDDLE@?$AAB?$AAu?$AAf?$AAf?$AAe?$AAr?$AA?5?$AAi?$AAs?$AA?5?$AAt?$AAo?$AAo?$AA?5?$AAs?$AAm?$AAa?$AAl?$AAl?$AA?$AA@ 0051148c     LIBCMTD:wcsncat_s.obj
 0003:000134c0       ??_C@_1FA@MJKDNFFB@?$AA?$CI?$AAL?$AA?$CC?$AAS?$AAt?$AAr?$AAi?$AAn?$AAg?$AA?5?$AAi?$AAs?$AA?5?$AAn?$AAo?$AAt?$AA?5?$AAn?$AAu?$AAl?$AAl?$AA?5?$AAt?$AAe?$AAr?$AAm?$AAi?$AAn?$AAa?$AAt?$AAe?$AAd@ 005114c0     LIBCMTD:wcsncat_s.obj
 0003:00013520       ??_C@_1DM@FHLMIEG@?$AAS?$AAt?$AAr?$AAi?$AAn?$AAg?$AA?5?$AAi?$AAs?$AA?5?$AAn?$AAo?$AAt?$AA?5?$AAn?$AAu?$AAl?$AAl?$AA?5?$AAt?$AAe?$AAr?$AAm?$AAi?$AAn?$AAa?$AAt?$AAe?$AAd?$AA?$AA@ 00511520     LIBCMTD:wcsncat_s.obj
 0003:00013568       ??_C@_1CG@OFBJMIGJ@?$AA?$CI?$AA?$CI?$AA?$CI?$AA_?$AAS?$AAr?$AAc?$AA?$CJ?$AA?$CJ?$AA?$CJ?$AA?5?$AA?$CB?$AA?$DN?$AA?5?$AAN?$AAU?$AAL?$AAL?$AA?$AA@ 00511568     LIBCMTD:wcsncat_s.obj
 0003:00013598       ??_C@_1BE@KPKIKKCF@?$AAw?$AAc?$AAs?$AAn?$AAc?$AAa?$AAt?$AA_?$AAs?$AA?$AA@ 00511598     LIBCMTD:wcsncat_s.obj
 0003:000135b0       ??_C@_1GK@ECHLEFPM@?$AAF?$AA?3?$AA?2?$AAS?$AAP?$AA?2?$AAv?$AAc?$AAt?$AAo?$AAo?$AAl?$AAs?$AA?2?$AAc?$AAr?$AAt?$AA_?$AAb?$AAl?$AAd?$AA?2?$AAS?$AAE?$AAL?$AAF?$AA_?$AAX?$AA8?$AA6?$AA?2?$AAc@ 005115b0     LIBCMTD:wcsncat_s.obj
 0003:00013630       ??_C@_1FC@PFMLEHKI@?$AA?$CI?$AA?$CI?$AA_?$AAD?$AAs?$AAt?$AA?$CJ?$AA?$CJ?$AA?5?$AA?$CB?$AA?$DN?$AA?5?$AAN?$AAU?$AAL?$AAL?$AA?5?$AA?$CG?$AA?$CG?$AA?5?$AA?$CI?$AA?$CI?$AA_?$AAS?$AAi?$AAz?$AAe?$AAI?$AAn?$AAW?$AAo?$AAr@ 00511630     LIBCMTD:wcsncat_s.obj
 0003:00013694       ??_C@_1BE@PMMBFFCC@?$AAw?$AAc?$AAs?$AAn?$AAc?$AAp?$AAy?$AA_?$AAs?$AA?$AA@ 00511694     LIBCMTD:wcsncpy_s.obj
 0003:000136b0       ??_C@_1GK@IKMAONFM@?$AAF?$AA?3?$AA?2?$AAS?$AAP?$AA?2?$AAv?$AAc?$AAt?$AAo?$AAo?$AAl?$AAs?$AA?2?$AAc?$AAr?$AAt?$AA_?$AAb?$AAl?$AAd?$AA?2?$AAS?$AAE?$AAL?$AAF?$AA_?$AAX?$AA8?$AA6?$AA?2?$AAc@ 005116b0     LIBCMTD:wcsncpy_s.obj
 0003:00013730       ??_C@_1BC@PLIEPKPJ@?$AAw?$AAc?$AAs?$AAc?$AAa?$AAt?$AA_?$AAs?$AA?$AA@ 00511730     LIBCMTD:wcscat_s.obj
 0003:00013748       ??_C@_1GI@HANKOOAN@?$AAF?$AA?3?$AA?2?$AAS?$AAP?$AA?2?$AAv?$AAc?$AAt?$AAo?$AAo?$AAl?$AAs?$AA?2?$AAc?$AAr?$AAt?$AA_?$AAb?$AAl?$AAd?$AA?2?$AAS?$AAE?$AAL?$AAF?$AA_?$AAX?$AA8?$AA6?$AA?2?$AAc@ 00511748     LIBCMTD:wcscat_s.obj
 0003:000137c4       ??_C@_1BC@KIONAFPO@?$AAw?$AAc?$AAs?$AAc?$AAp?$AAy?$AA_?$AAs?$AA?$AA@ 005117c4     LIBCMTD:wcscpy_s.obj
 0003:000137e0       ??_C@_1GI@LIGBEGKN@?$AAF?$AA?3?$AA?2?$AAS?$AAP?$AA?2?$AAv?$AAc?$AAt?$AAo?$AAo?$AAl?$AAs?$AA?2?$AAc?$AAr?$AAt?$AA_?$AAb?$AAl?$AAd?$AA?2?$AAS?$AAE?$AAL?$AAF?$AA_?$AAX?$AA8?$AA6?$AA?2?$AAc@ 005117e0     LIBCMTD:wcscpy_s.obj
 0003:0001385c       ??_C@_1BC@BHLPNJBO@?$AAf?$AAw?$AAp?$AAr?$AAi?$AAn?$AAt?$AAf?$AA?$AA@ 0051185c     LIBCMTD:fwprintf.obj
 0003:00013874       ??_C@_1BG@MGCFCFAI@?$AAf?$AAw?$AAp?$AAr?$AAi?$AAn?$AAt?$AAf?$AA?4?$AAc?$AA?$AA@ 00511874     LIBCMTD:fwprintf.obj
 0003:00013890       ??_C@_09KGBNCNDN@setvbuf?4c?$AA@ 00511890     LIBCMTD:setvbuf.obj
 0003:000138a0       ??_C@_1EG@IJNJIDNB@?$AA?$CI?$AA?$CI?$AA2?$AA?5?$AA?$DM?$AA?$DN?$AA?5?$AAs?$AAi?$AAz?$AAe?$AA?$CJ?$AA?5?$AA?$CG?$AA?$CG?$AA?5?$AA?$CI?$AAs?$AAi?$AAz?$AAe?$AA?5?$AA?$DM?$AA?$DN?$AA?5?$AAI?$AAN?$AAT?$AA_?$AAM?$AAA?$AAX@ 005118a0     LIBCMTD:setvbuf.obj
 0003:000138f8       ??_C@_1HC@CBFEDAGG@?$AA?$CI?$AAt?$AAy?$AAp?$AAe?$AA?5?$AA?$DN?$AA?$DN?$AA?5?$AA_?$AAI?$AAO?$AAN?$AAB?$AAF?$AA?$CJ?$AA?5?$AA?$HM?$AA?$HM?$AA?5?$AA?$CI?$AAt?$AAy?$AAp?$AAe?$AA?5?$AA?$DN?$AA?$DN?$AA?5?$AA_?$AAI?$AAO@ 005118f8     LIBCMTD:setvbuf.obj
 0003:00013980       ??_C@_1BA@OGODIODK@?$AAs?$AAe?$AAt?$AAv?$AAb?$AAu?$AAf?$AA?$AA@ 00511980     LIBCMTD:setvbuf.obj
 0003:00013994       ??_C@_1BE@FMDCPFIG@?$AAs?$AAe?$AAt?$AAv?$AAb?$AAu?$AAf?$AA?4?$AAc?$AA?$AA@ 00511994     LIBCMTD:setvbuf.obj
 0003:000139ac       ??_C@_1CA@LFDHAMEM@?$AA_?$AAs?$AAe?$AAt?$AA_?$AAe?$AAr?$AAr?$AAo?$AAr?$AA_?$AAm?$AAo?$AAd?$AAe?$AA?$AA@ 005119ac     LIBCMTD:errmode.obj
 0003:000139d4       ??_C@_1BE@FFANBHLE@?$AAe?$AAr?$AAr?$AAm?$AAo?$AAd?$AAe?$AA?4?$AAc?$AA?$AA@ 005119d4     LIBCMTD:errmode.obj
 0003:000139ec       ??_C@_1DE@BCNCAIK@?$AA?$CI?$AA?$CC?$AAI?$AAn?$AAv?$AAa?$AAl?$AAi?$AAd?$AA?5?$AAe?$AAr?$AAr?$AAo?$AAr?$AA_?$AAm?$AAo?$AAd?$AAe?$AA?$CC?$AA?0?$AA?5?$AA0?$AA?$CJ?$AA?$AA@ 005119ec     LIBCMTD:errmode.obj
 0003:00013a2c       ??_C@_0DN@EBBNMLME@?$CIPress?5Retry?5to?5debug?5the?5applic@ 00511a2c     LIBCMTD:assert.obj
 0003:00013a78       ??_C@_1LM@PPELICOO@?$AAs?$AAt?$AAr?$AAc?$AAa?$AAt?$AA_?$AAs?$AA?$CI?$AAa?$AAs?$AAs?$AAe?$AAr?$AAt?$AAb?$AAu?$AAf?$AA?0?$AA?5?$AA?$CI?$AA6?$AA0?$AA?5?$AA?$CK?$AA?5?$AA9?$AA?$CJ?$AA?0?$AA?5?$AA?$CC?$AA?$CI@ 00511a78     LIBCMTD:assert.obj
 0003:00013b60       ??_C@_1FG@FPMGDMJC@?$AAs?$AAt?$AAr?$AAc?$AAa?$AAt?$AA_?$AAs?$AA?$CI?$AAa?$AAs?$AAs?$AAe?$AAr?$AAt?$AAb?$AAu?$AAf?$AA?0?$AA?5?$AA?$CI?$AA6?$AA0?$AA?5?$AA?$CK?$AA?5?$AA9?$AA?$CJ?$AA?0?$AA?5?$AAd?$AAb@ 00511b60     LIBCMTD:assert.obj
 0003:00013bc8       ??_C@_0HA@OJHAGA@For?5information?5on?5how?5your?5prog@ 00511bc8     LIBCMTD:assert.obj
 0003:00013c50       ??_C@_1BCK@FOGOPFPO@?$AAs?$AAt?$AAr?$AAc?$AAa?$AAt?$AA_?$AAs?$AA?$CI?$AAa?$AAs?$AAs?$AAe?$AAr?$AAt?$AAb?$AAu?$AAf?$AA?0?$AA?5?$AA?$CI?$AA6?$AA0?$AA?5?$AA?$CK?$AA?5?$AA9?$AA?$CJ?$AA?0?$AA?5?$AA?$CC?$AAF@ 00511c50     LIBCMTD:assert.obj
 0003:00013db8       ??_C@_1EM@ENNCDANH@?$AAs?$AAt?$AAr?$AAc?$AAa?$AAt?$AA_?$AAs?$AA?$CI?$AA?5?$AAa?$AAs?$AAs?$AAe?$AAr?$AAt?$AAb?$AAu?$AAf?$AA?0?$AA?5?$AA?$CI?$AA6?$AA0?$AA?5?$AA?$CK?$AA?5?$AA9?$AA?$CJ?$AA?0?$AA?5?$AAe@ 00511db8     LIBCMTD:assert.obj
 0003:00013e18       ??_C@_1CHK@HNOMNMBD@?$AA_?$AAm?$AAb?$AAs?$AAn?$AAb?$AAc?$AAa?$AAt?$AA_?$AAs?$AA?$CI?$AA?5?$AAa?$AAs?$AAs?$AAe?$AAr?$AAt?$AAb?$AAu?$AAf?$AA?0?$AA?5?$AA?$CI?$AA6?$AA0?$AA?5?$AA?$CK?$AA?5?$AA9?$AA?$CJ@ 00511e18     LIBCMTD:assert.obj
 0003:00014110       ??_C@_0N@MEECIJGN@Expression?3?5?$AA@ 00512110     LIBCMTD:assert.obj
 0003:00014120       ??_C@_1GA@GHECLIPG@?$AAs?$AAt?$AAr?$AAc?$AAa?$AAt?$AA_?$AAs?$AA?$CI?$AA?5?$AAa?$AAs?$AAs?$AAe?$AAr?$AAt?$AAb?$AAu?$AAf?$AA?0?$AA?5?$AA?$CI?$AA6?$AA0?$AA?5?$AA?$CK?$AA?5?$AA9?$AA?$CJ?$AA?0?$AA?5?$AA?$CC@ 00512120     LIBCMTD:assert.obj
 0003:00014198       ??_C@_1KG@MJEHKFDP@?$AA_?$AAi?$AAt?$AAo?$AAa?$AA_?$AAs?$AA?$CI?$AA?5?$AAl?$AAi?$AAn?$AAe?$AAn?$AAo?$AA?0?$AA?5?$AAa?$AAs?$AAs?$AAe?$AAr?$AAt?$AAb?$AAu?$AAf?$AA?5?$AA?$CL?$AA?5?$AAs?$AAt?$AAr@ 00512198     LIBCMTD:assert.obj
 0003:00014260       ??_C@_06FIEBOLOH@Line?3?5?$AA@ 00512260     LIBCMTD:assert.obj
 0003:00014268       ??_C@_1FE@EHMPHKDB@?$AAs?$AAt?$AAr?$AAc?$AAa?$AAt?$AA_?$AAs?$AA?$CI?$AA?5?$AAa?$AAs?$AAs?$AAe?$AAr?$AAt?$AAb?$AAu?$AAf?$AA?0?$AA?5?$AA?$CI?$AA6?$AA0?$AA?5?$AA?$CK?$AA?5?$AA9?$AA?$CJ?$AA?0?$AA?5?$AA?$CC@ 00512268     LIBCMTD:assert.obj
 0003:000142d0       ??_C@_1FE@BELKICLD@?$AAs?$AAt?$AAr?$AAc?$AAa?$AAt?$AA_?$AAs?$AA?$CI?$AA?5?$AAa?$AAs?$AAs?$AAe?$AAr?$AAt?$AAb?$AAu?$AAf?$AA?0?$AA?5?$AA?$CI?$AA6?$AA0?$AA?5?$AA?$CK?$AA?5?$AA9?$AA?$CJ?$AA?0?$AA?5?$AAf@ 005122d0     LIBCMTD:assert.obj
 0003:00014338       ??_C@_1IC@IABENIAD@?$AAs?$AAt?$AAr?$AAc?$AAa?$AAt?$AA_?$AAs?$AA?$CI?$AA?5?$AAa?$AAs?$AAs?$AAe?$AAr?$AAt?$AAb?$AAu?$AAf?$AA?0?$AA?5?$AA?$CI?$AA6?$AA0?$AA?5?$AA?$CK?$AA?5?$AA9?$AA?$CJ?$AA?0?$AA?5?$AAp@ 00512338     LIBCMTD:assert.obj
 0003:000143d8       ??_C@_1HK@LJCIAEID@?$AA_?$AAm?$AAb?$AAs?$AAn?$AAb?$AAc?$AAa?$AAt?$AA_?$AAs?$AA?$CI?$AA?5?$AAa?$AAs?$AAs?$AAe?$AAr?$AAt?$AAb?$AAu?$AAf?$AA?0?$AA?5?$AA?$CI?$AA6?$AA0?$AA?5?$AA?$CK?$AA?5?$AA9?$AA?$CJ@ 005123d8     LIBCMTD:assert.obj
 0003:00014470       ??_C@_1HC@NNJOOJHD@?$AA_?$AAm?$AAb?$AAs?$AAn?$AAb?$AAc?$AAa?$AAt?$AA_?$AAs?$AA?$CI?$AA?5?$AAa?$AAs?$AAs?$AAe?$AAr?$AAt?$AAb?$AAu?$AAf?$AA?0?$AA?5?$AA?$CI?$AA6?$AA0?$AA?5?$AA?$CK?$AA?5?$AA9?$AA?$CJ@ 00512470     LIBCMTD:assert.obj
 0003:000144f8       ??_C@_1FO@ILLBEHNB@?$AAs?$AAt?$AAr?$AAc?$AAa?$AAt?$AA_?$AAs?$AA?$CI?$AA?5?$AAa?$AAs?$AAs?$AAe?$AAr?$AAt?$AAb?$AAu?$AAf?$AA?0?$AA?5?$AA?$CI?$AA6?$AA0?$AA?5?$AA?$CK?$AA?5?$AA9?$AA?$CJ?$AA?0?$AA?5?$AAp@ 005124f8     LIBCMTD:assert.obj
 0003:00014568       ??_C@_1FG@BIHAHDLM@?$AAs?$AAt?$AAr?$AAc?$AAa?$AAt?$AA_?$AAs?$AA?$CI?$AA?5?$AAa?$AAs?$AAs?$AAe?$AAr?$AAt?$AAb?$AAu?$AAf?$AA?0?$AA?5?$AA?$CI?$AA6?$AA0?$AA?5?$AA?$CK?$AA?5?$AA9?$AA?$CJ?$AA?0?$AA?5?$AAd@ 00512568     LIBCMTD:assert.obj
 0003:000145d0       ??_C@_1GK@LELDAJFN@?$AA_?$AAm?$AAb?$AAs?$AAn?$AAb?$AAc?$AAa?$AAt?$AA_?$AAs?$AA?$CI?$AA?5?$AAa?$AAs?$AAs?$AAe?$AAr?$AAt?$AAb?$AAu?$AAf?$AA?0?$AA?5?$AA?$CI?$AA6?$AA0?$AA?5?$AA?$CK?$AA?5?$AA9?$AA?$CJ@ 005125d0     LIBCMTD:assert.obj
 0003:00014650       ??_C@_06IGPBOHMJ@File?3?5?$AA@ 00512650     LIBCMTD:assert.obj
 0003:00014658       ??_C@_1FE@JHHKPPGM@?$AAs?$AAt?$AAr?$AAc?$AAa?$AAt?$AA_?$AAs?$AA?$CI?$AA?5?$AAa?$AAs?$AAs?$AAe?$AAr?$AAt?$AAb?$AAu?$AAf?$AA?0?$AA?5?$AA?$CI?$AA6?$AA0?$AA?5?$AA?$CK?$AA?5?$AA9?$AA?$CJ?$AA?0?$AA?5?$AA?$CC@ 00512658     LIBCMTD:assert.obj
 0003:000146c0       ??_C@_1FC@HGJOLIGH@?$AAs?$AAt?$AAr?$AAc?$AAa?$AAt?$AA_?$AAs?$AA?$CI?$AA?5?$AAa?$AAs?$AAs?$AAe?$AAr?$AAt?$AAb?$AAu?$AAf?$AA?0?$AA?5?$AA?$CI?$AA6?$AA0?$AA?5?$AA?$CK?$AA?5?$AA9?$AA?$CJ?$AA?0?$AA?5?$AAn@ 005126c0     LIBCMTD:assert.obj
 0003:00014728       ??_C@_1EK@HNKCAGGP@?$AAs?$AAt?$AAr?$AAc?$AAa?$AAt?$AA_?$AAs?$AA?$CI?$AA?5?$AAa?$AAs?$AAs?$AAe?$AAr?$AAt?$AAb?$AAu?$AAf?$AA?0?$AA?5?$AA?$CI?$AA6?$AA0?$AA?5?$AA?$CK?$AA?5?$AA9?$AA?$CJ?$AA?0?$AA?5?$AAp@ 00512728     LIBCMTD:assert.obj
 0003:00014780       ??_C@_1HO@DGLFHLNC@?$AA_?$AAm?$AAb?$AAs?$AAn?$AAb?$AAc?$AAp?$AAy?$AA_?$AAs?$AA?$CI?$AA?5?$AAp?$AAc?$AAh?$AA?0?$AA?5?$AA?$CI?$AA2?$AA6?$AA0?$AA?5?$AA?$CL?$AA?5?$AA1?$AA?$CJ?$AA?5?$AA?9?$AA?5?$AA?$CI?$AAp@ 00512780     LIBCMTD:assert.obj
 0003:00014818       ??_C@_1GO@MKBPHEIL@?$AAs?$AAt?$AAr?$AAc?$AAp?$AAy?$AA_?$AAs?$AA?$CI?$AA?5?$AAp?$AAr?$AAo?$AAg?$AAn?$AAa?$AAm?$AAe?$AA?0?$AA?5?$AA2?$AA6?$AA0?$AA?5?$AA?$CL?$AA?5?$AA1?$AA?0?$AA?5?$AA?$CC?$AA?$DM?$AAp@ 00512818     LIBCMTD:assert.obj
 0003:0001489c       ??_C@_09KLGCKDOD@Program?3?5?$AA@ 0051289c     LIBCMTD:assert.obj
 0003:000148a8       ??_C@_1FK@JLNGAFHA@?$AAs?$AAt?$AAr?$AAc?$AAa?$AAt?$AA_?$AAs?$AA?$CI?$AA?5?$AAa?$AAs?$AAs?$AAe?$AAr?$AAt?$AAb?$AAu?$AAf?$AA?0?$AA?5?$AA?$CI?$AA6?$AA0?$AA?5?$AA?$CK?$AA?5?$AA9?$AA?$CJ?$AA?0?$AA?5?$AA?$CC@ 005128a8     LIBCMTD:assert.obj
 0003:00014918       ??_C@_1FI@LABOHEIE@?$AAs?$AAt?$AAr?$AAc?$AAa?$AAt?$AA_?$AAs?$AA?$CI?$AA?5?$AAa?$AAs?$AAs?$AAe?$AAr?$AAt?$AAb?$AAu?$AAf?$AA?0?$AA?5?$AA?$CI?$AA6?$AA0?$AA?5?$AA?$CK?$AA?5?$AA9?$AA?$CJ?$AA?0?$AA?5?$AAd@ 00512918     LIBCMTD:assert.obj
 0003:00014984       ??_C@_0BC@LAIDCHCH@Assertion?5failed?$CB?$AA@ 00512984     LIBCMTD:assert.obj
 0003:000149a0       ??_C@_1GK@MEIIIEKC@?$AAs?$AAt?$AAr?$AAc?$AAp?$AAy?$AA_?$AAs?$AA?$CI?$AA?5?$AAa?$AAs?$AAs?$AAe?$AAr?$AAt?$AAb?$AAu?$AAf?$AA?0?$AA?5?$AA?$CI?$AA6?$AA0?$AA?5?$AA?$CK?$AA?5?$AA9?$AA?$CJ?$AA?0?$AA?5?$AA?$CC@ 005129a0     LIBCMTD:assert.obj
 0003:00014a20       ??_C@_1BA@DADDCNOK@?$AA_?$AAa?$AAs?$AAs?$AAe?$AAr?$AAt?$AA?$AA@ 00512a20     LIBCMTD:assert.obj
 0003:00014a34       ??_C@_1BC@IOLPDCAK@?$AAa?$AAs?$AAs?$AAe?$AAr?$AAt?$AA?4?$AAc?$AA?$AA@ 00512a34     LIBCMTD:assert.obj
 0003:00014a4c       ??_C@_1BC@CFJEPFGF@?$AAs?$AAt?$AAr?$AAc?$AAp?$AAy?$AA_?$AAs?$AA?$AA@ 00512a4c     LIBCMTD:strcpy_s.obj
 0003:00014a68       ??_C@_1FC@NCPEPIBI@?$AA?$CI?$AA?$CI?$AA_?$AAD?$AAs?$AAt?$AA?$CJ?$AA?$CJ?$AA?5?$AA?$CB?$AA?$DN?$AA?5?$AAN?$AAU?$AAL?$AAL?$AA?5?$AA?$CG?$AA?$CG?$AA?5?$AA?$CI?$AA?$CI?$AA_?$AAS?$AAi?$AAz?$AAe?$AAI?$AAn?$AAB?$AAy?$AAt@ 00512a68     LIBCMTD:strcpy_s.obj
 0003:00014acc       ??_C@_1BC@HGPNAKGC@?$AAs?$AAt?$AAr?$AAc?$AAa?$AAt?$AA_?$AAs?$AA?$AA@ 00512acc     LIBCMTD:strcat_s.obj
 0003:00014ae4       ??_C@_1BK@CMPKHPEC@?$AAn?$AA?5?$AA?$DM?$AA?$DN?$AA?5?$AAI?$AAN?$AAT?$AA_?$AAM?$AAA?$AAX?$AA?$AA@ 00512ae4     LIBCMTD:wcstombs.obj
 0003:00014b04       ??_C@_1CG@LLJCAOHF@?$AA_?$AAw?$AAc?$AAs?$AAt?$AAo?$AAm?$AAb?$AAs?$AA_?$AAl?$AA_?$AAh?$AAe?$AAl?$AAp?$AAe?$AAr?$AA?$AA@ 00512b04     LIBCMTD:wcstombs.obj
 0003:00014b34       ??_C@_1BG@POHBKINF@?$AAw?$AAc?$AAs?$AAt?$AAo?$AAm?$AAb?$AAs?$AA?4?$AAc?$AA?$AA@ 00512b34     LIBCMTD:wcstombs.obj
 0003:00014b50       ??_C@_1BK@OIBENBPM@?$AAp?$AAw?$AAc?$AAs?$AA?5?$AA?$CB?$AA?$DN?$AA?5?$AAN?$AAU?$AAL?$AAL?$AA?$AA@ 00512b50     LIBCMTD:wcstombs.obj
 0003:00014b70       ??_C@_1CM@KEOGBFLI@?$AAs?$AAi?$AAz?$AAe?$AAI?$AAn?$AAB?$AAy?$AAt?$AAe?$AAs?$AA?5?$AA?$DO?$AA?5?$AAr?$AAe?$AAt?$AAs?$AAi?$AAz?$AAe?$AA?$AA@ 00512b70     LIBCMTD:wcstombs.obj
 0003:00014ba4       ??_C@_1BM@BDMCLLDL@?$AA_?$AAw?$AAc?$AAs?$AAt?$AAo?$AAm?$AAb?$AAs?$AA_?$AAs?$AA_?$AAl?$AA?$AA@ 00512ba4     LIBCMTD:wcstombs.obj
 0003:00014bc8       ??_C@_1IM@MFGKHGBP@?$AA?$CI?$AAd?$AAs?$AAt?$AA?5?$AA?$CB?$AA?$DN?$AA?5?$AAN?$AAU?$AAL?$AAL?$AA?5?$AA?$CG?$AA?$CG?$AA?5?$AAs?$AAi?$AAz?$AAe?$AAI?$AAn?$AAB?$AAy?$AAt?$AAe?$AAs?$AA?5?$AA?$DO?$AA?5?$AA0?$AA?$CJ@ 00512bc8     LIBCMTD:wcstombs.obj
 0003:00014c70       ??_C@_1CE@IGKFIJFD@?$AA_?$AAv?$AAs?$AAw?$AAp?$AAr?$AAi?$AAn?$AAt?$AAf?$AA_?$AAh?$AAe?$AAl?$AAp?$AAe?$AAr?$AA?$AA@ 00512c70     LIBCMTD:vswprnc.obj
 0003:00014ca0       ??_C@_1GE@ICPDLGGP@?$AAf?$AA?3?$AA?2?$AAs?$AAp?$AA?2?$AAv?$AAc?$AAt?$AAo?$AAo?$AAl?$AAs?$AA?2?$AAc?$AAr?$AAt?$AA_?$AAb?$AAl?$AAd?$AA?2?$AAs?$AAe?$AAl?$AAf?$AA_?$AAx?$AA8?$AA6?$AA?2?$AAc@ 00512ca0     LIBCMTD:vswprnc.obj
 0003:00014d18       ??_C@_1DA@HPBFKMEB@?$AA?$CI?$AA?$CC?$AAB?$AAu?$AAf?$AAf?$AAe?$AAr?$AA?5?$AAt?$AAo?$AAo?$AA?5?$AAs?$AAm?$AAa?$AAl?$AAl?$AA?$CC?$AA?0?$AA?5?$AA0?$AA?$CJ?$AA?$AA@ 00512d18     LIBCMTD:vswprnc.obj
 0003:00014d58       ??_C@_1EE@MPCHJFGP@?$AAs?$AAt?$AAr?$AAi?$AAn?$AAg?$AA?5?$AA?$CB?$AA?$DN?$AA?5?$AAN?$AAU?$AAL?$AAL?$AA?5?$AA?$CG?$AA?$CG?$AA?5?$AAs?$AAi?$AAz?$AAe?$AAI?$AAn?$AAW?$AAo?$AAr?$AAd?$AAs?$AA?5?$AA?$DO?$AA?5@ 00512d58     LIBCMTD:vswprnc.obj
 0003:00014dac       ??_C@_1BO@OALHJLCI@?$AA_?$AAv?$AAs?$AAw?$AAp?$AAr?$AAi?$AAn?$AAt?$AAf?$AA_?$AAs?$AA_?$AAl?$AA?$AA@ 00512dac     LIBCMTD:vswprnc.obj
 0003:00014dd0       ??_C@_1BO@MLMCMBKN@?$AAf?$AAo?$AAr?$AAm?$AAa?$AAt?$AA?5?$AA?$CB?$AA?$DN?$AA?5?$AAN?$AAU?$AAL?$AAL?$AA?$AA@ 00512dd0     LIBCMTD:vswprnc.obj
 0003:00014df4       ??_C@_1CA@BKFKMJFF@?$AA_?$AAv?$AAs?$AAn?$AAw?$AAp?$AAr?$AAi?$AAn?$AAt?$AAf?$AA_?$AAs?$AA_?$AAl?$AA?$AA@ 00512df4     LIBCMTD:vswprnc.obj
 0003:00014e1c       ??_C@_1O@KOFKDHPL@?$AA_?$AAw?$AAr?$AAi?$AAt?$AAe?$AA?$AA@ 00512e1c     LIBCMTD:write.obj
 0003:00014e2c       ??_C@_1BA@PMLNGJCB@?$AAw?$AAr?$AAi?$AAt?$AAe?$AA?4?$AAc?$AA?$AA@ 00512e2c     LIBCMTD:write.obj
 0003:00014e40       ??_C@_1CC@EEOLPHGO@?$AA?$CI?$AA?$CI?$AAc?$AAn?$AAt?$AA?5?$AA?$CG?$AA?5?$AA1?$AA?$CJ?$AA?5?$AA?$DN?$AA?$DN?$AA?5?$AA0?$AA?$CJ?$AA?$AA@ 00512e40     LIBCMTD:write.obj
 0003:00014e68       ??_C@_1BM@NCANHCIP@?$AA_?$AAw?$AAr?$AAi?$AAt?$AAe?$AA_?$AAn?$AAo?$AAl?$AAo?$AAc?$AAk?$AA?$AA@ 00512e68     LIBCMTD:write.obj
 0003:00014e8c       ??_C@_1BM@KFJLMBPG@?$AA?$CI?$AAb?$AAu?$AAf?$AA?5?$AA?$CB?$AA?$DN?$AA?5?$AAN?$AAU?$AAL?$AAL?$AA?$CJ?$AA?$AA@ 00512e8c     LIBCMTD:write.obj
 0003:00014eb0       ??_C@_1BA@IIKEPOGH@?$AA_?$AAf?$AAi?$AAl?$AAb?$AAu?$AAf?$AA?$AA@ 00512eb0     LIBCMTD:_filbuf.obj
 0003:00014ec4       ??_C@_1BE@CEJGNPDE@?$AA_?$AAf?$AAi?$AAl?$AAb?$AAu?$AAf?$AA?4?$AAc?$AA?$AA@ 00512ec4     LIBCMTD:_filbuf.obj
 0003:00014edc       ??_C@_1DG@LNNHNFHJ@?$AA?$CI?$AA_?$AAo?$AAs?$AAf?$AAi?$AAl?$AAe?$AA?$CI?$AAf?$AAi?$AAl?$AAe?$AAd?$AAe?$AAs?$AA?$CJ?$AA?5?$AA?$CG?$AA?5?$AAF?$AAO?$AAP?$AAE?$AAN?$AA?$CJ?$AA?$AA@ 00512edc     LIBCMTD:commit.obj
 0003:00014f1c       ??_C@_1BA@FLNMBBIM@?$AA_?$AAc?$AAo?$AAm?$AAm?$AAi?$AAt?$AA?$AA@ 00512f1c     LIBCMTD:commit.obj
 0003:00014f30       ??_C@_1BC@LOAFNBNC@?$AAc?$AAo?$AAm?$AAm?$AAi?$AAt?$AA?4?$AAc?$AA?$AA@ 00512f30     LIBCMTD:commit.obj
 0003:00014f48       ??_C@_1HC@KFLBHHBC@?$AA?$CI?$AAf?$AAi?$AAl?$AAe?$AAd?$AAe?$AAs?$AA?5?$AA?$DO?$AA?$DN?$AA?5?$AA0?$AA?5?$AA?$CG?$AA?$CG?$AA?5?$AA?$CI?$AAu?$AAn?$AAs?$AAi?$AAg?$AAn?$AAe?$AAd?$AA?$CJ?$AAf?$AAi?$AAl?$AAe?$AAd@ 00512f48     LIBCMTD:commit.obj
 0003:00014fd0       ??_C@_13NOLLCAOD@?$AA?$AA?$AA?$AA@ 00512fd0     LIBCMTD:a_map.obj
 0003:00014fd8       ??_C@_1GA@EDILLMMN@?$AAF?$AA?3?$AA?2?$AAS?$AAP?$AA?2?$AAv?$AAc?$AAt?$AAo?$AAo?$AAl?$AAs?$AA?2?$AAc?$AAr?$AAt?$AA_?$AAb?$AAl?$AAd?$AA?2?$AAS?$AAE?$AAL?$AAF?$AA_?$AAX?$AA8?$AA6?$AA?2?$AAc@ 00512fd8     LIBCMTD:a_map.obj
 0003:00015050       ??_C@_1FE@KNPCCODH@?$AA?$CI?$AA?$CC?$AAC?$AAo?$AAr?$AAr?$AAu?$AAp?$AAt?$AAe?$AAd?$AA?5?$AAp?$AAo?$AAi?$AAn?$AAt?$AAe?$AAr?$AA?5?$AAp?$AAa?$AAs?$AAs?$AAe?$AAd?$AA?5?$AAt?$AAo?$AA?5?$AA_?$AAf@ 00513050     LIBCMTD:a_map.obj
 0003:000150b4       ??_C@_1BE@CEKCJJBD@?$AAi?$AAs?$AAc?$AAt?$AAy?$AAp?$AAe?$AA?4?$AAc?$AA?$AA@ 005130b4     LIBCMTD:isctype.obj
 0003:000150cc       ??_C@_1DC@BPLPALML@?$AA?$CI?$AAu?$AAn?$AAs?$AAi?$AAg?$AAn?$AAe?$AAd?$AA?$CJ?$AA?$CI?$AAc?$AA?5?$AA?$CL?$AA?5?$AA1?$AA?$CJ?$AA?5?$AA?$DM?$AA?$DN?$AA?5?$AA2?$AA5?$AA6?$AA?$AA@ 005130cc     LIBCMTD:isctype.obj
 0003:00015108       ??_C@_07LCBHPJJN@LC_TIME?$AA@ 00513108     LIBCMTD:setlocal.obj
 0003:00015114       ??_C@_0L@DLHIECNL@LC_NUMERIC?$AA@ 00513114     LIBCMTD:setlocal.obj
 0003:00015124       ??_C@_0M@MIENIKLA@LC_MONETARY?$AA@ 00513124     LIBCMTD:setlocal.obj
 0003:00015134       ??_C@_08EADHIDAD@LC_CTYPE?$AA@ 00513134     LIBCMTD:setlocal.obj
 0003:00015140       ??_C@_0L@KFJHEKIK@LC_COLLATE?$AA@ 00513140     LIBCMTD:setlocal.obj
 0003:00015150       ??_C@_06NEFDFEKB@LC_ALL?$AA@ 00513150     LIBCMTD:setlocal.obj
 0003:00015158       ___lc_category             00513158     LIBCMTD:setlocal.obj
 0003:00015248       ??_C@_1BG@PFHEEGCP@?$AAs?$AAe?$AAt?$AAl?$AAo?$AAc?$AAa?$AAl?$AA?4?$AAc?$AA?$AA@ 00513248     LIBCMTD:setlocal.obj
 0003:00015268       ??_C@_1BKC@GGIENNAK@?$AA?$CI?$AA?$CI?$AAp?$AAt?$AAl?$AAo?$AAc?$AAi?$AA?9?$AA?$DO?$AAl?$AAc?$AA_?$AAc?$AAa?$AAt?$AAe?$AAg?$AAo?$AAr?$AAy?$AA?$FL?$AAc?$AAa?$AAt?$AAe?$AAg?$AAo?$AAr?$AAy?$AA?$FN?$AA?4@ 00513268     LIBCMTD:setlocal.obj
 0003:00015460       ??_C@_1CI@FGIONOJM@?$AA_?$AAc?$AAo?$AAn?$AAf?$AAi?$AAg?$AAt?$AAh?$AAr?$AAe?$AAa?$AAd?$AAl?$AAo?$AAc?$AAa?$AAl?$AAe?$AA?$AA@ 00513460     LIBCMTD:setlocal.obj
 0003:00015490       ??_C@_1GA@LDEGDKD@?$AA?$CI?$AA?$CC?$AAI?$AAn?$AAv?$AAa?$AAl?$AAi?$AAd?$AA?5?$AAp?$AAa?$AAr?$AAa?$AAm?$AAe?$AAt?$AAe?$AAr?$AA?5?$AAf?$AAo?$AAr?$AA?5?$AA_?$AAc?$AAo?$AAn?$AAf?$AAi?$AAg?$AAt@ 00513490     LIBCMTD:setlocal.obj
 0003:00015504       ??_C@_0L@LEECJGMI@setlocal?4c?$AA@ 00513504     LIBCMTD:setlocal.obj
 0003:00015514       ??_C@_1BE@DBJGBOJC@?$AAs?$AAe?$AAt?$AAl?$AAo?$AAc?$AAa?$AAl?$AAe?$AA?$AA@ 00513514     LIBCMTD:setlocal.obj
 0003:00015530       ??_C@_1FG@OHLFEKMC@?$AAL?$AAC?$AA_?$AAM?$AAI?$AAN?$AA?5?$AA?$DM?$AA?$DN?$AA?5?$AA_?$AAc?$AAa?$AAt?$AAe?$AAg?$AAo?$AAr?$AAy?$AA?5?$AA?$CG?$AA?$CG?$AA?5?$AA_?$AAc?$AAa?$AAt?$AAe?$AAg?$AAo?$AAr?$AAy@ 00513530     LIBCMTD:setlocal.obj
 0003:00015598       ??_C@_1IA@PFIKKKFB@?$AAs?$AAt?$AAr?$AAn?$AAc?$AAp?$AAy?$AA_?$AAs?$AA?$CI?$AAl?$AAc?$AAt?$AAe?$AAm?$AAp?$AA?0?$AA?5?$AA?$CI?$AAs?$AAi?$AAz?$AAe?$AAo?$AAf?$AA?$CI?$AAl?$AAc?$AAt?$AAe?$AAm?$AAp@ 00513598     LIBCMTD:setlocal.obj
 0003:00015634       ??_C@_1CE@OFNHIOO@?$AA_?$AAs?$AAe?$AAt?$AAl?$AAo?$AAc?$AAa?$AAl?$AAe?$AA_?$AAn?$AAo?$AAl?$AAo?$AAc?$AAk?$AA?$AA@ 00513634     LIBCMTD:setlocal.obj
 0003:00015660       ??_C@_01ICJEACDI@?$DL?$AA@ 00513660     LIBCMTD:setlocal.obj
 0003:00015664       ??_C@_02BALPLPBG@?$DN?$DL?$AA@ 00513664     LIBCMTD:setlocal.obj
 0003:00015668       ??_C@_1GO@JALHLJEH@?$AAs?$AAt?$AAr?$AAc?$AAp?$AAy?$AA_?$AAs?$AA?$CI?$AAp?$AAc?$AAh?$AA?5?$AA?$CL?$AA?5?$AAs?$AAi?$AAz?$AAe?$AAo?$AAf?$AA?$CI?$AAi?$AAn?$AAt?$AA?$CJ?$AA?0?$AA?5?$AAc?$AAc?$AAh?$AA?5@ 00513668     LIBCMTD:setlocal.obj
 0003:000156ec       ??_C@_1CG@IEFIICPK@?$AA_?$AAs?$AAe?$AAt?$AAl?$AAo?$AAc?$AAa?$AAl?$AAe?$AA_?$AAs?$AAe?$AAt?$AA_?$AAc?$AAa?$AAt?$AA?$AA@ 005136ec     LIBCMTD:setlocal.obj
 0003:0001571c       ??_C@_1DA@GDKKLCLM@?$AAs?$AAt?$AAr?$AAc?$AAa?$AAt?$AA_?$AAs?$AA?$CI?$AAp?$AAc?$AAh?$AA?0?$AA?5?$AAc?$AAc?$AAh?$AA?0?$AA?5?$AA?$CC?$AA?$DL?$AA?$CC?$AA?$CJ?$AA?$AA@ 0051371c     LIBCMTD:setlocal.obj
 0003:00015758       ??_C@_1CG@NNFIJLDA@?$AA_?$AAs?$AAe?$AAt?$AAl?$AAo?$AAc?$AAa?$AAl?$AAe?$AA_?$AAg?$AAe?$AAt?$AA_?$AAa?$AAl?$AAl?$AA?$AA@ 00513758     LIBCMTD:setlocal.obj
 0003:00015788       ??_C@_01NEMOKFLO@?$DN?$AA@ 00513788     LIBCMTD:setlocal.obj
 0003:00015790       ??_C@_1FA@MHAOOIBO@?$AAs?$AAt?$AAr?$AAc?$AAp?$AAy?$AA_?$AAs?$AA?$CI?$AAo?$AAu?$AAt?$AAp?$AAu?$AAt?$AA?0?$AA?5?$AAs?$AAi?$AAz?$AAe?$AAI?$AAn?$AAC?$AAh?$AAa?$AAr?$AAs?$AA?0?$AA?5?$AAc?$AAa@ 00513790     LIBCMTD:setlocal.obj
 0003:000157f0       ??_C@_1IA@ONNFOEDA@?$AAs?$AAt?$AAr?$AAn?$AAc?$AAp?$AAy?$AA_?$AAs?$AA?$CI?$AAc?$AAa?$AAc?$AAh?$AAe?$AAi?$AAn?$AA?0?$AA?5?$AAc?$AAa?$AAc?$AAh?$AAe?$AAi?$AAn?$AAS?$AAi?$AAz?$AAe?$AA?0?$AA?5@ 005137f0     LIBCMTD:setlocal.obj
 0003:0001588c       ??_C@_01GFHCPBMG@C?$AA@    0051388c     LIBCMTD:setlocal.obj
 0003:00015890       ??_C@_1EG@MOMHKOD@?$AAs?$AAt?$AAr?$AAc?$AAp?$AAy?$AA_?$AAs?$AA?$CI?$AAo?$AAu?$AAt?$AAp?$AAu?$AAt?$AA?0?$AA?5?$AAs?$AAi?$AAz?$AAe?$AAI?$AAn?$AAC?$AAh?$AAa?$AAr?$AAs?$AA?0?$AA?5?$AA?$CC?$AAC@ 00513890     LIBCMTD:setlocal.obj
 0003:000158e4       ??_C@_1BM@OIIBLEFG@?$AA_?$AAe?$AAx?$AAp?$AAa?$AAn?$AAd?$AAl?$AAo?$AAc?$AAa?$AAl?$AAe?$AA?$AA@ 005138e4     LIBCMTD:setlocal.obj
 0003:00015908       ??_C@_1BGM@IJDLABMC@?$AAs?$AAt?$AAr?$AAc?$AAa?$AAt?$AA_?$AAs?$AA?$CI?$AAo?$AAu?$AAt?$AAs?$AAt?$AAr?$AA?0?$AA?5?$AAs?$AAi?$AAz?$AAe?$AAI?$AAn?$AAB?$AAy?$AAt?$AAe?$AAs?$AA?0?$AA?5?$AA?$CI?$AA?5@ 00513908     LIBCMTD:setlocal.obj
 0003:00015abc       ??_C@_1BC@PIABMDIP@?$AA_?$AAs?$AAt?$AAr?$AAc?$AAa?$AAt?$AAs?$AA?$AA@ 00513abc     LIBCMTD:setlocal.obj
 0003:00015ad8       ??_C@_1MM@NOPMGFHF@?$AAs?$AAt?$AAr?$AAn?$AAc?$AAp?$AAy?$AA_?$AAs?$AA?$CI?$AAn?$AAa?$AAm?$AAe?$AAs?$AA?9?$AA?$DO?$AAs?$AAz?$AAC?$AAo?$AAd?$AAe?$AAP?$AAa?$AAg?$AAe?$AA?0?$AA?5?$AA?$CI?$AAs?$AAi@ 00513ad8     LIBCMTD:setlocal.obj
 0003:00015bd0       ??_C@_1MG@PHNILIAG@?$AAs?$AAt?$AAr?$AAn?$AAc?$AAp?$AAy?$AA_?$AAs?$AA?$CI?$AAn?$AAa?$AAm?$AAe?$AAs?$AA?9?$AA?$DO?$AAs?$AAz?$AAC?$AAo?$AAu?$AAn?$AAt?$AAr?$AAy?$AA?0?$AA?5?$AA?$CI?$AAs?$AAi?$AAz@ 00513bd0     LIBCMTD:setlocal.obj
 0003:00015cc0       ??_C@_1MM@BFEECMAF@?$AAs?$AAt?$AAr?$AAn?$AAc?$AAp?$AAy?$AA_?$AAs?$AA?$CI?$AAn?$AAa?$AAm?$AAe?$AAs?$AA?9?$AA?$DO?$AAs?$AAz?$AAL?$AAa?$AAn?$AAg?$AAu?$AAa?$AAg?$AAe?$AA?0?$AA?5?$AA?$CI?$AAs?$AAi@ 00513cc0     LIBCMTD:setlocal.obj
 0003:00015db4       ??_C@_03EGDHDPFD@_?4?0?$AA@ 00513db4     LIBCMTD:setlocal.obj
 0003:00015db8       ??_C@_1NG@FMOPGKGG@?$AAs?$AAt?$AAr?$AAn?$AAc?$AAp?$AAy?$AA_?$AAs?$AA?$CI?$AAn?$AAa?$AAm?$AAe?$AAs?$AA?9?$AA?$DO?$AAs?$AAz?$AAC?$AAo?$AAd?$AAe?$AAP?$AAa?$AAg?$AAe?$AA?0?$AA?5?$AA?$CI?$AAs?$AAi@ 00513db8     LIBCMTD:setlocal.obj
 0003:00015eb8       ??_C@_1BK@CBMMLAGJ@?$AA_?$AA_?$AAl?$AAc?$AA_?$AAs?$AAt?$AAr?$AAt?$AAo?$AAl?$AAc?$AA?$AA@ 00513eb8     LIBCMTD:setlocal.obj
 0003:00015ed8       ??_C@_01IDAFKMJL@_?$AA@    00513ed8     LIBCMTD:setlocal.obj
 0003:00015ee0       ??_C@_1HC@IBDBLKCB@?$AAs?$AAt?$AAr?$AAc?$AAp?$AAy?$AA_?$AAs?$AA?$CI?$AAl?$AAo?$AAc?$AAa?$AAl?$AAe?$AA?0?$AA?5?$AAs?$AAi?$AAz?$AAe?$AAI?$AAn?$AAB?$AAy?$AAt?$AAe?$AAs?$AA?0?$AA?5?$AA?$CI?$AAc@ 00513ee0     LIBCMTD:setlocal.obj
 0003:00015f68       ??_C@_1BK@FGDJDEPG@?$AA_?$AA_?$AAl?$AAc?$AA_?$AAl?$AAc?$AAt?$AAo?$AAs?$AAt?$AAr?$AA?$AA@ 00513f68     LIBCMTD:setlocal.obj
 0003:00015f88       ??_C@_1BC@MJNBEDIJ@?$AA_?$AAi?$AAn?$AAp?$AAu?$AAt?$AA_?$AAl?$AA?$AA@ 00513f88     LIBCMTD:input.obj
 0003:00015fa0       ??_C@_1BA@LIDNIBLD@?$AAi?$AAn?$AAp?$AAu?$AAt?$AA?4?$AAc?$AA?$AA@ 00513fa0     LIBCMTD:input.obj
 0003:00015fb4       ??_C@_07CMLOKKIF@input?4c?$AA@ 00513fb4     LIBCMTD:input.obj
 0003:00015fc0       ??_C@_1DO@MBOKMJPK@?$AAn?$AAF?$AAl?$AAo?$AAa?$AAt?$AAS?$AAt?$AAr?$AAU?$AAs?$AAe?$AAd?$AA?$DM?$AA?$DN?$AA?$CI?$AA?$CK?$AAp?$AAn?$AAF?$AAl?$AAo?$AAa?$AAt?$AAS?$AAt?$AAr?$AAS?$AAz?$AA?$CJ?$AA?$AA@ 00513fc0     LIBCMTD:input.obj
 0003:0001600c       ??_C@_1DG@MPPGJOHD@?$AA?$CI?$AA?$CC?$AAI?$AAn?$AAv?$AAa?$AAl?$AAi?$AAd?$AA?5?$AAI?$AAn?$AAp?$AAu?$AAt?$AA?5?$AAF?$AAo?$AAr?$AAm?$AAa?$AAt?$AA?$CC?$AA?0?$AA0?$AA?$CJ?$AA?$AA@ 0051400c     LIBCMTD:inputs.obj
 0003:0001604c       ??_C@_1BG@LBKFJFHM@?$AA_?$AAi?$AAn?$AAp?$AAu?$AAt?$AA_?$AAs?$AA_?$AAl?$AA?$AA@ 0051404c     LIBCMTD:inputs.obj
 0003:00016068       ??_C@_1FO@BBFHLJDH@?$AAf?$AA?3?$AA?2?$AAs?$AAp?$AA?2?$AAv?$AAc?$AAt?$AAo?$AAo?$AAl?$AAs?$AA?2?$AAc?$AAr?$AAt?$AA_?$AAb?$AAl?$AAd?$AA?2?$AAs?$AAe?$AAl?$AAf?$AA_?$AAx?$AA8?$AA6?$AA?2?$AAc@ 00514068     LIBCMTD:inputs.obj
 0003:000160d8       ??_C@_0CP@LIINODAI@f?3?2sp?2vctools?2crt_bld?2self_x86?2c@ 005140d8     LIBCMTD:inputs.obj
 0003:00016110       ??_C@_1DE@MMOGFGHF@?$AAs?$AAt?$AAr?$AAc?$AAp?$AAy?$AA_?$AAs?$AA?$CI?$AA?$CK?$AAe?$AAn?$AAv?$AA?0?$AA?5?$AAc?$AAc?$AAh?$AAa?$AAr?$AAs?$AA?0?$AA?5?$AAp?$AA?$CJ?$AA?$AA@ 00514110     LIBCMTD:stdenvp.obj
 0003:00016150       ??_C@_1BC@GHMCNHHL@?$AA_?$AAs?$AAe?$AAt?$AAe?$AAn?$AAv?$AAp?$AA?$AA@ 00514150     LIBCMTD:stdenvp.obj
 0003:00016168       ??_C@_1BE@DFNOPGHI@?$AAs?$AAt?$AAd?$AAe?$AAn?$AAv?$AAp?$AA?4?$AAc?$AA?$AA@ 00514168     LIBCMTD:stdenvp.obj
 0003:00016180       ??_C@_09HCDLHOJP@stdenvp?4c?$AA@ 00514180     LIBCMTD:stdenvp.obj
 0003:0001618c       ??_C@_09IKILHJIC@stdargv?4c?$AA@ 0051418c     LIBCMTD:stdargv.obj
 0003:00016198       ??_C@_07BPGNOCOG@a_env?4c?$AA@ 00514198     LIBCMTD:a_env.obj
 0003:000161a4       ??_C@_1BM@DKJOGMJM@?$AA_?$AA_?$AAh?$AAe?$AAa?$AAp?$AA_?$AAs?$AAe?$AAl?$AAe?$AAc?$AAt?$AA?$AA@ 005141a4     LIBCMTD:heapinit.obj
 0003:000161c8       ??_C@_1BG@INAAHHLF@?$AAh?$AAe?$AAa?$AAp?$AAi?$AAn?$AAi?$AAt?$AA?4?$AAc?$AA?$AA@ 005141c8     LIBCMTD:heapinit.obj
 0003:000161e4       ??_C@_1BC@DENNNKIM@?$AA_?$AAc?$AAr?$AAt?$AAh?$AAe?$AAa?$AAp?$AA?$AA@ 005141e4     LIBCMTD:heapinit.obj
 0003:000161fc       ??_C@_1BI@IGILPKD@?$AA_?$AAv?$AAs?$AAp?$AAr?$AAi?$AAn?$AAt?$AAf?$AA_?$AAl?$AA?$AA@ 005141fc     LIBCMTD:vsprintf.obj
 0003:00016218       ??_C@_1BG@CBDPIEBA@?$AAv?$AAs?$AAp?$AAr?$AAi?$AAn?$AAt?$AAf?$AA?4?$AAc?$AA?$AA@ 00514218     LIBCMTD:vsprintf.obj
 0003:00016234       ??_C@_1CE@HMKDJHB@?$AA_?$AAv?$AAs?$AAc?$AAp?$AAr?$AAi?$AAn?$AAt?$AAf?$AA_?$AAh?$AAe?$AAl?$AAp?$AAe?$AAr?$AA?$AA@ 00514234     LIBCMTD:vsprintf.obj
 0003:00016260       ??_C@_1CE@PCFPEIFI@?$AA_?$AAv?$AAs?$AAn?$AAp?$AAr?$AAi?$AAn?$AAt?$AAf?$AA_?$AAh?$AAe?$AAl?$AAp?$AAe?$AAr?$AA?$AA@ 00514260     LIBCMTD:vsnprnc.obj
 0003:00016290       ??_C@_1EE@OKCKIGFK@?$AAs?$AAt?$AAr?$AAi?$AAn?$AAg?$AA?5?$AA?$CB?$AA?$DN?$AA?5?$AAN?$AAU?$AAL?$AAL?$AA?5?$AA?$CG?$AA?$CG?$AA?5?$AAs?$AAi?$AAz?$AAe?$AAI?$AAn?$AAB?$AAy?$AAt?$AAe?$AAs?$AA?5?$AA?$DO?$AA?5@ 00514290     LIBCMTD:vsnprnc.obj
 0003:000162e4       ??_C@_1BM@BLJALHEF@?$AA_?$AAv?$AAs?$AAp?$AAr?$AAi?$AAn?$AAt?$AAf?$AA_?$AAs?$AA_?$AAl?$AA?$AA@ 005142e4     LIBCMTD:vsnprnc.obj
 0003:00016308       ??_C@_1BO@MMPELNIM@?$AA_?$AAv?$AAs?$AAn?$AAp?$AAr?$AAi?$AAn?$AAt?$AAf?$AA_?$AAs?$AA_?$AAl?$AA?$AA@ 00514308     LIBCMTD:vsnprnc.obj
 0003:0001632c       ??_C@_0BB@NAGLCMLI@Assertion?5Failed?$AA@ 0051432c     LIBCMTD:dbgrpt.obj
 0003:00016340       ??_C@_07KGMMFLDN@Warning?$AA@ 00514340     LIBCMTD:dbgrpt.obj
 0003:0001634c       ??_C@_08ODMAMGBE@dbgrpt?4c?$AA@ 0051434c     LIBCMTD:dbgrpt.obj
 0003:00016358       ??_C@_1CG@GNMJDMIO@?$AA_?$AAC?$AAr?$AAt?$AAS?$AAe?$AAt?$AAR?$AAe?$AAp?$AAo?$AAr?$AAt?$AAH?$AAo?$AAo?$AAk?$AA2?$AA?$AA@ 00514358     LIBCMTD:dbgrpt.obj
 0003:00016388       ??_C@_1BC@CBGBJLNL@?$AAd?$AAb?$AAg?$AAr?$AAp?$AAt?$AA?4?$AAc?$AA?$AA@ 00514388     LIBCMTD:dbgrpt.obj
 0003:000163a0       ??_C@_0CD@EBCGLDDL@Microsoft?5Visual?5C?$CL?$CL?5Debug?5Libra@ 005143a0     LIBCMTD:dbgrpt.obj
 0003:000163cc       ??_C@_0CL@EACFGMNB@_CrtDbgReport?3?5String?5too?5long?5o@ 005143cc     LIBCMTD:dbgrpt.obj
 0003:00016400       ??_C@_1JG@CPKCIOEE@?$AAs?$AAt?$AAr?$AAc?$AAp?$AAy?$AA_?$AAs?$AA?$CI?$AAs?$AAz?$AAO?$AAu?$AAt?$AAM?$AAe?$AAs?$AAs?$AAa?$AAg?$AAe?$AA?0?$AA?5?$AA4?$AA0?$AA9?$AA6?$AA?0?$AA?5?$AA?$CC?$AA_?$AAC@ 00514400     LIBCMTD:dbgrpt.obj
 0003:000164b8       ??_C@_0FF@CCONDJCB@Debug?5?$CFs?$CB?6?6Program?3?5?$CFs?$CFs?$CFs?$CFs?$CFs?$CFs@ 005144b8     LIBCMTD:dbgrpt.obj
 0003:00016520       ??_C@_09OFBFHMBK@?6Module?3?5?$AA@ 00514520     LIBCMTD:dbgrpt.obj
 0003:0001652c       ??_C@_07OPHPPLBG@?6File?3?5?$AA@ 0051452c     LIBCMTD:dbgrpt.obj
 0003:00016538       ??_C@_07DBMPPHDI@?6Line?3?5?$AA@ 00514538     LIBCMTD:dbgrpt.obj
 0003:00016548       ??_C@_0HD@GNBNFCCL@?6?6For?5information?5on?5how?5your?5pr@ 00514548     LIBCMTD:dbgrpt.obj
 0003:000165d8       ??_C@_1KA@GHPEDBGI@?$AA_?$AAm?$AAb?$AAs?$AAn?$AAb?$AAc?$AAp?$AAy?$AA_?$AAs?$AA?$CI?$AAs?$AAz?$AAS?$AAh?$AAo?$AAr?$AAt?$AAP?$AAr?$AAo?$AAg?$AAN?$AAa?$AAm?$AAe?$AA?0?$AA?5?$AA2?$AA6?$AA0@ 005145d8     LIBCMTD:dbgrpt.obj
 0003:00016698       ??_C@_1GG@DLDHOIGE@?$AAs?$AAt?$AAr?$AAc?$AAp?$AAy?$AA_?$AAs?$AA?$CI?$AAs?$AAz?$AAE?$AAx?$AAe?$AAN?$AAa?$AAm?$AAe?$AA?0?$AA?5?$AA2?$AA6?$AA0?$AA?0?$AA?5?$AA?$CC?$AA?$DM?$AAp?$AAr?$AAo?$AAg?$AAr@ 00514698     LIBCMTD:dbgrpt.obj
 0003:00016714       ??_C@_1CI@IDOKFLAJ@?$AA_?$AA_?$AAc?$AAr?$AAt?$AAM?$AAe?$AAs?$AAs?$AAa?$AAg?$AAe?$AAW?$AAi?$AAn?$AAd?$AAo?$AAw?$AAA?$AA?$AA@ 00514714     LIBCMTD:dbgrpt.obj
 0003:00016744       ??_C@_1BK@JMCGJOCC@?$AA_?$AAe?$AAx?$AAp?$AAa?$AAn?$AAd?$AA_?$AAb?$AAa?$AAs?$AAe?$AA?$AA@ 00514744     LIBCMTD:expand.obj
 0003:00016764       ??_C@_1BC@OBICIAFI@?$AAe?$AAx?$AAp?$AAa?$AAn?$AAd?$AA?4?$AAc?$AA?$AA@ 00514764     LIBCMTD:expand.obj
 0003:0001677c       ??_C@_1BO@KFIJIAEA@?$AAp?$AAB?$AAl?$AAo?$AAc?$AAk?$AA?5?$AA?$CB?$AA?$DN?$AA?5?$AAN?$AAU?$AAL?$AAL?$AA?$AA@ 0051477c     LIBCMTD:expand.obj
 0003:000167a0       ??_C@_1BO@EMPIBJGC@?$AA_?$AAr?$AAe?$AAc?$AAa?$AAl?$AAl?$AAo?$AAc?$AA_?$AAb?$AAa?$AAs?$AAe?$AA?$AA@ 005147a0     LIBCMTD:realloc.obj
 0003:000167c4       ??_C@_1BE@IAPDAHOE@?$AAr?$AAe?$AAa?$AAl?$AAl?$AAo?$AAc?$AA?4?$AAc?$AA?$AA@ 005147c4     LIBCMTD:realloc.obj
 0003:000167dc       ??_C@_1BC@IMNOJJAO@?$AAs?$AAb?$AAh?$AAe?$AAa?$AAp?$AA?4?$AAc?$AA?$AA@ 005147dc     LIBCMTD:sbheap.obj
 0003:000167f8       ??_C@_1IC@MOGBEBCE@?$AA?$CI?$AAt?$AAh?$AAr?$AAe?$AAs?$AAh?$AAo?$AAl?$AAd?$AA?5?$AA?$DM?$AA?$DN?$AA?5?$AAM?$AAA?$AAX?$AA_?$AAA?$AAL?$AAL?$AAO?$AAC?$AA_?$AAD?$AAA?$AAT?$AAA?$AA_?$AAS?$AAI?$AAZ@ 005147f8     LIBCMTD:sbheap.obj
 0003:00016894       ??_C@_1CG@BBFCGKBK@?$AA_?$AAs?$AAe?$AAt?$AA_?$AAs?$AAb?$AAh?$AA_?$AAt?$AAh?$AAr?$AAe?$AAs?$AAh?$AAo?$AAl?$AAd?$AA?$AA@ 00514894     LIBCMTD:sbheap.obj
 0003:000168c8       ??_C@_1EC@DACAONFE@?$AAt?$AAh?$AAr?$AAe?$AAs?$AAh?$AAo?$AAl?$AAd?$AA?5?$AA?$DM?$AA?$DN?$AA?5?$AAM?$AAA?$AAX?$AA_?$AAA?$AAL?$AAL?$AAO?$AAC?$AA_?$AAD?$AAA?$AAT?$AAA?$AA_?$AAS?$AAI?$AAZ?$AAE@ 005148c8     LIBCMTD:sbheap.obj
 0003:00016918       ??_C@_1BM@GFNECEDD@?$AA_?$AAs?$AAe?$AAt?$AA_?$AAa?$AAm?$AAb?$AAl?$AAk?$AAs?$AAi?$AAz?$AA?$AA@ 00514918     LIBCMTD:sbheap.obj
 0003:0001693c       ??_C@_1DK@BKLENMLC@?$AA0?$AA?5?$AA?$DM?$AA?5?$AAs?$AAi?$AAz?$AAe?$AA?5?$AA?$CG?$AA?$CG?$AA?5?$AAs?$AAi?$AAz?$AAe?$AA?5?$AA?$DM?$AA?$DN?$AA?5?$AAU?$AAI?$AAN?$AAT?$AA_?$AAM?$AAA?$AAX?$AA?$AA@ 0051493c     LIBCMTD:sbheap.obj
 0003:00016984       ??_C@_1BM@OFBCOJJF@?$AA_?$AAg?$AAe?$AAt?$AA_?$AAa?$AAm?$AAb?$AAl?$AAk?$AAs?$AAi?$AAz?$AA?$AA@ 00514984     LIBCMTD:sbheap.obj
 0003:000169a8       ??_C@_1BM@IELHFPPM@?$AAp?$AAS?$AAi?$AAz?$AAe?$AA?5?$AA?$CB?$AA?$DN?$AA?5?$AAN?$AAU?$AAL?$AAL?$AA?$AA@ 005149a8     LIBCMTD:sbheap.obj
 0003:000169cc       ??_C@_1BA@LEBDGIHM@?$AA_?$AAi?$AAs?$AAa?$AAt?$AAt?$AAy?$AA?$AA@ 005149cc     LIBCMTD:isatty.obj
 0003:000169e0       ??_C@_1BC@BPJEKAMC@?$AAi?$AAs?$AAa?$AAt?$AAt?$AAy?$AA?4?$AAc?$AA?$AA@ 005149e0     LIBCMTD:isatty.obj
 0003:000169f8       ??_C@_1CA@CBMNPEO@?$AAs?$AAi?$AAz?$AAe?$AAI?$AAn?$AAB?$AAy?$AAt?$AAe?$AAs?$AA?5?$AA?$DO?$AA?5?$AA0?$AA?$AA@ 005149f8     LIBCMTD:wctomb.obj
 0003:00016a20       ??_C@_1BI@IEADNOHF@?$AA_?$AAw?$AAc?$AAt?$AAo?$AAm?$AAb?$AA_?$AAs?$AA_?$AAl?$AA?$AA@ 00514a20     LIBCMTD:wctomb.obj
 0003:00016a3c       ??_C@_1BC@KLMMEMGB@?$AAw?$AAc?$AAt?$AAo?$AAm?$AAb?$AA?4?$AAc?$AA?$AA@ 00514a3c     LIBCMTD:wctomb.obj
 0003:00016a54       ??_C@_1CO@HFMIILNF@?$AAs?$AAi?$AAz?$AAe?$AAI?$AAn?$AAB?$AAy?$AAt?$AAe?$AAs?$AA?5?$AA?$DM?$AA?$DN?$AA?5?$AAI?$AAN?$AAT?$AA_?$AAM?$AAA?$AAX?$AA?$AA@ 00514a54     LIBCMTD:wctomb.obj
 0003:00016a90       ??_C@_1NK@LOFHIHFC@?$AAf?$AAM?$AAo?$AAd?$AAe?$AA?5?$AA?$DN?$AA?$DN?$AA?5?$AA_?$AAC?$AAR?$AAT?$AAD?$AAB?$AAG?$AA_?$AAR?$AAE?$AAP?$AAO?$AAR?$AAT?$AA_?$AAM?$AAO?$AAD?$AAE?$AA?5?$AA?$HM?$AA?$HM?$AA?5@ 00514a90     LIBCMTD:dbgrptt.obj
 0003:00016b98       ??_C@_1CE@FIHIECNJ@?$AA_?$AAC?$AAr?$AAt?$AAS?$AAe?$AAt?$AAR?$AAe?$AAp?$AAo?$AAr?$AAt?$AAM?$AAo?$AAd?$AAe?$AA?$AA@ 00514b98     LIBCMTD:dbgrptt.obj
 0003:00016bc4       ??_C@_1BE@FLKCNJCI@?$AAd?$AAb?$AAg?$AAr?$AAp?$AAt?$AAt?$AA?4?$AAc?$AA?$AA@ 00514bc4     LIBCMTD:dbgrptt.obj
 0003:00016be0       ??_C@_1FA@IFFFOLDJ@?$AAn?$AAR?$AAp?$AAt?$AAT?$AAy?$AAp?$AAe?$AA?5?$AA?$DO?$AA?$DN?$AA?5?$AA0?$AA?5?$AA?$CG?$AA?$CG?$AA?5?$AAn?$AAR?$AAp?$AAt?$AAT?$AAy?$AAp?$AAe?$AA?5?$AA?$DM?$AA?5?$AA_?$AAC?$AAR?$AAT@ 00514be0     LIBCMTD:dbgrptt.obj
 0003:00016c40       ??_C@_1CE@IKKEDCME@?$AA_?$AAC?$AAr?$AAt?$AAS?$AAe?$AAt?$AAR?$AAe?$AAp?$AAo?$AAr?$AAt?$AAF?$AAi?$AAl?$AAe?$AA?$AA@ 00514c40     LIBCMTD:dbgrptt.obj
 0003:00016c70       ??_C@_1HO@PJOFIKFE@?$AA_?$AAC?$AAr?$AAt?$AAD?$AAb?$AAg?$AAR?$AAe?$AAp?$AAo?$AAr?$AAt?$AA?3?$AA?5?$AAS?$AAt?$AAr?$AAi?$AAn?$AAg?$AA?5?$AAt?$AAo?$AAo?$AA?5?$AAl?$AAo?$AAn?$AAg?$AA?5?$AAo@ 00514c70     LIBCMTD:dbgrptt.obj
 0003:00016d08       ??_C@_1MC@IGEECMDB@?$AAw?$AAc?$AAs?$AAc?$AAp?$AAy?$AA_?$AAs?$AA?$CI?$AAs?$AAz?$AAO?$AAu?$AAt?$AAM?$AAe?$AAs?$AAs?$AAa?$AAg?$AAe?$AA2?$AA?0?$AA?5?$AA4?$AA0?$AA9?$AA6?$AA?0?$AA?5?$AAL?$AA?$CC@ 00514d08     LIBCMTD:dbgrptt.obj
 0003:00016df0       ??_C@_1IM@OOKIFKOH@?$AAe?$AA?5?$AA?$DN?$AA?5?$AAm?$AAb?$AAs?$AAt?$AAo?$AAw?$AAc?$AAs?$AA_?$AAs?$AA?$CI?$AA?$CG?$AAr?$AAe?$AAt?$AA?0?$AA?5?$AAs?$AAz?$AAO?$AAu?$AAt?$AAM?$AAe?$AAs?$AAs?$AAa?$AAg@ 00514df0     LIBCMTD:dbgrptt.obj
 0003:00016e98       ??_C@_1FI@IBIOIHEG@?$AAs?$AAt?$AAr?$AAc?$AAp?$AAy?$AA_?$AAs?$AA?$CI?$AAs?$AAz?$AAO?$AAu?$AAt?$AAM?$AAe?$AAs?$AAs?$AAa?$AAg?$AAe?$AA?0?$AA?5?$AA4?$AA0?$AA9?$AA6?$AA?0?$AA?5?$AAs?$AAz?$AAL@ 00514e98     LIBCMTD:dbgrptt.obj
 0003:00016f04       ??_C@_0M@IPILFDFN@?$CFs?$CI?$CFd?$CJ?5?3?5?$CFs?$AA@ 00514f04     LIBCMTD:dbgrptt.obj
 0003:00016f18       ??_C@_1EI@LDHJEDO@?$AAs?$AAt?$AAr?$AAc?$AAa?$AAt?$AA_?$AAs?$AA?$CI?$AAs?$AAz?$AAL?$AAi?$AAn?$AAe?$AAM?$AAe?$AAs?$AAs?$AAa?$AAg?$AAe?$AA?0?$AA?5?$AA4?$AA0?$AA9?$AA6?$AA?0?$AA?5?$AA?$CC?$AA?2@ 00514f18     LIBCMTD:dbgrptt.obj
 0003:00016f70       ??_C@_01LIIJDEN@?$AN?$AA@  00514f70     LIBCMTD:dbgrptt.obj
 0003:00016f78       ??_C@_1EI@CACDLAFK@?$AAs?$AAt?$AAr?$AAc?$AAa?$AAt?$AA_?$AAs?$AA?$CI?$AAs?$AAz?$AAL?$AAi?$AAn?$AAe?$AAM?$AAe?$AAs?$AAs?$AAa?$AAg?$AAe?$AA?0?$AA?5?$AA4?$AA0?$AA9?$AA6?$AA?0?$AA?5?$AA?$CC?$AA?2@ 00514f78     LIBCMTD:dbgrptt.obj
 0003:00016fd0       ??_C@_1FK@NPGBPOFO@?$AAs?$AAt?$AAr?$AAc?$AAa?$AAt?$AA_?$AAs?$AA?$CI?$AAs?$AAz?$AAL?$AAi?$AAn?$AAe?$AAM?$AAe?$AAs?$AAs?$AAa?$AAg?$AAe?$AA?0?$AA?5?$AA4?$AA0?$AA9?$AA6?$AA?0?$AA?5?$AAs?$AAz@ 00514fd0     LIBCMTD:dbgrptt.obj
 0003:00017040       ??_C@_1KK@GIGAEDMO@?$AAs?$AAt?$AAr?$AAc?$AAp?$AAy?$AA_?$AAs?$AA?$CI?$AAs?$AAz?$AAL?$AAi?$AAn?$AAe?$AAM?$AAe?$AAs?$AAs?$AAa?$AAg?$AAe?$AA?0?$AA?5?$AA4?$AA0?$AA9?$AA6?$AA?0?$AA?5?$AAs?$AAz@ 00515040     LIBCMTD:dbgrptt.obj
 0003:0001710c       ??_C@_0BD@CAENFOHP@Assertion?5failed?3?5?$AA@ 0051510c     LIBCMTD:dbgrptt.obj
 0003:00017128       ??_C@_1JI@GAALPGBM@?$AAs?$AAt?$AAr?$AAc?$AAp?$AAy?$AA_?$AAs?$AA?$CI?$AAs?$AAz?$AAU?$AAs?$AAe?$AAr?$AAM?$AAe?$AAs?$AAs?$AAa?$AAg?$AAe?$AA?0?$AA?5?$AA4?$AA0?$AA9?$AA6?$AA?0?$AA?5?$AA?$CC?$AA_@ 00515128     LIBCMTD:dbgrptt.obj
 0003:000171e0       ??_C@_07BHGABMGB@?0?5Line?5?$AA@ 005151e0     LIBCMTD:dbgrptt.obj
 0003:000171ec       ??_C@_0P@DFJNDPOP@?$DMfile?5unknown?$DO?$AA@ 005151ec     LIBCMTD:dbgrptt.obj
 0003:00017200       ??_C@_0CG@BNGLOCEO@Second?5Chance?5Assertion?5Failed?3?5@ 00515200     LIBCMTD:dbgrptt.obj
 0003:00017230       ??_C@_1FA@JPHJBHEM@?$AA_?$AAi?$AAt?$AAo?$AAa?$AA_?$AAs?$AA?$CI?$AAn?$AAL?$AAi?$AAn?$AAe?$AA?0?$AA?5?$AAs?$AAz?$AAL?$AAi?$AAn?$AAe?$AAM?$AAe?$AAs?$AAs?$AAa?$AAg?$AAe?$AA?0?$AA?5?$AA4?$AA0@ 00515230     LIBCMTD:dbgrptt.obj
 0003:00017290       ??_C@_1CA@KHJHLKA@?$AA_?$AAV?$AAC?$AAr?$AAt?$AAD?$AAb?$AAg?$AAR?$AAe?$AAp?$AAo?$AAr?$AAt?$AAA?$AA?$AA@ 00515290     LIBCMTD:dbgrptt.obj
 0003:000172b8       ??_C@_1IE@CPGKIAGP@?$AAw?$AAc?$AAs?$AAt?$AAo?$AAm?$AAb?$AAs?$AA_?$AAs?$AA?$CI?$AA?$CG?$AAr?$AAe?$AAt?$AA?0?$AA?5?$AAs?$AAz?$AAa?$AAO?$AAu?$AAt?$AAM?$AAe?$AAs?$AAs?$AAa?$AAg?$AAe?$AA?0?$AA?5@ 005152b8     LIBCMTD:dbgrptt.obj
 0003:00017358       ??_C@_1MA@LBAMNNOB@?$AAs?$AAt?$AAr?$AAc?$AAp?$AAy?$AA_?$AAs?$AA?$CI?$AAs?$AAz?$AAO?$AAu?$AAt?$AAM?$AAe?$AAs?$AAs?$AAa?$AAg?$AAe?$AA2?$AA?0?$AA?5?$AA4?$AA0?$AA9?$AA6?$AA?0?$AA?5?$AA?$CC?$AA_@ 00515358     LIBCMTD:dbgrptt.obj
 0003:00017440       ??_C@_1JC@EOAPFDLN@?$AAw?$AAc?$AAs?$AAt?$AAo?$AAm?$AAb?$AAs?$AA_?$AAs?$AA?$CI?$AA?$CI?$AA?$CI?$AAv?$AAo?$AAi?$AAd?$AA?5?$AA?$CK?$AA?$CJ?$AA0?$AA?$CJ?$AA?0?$AA?5?$AAs?$AAz?$AAO?$AAu?$AAt?$AAM?$AAe?$AAs@ 00515440     LIBCMTD:dbgrptt.obj
 0003:000174f0       ??_C@_1FI@DBAIJPJE@?$AAw?$AAc?$AAs?$AAc?$AAp?$AAy?$AA_?$AAs?$AA?$CI?$AAs?$AAz?$AAO?$AAu?$AAt?$AAM?$AAe?$AAs?$AAs?$AAa?$AAg?$AAe?$AA?0?$AA?5?$AA4?$AA0?$AA9?$AA6?$AA?0?$AA?5?$AAs?$AAz?$AAL@ 005154f0     LIBCMTD:dbgrptt.obj
 0003:0001755c       ??_C@_1BI@JIDBEPIG@?$AA?$CF?$AAs?$AA?$CI?$AA?$CF?$AAd?$AA?$CJ?$AA?5?$AA?3?$AA?5?$AA?$CF?$AAs?$AA?$AA@ 0051555c     LIBCMTD:dbgrptt.obj
 0003:00017578       ??_C@_1EK@PHCBEDKB@?$AAw?$AAc?$AAs?$AAc?$AAa?$AAt?$AA_?$AAs?$AA?$CI?$AAs?$AAz?$AAL?$AAi?$AAn?$AAe?$AAM?$AAe?$AAs?$AAs?$AAa?$AAg?$AAe?$AA?0?$AA?5?$AA4?$AA0?$AA9?$AA6?$AA?0?$AA?5?$AAL?$AA?$CC@ 00515578     LIBCMTD:dbgrptt.obj
 0003:000175d0       ??_C@_13CMNBPIDO@?$AA?$AN?$AA?$AA@ 005155d0     LIBCMTD:dbgrptt.obj
 0003:000175d8       ??_C@_1EK@NMDFGHMF@?$AAw?$AAc?$AAs?$AAc?$AAa?$AAt?$AA_?$AAs?$AA?$CI?$AAs?$AAz?$AAL?$AAi?$AAn?$AAe?$AAM?$AAe?$AAs?$AAs?$AAa?$AAg?$AAe?$AA?0?$AA?5?$AA4?$AA0?$AA9?$AA6?$AA?0?$AA?5?$AAL?$AA?$CC@ 005155d8     LIBCMTD:dbgrptt.obj
 0003:00017630       ??_C@_1FK@HPADHBBD@?$AAw?$AAc?$AAs?$AAc?$AAa?$AAt?$AA_?$AAs?$AA?$CI?$AAs?$AAz?$AAL?$AAi?$AAn?$AAe?$AAM?$AAe?$AAs?$AAs?$AAa?$AAg?$AAe?$AA?0?$AA?5?$AA4?$AA0?$AA9?$AA6?$AA?0?$AA?5?$AAs?$AAz@ 00515630     LIBCMTD:dbgrptt.obj
 0003:000176a0       ??_C@_1KO@DGAHENCH@?$AAw?$AAc?$AAs?$AAc?$AAp?$AAy?$AA_?$AAs?$AA?$CI?$AAs?$AAz?$AAL?$AAi?$AAn?$AAe?$AAM?$AAe?$AAs?$AAs?$AAa?$AAg?$AAe?$AA?0?$AA?5?$AA4?$AA0?$AA9?$AA6?$AA?0?$AA?5?$AAs?$AAz@ 005156a0     LIBCMTD:dbgrptt.obj
 0003:00017770       ??_C@_1CG@FFFGGODN@?$AAA?$AAs?$AAs?$AAe?$AAr?$AAt?$AAi?$AAo?$AAn?$AA?5?$AAf?$AAa?$AAi?$AAl?$AAe?$AAd?$AA?3?$AA?5?$AA?$AA@ 00515770     LIBCMTD:dbgrptt.obj
 0003:000177a0       ??_C@_1JK@KHFABAEO@?$AAw?$AAc?$AAs?$AAc?$AAp?$AAy?$AA_?$AAs?$AA?$CI?$AAs?$AAz?$AAU?$AAs?$AAe?$AAr?$AAM?$AAe?$AAs?$AAs?$AAa?$AAg?$AAe?$AA?0?$AA?5?$AA4?$AA0?$AA9?$AA6?$AA?0?$AA?5?$AAL?$AA?$CC@ 005157a0     LIBCMTD:dbgrptt.obj
 0003:00017858       ??_C@_1BA@ELMMDCFC@?$AA?0?$AA?5?$AAL?$AAi?$AAn?$AAe?$AA?5?$AA?$AA@ 00515858     LIBCMTD:dbgrptt.obj
 0003:0001786c       ??_C@_1BO@OCHMLCAG@?$AA?$DM?$AAf?$AAi?$AAl?$AAe?$AA?5?$AAu?$AAn?$AAk?$AAn?$AAo?$AAw?$AAn?$AA?$DO?$AA?$AA@ 0051586c     LIBCMTD:dbgrptt.obj
 0003:00017890       ??_C@_1EM@MJFLEDMB@?$AAS?$AAe?$AAc?$AAo?$AAn?$AAd?$AA?5?$AAC?$AAh?$AAa?$AAn?$AAc?$AAe?$AA?5?$AAA?$AAs?$AAs?$AAe?$AAr?$AAt?$AAi?$AAo?$AAn?$AA?5?$AAF?$AAa?$AAi?$AAl?$AAe?$AAd?$AA?3?$AA?5@ 00515890     LIBCMTD:dbgrptt.obj
 0003:000178f0       ??_C@_1FA@CNLLOMHI@?$AA_?$AAi?$AAt?$AAo?$AAw?$AA_?$AAs?$AA?$CI?$AAn?$AAL?$AAi?$AAn?$AAe?$AA?0?$AA?5?$AAs?$AAz?$AAL?$AAi?$AAn?$AAe?$AAM?$AAe?$AAs?$AAs?$AAa?$AAg?$AAe?$AA?0?$AA?5?$AA4?$AA0@ 005158f0     LIBCMTD:dbgrptt.obj
 0003:00017950       ??_C@_1CA@HPALHDOD@?$AA_?$AAV?$AAC?$AAr?$AAt?$AAD?$AAb?$AAg?$AAR?$AAe?$AAp?$AAo?$AAr?$AAt?$AAW?$AA?$AA@ 00515950     LIBCMTD:dbgrptt.obj
 0003:00017978       ??_C@_1BE@BMIJMLDD@?$AA_?$AAs?$AAw?$AAp?$AAr?$AAi?$AAn?$AAt?$AAf?$AA?$AA@ 00515978     LIBCMTD:swprintf.obj
 0003:00017990       ??_C@_1BG@CEFLJIIJ@?$AAs?$AAw?$AAp?$AAr?$AAi?$AAn?$AAt?$AAf?$AA?4?$AAc?$AA?$AA@ 00515990     LIBCMTD:swprintf.obj
 0003:000179b0       ___lookuptable_s           005159b0     LIBCMTD:outputs.obj
 0003:00017a20       ??_C@_1FK@LNCFKALM@?$AA?$CI?$AA?$CI?$AAs?$AAt?$AAa?$AAt?$AAe?$AA?5?$AA?$DN?$AA?$DN?$AA?5?$AAS?$AAT?$AA_?$AAN?$AAO?$AAR?$AAM?$AAA?$AAL?$AA?$CJ?$AA?5?$AA?$HM?$AA?$HM?$AA?5?$AA?$CI?$AAs?$AAt?$AAa?$AAt?$AAe?$AA?5@ 00515a20     LIBCMTD:outputs.obj
 0003:00017a8c       ??_C@_0DA@FHGIAEAH@f?3?2sp?2vctools?2crt_bld?2self_x86?2c@ 00515a8c     LIBCMTD:outputs.obj
 0003:00017ac8       ??_C@_1EE@DMAIGNBG@?$AA?$CI?$AA?$CC?$AAI?$AAn?$AAc?$AAo?$AAr?$AAr?$AAe?$AAc?$AAt?$AA?5?$AAf?$AAo?$AAr?$AAm?$AAa?$AAt?$AA?5?$AAs?$AAp?$AAe?$AAc?$AAi?$AAf?$AAi?$AAe?$AAr?$AA?$CC?$AA?0?$AA?5?$AA0@ 00515ac8     LIBCMTD:outputs.obj
 0003:00017b1c       ??_C@_1BI@COFBLHCG@?$AA_?$AAo?$AAu?$AAt?$AAp?$AAu?$AAt?$AA_?$AAs?$AA_?$AAl?$AA?$AA@ 00515b1c     LIBCMTD:outputs.obj
 0003:00017b38       ??_C@_1GA@KAEECOIJ@?$AAf?$AA?3?$AA?2?$AAs?$AAp?$AA?2?$AAv?$AAc?$AAt?$AAo?$AAo?$AAl?$AAs?$AA?2?$AAc?$AAr?$AAt?$AA_?$AAb?$AAl?$AAd?$AA?2?$AAs?$AAe?$AAl?$AAf?$AA_?$AAx?$AA8?$AA6?$AA?2?$AAc@ 00515b38     LIBCMTD:outputs.obj
 0003:00017bb0       ??_C@_1FK@BCPANIEK@?$AA?$CI?$AA?$CC?$AAM?$AAi?$AAs?$AAs?$AAi?$AAn?$AAg?$AA?5?$AAp?$AAo?$AAs?$AAi?$AAt?$AAi?$AAo?$AAn?$AA?5?$AAi?$AAn?$AA?5?$AAt?$AAh?$AAe?$AA?5?$AAf?$AAo?$AAr?$AAm?$AAa?$AAt@ 00515bb0     LIBCMTD:outputp.obj
 0003:00017c20       ??_C@_1JC@OACKELNN@?$AA_?$AAt?$AAv?$AAa?$AAl?$AAi?$AAd?$AAa?$AAt?$AAe?$AA_?$AAp?$AAa?$AAr?$AAa?$AAm?$AA_?$AAr?$AAe?$AAu?$AAs?$AAe?$AA?$CI?$AA?$CG?$AAp?$AAo?$AAs?$AA_?$AAv?$AAa?$AAl?$AAu@ 00515c20     LIBCMTD:outputp.obj
 0003:00017cd0       ??_C@_1IK@NBGDDCBN@?$AA_?$AAt?$AAv?$AAa?$AAl?$AAi?$AAd?$AAa?$AAt?$AAe?$AA_?$AAp?$AAa?$AAr?$AAa?$AAm?$AA_?$AAr?$AAe?$AAu?$AAs?$AAe?$AA?$CI?$AA?$CG?$AAp?$AAo?$AAs?$AA_?$AAv?$AAa?$AAl?$AAu@ 00515cd0     LIBCMTD:outputp.obj
 0003:00017d78       ??_C@_1DG@GOHGNKHE@?$AAp?$AAa?$AAs?$AAs?$AA?5?$AA?$DN?$AA?$DN?$AA?5?$AAF?$AAO?$AAR?$AAM?$AAA?$AAT?$AA_?$AAO?$AAU?$AAT?$AAP?$AAU?$AAT?$AA_?$AAP?$AAA?$AAS?$AAS?$AA?$AA@ 00515d78     LIBCMTD:outputp.obj
 0003:00017db8       ??_C@_1IM@DNGHAPLB@?$AA_?$AAt?$AAv?$AAa?$AAl?$AAi?$AAd?$AAa?$AAt?$AAe?$AA_?$AAp?$AAa?$AAr?$AAa?$AAm?$AA_?$AAr?$AAe?$AAu?$AAs?$AAe?$AA?$CI?$AA?$CG?$AAp?$AAo?$AAs?$AA_?$AAv?$AAa?$AAl?$AAu@ 00515db8     LIBCMTD:outputp.obj
 0003:00017e60       ??_C@_1IG@HJIMKDHC@?$AA_?$AAt?$AAv?$AAa?$AAl?$AAi?$AAd?$AAa?$AAt?$AAe?$AA_?$AAp?$AAa?$AAr?$AAa?$AAm?$AA_?$AAr?$AAe?$AAu?$AAs?$AAe?$AA?$CI?$AA?$CG?$AAp?$AAo?$AAs?$AA_?$AAv?$AAa?$AAl?$AAu@ 00515e60     LIBCMTD:outputp.obj
 0003:00017f00       ??_C@_1IG@FDCPLALG@?$AA_?$AAt?$AAv?$AAa?$AAl?$AAi?$AAd?$AAa?$AAt?$AAe?$AA_?$AAp?$AAa?$AAr?$AAa?$AAm?$AA_?$AAr?$AAe?$AAu?$AAs?$AAe?$AA?$CI?$AA?$CG?$AAp?$AAo?$AAs?$AA_?$AAv?$AAa?$AAl?$AAu@ 00515f00     LIBCMTD:outputp.obj
 0003:00017fa0       ??_C@_1IK@MHEDJAMK@?$AA_?$AAt?$AAv?$AAa?$AAl?$AAi?$AAd?$AAa?$AAt?$AAe?$AA_?$AAp?$AAa?$AAr?$AAa?$AAm?$AA_?$AAr?$AAe?$AAu?$AAs?$AAe?$AA?$CI?$AA?$CG?$AAp?$AAo?$AAs?$AA_?$AAv?$AAa?$AAl?$AAu@ 00515fa0     LIBCMTD:outputp.obj
 0003:00018048       ??_C@_1EM@BNPHBBIA@?$AA?$CI?$AA?$CI?$AAt?$AAy?$AAp?$AAe?$AA_?$AAp?$AAo?$AAs?$AA?$DO?$AA?$DN?$AA0?$AA?$CJ?$AA?5?$AA?$CG?$AA?$CG?$AA?5?$AA?$CI?$AAt?$AAy?$AAp?$AAe?$AA_?$AAp?$AAo?$AAs?$AA?$DM?$AA_?$AAA?$AAR?$AAG@ 00516048     LIBCMTD:outputp.obj
 0003:000180a8       ??_C@_1IK@EIEPDKHJ@?$AA_?$AAt?$AAv?$AAa?$AAl?$AAi?$AAd?$AAa?$AAt?$AAe?$AA_?$AAp?$AAa?$AAr?$AAa?$AAm?$AA_?$AAr?$AAe?$AAu?$AAs?$AAe?$AA?$CI?$AA?$CG?$AAp?$AAo?$AAs?$AA_?$AAv?$AAa?$AAl?$AAu@ 005160a8     LIBCMTD:outputp.obj
 0003:00018150       ??_C@_1JG@JBJBOCFB@?$AA?$CI?$AA?$CI?$AAp?$AAr?$AAe?$AAc?$AAi?$AAs?$AA_?$AAp?$AAo?$AAs?$AA?5?$AA?$DO?$AA?$DN?$AA?5?$AA0?$AA?$CJ?$AA?5?$AA?$CG?$AA?$CG?$AA?5?$AA?$CI?$AA?$CK?$AAe?$AAn?$AAd?$AA_?$AAp?$AAo?$AAs?$AA?5@ 00516150     LIBCMTD:outputp.obj
 0003:00018208       ??_C@_1II@PIPIMLPF@?$AA_?$AAt?$AAv?$AAa?$AAl?$AAi?$AAd?$AAa?$AAt?$AAe?$AA_?$AAp?$AAa?$AAr?$AAa?$AAm?$AA_?$AAr?$AAe?$AAu?$AAs?$AAe?$AA?$CI?$AA?$CG?$AAp?$AAo?$AAs?$AA_?$AAv?$AAa?$AAl?$AAu@ 00516208     LIBCMTD:outputp.obj
 0003:000182b0       ??_C@_1JE@NMBHOLFI@?$AA?$CI?$AA?$CI?$AAw?$AAi?$AAd?$AAt?$AAh?$AA_?$AAp?$AAo?$AAs?$AA?5?$AA?$DO?$AA?$DN?$AA?5?$AA0?$AA?$CJ?$AA?5?$AA?$CG?$AA?$CG?$AA?5?$AA?$CI?$AA?$CK?$AAe?$AAn?$AAd?$AA_?$AAp?$AAo?$AAs?$AA?5?$AA?$DN@ 005162b0     LIBCMTD:outputp.obj
 0003:00018368       ??_C@_1JC@PFJNKEIO@?$AA?$CI?$AA?$CI?$AAt?$AAy?$AAp?$AAe?$AA_?$AAp?$AAo?$AAs?$AA?5?$AA?$DO?$AA?$DN?$AA?5?$AA0?$AA?$CJ?$AA?5?$AA?$CG?$AA?$CG?$AA?5?$AA?$CI?$AA?$CK?$AAe?$AAn?$AAd?$AA_?$AAp?$AAo?$AAs?$AA?5?$AA?$DN?$AA?$DN@ 00516368     LIBCMTD:outputp.obj
 0003:00018418       ??_C@_1BI@KANOLAMF@?$AA_?$AAo?$AAu?$AAt?$AAp?$AAu?$AAt?$AA_?$AAp?$AA_?$AAl?$AA?$AA@ 00516418     LIBCMTD:outputp.obj
 0003:00018434       ??_C@_1BE@KHFBJMNM@?$AA_?$AAl?$AAs?$AAe?$AAe?$AAk?$AAi?$AA6?$AA4?$AA?$AA@ 00516434     LIBCMTD:lseeki64.obj
 0003:0001844c       ??_C@_1BG@NGOGNEMB@?$AAl?$AAs?$AAe?$AAe?$AAk?$AAi?$AA6?$AA4?$AA?4?$AAc?$AA?$AA@ 0051644c     LIBCMTD:lseeki64.obj
 0003:00018468       ??_C@_09PKAEMGHJ@_getbuf?4c?$AA@ 00516468     LIBCMTD:_getbuf.obj
 0003:00018474       ??_C@_1BE@DJANJIEH@?$AA_?$AAg?$AAe?$AAt?$AAb?$AAu?$AAf?$AA?4?$AAc?$AA?$AA@ 00516474     LIBCMTD:_getbuf.obj
 0003:0001848c       ??_C@_0BK@CIDNPOGP@GetUserObjectInformationA?$AA@ 0051648c     LIBCMTD:crtmbox.obj
 0003:000184ac       ??_C@_1CC@MEIOIKJI@?$AA_?$AA_?$AAc?$AAr?$AAt?$AAM?$AAe?$AAs?$AAs?$AAa?$AAg?$AAe?$AAB?$AAo?$AAx?$AAA?$AA?$AA@ 005164ac     LIBCMTD:crtmbox.obj
 0003:000184d4       ??_C@_1BE@DEODNGG@?$AAc?$AAr?$AAt?$AAm?$AAb?$AAo?$AAx?$AA?4?$AAc?$AA?$AA@ 005164d4     LIBCMTD:crtmbox.obj
 0003:000184ec       ??_C@_0M@CHKKJDAI@MessageBoxA?$AA@ 005164ec     LIBCMTD:crtmbox.obj
 0003:000184fc       ??_C@_0L@NDEGIDAG@USER32?4DLL?$AA@ 005164fc     LIBCMTD:crtmbox.obj
 0003:0001850c       ??_C@_1BE@NDMJHJJG@?$AAs?$AAt?$AAr?$AAn?$AAc?$AAp?$AAy?$AA_?$AAs?$AA?$AA@ 0051650c     LIBCMTD:strncpy_s.obj
 0003:00018524       ??_C@_09MGNHMPHC@osfinfo?4c?$AA@ 00516524     LIBCMTD:osfinfo.obj
 0003:00018530       ??_C@_1BO@EMBOBGKE@?$AA_?$AAg?$AAe?$AAt?$AA_?$AAo?$AAs?$AAf?$AAh?$AAa?$AAn?$AAd?$AAl?$AAe?$AA?$AA@ 00516530     LIBCMTD:osfinfo.obj
 0003:00018554       ??_C@_1BE@MIGAHMPD@?$AAo?$AAs?$AAf?$AAi?$AAn?$AAf?$AAo?$AA?4?$AAc?$AA?$AA@ 00516554     LIBCMTD:osfinfo.obj
 0003:0001856c       ??_C@_1M@MFLJCMFJ@?$AA_?$AAo?$AAp?$AAe?$AAn?$AA?$AA@ 0051656c     LIBCMTD:open.obj
 0003:0001857c       ??_C@_1O@DGNNHNAF@?$AAo?$AAp?$AAe?$AAn?$AA?4?$AAc?$AA?$AA@ 0051657c     LIBCMTD:open.obj
 0003:0001858c       ??_C@_1BO@DPAOGEII@?$AA?$CI?$AAp?$AAa?$AAt?$AAh?$AA?5?$AA?$CB?$AA?$DN?$AA?5?$AAN?$AAU?$AAL?$AAL?$AA?$CJ?$AA?$AA@ 0051658c     LIBCMTD:open.obj
 0003:000185b0       ??_C@_1FG@NFINBJCM@?$AA?$CI?$AA?$CI?$AAp?$AAm?$AAo?$AAd?$AAe?$AA?5?$AA?$CG?$AA?5?$AA?$CI?$AA?$HO?$AA?$CI?$AA_?$AAS?$AA_?$AAI?$AAR?$AAE?$AAA?$AAD?$AA?5?$AA?$HM?$AA?5?$AA_?$AAS?$AA_?$AAI?$AAW?$AAR?$AAI?$AAT@ 005165b0     LIBCMTD:open.obj
 0003:00018618       ??_C@_1BM@IOBAMMHO@?$AA_?$AAs?$AAo?$AAp?$AAe?$AAn?$AA_?$AAh?$AAe?$AAl?$AAp?$AAe?$AAr?$AA?$AA@ 00516618     LIBCMTD:open.obj
 0003:0001863c       ??_C@_1BM@PGEEHLHE@?$AA?$CI?$AAp?$AAf?$AAh?$AA?5?$AA?$CB?$AA?$DN?$AA?5?$AAN?$AAU?$AAL?$AAL?$AA?$CJ?$AA?$AA@ 0051663c     LIBCMTD:open.obj
 0003:00018660       ??_C@_1IA@IENOJNJF@?$AA0?$AA?5?$AA?$CG?$AA?$CG?$AA?5?$AA?$CC?$AAO?$AAn?$AAl?$AAy?$AA?5?$AAU?$AAT?$AAF?$AA?9?$AA1?$AA6?$AA?5?$AAl?$AAi?$AAt?$AAt?$AAl?$AAe?$AA?5?$AAe?$AAn?$AAd?$AAi?$AAa?$AAn?$AA?5@ 00516660     LIBCMTD:open.obj
 0003:000186fc       ??_C@_1CM@IDLMKMPG@?$AA0?$AA?5?$AA?$CG?$AA?$CG?$AA?5?$AA?$CC?$AAI?$AAn?$AAt?$AAe?$AAr?$AAn?$AAa?$AAl?$AA?5?$AAE?$AAr?$AAr?$AAo?$AAr?$AA?$CC?$AA?$AA@ 005166fc     LIBCMTD:open.obj
 0003:00018730       ??_C@_1HM@GJANBLHJ@?$AA?$CI?$AAo?$AAf?$AAl?$AAa?$AAg?$AA?5?$AA?$CG?$AA?5?$AA?$CI?$AA_?$AAO?$AA_?$AAT?$AAE?$AAX?$AAT?$AA?5?$AA?$HM?$AA?5?$AA_?$AAO?$AA_?$AAW?$AAT?$AAE?$AAX?$AAT?$AA?5?$AA?$HM?$AA?5?$AA_@ 00516730     LIBCMTD:open.obj
 0003:000187c4       ??_C@_1DO@PJLMOANO@?$AA?$CI?$AA?5?$AA?$CC?$AAI?$AAn?$AAv?$AAa?$AAl?$AAi?$AAd?$AA?5?$AAs?$AAh?$AAa?$AAr?$AAi?$AAn?$AAg?$AA?5?$AAf?$AAl?$AAa?$AAg?$AA?$CC?$AA?5?$AA?0?$AA?5?$AA0?$AA?5?$AA?$CJ?$AA?$AA@ 005167c4     LIBCMTD:open.obj
 0003:00018810       ??_C@_1DI@DGKIFCCE@?$AA?$CI?$AA?5?$AA?$CC?$AAI?$AAn?$AAv?$AAa?$AAl?$AAi?$AAd?$AA?5?$AAo?$AAp?$AAe?$AAn?$AA?5?$AAf?$AAl?$AAa?$AAg?$AA?$CC?$AA?5?$AA?0?$AA?5?$AA0?$AA?5?$AA?$CJ?$AA?$AA@ 00516810     LIBCMTD:open.obj
 0003:00018854       ??_C@_1CG@ICBEBDJJ@?$AA_?$AAg?$AAe?$AAt?$AA_?$AAf?$AAm?$AAo?$AAd?$AAe?$AA?$CI?$AA?$CG?$AAf?$AAm?$AAo?$AAd?$AAe?$AA?$CJ?$AA?$AA@ 00516854     LIBCMTD:open.obj
 0003:00018884       ??_C@_1BO@JOPFMPGH@?$AA_?$AAt?$AAs?$AAo?$AAp?$AAe?$AAn?$AA_?$AAn?$AAo?$AAl?$AAo?$AAc?$AAk?$AA?$AA@ 00516884     LIBCMTD:open.obj
 0003:000188a8       ??_C@_1BG@GBJNMPFA@?$AAs?$AA2?$AA?5?$AA?$CB?$AA?$DN?$AA?5?$AAN?$AAU?$AAL?$AAL?$AA?$AA@ 005168a8     LIBCMTD:mbsicmp.obj
 0003:000188c4       ??_C@_1BG@BMDHEPAJ@?$AA_?$AAm?$AAb?$AAs?$AAi?$AAc?$AAm?$AAp?$AA_?$AAl?$AA?$AA@ 005168c4     LIBCMTD:mbsicmp.obj
 0003:000188e0       ??_C@_1BE@JMPFNKJA@?$AAm?$AAb?$AAs?$AAi?$AAc?$AAm?$AAp?$AA?4?$AAc?$AA?$AA@ 005168e0     LIBCMTD:mbsicmp.obj
 0003:000188f8       ??_C@_1BG@MODEICJK@?$AAs?$AA1?$AA?5?$AA?$CB?$AA?$DN?$AA?5?$AAN?$AAU?$AAL?$AAL?$AA?$AA@ 005168f8     LIBCMTD:mbsicmp.obj
 0003:00018914       ??_C@_1BI@LPHOHGHI@?$AA_?$AAm?$AAb?$AAs?$AAn?$AAb?$AAc?$AAm?$AAp?$AA_?$AAl?$AA?$AA@ 00516914     LIBCMTD:mbsnbcmp.obj
 0003:00018930       ??_C@_1BG@JGCJENML@?$AAm?$AAb?$AAs?$AAn?$AAb?$AAc?$AAm?$AAp?$AA?4?$AAc?$AA?$AA@ 00516930     LIBCMTD:mbsnbcmp.obj
 0003:0001894c       ??_C@_1BG@BBCDFOMA@?$AA_?$AAw?$AAo?$AAu?$AAt?$AAp?$AAu?$AAt?$AA_?$AAl?$AA?$AA@ 0051694c     LIBCMTD:woutput.obj
 0003:00018968       ??_C@_1CC@MONNFDCM@?$AAv?$AAf?$AAw?$AAp?$AAr?$AAi?$AAn?$AAt?$AAf?$AA_?$AAh?$AAe?$AAl?$AAp?$AAe?$AAr?$AA?$AA@ 00516968     LIBCMTD:vfwprint.obj
 0003:00018990       ??_C@_1BG@NPPNBJFE@?$AAv?$AAf?$AAw?$AAp?$AAr?$AAi?$AAn?$AAt?$AA?4?$AAc?$AA?$AA@ 00516990     LIBCMTD:vfwprint.obj
 0003:000189ac       ??_C@_1O@GIMBNLEI@?$AAx?$AAt?$AAo?$AAa?$AA_?$AAs?$AA?$AA@ 005169ac     LIBCMTD:xtoas.obj
 0003:000189bc       ??_C@_1BC@MJJNBNFN@?$AAx?$AA6?$AA4?$AAt?$AAo?$AAa?$AA_?$AAs?$AA?$AA@ 005169bc     LIBCMTD:xtoas.obj
 0003:000189d4       ??_C@_1BA@DNOHIGNM@?$AAf?$AAp?$AAr?$AAi?$AAn?$AAt?$AAf?$AA?$AA@ 005169d4     LIBCMTD:fprintf.obj
 0003:000189e8       ??_C@_1BE@NEFIHEIC@?$AAf?$AAp?$AAr?$AAi?$AAn?$AAt?$AAf?$AA?4?$AAc?$AA?$AA@ 005169e8     LIBCMTD:fprintf.obj
 0003:00018a00       ??_C@_1BK@ONMFGLDB@?$AA_?$AAw?$AAo?$AAu?$AAt?$AAp?$AAu?$AAt?$AA_?$AAs?$AA_?$AAl?$AA?$AA@ 00516a00     LIBCMTD:woutputs.obj
 0003:00018a20       ??_C@_1BK@GDEKGMNC@?$AA_?$AAw?$AAo?$AAu?$AAt?$AAp?$AAu?$AAt?$AA_?$AAp?$AA_?$AAl?$AA?$AA@ 00516a20     LIBCMTD:woutputp.obj
 0003:00018a40       ??_C@_1BA@NGNGNDEP@?$AA_?$AAc?$AAp?$AAu?$AAt?$AAw?$AAs?$AA?$AA@ 00516a40     LIBCMTD:putwch.obj
 0003:00018a54       ??_C@_1BC@HKEJKGAG@?$AAp?$AAu?$AAt?$AAw?$AAc?$AAh?$AA?4?$AAc?$AA?$AA@ 00516a54     LIBCMTD:putwch.obj
 0003:00018a6c       ??_C@_1BC@MFKEFFNI@?$AAm?$AAb?$AAt?$AAo?$AAw?$AAc?$AA?4?$AAc?$AA?$AA@ 00516a6c     LIBCMTD:mbtowc.obj
 0003:00018a88       ??_C@_1NC@EINCOKCO@?$AA_?$AAl?$AAo?$AAc?$AA_?$AAu?$AAp?$AAd?$AAa?$AAt?$AAe?$AA?4?$AAG?$AAe?$AAt?$AAL?$AAo?$AAc?$AAa?$AAl?$AAe?$AAT?$AA?$CI?$AA?$CJ?$AA?9?$AA?$DO?$AAl?$AAo?$AAc?$AAi?$AAn?$AAf@ 00516a88     LIBCMTD:mbtowc.obj
 0003:00018b84       ??_C@_1CC@HBLPFNKH@?$AA?$CI?$AAc?$AAn?$AAt?$AA?5?$AA?$DM?$AA?$DN?$AA?5?$AAI?$AAN?$AAT?$AA_?$AAM?$AAA?$AAX?$AA?$CJ?$AA?$AA@ 00516b84     LIBCMTD:read.obj
 0003:00018bac       ??_C@_1M@NHJOLLDM@?$AA_?$AAr?$AAe?$AAa?$AAd?$AA?$AA@ 00516bac     LIBCMTD:read.obj
 0003:00018bbc       ??_C@_1O@OLAFBHGM@?$AAr?$AAe?$AAa?$AAd?$AA?4?$AAc?$AA?$AA@ 00516bbc     LIBCMTD:read.obj
 0003:00018bcc       ??_C@_06CNEIBCEN@read?4c?$AA@ 00516bcc     LIBCMTD:read.obj
 0003:00018bd4       ??_C@_1CG@OHLJHGGK@?$AA?$CI?$AAi?$AAn?$AAp?$AAu?$AAt?$AAb?$AAu?$AAf?$AA?5?$AA?$CB?$AA?$DN?$AA?5?$AAN?$AAU?$AAL?$AAL?$AA?$CJ?$AA?$AA@ 00516bd4     LIBCMTD:read.obj
 0003:00018c04       ??_C@_1BK@JJBHNDKJ@?$AA_?$AAr?$AAe?$AAa?$AAd?$AA_?$AAn?$AAo?$AAl?$AAo?$AAc?$AAk?$AA?$AA@ 00516c04     LIBCMTD:read.obj
 0003:00018c24       ??_C@_0L@KBNGFDKM@convrtcp?4c?$AA@ 00516c24     LIBCMTD:convrtcp.obj
 0003:00018c38       ___newctype                00516c38     LIBCMTD:ctype.obj
 0003:00018f38       __wctype                   00516f38     LIBCMTD:ctype.obj
 0003:00019140       ___newclmap                00517140     LIBCMTD:ctype.obj
 0003:000192c0       ___newcumap                005172c0     LIBCMTD:ctype.obj
 0003:000195dc       ??_C@_1BG@HHBAFOPB@?$AAi?$AAn?$AAi?$AAt?$AAt?$AAi?$AAm?$AAe?$AA?4?$AAc?$AA?$AA@ 005175dc     LIBCMTD:inittime.obj
 0003:000195f8       ??_C@_1EE@FDHCFDHN@?$AAp?$AAl?$AAo?$AAc?$AAi?$AA?9?$AA?$DO?$AAl?$AAc?$AA_?$AAt?$AAi?$AAm?$AAe?$AA_?$AAc?$AAu?$AAr?$AAr?$AA?9?$AA?$DO?$AAr?$AAe?$AAf?$AAc?$AAo?$AAu?$AAn?$AAt?$AA?5?$AA?$DO?$AA?5@ 005175f8     LIBCMTD:inittime.obj
 0003:0001964c       ??_C@_0L@IOJADHBB@inittime?4c?$AA@ 0051764c     LIBCMTD:inittime.obj
 0003:0001965c       ??_C@_1BE@EAFFGEEO@?$AAi?$AAn?$AAi?$AAt?$AAn?$AAu?$AAm?$AA?4?$AAc?$AA?$AA@ 0051765c     LIBCMTD:initnum.obj
 0003:00019674       ??_C@_1DM@IFKAINNE@?$AAp?$AAl?$AAo?$AAc?$AAi?$AA?9?$AA?$DO?$AAl?$AAc?$AAo?$AAn?$AAv?$AA_?$AAn?$AAu?$AAm?$AA_?$AAr?$AAe?$AAf?$AAc?$AAo?$AAu?$AAn?$AAt?$AA?5?$AA?$DO?$AA?5?$AA0?$AA?$AA@ 00517674     LIBCMTD:initnum.obj
 0003:000196bc       ??_C@_09MECGNAGI@initnum?4c?$AA@ 005176bc     LIBCMTD:initnum.obj
 0003:000196c8       ??_C@_1BE@IJMIKAHM@?$AAi?$AAn?$AAi?$AAt?$AAm?$AAo?$AAn?$AA?4?$AAc?$AA?$AA@ 005176c8     LIBCMTD:initmon.obj
 0003:000196e0       ??_C@_1DM@GKAPAMDO@?$AAp?$AAl?$AAo?$AAc?$AAi?$AA?9?$AA?$DO?$AAl?$AAc?$AAo?$AAn?$AAv?$AA_?$AAm?$AAo?$AAn?$AA_?$AAr?$AAe?$AAf?$AAc?$AAo?$AAu?$AAn?$AAt?$AA?5?$AA?$DO?$AA?5?$AA0?$AA?$AA@ 005176e0     LIBCMTD:initmon.obj
 0003:00019728       ??_C@_09HKFHICAL@initmon?4c?$AA@ 00517728     LIBCMTD:initmon.obj
 0003:00019734       ??_C@_1DG@NMBGBDM@?$AAp?$AAl?$AAo?$AAc?$AAi?$AA?9?$AA?$DO?$AAc?$AAt?$AAy?$AAp?$AAe?$AA1?$AA_?$AAr?$AAe?$AAf?$AAc?$AAo?$AAu?$AAn?$AAt?$AA?5?$AA?$DO?$AA?5?$AA0?$AA?$AA@ 00517734     LIBCMTD:initctyp.obj
 0003:00019774       ??_C@_1BG@PMMGDKJC@?$AAi?$AAn?$AAi?$AAt?$AAc?$AAt?$AAy?$AAp?$AA?4?$AAc?$AA?$AA@ 00517774     LIBCMTD:initctyp.obj
 0003:00019790       ??_C@_0L@GBAGBCPL@initctyp?4c?$AA@ 00517790     LIBCMTD:initctyp.obj
 0003:000197a0       ??_C@_08JCCMCCIL@HH?3mm?3ss?$AA@ 005177a0     LIBCMTD:strftime.obj
 0003:000197ac       ??_C@_0BE@CKGJFCPC@dddd?0?5MMMM?5dd?0?5yyyy?$AA@ 005177ac     LIBCMTD:strftime.obj
 0003:000197c4       ??_C@_08BPBNCDIB@MM?1dd?1yy?$AA@ 005177c4     LIBCMTD:strftime.obj
 0003:000197d0       ??_C@_02CJNFDJBF@PM?$AA@   005177d0     LIBCMTD:strftime.obj
 0003:000197d4       ??_C@_02DEDBPAFC@AM?$AA@   005177d4     LIBCMTD:strftime.obj
 0003:000197d8       ??_C@_08EDHMEBNP@December?$AA@ 005177d8     LIBCMTD:strftime.obj
 0003:000197e4       ??_C@_08HCHEGEOA@November?$AA@ 005177e4     LIBCMTD:strftime.obj
 0003:000197f0       ??_C@_07JJNFCEND@October?$AA@ 005177f0     LIBCMTD:strftime.obj
 0003:000197fc       ??_C@_09BHHEALKD@September?$AA@ 005177fc     LIBCMTD:strftime.obj
 0003:00019808       ??_C@_06LBBHFDDG@August?$AA@ 00517808     LIBCMTD:strftime.obj
 0003:00019810       ??_C@_04MIEPOIFP@July?$AA@ 00517810     LIBCMTD:strftime.obj
 0003:00019818       ??_C@_04CNLMGBGM@June?$AA@ 00517818     LIBCMTD:strftime.obj
 0003:00019820       ??_C@_05DMJDNLEJ@April?$AA@ 00517820     LIBCMTD:strftime.obj
 0003:00019828       ??_C@_05HPCKOFNC@March?$AA@ 00517828     LIBCMTD:strftime.obj
 0003:00019830       ??_C@_08GNJGEPFN@February?$AA@ 00517830     LIBCMTD:strftime.obj
 0003:0001983c       ??_C@_07CGJPFGJA@January?$AA@ 0051783c     LIBCMTD:strftime.obj
 0003:00019848       ??_C@_03MKABNOCG@Dec?$AA@  00517848     LIBCMTD:strftime.obj
 0003:0001984c       ??_C@_03JPJOFNIA@Nov?$AA@  0051784c     LIBCMTD:strftime.obj
 0003:00019850       ??_C@_03BMAOKBAD@Oct?$AA@  00517850     LIBCMTD:strftime.obj
 0003:00019854       ??_C@_03GGCAPAJC@Sep?$AA@  00517854     LIBCMTD:strftime.obj
 0003:00019858       ??_C@_03IFJFEIGA@Aug?$AA@  00517858     LIBCMTD:strftime.obj
 0003:0001985c       ??_C@_03LBGABGKK@Jul?$AA@  0051785c     LIBCMTD:strftime.obj
 0003:00019860       ??_C@_03IDFGHECI@Jun?$AA@  00517860     LIBCMTD:strftime.obj
 0003:00019864       ??_C@_03CNMDKL@May?$AA@    00517864     LIBCMTD:strftime.obj
 0003:00019868       ??_C@_03LEOLGMJP@Apr?$AA@  00517868     LIBCMTD:strftime.obj
 0003:0001986c       ??_C@_03ODNJBKGA@Mar?$AA@  0051786c     LIBCMTD:strftime.obj
 0003:00019870       ??_C@_03HJBDCHOM@Feb?$AA@  00517870     LIBCMTD:strftime.obj
 0003:00019874       ??_C@_03JIHJHPIE@Jan?$AA@  00517874     LIBCMTD:strftime.obj
 0003:00019878       ??_C@_08INBOOONO@Saturday?$AA@ 00517878     LIBCMTD:strftime.obj
 0003:00019884       ??_C@_06JECMNKMI@Friday?$AA@ 00517884     LIBCMTD:strftime.obj
 0003:0001988c       ??_C@_08HACCIKIA@Thursday?$AA@ 0051788c     LIBCMTD:strftime.obj
 0003:00019898       ??_C@_09DLIGFAKA@Wednesday?$AA@ 00517898     LIBCMTD:strftime.obj
 0003:000198a4       ??_C@_07BAAGCFCM@Tuesday?$AA@ 005178a4     LIBCMTD:strftime.obj
 0003:000198b0       ??_C@_06JLEDEDGH@Monday?$AA@ 005178b0     LIBCMTD:strftime.obj
 0003:000198b8       ??_C@_06OOPIFAJ@Sunday?$AA@ 005178b8     LIBCMTD:strftime.obj
 0003:000198c0       ??_C@_1FM@LPEPDBJF@?$AAs?$AAt?$AAr?$AAc?$AAp?$AAy?$AA_?$AAs?$AA?$CI?$AAs?$AA?0?$AA?5?$AA?$CI?$AAl?$AAe?$AAn?$AA?5?$AA?$CL?$AA?5?$AA1?$AA?$CJ?$AA?5?$AA?9?$AA?5?$AA?$CI?$AAs?$AA?5?$AA?9?$AA?5?$AAp?$AA?$CJ?$AA?0@ 005178c0     LIBCMTD:strftime.obj
 0003:00019930       ??_C@_1GG@NAGHPCAA@?$AAs?$AAt?$AAr?$AAc?$AAp?$AAy?$AA_?$AAs?$AA?$CI?$AAs?$AA?0?$AA?5?$AA?$CI?$AAl?$AAe?$AAn?$AA?5?$AA?$CL?$AA?5?$AA1?$AA?$CJ?$AA?5?$AA?9?$AA?5?$AA?$CI?$AAs?$AA?5?$AA?9?$AA?5?$AAp?$AA?$CJ?$AA?0@ 00517930     LIBCMTD:strftime.obj
 0003:000199ac       ??_C@_1BG@LGACIFJI@?$AA_?$AAG?$AAe?$AAt?$AAd?$AAa?$AAy?$AAs?$AA_?$AAl?$AA?$AA@ 005179ac     LIBCMTD:strftime.obj
 0003:000199c8       ??_C@_1BG@EMNEMEKA@?$AAs?$AAt?$AAr?$AAf?$AAt?$AAi?$AAm?$AAe?$AA?4?$AAc?$AA?$AA@ 005179c8     LIBCMTD:strftime.obj
 0003:000199e4       ??_C@_0L@OCEOFAIF@strftime?4c?$AA@ 005179e4     LIBCMTD:strftime.obj
 0003:000199f8       ??_C@_1FO@IFFKPIEL@?$AAs?$AAt?$AAr?$AAc?$AAp?$AAy?$AA_?$AAs?$AA?$CI?$AAs?$AA?0?$AA?5?$AA?$CI?$AAl?$AAe?$AAn?$AA?5?$AA?$CL?$AA?5?$AA1?$AA?$CJ?$AA?5?$AA?9?$AA?5?$AA?$CI?$AAs?$AA?5?$AA?9?$AA?5?$AAp?$AA?$CJ?$AA?0@ 005179f8     LIBCMTD:strftime.obj
 0003:00019a68       ??_C@_1GI@LNJDDNLK@?$AAs?$AAt?$AAr?$AAc?$AAp?$AAy?$AA_?$AAs?$AA?$CI?$AAs?$AA?0?$AA?5?$AA?$CI?$AAl?$AAe?$AAn?$AA?5?$AA?$CL?$AA?5?$AA1?$AA?$CJ?$AA?5?$AA?9?$AA?5?$AA?$CI?$AAs?$AA?5?$AA?9?$AA?5?$AAp?$AA?$CJ?$AA?0@ 00517a68     LIBCMTD:strftime.obj
 0003:00019ae4       ??_C@_1BK@IDMELNCB@?$AA_?$AAG?$AAe?$AAt?$AAm?$AAo?$AAn?$AAt?$AAh?$AAs?$AA_?$AAl?$AA?$AA@ 00517ae4     LIBCMTD:strftime.obj
 0003:00019b08       ??_C@_1FG@CJBIADLJ@?$AAs?$AAt?$AAr?$AAc?$AAp?$AAy?$AA_?$AAs?$AA?$CI?$AAs?$AA?0?$AA?5?$AAl?$AAe?$AAn?$AA?5?$AA?9?$AA?5?$AA?$CI?$AAs?$AA?5?$AA?9?$AA?5?$AAp?$AA?$CJ?$AA?0?$AA?5?$AAp?$AAt?$AA?9?$AA?$DO?$AAw@ 00517b08     LIBCMTD:strftime.obj
 0003:00019b70       ??_C@_1FI@PPIHCJGH@?$AAs?$AAt?$AAr?$AAc?$AAp?$AAy?$AA_?$AAs?$AA?$CI?$AAs?$AA?0?$AA?5?$AAl?$AAe?$AAn?$AA?5?$AA?9?$AA?5?$AA?$CI?$AAs?$AA?5?$AA?9?$AA?5?$AAp?$AA?$CJ?$AA?0?$AA?5?$AAp?$AAt?$AA?9?$AA?$DO?$AAw@ 00517b70     LIBCMTD:strftime.obj
 0003:00019be0       ??_C@_1FI@GDNOPCGD@?$AAs?$AAt?$AAr?$AAc?$AAp?$AAy?$AA_?$AAs?$AA?$CI?$AAs?$AA?0?$AA?5?$AAl?$AAe?$AAn?$AA?5?$AA?9?$AA?5?$AA?$CI?$AAs?$AA?5?$AA?9?$AA?5?$AAp?$AA?$CJ?$AA?0?$AA?5?$AAp?$AAt?$AA?9?$AA?$DO?$AAw@ 00517be0     LIBCMTD:strftime.obj
 0003:00019c50       ??_C@_1FA@MEHIJEIL@?$AAs?$AAt?$AAr?$AAc?$AAp?$AAy?$AA_?$AAs?$AA?$CI?$AAs?$AA?0?$AA?5?$AAl?$AAe?$AAn?$AA?5?$AA?9?$AA?5?$AA?$CI?$AAs?$AA?5?$AA?9?$AA?5?$AAp?$AA?$CJ?$AA?0?$AA?5?$AAp?$AAt?$AA?9?$AA?$DO?$AAa@ 00517c50     LIBCMTD:strftime.obj
 0003:00019cb0       ??_C@_1FA@INCJEBF@?$AAs?$AAt?$AAr?$AAc?$AAp?$AAy?$AA_?$AAs?$AA?$CI?$AAs?$AA?0?$AA?5?$AAl?$AAe?$AAn?$AA?5?$AA?9?$AA?5?$AA?$CI?$AAs?$AA?5?$AA?9?$AA?5?$AAp?$AA?$CJ?$AA?0?$AA?5?$AAp?$AAt?$AA?9?$AA?$DO?$AAa@ 00517cb0     LIBCMTD:strftime.obj
 0003:00019d10       ??_C@_1FC@BEAPAEGE@?$AAs?$AAt?$AAr?$AAc?$AAp?$AAy?$AA_?$AAs?$AA?$CI?$AAs?$AA?0?$AA?5?$AAl?$AAe?$AAn?$AA?5?$AA?9?$AA?5?$AA?$CI?$AAs?$AA?5?$AA?9?$AA?5?$AAp?$AA?$CJ?$AA?0?$AA?5?$AAp?$AAt?$AA?9?$AA?$DO?$AAm@ 00517d10     LIBCMTD:strftime.obj
 0003:00019d78       ??_C@_1FM@CHHONFED@?$AAs?$AAt?$AAr?$AAc?$AAp?$AAy?$AA_?$AAs?$AA?$CI?$AAs?$AA?0?$AA?5?$AAl?$AAe?$AAn?$AA?5?$AA?9?$AA?5?$AA?$CI?$AAs?$AA?5?$AA?9?$AA?5?$AAp?$AA?$CJ?$AA?0?$AA?5?$AAp?$AAt?$AA?9?$AA?$DO?$AAm@ 00517d78     LIBCMTD:strftime.obj
 0003:00019de8       ??_C@_1FA@EBHJJADL@?$AAs?$AAt?$AAr?$AAc?$AAp?$AAy?$AA_?$AAs?$AA?$CI?$AAs?$AA?0?$AA?5?$AAl?$AAe?$AAn?$AA?5?$AA?9?$AA?5?$AA?$CI?$AAs?$AA?5?$AA?9?$AA?5?$AAp?$AA?$CJ?$AA?0?$AA?5?$AAp?$AAt?$AA?9?$AA?$DO?$AAw@ 00517de8     LIBCMTD:strftime.obj
 0003:00019e48       ??_C@_1FK@ODMKEFLD@?$AAs?$AAt?$AAr?$AAc?$AAp?$AAy?$AA_?$AAs?$AA?$CI?$AAs?$AA?0?$AA?5?$AAl?$AAe?$AAn?$AA?5?$AA?9?$AA?5?$AA?$CI?$AAs?$AA?5?$AA?9?$AA?5?$AAp?$AA?$CJ?$AA?0?$AA?5?$AAp?$AAt?$AA?9?$AA?$DO?$AAw@ 00517e48     LIBCMTD:strftime.obj
 0003:00019eb4       ??_C@_1BK@MJNHIAGO@?$AA_?$AAG?$AAe?$AAt?$AAt?$AAn?$AAa?$AAm?$AAe?$AAs?$AA_?$AAl?$AA?$AA@ 00517eb4     LIBCMTD:strftime.obj
 0003:00019ed4       ??_C@_1M@HCOOECOK@?$AAF?$AAA?$AAL?$AAS?$AAE?$AA?$AA@ 00517ed4     LIBCMTD:strftime.obj
 0003:00019ee8       ??_C@_1HC@JGDOBCNK@?$AA?$CI?$AA?$CC?$AAI?$AAn?$AAv?$AAa?$AAl?$AAi?$AAd?$AA?5?$AAM?$AAB?$AAC?$AAS?$AA?5?$AAc?$AAh?$AAa?$AAr?$AAa?$AAc?$AAt?$AAe?$AAr?$AA?5?$AAs?$AAe?$AAq?$AAu?$AAe?$AAn?$AAc@ 00517ee8     LIBCMTD:strftime.obj
 0003:00019f70       ??_C@_1BG@CCBNLOOI@?$AAt?$AAi?$AAm?$AAe?$AAp?$AAt?$AAr?$AA?$CB?$AA?$DN?$AA0?$AA?$AA@ 00517f70     LIBCMTD:strftime.obj
 0003:00019f8c       ??_C@_1CG@MHIOFJLE@?$AA?$CI?$AA?5?$AAf?$AAo?$AAr?$AAm?$AAa?$AAt?$AA?5?$AA?$CB?$AA?$DN?$AA?5?$AAN?$AAU?$AAL?$AAL?$AA?5?$AA?$CJ?$AA?$AA@ 00517f8c     LIBCMTD:strftime.obj
 0003:00019fbc       ??_C@_1CC@IHEJKGMG@?$AA?$CI?$AA?5?$AAm?$AAa?$AAx?$AAs?$AAi?$AAz?$AAe?$AA?5?$AA?$CB?$AA?$DN?$AA?5?$AA0?$AA?5?$AA?$CJ?$AA?$AA@ 00517fbc     LIBCMTD:strftime.obj
 0003:00019fe4       ??_C@_1BI@ONBMGNNA@?$AA_?$AAS?$AAt?$AAr?$AAf?$AAt?$AAi?$AAm?$AAe?$AA_?$AAl?$AA?$AA@ 00517fe4     LIBCMTD:strftime.obj
 0003:0001a000       ??_C@_1CG@MPKJHDAA@?$AA?$CI?$AA?5?$AAs?$AAt?$AAr?$AAi?$AAn?$AAg?$AA?5?$AA?$CB?$AA?$DN?$AA?5?$AAN?$AAU?$AAL?$AAL?$AA?5?$AA?$CJ?$AA?$AA@ 00518000     LIBCMTD:strftime.obj
 0003:0001a030       ??_C@_1EG@JNJKHKFI@?$AA?$CI?$AA?5?$AA?$CC?$AAI?$AAn?$AAv?$AAa?$AAl?$AAi?$AAd?$AA?5?$AAf?$AAo?$AAr?$AAm?$AAa?$AAt?$AA?5?$AAd?$AAi?$AAr?$AAe?$AAc?$AAt?$AAi?$AAv?$AAe?$AA?$CC?$AA?5?$AA?0?$AA?5?$AA0@ 00518030     LIBCMTD:strftime.obj
 0003:0001a088       ??_C@_1HM@LBNGKIAD@?$AA?$CI?$AA?5?$AAt?$AAi?$AAm?$AAe?$AAp?$AAt?$AAr?$AA?9?$AA?$DO?$AAt?$AAm?$AA_?$AAy?$AAe?$AAa?$AAr?$AA?5?$AA?$DO?$AA?$DN?$AA?5?$AA?9?$AA1?$AA9?$AA0?$AA0?$AA?5?$AA?$CJ?$AA?5?$AA?$CG?$AA?$CG@ 00518088     LIBCMTD:strftime.obj
 0003:0001a11c       ??_C@_1DC@NMCFBMJP@?$AA?$CI?$AA?5?$AAt?$AAi?$AAm?$AAe?$AAp?$AAt?$AAr?$AA?9?$AA?$DO?$AAt?$AAm?$AA_?$AAy?$AAe?$AAa?$AAr?$AA?5?$AA?$DO?$AA?$DN?$AA0?$AA?5?$AA?$CJ?$AA?$AA@ 0051811c     LIBCMTD:strftime.obj
 0003:0001a158       ??_C@_1HC@HLKHIKOB@?$AA?$CI?$AA?5?$AA?$CI?$AA?5?$AAt?$AAi?$AAm?$AAe?$AAp?$AAt?$AAr?$AA?9?$AA?$DO?$AAt?$AAm?$AA_?$AAs?$AAe?$AAc?$AA?5?$AA?$DO?$AA?$DN?$AA0?$AA?5?$AA?$CJ?$AA?5?$AA?$CG?$AA?$CG?$AA?5?$AA?$CI?$AA?5?$AAt@ 00518158     LIBCMTD:strftime.obj
 0003:0001a1e0       ??_C@_1HC@IGKDPPHL@?$AA?$CI?$AA?5?$AA?$CI?$AA?5?$AAt?$AAi?$AAm?$AAe?$AAp?$AAt?$AAr?$AA?9?$AA?$DO?$AAt?$AAm?$AA_?$AAm?$AAi?$AAn?$AA?5?$AA?$DO?$AA?$DN?$AA0?$AA?5?$AA?$CJ?$AA?5?$AA?$CG?$AA?$CG?$AA?5?$AA?$CI?$AA?5?$AAt@ 005181e0     LIBCMTD:strftime.obj
 0003:0001a268       ??_C@_1HI@HHCJCPE@?$AA?$CI?$AA?5?$AA?$CI?$AA?5?$AAt?$AAi?$AAm?$AAe?$AAp?$AAt?$AAr?$AA?9?$AA?$DO?$AAt?$AAm?$AA_?$AAy?$AAd?$AAa?$AAy?$AA?5?$AA?$DO?$AA?$DN?$AA0?$AA?5?$AA?$CJ?$AA?5?$AA?$CG?$AA?$CG?$AA?5?$AA?$CI?$AA?5@ 00518268     LIBCMTD:strftime.obj
 0003:0001a2f8       ??_C@_1HG@KCGGFLNI@?$AA?$CI?$AA?5?$AA?$CI?$AA?5?$AAt?$AAi?$AAm?$AAe?$AAp?$AAt?$AAr?$AA?9?$AA?$DO?$AAt?$AAm?$AA_?$AAh?$AAo?$AAu?$AAr?$AA?5?$AA?$DO?$AA?$DN?$AA0?$AA?5?$AA?$CJ?$AA?5?$AA?$CG?$AA?$CG?$AA?5?$AA?$CI?$AA?5@ 005182f8     LIBCMTD:strftime.obj
 0003:0001a388       ??_C@_1HG@NFHHOAD@?$AA?$CI?$AA?5?$AA?$CI?$AA?5?$AAt?$AAi?$AAm?$AAe?$AAp?$AAt?$AAr?$AA?9?$AA?$DO?$AAt?$AAm?$AA_?$AAm?$AAd?$AAa?$AAy?$AA?5?$AA?$DO?$AA?$DN?$AA1?$AA?5?$AA?$CJ?$AA?5?$AA?$CG?$AA?$CG?$AA?5?$AA?$CI?$AA?5@ 00518388     LIBCMTD:strftime.obj
 0003:0001a418       ??_C@_1HC@OOAMILFB@?$AA?$CI?$AA?5?$AA?$CI?$AA?5?$AAt?$AAi?$AAm?$AAe?$AAp?$AAt?$AAr?$AA?9?$AA?$DO?$AAt?$AAm?$AA_?$AAm?$AAo?$AAn?$AA?5?$AA?$DO?$AA?$DN?$AA0?$AA?5?$AA?$CJ?$AA?5?$AA?$CG?$AA?$CG?$AA?5?$AA?$CI?$AA?5?$AAt@ 00518418     LIBCMTD:strftime.obj
 0003:0001a4a0       ??_C@_1BI@HBKPAJH@?$AA_?$AAe?$AAx?$AAp?$AAa?$AAn?$AAd?$AAt?$AAi?$AAm?$AAe?$AA?$AA@ 005184a0     LIBCMTD:strftime.obj
 0003:0001a4c0       ??_C@_1HE@BFLEOKFO@?$AA?$CI?$AA?5?$AA?$CI?$AA?5?$AAt?$AAi?$AAm?$AAe?$AAp?$AAt?$AAr?$AA?9?$AA?$DO?$AAt?$AAm?$AA_?$AAw?$AAd?$AAa?$AAy?$AA?5?$AA?$DO?$AA?$DN?$AA0?$AA?5?$AA?$CJ?$AA?5?$AA?$CG?$AA?$CG?$AA?5?$AA?$CI?$AA?5@ 005184c0     LIBCMTD:strftime.obj
 0003:0001a550       ??_C@_1HG@PAEENAPO@?$AA?$CI?$AA?$CC?$AAI?$AAn?$AAv?$AAa?$AAl?$AAi?$AAd?$AA?5?$AAM?$AAB?$AAC?$AAS?$AA?5?$AAc?$AAh?$AAa?$AAr?$AAa?$AAc?$AAt?$AAe?$AAr?$AA?5?$AAs?$AAe?$AAq?$AAu?$AAe?$AAn?$AAc@ 00518550     LIBCMTD:strftime.obj
 0003:0001a5e0       ??_C@_1IE@EIDABBDG@?$AA?$CI?$AA?$CC?$AAI?$AAn?$AAv?$AAa?$AAl?$AAi?$AAd?$AA?5?$AAM?$AAB?$AAC?$AAS?$AA?5?$AAc?$AAh?$AAa?$AAr?$AAa?$AAc?$AAt?$AAe?$AAr?$AA?5?$AAs?$AAe?$AAq?$AAu?$AAe?$AAn?$AAc@ 005185e0     LIBCMTD:strftime.obj
 0003:0001a680       ??_C@_03EBAPMIKO@a?1p?$AA@ 00518680     LIBCMTD:strftime.obj
 0003:0001a684       ??_C@_05JAMEPDIN@am?1pm?$AA@ 00518684     LIBCMTD:strftime.obj
 0003:0001a68c       ??_C@_0O@FMJNFNKE@united?9states?$AA@ 0051868c     LIBCMTD:getqloc.obj
 0003:0001a69c       ??_C@_0P@NDHFFKCA@united?9kingdom?$AA@ 0051869c     LIBCMTD:getqloc.obj
 0003:0001a6b0       ??_C@_0BC@HHDADLGF@trinidad?5?$CG?5tobago?$AA@ 005186b0     LIBCMTD:getqloc.obj
 0003:0001a6c8       ??_C@_0M@IOAEBDAC@south?9korea?$AA@ 005186c8     LIBCMTD:getqloc.obj
 0003:0001a6d8       ??_C@_0N@FIELFKIJ@south?9africa?$AA@ 005186d8     LIBCMTD:getqloc.obj
 0003:0001a6e8       ??_C@_0M@OPNDHCMC@south?5korea?$AA@ 005186e8     LIBCMTD:getqloc.obj
 0003:0001a6f8       ??_C@_0N@MDEOEPFI@south?5africa?$AA@ 005186f8     LIBCMTD:getqloc.obj
 0003:0001a708       ??_C@_06FKAPCJLB@slovak?$AA@ 00518708     LIBCMTD:getqloc.obj
 0003:0001a710       ??_C@_0M@EFJANOAL@puerto?9rico?$AA@ 00518710     LIBCMTD:getqloc.obj
 0003:0001a720       ??_C@_08PGOJKDAI@pr?9china?$AA@ 00518720     LIBCMTD:getqloc.obj
 0003:0001a72c       ??_C@_08JHDOMCMI@pr?5china?$AA@ 0051872c     LIBCMTD:getqloc.obj
 0003:0001a738       ??_C@_02JHCHFBLL@nz?$AA@   00518738     LIBCMTD:getqloc.obj
 0003:0001a73c       ??_C@_0M@LINHDHKP@new?9zealand?$AA@ 0051873c     LIBCMTD:getqloc.obj
 0003:0001a74c       ??_C@_09IIIPPBDB@hong?9kong?$AA@ 0051874c     LIBCMTD:getqloc.obj
 0003:0001a758       ??_C@_07HJLCKBG@holland?$AA@ 00518758     LIBCMTD:getqloc.obj
 0003:0001a764       ??_C@_0O@LEHGMHAG@great?5britain?$AA@ 00518764     LIBCMTD:getqloc.obj
 0003:0001a774       ??_C@_07FACOMELA@england?$AA@ 00518774     LIBCMTD:getqloc.obj
 0003:0001a780       ??_C@_05JIHCEICB@czech?$AA@ 00518780     LIBCMTD:getqloc.obj
 0003:0001a788       ??_C@_05BBJOBLGB@china?$AA@ 00518788     LIBCMTD:getqloc.obj
 0003:0001a790       ??_C@_07GPKPHICP@britain?$AA@ 00518790     LIBCMTD:getqloc.obj
 0003:0001a79c       ??_C@_07MHIPBHMG@america?$AA@ 0051879c     LIBCMTD:getqloc.obj
 0003:0001a7a8       ??_C@_03KIALPMKC@usa?$AA@  005187a8     LIBCMTD:getqloc.obj
 0003:0001a7ac       ??_C@_02FGJGKGGD@us?$AA@   005187ac     LIBCMTD:getqloc.obj
 0003:0001a7b0       ??_C@_02NEINDODK@uk?$AA@   005187b0     LIBCMTD:getqloc.obj
 0003:0001a7b4       ??_C@_05JMPCFJFJ@swiss?$AA@ 005187b4     LIBCMTD:getqloc.obj
 0003:0001a7bc       ??_C@_0BA@HLOCPIOD@swedish?9finland?$AA@ 005187bc     LIBCMTD:getqloc.obj
 0003:0001a7d0       ??_C@_0BC@PKCNIABK@spanish?9venezuela?$AA@ 005187d0     LIBCMTD:getqloc.obj
 0003:0001a7e8       ??_C@_0BA@GBHHMIJI@spanish?9uruguay?$AA@ 005187e8     LIBCMTD:getqloc.obj
 0003:0001a7fc       ??_C@_0BE@BHDOHPMC@spanish?9puerto?5rico?$AA@ 005187fc     LIBCMTD:getqloc.obj
 0003:0001a814       ??_C@_0N@KMOIDGGN@spanish?9peru?$AA@ 00518814     LIBCMTD:getqloc.obj
 0003:0001a824       ??_C@_0BB@HMHLPGPH@spanish?9paraguay?$AA@ 00518824     LIBCMTD:getqloc.obj
 0003:0001a838       ??_C@_0P@MCPKNGFD@spanish?9panama?$AA@ 00518838     LIBCMTD:getqloc.obj
 0003:0001a84c       ??_C@_0BC@IHOHGAIL@spanish?9nicaragua?$AA@ 0051884c     LIBCMTD:getqloc.obj
 0003:0001a864       ??_C@_0P@KLMJDNFJ@spanish?9modern?$AA@ 00518864     LIBCMTD:getqloc.obj
 0003:0001a878       ??_C@_0BA@BPAPGBCM@spanish?9mexican?$AA@ 00518878     LIBCMTD:getqloc.obj
 0003:0001a88c       ??_C@_0BB@PDECHHHE@spanish?9honduras?$AA@ 0051888c     LIBCMTD:getqloc.obj
 0003:0001a8a0       ??_C@_0BC@KLHKFGDB@spanish?9guatemala?$AA@ 005188a0     LIBCMTD:getqloc.obj
 0003:0001a8b8       ??_C@_0BE@MFOOKJAI@spanish?9el?5salvador?$AA@ 005188b8     LIBCMTD:getqloc.obj
 0003:0001a8d0       ??_C@_0BA@FCOKFPFC@spanish?9ecuador?$AA@ 005188d0     LIBCMTD:getqloc.obj
 0003:0001a8e4       ??_C@_0BL@PLMGIMOO@spanish?9dominican?5republic?$AA@ 005188e4     LIBCMTD:getqloc.obj
 0003:0001a904       ??_C@_0BD@HLGDNMHB@spanish?9costa?5rica?$AA@ 00518904     LIBCMTD:getqloc.obj
 0003:0001a91c       ??_C@_0BB@PKCBKCPE@spanish?9colombia?$AA@ 0051891c     LIBCMTD:getqloc.obj
 0003:0001a930       ??_C@_0O@MCBIJGNE@spanish?9chile?$AA@ 00518930     LIBCMTD:getqloc.obj
 0003:0001a940       ??_C@_0BA@BEFEIGJJ@spanish?9bolivia?$AA@ 00518940     LIBCMTD:getqloc.obj
 0003:0001a954       ??_C@_0BC@EMECMPD@spanish?9argentina?$AA@ 00518954     LIBCMTD:getqloc.obj
 0003:0001a96c       ??_C@_0BF@EALFLENP@portuguese?9brazilian?$AA@ 0051896c     LIBCMTD:getqloc.obj
 0003:0001a988       ??_C@_0BC@HBLEBLNN@norwegian?9nynorsk?$AA@ 00518988     LIBCMTD:getqloc.obj
 0003:0001a9a0       ??_C@_0BB@HMACDDCK@norwegian?9bokmal?$AA@ 005189a0     LIBCMTD:getqloc.obj
 0003:0001a9b4       ??_C@_09BAFFPPHE@norwegian?$AA@ 005189b4     LIBCMTD:getqloc.obj
 0003:0001a9c0       ??_C@_0O@EAJFJDFG@italian?9swiss?$AA@ 005189c0     LIBCMTD:getqloc.obj
 0003:0001a9d0       ??_C@_0O@CNOMPGD@irish?9english?$AA@ 005189d0     LIBCMTD:getqloc.obj
 0003:0001a9e0       ??_C@_0N@EDHBGCKG@german?9swiss?$AA@ 005189e0     LIBCMTD:getqloc.obj
 0003:0001a9f0       ??_C@_0BC@JACMHNBP@german?9luxembourg?$AA@ 005189f0     LIBCMTD:getqloc.obj
 0003:0001aa08       ??_C@_0BE@HBGMGFEG@german?9lichtenstein?$AA@ 00518a08     LIBCMTD:getqloc.obj
 0003:0001aa20       ??_C@_0BA@HKKBIBKL@german?9austrian?$AA@ 00518a20     LIBCMTD:getqloc.obj
 0003:0001aa34       ??_C@_0N@GCAEPEBK@french?9swiss?$AA@ 00518a34     LIBCMTD:getqloc.obj
 0003:0001aa44       ??_C@_0BC@DJFJJCK@french?9luxembourg?$AA@ 00518a44     LIBCMTD:getqloc.obj
 0003:0001aa5c       ??_C@_0BA@NNCEDFIC@french?9canadian?$AA@ 00518a5c     LIBCMTD:getqloc.obj
 0003:0001aa70       ??_C@_0P@CMPOCLM@french?9belgian?$AA@ 00518a70     LIBCMTD:getqloc.obj
 0003:0001aa84       ??_C@_0M@GHHDJOK@english?9usa?$AA@ 00518a84     LIBCMTD:getqloc.obj
 0003:0001aa94       ??_C@_0L@PLDJKEIL@english?9us?$AA@ 00518a94     LIBCMTD:getqloc.obj
 0003:0001aaa4       ??_C@_0L@HJCCDMNC@english?9uk?$AA@ 00518aa4     LIBCMTD:getqloc.obj
 0003:0001aab4       ??_C@_0BK@CKLIAGJB@english?9trinidad?5y?5tobago?$AA@ 00518ab4     LIBCMTD:getqloc.obj
 0003:0001aad4       ??_C@_0BF@JMJMGNNF@english?9south?5africa?$AA@ 00518ad4     LIBCMTD:getqloc.obj
 0003:0001aaf0       ??_C@_0L@DKIIFDFD@english?9nz?$AA@ 00518af0     LIBCMTD:getqloc.obj
 0003:0001ab00       ??_C@_0BA@ONHGJCLH@english?9jamaica?$AA@ 00518b00     LIBCMTD:getqloc.obj
 0003:0001ab14       ??_C@_0M@HJBGHOPO@english?9ire?$AA@ 00518b14     LIBCMTD:getqloc.obj
 0003:0001ab24       ??_C@_0BC@LFEKMIFB@english?9caribbean?$AA@ 00518b24     LIBCMTD:getqloc.obj
 0003:0001ab3c       ??_C@_0M@OLDPFKHI@english?9can?$AA@ 00518b3c     LIBCMTD:getqloc.obj
 0003:0001ab4c       ??_C@_0P@OMDEHBMP@english?9belize?$AA@ 00518b4c     LIBCMTD:getqloc.obj
 0003:0001ab60       ??_C@_0M@KFHFPFED@english?9aus?$AA@ 00518b60     LIBCMTD:getqloc.obj
 0003:0001ab70       ??_C@_0BB@MNMBKDFE@english?9american?$AA@ 00518b70     LIBCMTD:getqloc.obj
 0003:0001ab84       ??_C@_0O@KIDLNNBA@dutch?9belgian?$AA@ 00518b84     LIBCMTD:getqloc.obj
 0003:0001ab94       ??_C@_0BE@JBKABBMH@chinese?9traditional?$AA@ 00518b94     LIBCMTD:getqloc.obj
 0003:0001abac       ??_C@_0BC@MJJMPKCG@chinese?9singapore?$AA@ 00518bac     LIBCMTD:getqloc.obj
 0003:0001abc4       ??_C@_0BD@FDKADDCP@chinese?9simplified?$AA@ 00518bc4     LIBCMTD:getqloc.obj
 0003:0001abdc       ??_C@_0BB@DBEFDDME@chinese?9hongkong?$AA@ 00518bdc     LIBCMTD:getqloc.obj
 0003:0001abf0       ??_C@_07DHNMFMCI@chinese?$AA@ 00518bf0     LIBCMTD:getqloc.obj
 0003:0001abfc       ??_C@_03FNDDCHI@chi?$AA@   00518bfc     LIBCMTD:getqloc.obj
 0003:0001ac00       ??_C@_03BMMIADDJ@chh?$AA@  00518c00     LIBCMTD:getqloc.obj
 0003:0001ac04       ??_C@_08OAIPJDGI@canadian?$AA@ 00518c04     LIBCMTD:getqloc.obj
 0003:0001ac10       ??_C@_07HBPMNPNJ@belgian?$AA@ 00518c10     LIBCMTD:getqloc.obj
 0003:0001ac1c       ??_C@_0L@OEKOPBEL@australian?$AA@ 00518c1c     LIBCMTD:getqloc.obj
 0003:0001ac2c       ??_C@_0BB@MEIMBEDG@american?9english?$AA@ 00518c2c     LIBCMTD:getqloc.obj
 0003:0001ac40       ??_C@_0BB@DFMDPDGB@american?5english?$AA@ 00518c40     LIBCMTD:getqloc.obj
 0003:0001ac54       ??_C@_08IJLOKOLL@american?$AA@ 00518c54     LIBCMTD:getqloc.obj
 0003:0001ac60       ___rg_language             00518c60     LIBCMTD:getqloc.obj
 0003:0001aed0       ___rg_country              00518ed0     LIBCMTD:getqloc.obj
 0003:0001afac       ___rglangidNotDefault      00518fac     LIBCMTD:getqloc.obj
 0003:0001afc4       ??_C@_0BC@NFIEMBLL@Norwegian?9Nynorsk?$AA@ 00518fc4     LIBCMTD:getqloc.obj
 0003:0001afe0       ??_C@_1OM@OECHDGCF@?$AAs?$AAt?$AAr?$AAc?$AAp?$AAy?$AA_?$AAs?$AA?$CI?$AAl?$AAp?$AAO?$AAu?$AAt?$AAS?$AAt?$AAr?$AA?9?$AA?$DO?$AAs?$AAz?$AAL?$AAa?$AAn?$AAg?$AAu?$AAa?$AAg?$AAe?$AA?0?$AA?5?$AA?$CI@ 00518fe0     LIBCMTD:getqloc.obj
 0003:0001b0fc       ??_C@_1CO@NJACLALJ@?$AA_?$AA_?$AAg?$AAe?$AAt?$AA_?$AAq?$AAu?$AAa?$AAl?$AAi?$AAf?$AAi?$AAe?$AAd?$AA_?$AAl?$AAo?$AAc?$AAa?$AAl?$AAe?$AA?$AA@ 005190fc     LIBCMTD:getqloc.obj
 0003:0001b134       ??_C@_1BE@GIJNDGB@?$AAg?$AAe?$AAt?$AAq?$AAl?$AAo?$AAc?$AA?4?$AAc?$AA?$AA@ 00519134     LIBCMTD:getqloc.obj
 0003:0001b14c       ??_C@_03NFKLAGEF@OCP?$AA@  0051914c     LIBCMTD:getqloc.obj
 0003:0001b150       ??_C@_03DFHEHBHG@ACP?$AA@  00519150     LIBCMTD:getqloc.obj
 0003:0001b154       ??_C@_1O@JDPLECOK@?$AAu?$AAn?$AAg?$AAe?$AAt?$AAc?$AA?$AA@ 00519154     LIBCMTD:ungetc.obj
 0003:0001b164       ??_C@_1BC@EAKHDONB@?$AAu?$AAn?$AAg?$AAe?$AAt?$AAc?$AA?4?$AAc?$AA?$AA@ 00519164     LIBCMTD:ungetc.obj
 0003:0001b17c       ??_C@_1BO@OLMLKKEA@?$AA_?$AAu?$AAn?$AAg?$AAe?$AAt?$AAc?$AA_?$AAn?$AAo?$AAl?$AAo?$AAc?$AAk?$AA?$AA@ 0051917c     LIBCMTD:ungetc.obj
 0003:0001b1a0       ??_C@_1HC@LIEAMBJN@?$AAF?$AA?3?$AA?2?$AAS?$AAP?$AA?2?$AAv?$AAc?$AAt?$AAo?$AAo?$AAl?$AAs?$AA?2?$AAc?$AAr?$AAt?$AA_?$AAb?$AAl?$AAd?$AA?2?$AAS?$AAE?$AAL?$AAF?$AA_?$AAX?$AA8?$AA6?$AA?2?$AAc@ 005191a0     LIBCMTD:ungetc.obj
 0003:0001b228       ??_C@_0BO@GNIAFIKK@Unknown?5Runtime?5Check?5Error?6?$AN?$AA@ 00519228     LIBCMTD:error.obj
 0003:0001b24c       ??_C@_0CM@NGINOKPC@Stack?5memory?5around?5_alloca?5was?5@ 0051924c     LIBCMTD:error.obj
 0003:0001b280       ??_C@_0DG@HKJMLLLP@A?5local?5variable?5was?5used?5before@ 00519280     LIBCMTD:error.obj
 0003:0001b2c0       ??_C@_0BN@FFOINMNJ@Stack?5memory?5was?5corrupted?6?$AN?$AA@ 005192c0     LIBCMTD:error.obj
 0003:0001b2e8       ??_C@_0BBN@GPMLNJCF@A?5cast?5to?5a?5smaller?5data?5type?5ha@ 005192e8     LIBCMTD:error.obj
 0003:0001b440       ??_C@_0NN@NGPKDKPD@The?5value?5of?5ESP?5was?5not?5properl@ 00519440     LIBCMTD:error.obj
 0003:0001b5ec       ??_C@_0CA@IODNCDPG@Run?9Time?5Check?5Failure?5?$CD?$CFd?5?9?5?$CFs?$AA@ 005195ec     LIBCMTD:error.obj
 0003:0001b614       ??_C@_0BE@GNBOBNCK@Unknown?5Module?5Name?$AA@ 00519614     LIBCMTD:error.obj
 0003:0001b62c       ??_C@_0BB@PFFGGCJP@Unknown?5Filename?$AA@ 0051962c     LIBCMTD:error.obj
 0003:0001b640       ??_C@_1EA@NFKNIFJP@?$AAR?$AAu?$AAn?$AA?9?$AAT?$AAi?$AAm?$AAe?$AA?5?$AAC?$AAh?$AAe?$AAc?$AAk?$AA?5?$AAF?$AAa?$AAi?$AAl?$AAu?$AAr?$AAe?$AA?5?$AA?$CD?$AA?$CF?$AAd?$AA?5?$AA?9?$AA?5?$AA?$CF?$AAs?$AA?$AA@ 00519640     LIBCMTD:error.obj
 0003:0001b690       ??_C@_1GM@OLMCBDMB@?$AAR?$AAu?$AAn?$AAt?$AAi?$AAm?$AAe?$AA?5?$AAC?$AAh?$AAe?$AAc?$AAk?$AA?5?$AAE?$AAr?$AAr?$AAo?$AAr?$AA?4?$AA?6?$AA?$AN?$AA?5?$AAU?$AAn?$AAa?$AAb?$AAl?$AAe?$AA?5?$AAt?$AAo@ 00519690     LIBCMTD:error.obj
 0003:0001b714       ??_C@_0CG@IAFNJNEE@Stack?5corrupted?5near?5unknown?5var@ 00519714     LIBCMTD:error.obj
 0003:0001b748       ??_C@_0EJ@LJKNEOLN@Stack?5area?5around?5_alloca?5memory@ 00519748     LIBCMTD:error.obj
 0003:0001b7a0       ??_C@_02LLMPMKNF@?$DO?5?$AA@ 005197a0     LIBCMTD:error.obj
 0003:0001b7a4       ??_C@_0BC@KIBAILCI@?$CFs?$CFs?$CFp?$CFs?$CFld?$CFs?$CFd?$CFs?$AA@ 005197a4     LIBCMTD:error.obj
 0003:0001b7c0       ??_C@_0EI@CLEPFNGI@Stack?5area?5around?5_alloca?5memory@ 005197c0     LIBCMTD:error.obj
 0003:0001b818       ??_C@_0N@MHFFIMFG@?6Address?3?50x?$AA@ 00519818     LIBCMTD:error.obj
 0003:0001b828       ??_C@_07DFDJCKFN@?6Size?3?5?$AA@ 00519828     LIBCMTD:error.obj
 0003:0001b834       ??_C@_0CK@DKGBICFE@?6Allocation?5number?5within?5this?5f@ 00519834     LIBCMTD:error.obj
 0003:0001b868       ??_C@_08OMAHNMHJ@?6Data?3?5?$DM?$AA@ 00519868     LIBCMTD:error.obj
 0003:0001b874       ??_C@_09FOPFMPEJ@wsprintfA?$AA@ 00519874     LIBCMTD:error.obj
 0003:0001b880       ??_C@_0L@GMPLCCII@user32?4dll?$AA@ 00519880     LIBCMTD:error.obj
 0003:0001b890       ??_C@_0DE@OHJBPMBP@A?5variable?5is?5being?5used?5without@ 00519890     LIBCMTD:error.obj
 0003:0001b8d0       ??_C@_1CG@JEHFHLNG@?$AA_?$AAm?$AAb?$AAs?$AAt?$AAo?$AAw?$AAc?$AAs?$AA_?$AAl?$AA_?$AAh?$AAe?$AAl?$AAp?$AAe?$AAr?$AA?$AA@ 005198d0     LIBCMTD:mbstowcs.obj
 0003:0001b900       ??_C@_1BG@KMBPFIPB@?$AAm?$AAb?$AAs?$AAt?$AAo?$AAw?$AAc?$AAs?$AA?4?$AAc?$AA?$AA@ 00519900     LIBCMTD:mbstowcs.obj
 0003:0001b91c       ??_C@_1BE@EEKACIGI@?$AAs?$AA?5?$AA?$CB?$AA?$DN?$AA?5?$AAN?$AAU?$AAL?$AAL?$AA?$AA@ 0051991c     LIBCMTD:mbstowcs.obj
 0003:0001b934       ??_C@_1CO@JNPEPJAL@?$AAr?$AAe?$AAt?$AAs?$AAi?$AAz?$AAe?$AA?5?$AA?$DM?$AA?$DN?$AA?5?$AAs?$AAi?$AAz?$AAe?$AAI?$AAn?$AAW?$AAo?$AAr?$AAd?$AAs?$AA?$AA@ 00519934     LIBCMTD:mbstowcs.obj
 0003:0001b96c       ??_C@_1BM@PHENIGHD@?$AA_?$AAm?$AAb?$AAs?$AAt?$AAo?$AAw?$AAc?$AAs?$AA_?$AAs?$AA_?$AAl?$AA?$AA@ 0051996c     LIBCMTD:mbstowcs.obj
 0003:0001b990       ??_C@_1JA@JKDFMOPO@?$AA?$CI?$AAp?$AAw?$AAc?$AAs?$AA?5?$AA?$DN?$AA?$DN?$AA?5?$AAN?$AAU?$AAL?$AAL?$AA?5?$AA?$CG?$AA?$CG?$AA?5?$AAs?$AAi?$AAz?$AAe?$AAI?$AAn?$AAW?$AAo?$AAr?$AAd?$AAs?$AA?5?$AA?$DN?$AA?$DN?$AA?5@ 00519990     LIBCMTD:mbstowcs.obj
 0003:0001ba3c       ??_C@_1BK@EPLNBKAK@?$AA_?$AAv?$AAs?$AAw?$AAp?$AAr?$AAi?$AAn?$AAt?$AAf?$AA_?$AAl?$AA?$AA@ 00519a3c     LIBCMTD:vswprint.obj
 0003:0001ba5c       ??_C@_1BG@BELBGCGO@?$AAv?$AAs?$AAw?$AAp?$AAr?$AAi?$AAn?$AAt?$AA?4?$AAc?$AA?$AA@ 00519a5c     LIBCMTD:vswprint.obj
 0003:0001ba78       ??_C@_1CG@IMMIEPNA@?$AA_?$AAv?$AAs?$AAc?$AAw?$AAp?$AAr?$AAi?$AAn?$AAt?$AAf?$AA_?$AAh?$AAe?$AAl?$AAp?$AAe?$AAr?$AA?$AA@ 00519a78     LIBCMTD:vswprint.obj
 0003:0001baa8       ??_C@_0P@GHFPNOJB@bad?5allocation?$AA@ 00519aa8     LIBCMTD:frame.obj
 0003:0001babc       __pDestructExceptionObject 00519abc     LIBCMTD:frame.obj
 0003:0001bac0       ??_C@_0O@DPKOEFFH@bad?5exception?$AA@ 00519ac0     LIBCMTD:frame.obj
 0003:0001bad4       ??_7bad_exception@std@@6B@ 00519ad4     LIBCMTD:frame.obj
 0003:0001bae0       ??_C@_1BI@GALBKMKE@?$AA?$CI?$AAs?$AAi?$AAz?$AAe?$AA?5?$AA?$DO?$AA?$DN?$AA?5?$AA0?$AA?$CJ?$AA?$AA@ 00519ae0     LIBCMTD:chsize.obj
 0003:0001bafc       ??_C@_1BE@MAFDNGED@?$AA_?$AAc?$AAh?$AAs?$AAi?$AAz?$AAe?$AA_?$AAs?$AA?$AA@ 00519afc     LIBCMTD:chsize.obj
 0003:0001bb14       ??_C@_1BC@JBFLHAGK@?$AAc?$AAh?$AAs?$AAi?$AAz?$AAe?$AA?4?$AAc?$AA?$AA@ 00519b14     LIBCMTD:chsize.obj
 0003:0001bb2c       ??_C@_1O@EDOIKGHF@?$AA_?$AAl?$AAs?$AAe?$AAe?$AAk?$AA?$AA@ 00519b2c     LIBCMTD:lseek.obj
 0003:0001bb3c       ??_C@_1BA@FKCCIBB@?$AAl?$AAs?$AAe?$AAe?$AAk?$AA?4?$AAc?$AA?$AA@ 00519b3c     LIBCMTD:lseek.obj
 0003:0001bb50       ??_C@_1DM@LMLOLGJ@?$AA?$CI?$AA?$CC?$AAI?$AAn?$AAv?$AAa?$AAl?$AAi?$AAd?$AA?5?$AAf?$AAi?$AAl?$AAe?$AA?5?$AAd?$AAe?$AAs?$AAc?$AAr?$AAi?$AAp?$AAt?$AAo?$AAr?$AA?$CC?$AA?0?$AA0?$AA?$CJ?$AA?$AA@ 00519b50     LIBCMTD:lseek.obj
 0003:0001bb98       ??_C@_1BC@JBGGJDCM@?$AA_?$AAs?$AAe?$AAt?$AAm?$AAo?$AAd?$AAe?$AA?$AA@ 00519b98     LIBCMTD:setmode.obj
 0003:0001bbb0       ??_C@_1BE@KNPEBONM@?$AAs?$AAe?$AAt?$AAm?$AAo?$AAd?$AAe?$AA?4?$AAc?$AA?$AA@ 00519bb0     LIBCMTD:setmode.obj
 0003:0001bbc8       ??_C@_1OA@HGPJIFPM@?$AA?$CI?$AA?$CI?$AAm?$AAo?$AAd?$AAe?$AA?5?$AA?$DN?$AA?$DN?$AA?5?$AA_?$AAO?$AA_?$AAT?$AAE?$AAX?$AAT?$AA?$CJ?$AA?5?$AA?$HM?$AA?$HM?$AA?5?$AA?$CI?$AAm?$AAo?$AAd?$AAe?$AA?5?$AA?$DN?$AA?$DN?$AA?5?$AA_@ 00519bc8     LIBCMTD:setmode.obj
 0003:0001bcd4       ??_C@_1BG@IEEHLOCL@?$AA_?$AAs?$AAe?$AAt?$AA_?$AAf?$AAm?$AAo?$AAd?$AAe?$AA?$AA@ 00519cd4     LIBCMTD:setmode.obj
 0003:0001bcf0       ??_C@_1IC@NDCJMLB@?$AA?$CI?$AA?$CI?$AAm?$AAo?$AAd?$AAe?$AA?5?$AA?$DN?$AA?$DN?$AA?5?$AA_?$AAO?$AA_?$AAT?$AAE?$AAX?$AAT?$AA?$CJ?$AA?5?$AA?$HM?$AA?$HM?$AA?5?$AA?$CI?$AAm?$AAo?$AAd?$AAe?$AA?5?$AA?$DN?$AA?$DN?$AA?5?$AA_@ 00519cf0     LIBCMTD:setmode.obj
 0003:0001bd8c       ??_C@_1BG@CKGMPOFH@?$AA_?$AAg?$AAe?$AAt?$AA_?$AAf?$AAm?$AAo?$AAd?$AAe?$AA?$AA@ 00519d8c     LIBCMTD:setmode.obj
 0003:0001bda8       ??_C@_1CA@GPIGPPFN@?$AA?$CI?$AAp?$AAM?$AAo?$AAd?$AAe?$AA?5?$AA?$CB?$AA?$DN?$AA?5?$AAN?$AAU?$AAL?$AAL?$AA?$CJ?$AA?$AA@ 00519da8     LIBCMTD:setmode.obj
 0003:0001bdd0       ??_C@_1BG@GLLONOEH@?$AA_?$AAs?$AAt?$AAr?$AAi?$AAc?$AAm?$AAp?$AA_?$AAl?$AA?$AA@ 00519dd0     LIBCMTD:stricmp.obj
 0003:0001bdec       ??_C@_1BE@OLHMELNO@?$AAs?$AAt?$AAr?$AAi?$AAc?$AAm?$AAp?$AA?4?$AAc?$AA?$AA@ 00519dec     LIBCMTD:stricmp.obj
 0003:0001be04       ??_C@_1BC@JLGKKIIG@?$AA_?$AAs?$AAt?$AAr?$AAi?$AAc?$AAm?$AAp?$AA?$AA@ 00519e04     LIBCMTD:stricmp.obj
 0003:0001be1c       ??_C@_1O@HJNPHHHB@?$AAf?$AAp?$AAu?$AAt?$AAw?$AAc?$AA?$AA@ 00519e1c     LIBCMTD:fputwc.obj
 0003:0001be2c       ??_C@_1BC@LJHBJFMP@?$AAf?$AAp?$AAu?$AAt?$AAw?$AAc?$AA?4?$AAc?$AA?$AA@ 00519e2c     LIBCMTD:fputwc.obj
 0003:0001be44       ??_C@_1BM@BENFBNLI@?$AA_?$AAm?$AAb?$AAs?$AAn?$AAb?$AAc?$AAa?$AAt?$AA_?$AAs?$AA_?$AAl?$AA?$AA@ 00519e44     LIBCMTD:mbsnbcat_s_l.obj
 0003:0001be68       ??_C@_1GK@LCCDCHEO@?$AAF?$AA?3?$AA?2?$AAS?$AAP?$AA?2?$AAv?$AAc?$AAt?$AAo?$AAo?$AAl?$AAs?$AA?2?$AAc?$AAr?$AAt?$AA_?$AAb?$AAl?$AAd?$AA?2?$AAS?$AAE?$AAL?$AAF?$AA_?$AAX?$AA8?$AA6?$AA?2?$AAc@ 00519e68     LIBCMTD:mbsnbcat_s_l.obj
 0003:0001bee8       ??_C@_1BM@HBMHMBEM@?$AA_?$AAm?$AAb?$AAs?$AAn?$AAb?$AAc?$AAp?$AAy?$AA_?$AAs?$AA_?$AAl?$AA?$AA@ 00519ee8     LIBCMTD:mbsnbcpy_s_l.obj
 0003:0001bf10       ??_C@_1GK@HKJIIPOO@?$AAF?$AA?3?$AA?2?$AAS?$AAP?$AA?2?$AAv?$AAc?$AAt?$AAo?$AAo?$AAl?$AAs?$AA?2?$AAc?$AAr?$AAt?$AA_?$AAb?$AAl?$AAd?$AA?2?$AAS?$AAE?$AAL?$AAF?$AA_?$AAX?$AA8?$AA6?$AA?2?$AAc@ 00519f10     LIBCMTD:mbsnbcpy_s_l.obj
 0003:0001bf90       ??_C@_1CA@OEHMHBJF@?$AAv?$AAf?$AAp?$AAr?$AAi?$AAn?$AAt?$AAf?$AA_?$AAh?$AAe?$AAl?$AAp?$AAe?$AAr?$AA?$AA@ 00519f90     LIBCMTD:vfprintf.obj
 0003:0001bfb8       ??_C@_1BG@OKHDPPCK@?$AAv?$AAf?$AAp?$AAr?$AAi?$AAn?$AAt?$AAf?$AA?4?$AAc?$AA?$AA@ 00519fb8     LIBCMTD:vfprintf.obj
 0003:0001bfd4       ??_C@_1BA@PCFLFGNC@?$AAw?$AAc?$AAs?$AAt?$AAo?$AAx?$AAl?$AA?$AA@ 00519fd4     LIBCMTD:wcstol.obj
 0003:0001bfe8       ??_C@_1BC@KCPEGNFM@?$AAw?$AAc?$AAs?$AAt?$AAo?$AAl?$AA?4?$AAc?$AA?$AA@ 00519fe8     LIBCMTD:wcstol.obj
 0003:0001c000       ??_C@_06GDENEHCP@CONIN$?$AA@ 0051a000     LIBCMTD:initcon.obj
 0003:0001c008       ??_C@_07GPDNMNG@CONOUT$?$AA@ 0051a008     LIBCMTD:initcon.obj
 0003:0001c014       ___dnames                  0051a014     LIBCMTD:timeset.obj
 0003:0001c02c       ___mnames                  0051a02c     LIBCMTD:timeset.obj
 0003:0001c060       ??_C@_1BM@FIMHBHEB@?$AA_?$AAg?$AAe?$AAt?$AA_?$AAd?$AAa?$AAy?$AAl?$AAi?$AAg?$AAh?$AAt?$AA?$AA@ 0051a060     LIBCMTD:timeset.obj
 0003:0001c084       ??_C@_1BE@OINBFMF@?$AAt?$AAi?$AAm?$AAe?$AAs?$AAe?$AAt?$AA?4?$AAc?$AA?$AA@ 0051a084     LIBCMTD:timeset.obj
 0003:0001c09c       ??_C@_1CI@MKJEHFPG@?$AA?$CI?$AA_?$AAD?$AAa?$AAy?$AAl?$AAi?$AAg?$AAh?$AAt?$AA?5?$AA?$CB?$AA?$DN?$AA?5?$AAN?$AAU?$AAL?$AAL?$AA?$CJ?$AA?$AA@ 0051a09c     LIBCMTD:timeset.obj
 0003:0001c0cc       ??_C@_1BK@EMODDHEE@?$AA_?$AAg?$AAe?$AAt?$AA_?$AAd?$AAs?$AAt?$AAb?$AAi?$AAa?$AAs?$AA?$AA@ 0051a0cc     LIBCMTD:timeset.obj
 0003:0001c0f0       ??_C@_1EC@PKDJPAAB@?$AA?$CI?$AA_?$AAD?$AAa?$AAy?$AAl?$AAi?$AAg?$AAh?$AAt?$AA_?$AAs?$AAa?$AAv?$AAi?$AAn?$AAg?$AAs?$AA_?$AAb?$AAi?$AAa?$AAs?$AA?5?$AA?$CB?$AA?$DN?$AA?5?$AAN?$AAU?$AAL?$AAL?$AA?$CJ@ 0051a0f0     LIBCMTD:timeset.obj
 0003:0001c140       ??_C@_1BM@MGEAKPEJ@?$AA_?$AAg?$AAe?$AAt?$AA_?$AAt?$AAi?$AAm?$AAe?$AAz?$AAo?$AAn?$AAe?$AA?$AA@ 0051a140     LIBCMTD:timeset.obj
 0003:0001c164       ??_C@_1CI@PODJJGAL@?$AA?$CI?$AA_?$AAT?$AAi?$AAm?$AAe?$AAz?$AAo?$AAn?$AAe?$AA?5?$AA?$CB?$AA?$DN?$AA?5?$AAN?$AAU?$AAL?$AAL?$AA?$CJ?$AA?$AA@ 0051a164     LIBCMTD:timeset.obj
 0003:0001c194       ??_C@_1DG@HLGKANIP@?$AA_?$AAI?$AAn?$AAd?$AAe?$AAx?$AA?5?$AA?$DN?$AA?$DN?$AA?5?$AA0?$AA?5?$AA?$HM?$AA?$HM?$AA?5?$AA_?$AAI?$AAn?$AAd?$AAe?$AAx?$AA?5?$AA?$DN?$AA?$DN?$AA?5?$AA1?$AA?$AA@ 0051a194     LIBCMTD:timeset.obj
 0003:0001c1d4       ??_C@_1CK@GBKHKEI@?$AA_?$AAR?$AAe?$AAt?$AAu?$AAr?$AAn?$AAV?$AAa?$AAl?$AAu?$AAe?$AA?5?$AA?$CB?$AA?$DN?$AA?5?$AAN?$AAU?$AAL?$AAL?$AA?$AA@ 0051a1d4     LIBCMTD:timeset.obj
 0003:0001c208       ??_C@_1BI@BHCKCCFA@?$AA_?$AAg?$AAe?$AAt?$AA_?$AAt?$AAz?$AAn?$AAa?$AAm?$AAe?$AA?$AA@ 0051a208     LIBCMTD:timeset.obj
 0003:0001c228       ??_C@_1KA@POFLNEC@?$AA?$CI?$AA_?$AAB?$AAu?$AAf?$AAf?$AAe?$AAr?$AA?5?$AA?$CB?$AA?$DN?$AA?5?$AAN?$AAU?$AAL?$AAL?$AA?5?$AA?$CG?$AA?$CG?$AA?5?$AA_?$AAS?$AAi?$AAz?$AAe?$AAI?$AAn?$AAB?$AAy?$AAt?$AAe?$AAs@ 0051a228     LIBCMTD:timeset.obj
 0003:0001c2e8       ??_C@_1EA@GEPBEDLJ@?$AAs?$AAt?$AAr?$AAn?$AAc?$AAp?$AAy?$AA_?$AAs?$AA?$CI?$AAt?$AAz?$AAn?$AAa?$AAm?$AAe?$AA?$FL?$AA1?$AA?$FN?$AA?0?$AA?5?$AA6?$AA4?$AA?0?$AA?5?$AAT?$AAZ?$AA?0?$AA?5?$AA3?$AA?$CJ?$AA?$AA@ 0051a2e8     LIBCMTD:tzset.obj
 0003:0001c338       ??_C@_1EA@FIJBKALB@?$AAs?$AAt?$AAr?$AAn?$AAc?$AAp?$AAy?$AA_?$AAs?$AA?$CI?$AAt?$AAz?$AAn?$AAa?$AAm?$AAe?$AA?$FL?$AA0?$AA?$FN?$AA?0?$AA?5?$AA6?$AA4?$AA?0?$AA?5?$AAT?$AAZ?$AA?0?$AA?5?$AA3?$AA?$CJ?$AA?$AA@ 0051a338     LIBCMTD:tzset.obj
 0003:0001c388       ??_C@_1EK@MCAIMDPB@?$AAs?$AAt?$AAr?$AAc?$AAp?$AAy?$AA_?$AAs?$AA?$CI?$AAl?$AAa?$AAs?$AAt?$AAT?$AAZ?$AA?0?$AA?5?$AAs?$AAt?$AAr?$AAl?$AAe?$AAn?$AA?$CI?$AAT?$AAZ?$AA?$CJ?$AA?5?$AA?$CL?$AA?5?$AA1?$AA?0@ 0051a388     LIBCMTD:tzset.obj
 0003:0001c3e0       ??_C@_07LOOFNDIO@tzset?4c?$AA@ 0051a3e0     LIBCMTD:tzset.obj
 0003:0001c3ec       ??_C@_02CLFPBFFP@TZ?$AA@   0051a3ec     LIBCMTD:tzset.obj
 0003:0001c3f0       ??_C@_1CO@IMMOMMCB@?$AA_?$AAg?$AAe?$AAt?$AA_?$AAd?$AAs?$AAt?$AAb?$AAi?$AAa?$AAs?$AA?$CI?$AA?$CG?$AAd?$AAs?$AAt?$AAb?$AAi?$AAa?$AAs?$AA?$CJ?$AA?$AA@ 0051a3f0     LIBCMTD:tzset.obj
 0003:0001c428       ??_C@_1DC@MEHEMOPB@?$AA_?$AAg?$AAe?$AAt?$AA_?$AAd?$AAa?$AAy?$AAl?$AAi?$AAg?$AAh?$AAt?$AA?$CI?$AA?$CG?$AAd?$AAa?$AAy?$AAl?$AAi?$AAg?$AAh?$AAt?$AA?$CJ?$AA?$AA@ 0051a428     LIBCMTD:tzset.obj
 0003:0001c464       ??_C@_1DC@CMKCHHFC@?$AA_?$AAg?$AAe?$AAt?$AA_?$AAt?$AAi?$AAm?$AAe?$AAz?$AAo?$AAn?$AAe?$AA?$CI?$AA?$CG?$AAt?$AAi?$AAm?$AAe?$AAz?$AAo?$AAn?$AAe?$AA?$CJ?$AA?$AA@ 0051a464     LIBCMTD:tzset.obj
 0003:0001c4a0       ??_C@_1BM@IIODHMJC@?$AA_?$AAt?$AAz?$AAs?$AAe?$AAt?$AA_?$AAn?$AAo?$AAl?$AAo?$AAc?$AAk?$AA?$AA@ 0051a4a0     LIBCMTD:tzset.obj
 0003:0001c4c4       ??_C@_1BA@HIHOBNBL@?$AAt?$AAz?$AAs?$AAe?$AAt?$AA?4?$AAc?$AA?$AA@ 0051a4c4     LIBCMTD:tzset.obj
 0003:0001c4d8       ??_C@_1CA@GOLIIEDM@?$AA_?$AAi?$AAs?$AAi?$AAn?$AAd?$AAs?$AAt?$AA_?$AAn?$AAo?$AAl?$AAo?$AAc?$AAk?$AA?$AA@ 0051a4d8     LIBCMTD:tzset.obj
 0003:0001c500       ??_C@_1BA@GOCKIDGO@?$AAc?$AAv?$AAt?$AAd?$AAa?$AAt?$AAe?$AA?$AA@ 0051a500     LIBCMTD:tzset.obj
 0003:0001c514       ??_C@_0M@EKFFODEC@MSPDB80?4DLL?$AA@ 0051a514     LIBCMTD:pdblkup.obj
 0003:0001c524       ??_C@_01KDCPPGHE@r?$AA@    0051a524     LIBCMTD:pdblkup.obj
 0003:0001c528       ??_C@_0BB@KCIACLNC@PDBOpenValidate5?$AA@ 0051a528     LIBCMTD:pdblkup.obj
 0003:0001c53c       ??_C@_0BF@BMIHBHCA@EnvironmentDirectory?$AA@ 0051a53c     LIBCMTD:pdblkup.obj
 0003:0001c558       ??_C@_0CN@EAEOKKOC@SOFTWARE?2Microsoft?2VisualStudio?2@ 0051a558     LIBCMTD:pdblkup.obj
 0003:0001c590       ??_C@_0M@HLOHPNFA@RegCloseKey?$AA@ 0051a590     LIBCMTD:pdblkup.obj
 0003:0001c5a0       ??_C@_0BB@HHEIPGME@RegQueryValueExA?$AA@ 0051a5a0     LIBCMTD:pdblkup.obj
 0003:0001c5b4       ??_C@_0O@DCOGKJGG@RegOpenKeyExA?$AA@ 0051a5b4     LIBCMTD:pdblkup.obj
 0003:0001c5c4       ??_C@_0BP@OGBCLIBO@Stack?5around?5_alloca?5corrupted?$AA@ 0051a5c4     LIBCMTD:userapi.obj
 0003:0001c5ec       ??_C@_0CK@CNLNOEPB@Local?5variable?5used?5before?5initi@ 0051a5ec     LIBCMTD:userapi.obj
 0003:0001c620       ??_C@_0BI@CIGMDCBH@Stack?5memory?5corruption?$AA@ 0051a620     LIBCMTD:userapi.obj
 0003:0001c63c       ??_C@_0CK@FEGOIOPB@Cast?5to?5smaller?5type?5causing?5los@ 0051a63c     LIBCMTD:userapi.obj
 0003:0001c670       ??_C@_0BJ@HEGAHDFO@Stack?5pointer?5corruption?$AA@ 0051a670     LIBCMTD:userapi.obj
 0003:0001c6d4       ??_7type_info@@6B@         0051a6d4     LIBCMTD:typinfo.obj
 0003:0001c6e0       ??_7exception@std@@6B@     0051a6e0     LIBCMTD:stdexcpt.obj
 0003:0001c6ec       ??_C@_0BC@EOODALEL@Unknown?5exception?$AA@ 0051a6ec     LIBCMTD:stdexcpt.obj
 0003:0001c708       ??_7bad_cast@std@@6B@      0051a708     LIBCMTD:stdexcpt.obj
 0003:0001c718       ??_7bad_typeid@std@@6B@    0051a718     LIBCMTD:stdexcpt.obj
 0003:0001c728       ??_7__non_rtti_object@std@@6B@ 0051a728     LIBCMTD:stdexcpt.obj
 0003:0001c734       ??_C@_1BG@NDCBABF@?$AAd?$AAb?$AAg?$AAd?$AAe?$AAl?$AA?4?$AAc?$AAp?$AAp?$AA?$AA@ 0051a734     LIBCMTD:dbgdel.obj
 0003:0001c750       ??_C@_1GC@BGLCIHJN@?$AAf?$AA?3?$AA?2?$AAs?$AAp?$AA?2?$AAv?$AAc?$AAt?$AAo?$AAo?$AAl?$AAs?$AA?2?$AAc?$AAr?$AAt?$AA_?$AAb?$AAl?$AAd?$AA?2?$AAs?$AAe?$AAl?$AAf?$AA_?$AAx?$AA8?$AA6?$AA?2?$AAc@ 0051a750     LIBCMTD:_flswbuf.obj
 0003:0001c7c8       ??_C@_1BE@IAKAIGJB@?$AAs?$AAt?$AAr?$AAn?$AAc?$AAa?$AAt?$AA_?$AAs?$AA?$AA@ 0051a7c8     LIBCMTD:strncat_s.obj
 0003:0001c7e0       ??_C@_1FA@HILOOCMA@?$AA?$CI?$AA_?$AAt?$AAc?$AAs?$AAn?$AAl?$AAe?$AAn?$AA?$CI?$AAo?$AAp?$AAt?$AAi?$AAo?$AAn?$AA?0?$AA?5?$AA_?$AAM?$AAA?$AAX?$AA_?$AAE?$AAN?$AAV?$AA?$CJ?$AA?5?$AA?$DM?$AA?5?$AA_?$AAM@ 0051a7e0     LIBCMTD:getenv.obj
 0003:0001c840       ??_C@_1O@GMKGKCJO@?$AAg?$AAe?$AAt?$AAe?$AAn?$AAv?$AA?$AA@ 0051a840     LIBCMTD:getenv.obj
 0003:0001c850       ??_C@_1BC@CPAPBFCO@?$AAg?$AAe?$AAt?$AAe?$AAn?$AAv?$AA?4?$AAc?$AA?$AA@ 0051a850     LIBCMTD:getenv.obj
 0003:0001c868       ??_C@_1CC@FKAOHHLO@?$AA?$CI?$AAo?$AAp?$AAt?$AAi?$AAo?$AAn?$AA?5?$AA?$CB?$AA?$DN?$AA?5?$AAN?$AAU?$AAL?$AAL?$AA?$CJ?$AA?$AA@ 0051a868     LIBCMTD:getenv.obj
 0003:0001c890       ??_C@_1GI@JBIFPFJH@?$AA_?$AAt?$AAc?$AAs?$AAn?$AAl?$AAe?$AAn?$AA?$CI?$AA?$CK?$AAs?$AAe?$AAa?$AAr?$AAc?$AAh?$AA?5?$AA?$CL?$AA?5?$AAl?$AAe?$AAn?$AAg?$AAt?$AAh?$AA?5?$AA?$CL?$AA?5?$AA1?$AA?0?$AA?5?$AA_@ 0051a890     LIBCMTD:getenv.obj
 0003:0001c910       ??_C@_1EI@HHOBPCFK@?$AAs?$AAt?$AAr?$AAc?$AAp?$AAy?$AA_?$AAs?$AA?$CI?$AAb?$AAu?$AAf?$AAf?$AAe?$AAr?$AA?0?$AA?5?$AAs?$AAi?$AAz?$AAe?$AAI?$AAn?$AAT?$AAC?$AAh?$AAa?$AAr?$AAs?$AA?0?$AA?5?$AAs@ 0051a910     LIBCMTD:getenv.obj
 0003:0001c968       ??_C@_1JM@NLPGJJPH@?$AA?$CI?$AAb?$AAu?$AAf?$AAf?$AAe?$AAr?$AA?5?$AA?$CB?$AA?$DN?$AA?5?$AAN?$AAU?$AAL?$AAL?$AA?5?$AA?$CG?$AA?$CG?$AA?5?$AAs?$AAi?$AAz?$AAe?$AAI?$AAn?$AAT?$AAC?$AAh?$AAa?$AAr?$AAs?$AA?5@ 0051a968     LIBCMTD:getenv.obj
 0003:0001ca24       ??_C@_1CC@BAJKDIIF@?$AA_?$AAg?$AAe?$AAt?$AAe?$AAn?$AAv?$AA_?$AAs?$AA_?$AAh?$AAe?$AAl?$AAp?$AAe?$AAr?$AA?$AA@ 0051aa24     LIBCMTD:getenv.obj
 0003:0001ca4c       ??_C@_1CK@PIKDAOCL@?$AAp?$AAR?$AAe?$AAt?$AAu?$AAr?$AAn?$AAV?$AAa?$AAl?$AAu?$AAe?$AA?5?$AA?$CB?$AA?$DN?$AA?5?$AAN?$AAU?$AAL?$AAL?$AA?$AA@ 0051aa4c     LIBCMTD:getenv.obj
 0003:0001ca80       ??_C@_1DM@GNKNEGJO@?$AAs?$AAt?$AAr?$AAc?$AAp?$AAy?$AA_?$AAs?$AA?$CI?$AA?$CK?$AAp?$AAB?$AAu?$AAf?$AAf?$AAe?$AAr?$AA?0?$AA?5?$AAs?$AAi?$AAz?$AAe?$AA?0?$AA?5?$AAs?$AAt?$AAr?$AA?$CJ?$AA?$AA@ 0051aa80     LIBCMTD:getenv.obj
 0003:0001cac8       ??_C@_1CA@GDBKELOE@?$AAv?$AAa?$AAr?$AAn?$AAa?$AAm?$AAe?$AA?5?$AA?$CB?$AA?$DN?$AA?5?$AAN?$AAU?$AAL?$AAL?$AA?$AA@ 0051aac8     LIBCMTD:getenv.obj
 0003:0001caf0       ??_C@_1CC@KPLOPIEM@?$AA_?$AAd?$AAu?$AAp?$AAe?$AAn?$AAv?$AA_?$AAs?$AA_?$AAh?$AAe?$AAl?$AAp?$AAe?$AAr?$AA?$AA@ 0051aaf0     LIBCMTD:getenv.obj
 0003:0001cb18       ??_C@_1CA@FHNFMDOJ@?$AAp?$AAB?$AAu?$AAf?$AAf?$AAe?$AAr?$AA?5?$AA?$CB?$AA?$DN?$AA?5?$AAN?$AAU?$AAL?$AAL?$AA?$AA@ 0051ab18     LIBCMTD:getenv.obj
 0003:0001cb40       ??_C@_1BI@JFCCCJAM@?$AAt?$AAy?$AAp?$AAn?$AAa?$AAm?$AAe?$AA?4?$AAc?$AAp?$AAp?$AA?$AA@ 0051ab40     LIBCMTD:typname.obj
 0003:0001cb5c       ??_C@_1CI@IDCGDBOP@?$AAp?$AAN?$AAo?$AAd?$AAe?$AA?9?$AA?$DO?$AAn?$AAe?$AAx?$AAt?$AA?5?$AA?$CB?$AA?$DN?$AA?5?$AAN?$AAU?$AAL?$AAL?$AA?$AA@ 0051ab5c     LIBCMTD:typname.obj
 0003:0001cb90       ??_C@_1JK@MLBKHELP@?$AAs?$AAt?$AAr?$AAc?$AAp?$AAy?$AA_?$AAs?$AA?5?$AA?$CI?$AA?$CI?$AAc?$AAh?$AAa?$AAr?$AA?5?$AA?$CK?$AA?$CJ?$AA?$CI?$AA?$CI?$AAt?$AAy?$AAp?$AAe?$AA_?$AAi?$AAn?$AAf?$AAo?$AA?5?$AA?$CK?$AA?$CJ@ 0051ab90     LIBCMTD:typname.obj
 0003:0001cc48       ??_C@_1CM@OOICDMK@?$AAt?$AAy?$AAp?$AAe?$AA_?$AAi?$AAn?$AAf?$AAo?$AA?3?$AA?3?$AA_?$AAN?$AAa?$AAm?$AAe?$AA_?$AAb?$AAa?$AAs?$AAe?$AA?$AA@ 0051ac48     LIBCMTD:typname.obj
 0003:0001cc7c       ??_C@_1DO@OJJLFJPE@?$AAt?$AAy?$AAp?$AAe?$AA_?$AAi?$AAn?$AAf?$AAo?$AA?3?$AA?3?$AA_?$AAN?$AAa?$AAm?$AAe?$AA_?$AAb?$AAa?$AAs?$AAe?$AA_?$AAi?$AAn?$AAt?$AAe?$AAr?$AAn?$AAa?$AAl?$AA?$AA@ 0051ac7c     LIBCMTD:typname.obj
 0003:0001ccc8       ??_C@_1BM@FKNNDAHH@?$AA_?$AAm?$AAb?$AAs?$AAn?$AAb?$AAi?$AAc?$AAo?$AAl?$AAl?$AA_?$AAl?$AA?$AA@ 0051acc8     LIBCMTD:mbsnbico.obj
 0003:0001ccec       ??_C@_1BG@MHEMLGJO@?$AAm?$AAb?$AAs?$AAn?$AAb?$AAi?$AAc?$AAo?$AA?4?$AAc?$AA?$AA@ 0051acec     LIBCMTD:mbsnbico.obj
 0003:0001cd08       ??_C@_0L@CELCHBFJ@wtombenv?4c?$AA@ 0051ad08     LIBCMTD:wtombenv.obj
 0003:0001cd18       ??_C@_0BK@CFCOFLF@?5Complete?5Object?5Locator?8?$AA@ 0051ad18     LIBCMTD:undname.obj
 0003:0001cd38       ??_C@_0BN@MECKDCOJ@?5Class?5Hierarchy?5Descriptor?8?$AA@ 0051ad38     LIBCMTD:undname.obj
 0003:0001cd5c       ??_C@_0BD@LGICGFMM@?5Base?5Class?5Array?8?$AA@ 0051ad5c     LIBCMTD:undname.obj
 0003:0001cd74       ??_C@_0BM@LDKODKLH@?5Base?5Class?5Descriptor?5at?5?$CI?$AA@ 0051ad74     LIBCMTD:undname.obj
 0003:0001cd98       ??_C@_0BC@DAFEJGAK@?5Type?5Descriptor?8?$AA@ 0051ad98     LIBCMTD:undname.obj
 0003:0001cdb0       ??_C@_0BM@PMGGMLDN@?$GAlocal?5static?5thread?5guard?8?$AA@ 0051adb0     LIBCMTD:undname.obj
 0003:0001cdd4       ??_C@_0CL@FGIJHLCE@?$GAmanaged?5vector?5copy?5constructor@ 0051add4     LIBCMTD:undname.obj
 0003:0001ce08       ??_C@_0CJ@GJELGAMM@?$GAvector?5vbase?5copy?5constructor?5i@ 0051ae08     LIBCMTD:undname.obj
 0003:0001ce3c       ??_C@_0CD@CGAJBKEJ@?$GAvector?5copy?5constructor?5iterato@ 0051ae3c     LIBCMTD:undname.obj
 0003:0001ce68       ??_C@_0CB@PDBIFEP@?$GAdynamic?5atexit?5destructor?5for?5?8@ 0051ae68     LIBCMTD:undname.obj
 0003:0001ce90       ??_C@_0BL@CLIPGLGB@?$GAdynamic?5initializer?5for?5?8?$AA@ 0051ae90     LIBCMTD:undname.obj
 0003:0001ceb0       ??_C@_0CM@FCBBDIGB@?$GAeh?5vector?5vbase?5copy?5constructo@ 0051aeb0     LIBCMTD:undname.obj
 0003:0001cee4       ??_C@_0CG@HLDDJMAG@?$GAeh?5vector?5copy?5constructor?5iter@ 0051aee4     LIBCMTD:undname.obj
 0003:0001cf14       ??_C@_0CF@IMGKMJNO@?$GAmanaged?5vector?5destructor?5itera@ 0051af14     LIBCMTD:undname.obj
 0003:0001cf40       ??_C@_0CG@CFDHKGGD@?$GAmanaged?5vector?5constructor?5iter@ 0051af40     LIBCMTD:undname.obj
 0003:0001cf70       ??_C@_0BN@CKNJLHMB@?$GAplacement?5delete?$FL?$FN?5closure?8?$AA@ 0051af70     LIBCMTD:undname.obj
 0003:0001cf94       ??_C@_0BL@CNOONJFP@?$GAplacement?5delete?5closure?8?$AA@ 0051af94     LIBCMTD:undname.obj
 0003:0001cfb4       ??_C@_0P@HJKNJFNN@?$GAomni?5callsig?8?$AA@ 0051afb4     LIBCMTD:undname.obj
 0003:0001cfc8       ??_C@_09LBNFPBCA@?5delete?$FL?$FN?$AA@ 0051afc8     LIBCMTD:undname.obj
 0003:0001cfd4       ??_C@_06FHBGPFGH@?5new?$FL?$FN?$AA@ 0051afd4     LIBCMTD:undname.obj
 0003:0001cfdc       ??_C@_0CE@IIHCMGGL@?$GAlocal?5vftable?5constructor?5closu@ 0051afdc     LIBCMTD:undname.obj
 0003:0001d008       ??_C@_0BA@KKLDJDLB@?$GAlocal?5vftable?8?$AA@ 0051b008     LIBCMTD:undname.obj
 0003:0001d01c       ??_C@_05KHLCHHI@?$GARTTI?$AA@ 0051b01c     LIBCMTD:undname.obj
 0003:0001d024       ??_C@_03KLGMFNMG@?$GAEH?$AA@ 0051b024     LIBCMTD:undname.obj
 0003:0001d028       ??_C@_0BA@KBCDOMBN@?$GAudt?5returning?8?$AA@ 0051b028     LIBCMTD:undname.obj
 0003:0001d03c       ??_C@_0BL@LLKPOHJI@?$GAcopy?5constructor?5closure?8?$AA@ 0051b03c     LIBCMTD:undname.obj
 0003:0001d05c       ??_C@_0CH@OOJPLCPH@?$GAeh?5vector?5vbase?5constructor?5ite@ 0051b05c     LIBCMTD:undname.obj
 0003:0001d08c       ??_C@_0CA@GCEOPDGL@?$GAeh?5vector?5destructor?5iterator?8?$AA@ 0051b08c     LIBCMTD:undname.obj
 0003:0001d0b4       ??_C@_0CB@JONCMFFK@?$GAeh?5vector?5constructor?5iterator?8@ 0051b0b4     LIBCMTD:undname.obj
 0003:0001d0dc       ??_C@_0BL@NILFHHPC@?$GAvirtual?5displacement?5map?8?$AA@ 0051b0dc     LIBCMTD:undname.obj
 0003:0001d0fc       ??_C@_0CE@IKBNEHA@?$GAvector?5vbase?5constructor?5iterat@ 0051b0fc     LIBCMTD:undname.obj
 0003:0001d128       ??_C@_0BN@LFPFMEDL@?$GAvector?5destructor?5iterator?8?$AA@ 0051b128     LIBCMTD:undname.obj
 0003:0001d14c       ??_C@_0BO@PFGOCPJJ@?$GAvector?5constructor?5iterator?8?$AA@ 0051b14c     LIBCMTD:undname.obj
 0003:0001d170       ??_C@_0BN@IMDCHIKM@?$GAscalar?5deleting?5destructor?8?$AA@ 0051b170     LIBCMTD:undname.obj
 0003:0001d194       ??_C@_0BO@OBMKPJIG@?$GAdefault?5constructor?5closure?8?$AA@ 0051b194     LIBCMTD:undname.obj
 0003:0001d1b8       ??_C@_0BN@DEGPLNFK@?$GAvector?5deleting?5destructor?8?$AA@ 0051b1b8     LIBCMTD:undname.obj
 0003:0001d1dc       ??_C@_0BD@JDLKDPAB@?$GAvbase?5destructor?8?$AA@ 0051b1dc     LIBCMTD:undname.obj
 0003:0001d1f4       ??_C@_08OBABFOLI@?$GAstring?8?$AA@ 0051b1f4     LIBCMTD:undname.obj
 0003:0001d200       ??_C@_0BF@KDPPACIK@?$GAlocal?5static?5guard?8?$AA@ 0051b200     LIBCMTD:undname.obj
 0003:0001d21c       ??_C@_08LLFFHHDJ@?$GAtypeof?8?$AA@ 0051b21c     LIBCMTD:undname.obj
 0003:0001d228       ??_C@_07FEEIOKP@?$GAvcall?8?$AA@ 0051b228     LIBCMTD:undname.obj
 0003:0001d234       ??_C@_09BLBHBJP@?$GAvbtable?8?$AA@ 0051b234     LIBCMTD:undname.obj
 0003:0001d240       ??_C@_09IFPLHPGF@?$GAvftable?8?$AA@ 0051b240     LIBCMTD:undname.obj
 0003:0001d24c       ??_C@_02MHEGNOJ@?$FO?$DN?$AA@ 0051b24c     LIBCMTD:undname.obj
 0003:0001d250       ??_C@_02DHLNPPGH@?$HM?$DN?$AA@ 0051b250     LIBCMTD:undname.obj
 0003:0001d254       ??_C@_02FGJGFEAB@?$CG?$DN?$AA@ 0051b254     LIBCMTD:undname.obj
 0003:0001d258       ??_C@_03CDNPDDLA@?$DM?$DM?$DN?$AA@ 0051b258     LIBCMTD:undname.obj
 0003:0001d25c       ??_C@_03IKFCCPFF@?$DO?$DO?$DN?$AA@ 0051b25c     LIBCMTD:undname.obj
 0003:0001d260       ??_C@_02FENAOKFI@?$CF?$DN?$AA@ 0051b260     LIBCMTD:undname.obj
 0003:0001d264       ??_C@_02FJEHGPIO@?1?$DN?$AA@ 0051b264     LIBCMTD:undname.obj
 0003:0001d268       ??_C@_02FKMDLLOA@?9?$DN?$AA@ 0051b268     LIBCMTD:undname.obj
 0003:0001d26c       ??_C@_02FOEOMHFC@?$CL?$DN?$AA@ 0051b26c     LIBCMTD:undname.obj
 0003:0001d270       ??_C@_02FPIMKNGF@?$CK?$DN?$AA@ 0051b270     LIBCMTD:undname.obj
 0003:0001d274       ??_C@_02NONPIBCD@?$HM?$HM?$AA@ 0051b274     LIBCMTD:undname.obj
 0003:0001d278       ??_C@_02PPKAJPJL@?$CG?$CG?$AA@ 0051b278     LIBCMTD:undname.obj
 0003:0001d27c       ??_C@_01DNKMNLPK@?$HM?$AA@ 0051b27c     LIBCMTD:undname.obj
 0003:0001d280       ??_C@_01JKBOJNNK@?$FO?$AA@ 0051b280     LIBCMTD:undname.obj
 0003:0001d284       ??_C@_01PJKLJHI@?$HO?$AA@  0051b284     LIBCMTD:undname.obj
 0003:0001d288       ??_C@_02HCKGKOFO@?$CI?$CJ?$AA@ 0051b288     LIBCMTD:undname.obj
 0003:0001d28c       ??_C@_01IHBHIGKO@?0?$AA@   0051b28c     LIBCMTD:undname.obj
 0003:0001d290       ??_C@_02EEKDKGMJ@?$DO?$DN?$AA@ 0051b290     LIBCMTD:undname.obj
 0003:0001d294       ??_C@_01PPODPGHN@?$DO?$AA@ 0051b294     LIBCMTD:undname.obj
 0003:0001d298       ??_C@_02EHCHHCKH@?$DM?$DN?$AA@ 0051b298     LIBCMTD:undname.obj
 0003:0001d29c       ??_C@_01MNNFJEPP@?$DM?$AA@ 0051b29c     LIBCMTD:undname.obj
 0003:0001d2a0       ??_C@_01FGNFDNOH@?$CF?$AA@ 0051b2a0     LIBCMTD:undname.obj
 0003:0001d2a4       ??_C@_01KMDKNFGN@?1?$AA@   0051b2a4     LIBCMTD:undname.obj
 0003:0001d2a8       ??_C@_03MNHNFDLC@?9?$DO?$CK?$AA@ 0051b2a8     LIBCMTD:undname.obj
 0003:0001d2ac       ??_C@_01HNPIGOCE@?$CG?$AA@ 0051b2ac     LIBCMTD:undname.obj
 0003:0001d2b0       ??_C@_01MIFGBAGJ@?$CL?$AA@ 0051b2b0     LIBCMTD:undname.obj
 0003:0001d2b4       ??_C@_02ECNGHCIF@?$CL?$CL?$AA@ 0051b2b4     LIBCMTD:undname.obj
 0003:0001d2b8       ??_C@_01NBENCBCI@?$CK?$AA@ 0051b2b8     LIBCMTD:undname.obj
 0003:0001d2bc       ??_C@_02HBOOOICD@?9?$DO?$AA@ 0051b2bc     LIBCMTD:undname.obj
 0003:0001d2c0       ??_C@_08LHJFAFGD@operator?$AA@ 0051b2c0     LIBCMTD:undname.obj
 0003:0001d2cc       ??_C@_02GPECMEKF@?$FL?$FN?$AA@ 0051b2cc     LIBCMTD:undname.obj
 0003:0001d2d0       ??_C@_02FDNJECIE@?$CB?$DN?$AA@ 0051b2d0     LIBCMTD:undname.obj
 0003:0001d2d4       ??_C@_02EGOFBIJA@?$DN?$DN?$AA@ 0051b2d4     LIBCMTD:undname.obj
 0003:0001d2d8       ??_C@_01DCLJPIOD@?$CB?$AA@ 0051b2d8     LIBCMTD:undname.obj
 0003:0001d2dc       ??_C@_02FODMEDOG@?$DM?$DM?$AA@ 0051b2dc     LIBCMTD:undname.obj
 0003:0001d2e0       ??_C@_02GPIOPFAK@?$DO?$DO?$AA@ 0051b2e0     LIBCMTD:undname.obj
 0003:0001d2e4       ??_C@_07FPCDHGMM@?5delete?$AA@ 0051b2e4     LIBCMTD:undname.obj
 0003:0001d2f0       ??_C@_04NIHEBCM@?5new?$AA@ 0051b2f0     LIBCMTD:undname.obj
 0003:0001d2f8       ??_C@_0M@GFIIJFMG@__unaligned?$AA@ 0051b2f8     LIBCMTD:undname.obj
 0003:0001d308       ??_C@_0L@PILCLIHE@__restrict?$AA@ 0051b308     LIBCMTD:undname.obj
 0003:0001d318       ??_C@_07JOMMBBKO@__ptr64?$AA@ 0051b318     LIBCMTD:undname.obj
 0003:0001d324       ??_C@_09HIJEGCPM@__clrcall?$AA@ 0051b324     LIBCMTD:undname.obj
 0003:0001d330       ??_C@_0L@JMKHOMEK@__fastcall?$AA@ 0051b330     LIBCMTD:undname.obj
 0003:0001d340       ??_C@_0L@NPHFGOKO@__thiscall?$AA@ 0051b340     LIBCMTD:undname.obj
 0003:0001d350       ??_C@_09IFJBGAPI@__stdcall?$AA@ 0051b350     LIBCMTD:undname.obj
 0003:0001d35c       ??_C@_08GHMPAG@__pascal?$AA@ 0051b35c     LIBCMTD:undname.obj
 0003:0001d368       ??_C@_07KOLFKCDI@__cdecl?$AA@ 0051b368     LIBCMTD:undname.obj
 0003:0001d374       ??_C@_08EHJDFFNH@__based?$CI?$AA@ 0051b374     LIBCMTD:undname.obj
 0003:0001d54c       ??_C@_04HEJADOOB@CV?3?5?$AA@ 0051b54c     LIBCMTD:undname.obj
 0003:0001d554       ??_C@_02MOLJINC@?3?3?$AA@  0051b554     LIBCMTD:undname.obj
 0003:0001d558       ??_C@_01GEODFPGF@?8?$AA@   0051b558     LIBCMTD:undname.obj
 0003:0001d55c       ??_C@_01NLNLIGKH@?$GA?$AA@ 0051b55c     LIBCMTD:undname.obj
 0003:0001d560       ??_C@_0O@KHGCOMHP@generic?9type?9?$AA@ 0051b560     LIBCMTD:undname.obj
 0003:0001d570       ??_C@_0BE@JAEOCHPE@template?9parameter?9?$AA@ 0051b570     LIBCMTD:undname.obj
 0003:0001d588       ??_C@_02OHHJMEON@?8?8?$AA@ 0051b588     LIBCMTD:undname.obj
 0003:0001d58c       ??_C@_0BG@JNJLAMPM@?$GAanonymous?5namespace?8?$AA@ 0051b58c     LIBCMTD:undname.obj
 0003:0001d5a8       ??_C@_0BN@IBLMMFAP@?$GAnon?9type?9template?9parameter?$AA@ 0051b5a8     LIBCMTD:undname.obj
 0003:0001d5cc       ??_C@_0BE@EODMJLIF@?$GAtemplate?9parameter?$AA@ 0051b5cc     LIBCMTD:undname.obj
 0003:0001d5e4       ??_C@_04GKJNKENE@void?$AA@ 0051b5e4     LIBCMTD:undname.obj
 0003:0001d5ec       ??_C@_04HIBGFPH@NULL?$AA@  0051b5ec     LIBCMTD:undname.obj
 0003:0001d5f4       ??_C@_0M@DHNBOJMP@extern?5?$CCC?$CC?5?$AA@ 0051b5f4     LIBCMTD:undname.obj
 0003:0001d604       ??_C@_08KJLFOPNE@?$FLthunk?$FN?3?$AA@ 0051b604     LIBCMTD:undname.obj
 0003:0001d610       ??_C@_08GPDDCMKI@public?3?5?$AA@ 0051b610     LIBCMTD:undname.obj
 0003:0001d61c       ??_C@_0M@GAIFPFIP@protected?3?5?$AA@ 0051b61c     LIBCMTD:undname.obj
 0003:0001d62c       ??_C@_09LAPHOOG@private?3?5?$AA@ 0051b62c     LIBCMTD:undname.obj
 0003:0001d638       ??_C@_08NIEOINHE@virtual?5?$AA@ 0051b638     LIBCMTD:undname.obj
 0003:0001d644       ??_C@_07PGOEDBHP@static?5?$AA@ 0051b644     LIBCMTD:undname.obj
 0003:0001d650       ??_C@_0DA@HGFJFBBE@?$GAtemplate?5static?5data?5member?5des@ 0051b650     LIBCMTD:undname.obj
 0003:0001d68c       ??_C@_0DB@ILEFOCIJ@?$GAtemplate?5static?5data?5member?5con@ 0051b68c     LIBCMTD:undname.obj
 0003:0001d6c8       ??_C@_0CB@KJDOOODE@?$GAlocal?5static?5destructor?5helper?8@ 0051b6c8     LIBCMTD:undname.obj
 0003:0001d6f0       ??_C@_0L@HNGCOGAE@?$GAadjustor?$HL?$AA@ 0051b6f0     LIBCMTD:undname.obj
 0003:0001d700       ??_C@_0L@GHPFDFH@?$GAvtordisp?$HL?$AA@ 0051b700     LIBCMTD:undname.obj
 0003:0001d710       ??_C@_0N@CBHHHENL@?$GAvtordispex?$HL?$AA@ 0051b710     LIBCMTD:undname.obj
 0003:0001d720       ??_C@_01CLKCMJKC@?5?$AA@   0051b720     LIBCMTD:undname.obj
 0003:0001d724       ??_C@_02IGFCGPIL@?$HN?8?$AA@ 0051b724     LIBCMTD:undname.obj
 0003:0001d728       ??_C@_03OPGICMGF@?$HN?8?5?$AA@ 0051b728     LIBCMTD:undname.obj
 0003:0001d72c       ??_C@_02KCKGHPCA@?$CJ?5?$AA@ 0051b72c     LIBCMTD:undname.obj
 0003:0001d730       ??_C@_05BEFAKPML@void?5?$AA@ 0051b730     LIBCMTD:undname.obj
 0003:0001d738       ??_C@_08PABEKFH@volatile?$AA@ 0051b738     LIBCMTD:undname.obj
 0003:0001d744       ??_C@_0M@ELJOJFFH@?0?$DMellipsis?$DO?$AA@ 0051b744     LIBCMTD:undname.obj
 0003:0001d754       ??_C@_04EENFHACM@?0?4?4?4?$AA@ 0051b754     LIBCMTD:undname.obj
 0003:0001d75c       ??_C@_0L@EGPHHEKN@?$DMellipsis?$DO?$AA@ 0051b75c     LIBCMTD:undname.obj
 0003:0001d76c       ??_C@_07HDJPLPEK@?5throw?$CI?$AA@ 0051b76c     LIBCMTD:undname.obj
 0003:0001d778       ??_C@_09EFNPDFFP@?5volatile?$AA@ 0051b778     LIBCMTD:undname.obj
 0003:0001d784       ??_C@_05BNCCCJPP@const?$AA@ 0051b784     LIBCMTD:undname.obj
 0003:0001d78c       ??_C@_07EDHNAJHC@signed?5?$AA@ 0051b78c     LIBCMTD:undname.obj
 0003:0001d798       ??_C@_09EBBEKKIH@unsigned?5?$AA@ 0051b798     LIBCMTD:undname.obj
 0003:0001d7a4       ??_C@_07NFANNNEC@UNKNOWN?$AA@ 0051b7a4     LIBCMTD:undname.obj
 0003:0001d7b0       ??_C@_06GCICPBLB@__w64?5?$AA@ 0051b7b0     LIBCMTD:undname.obj
 0003:0001d7b8       ??_C@_07CLGGIAMF@wchar_t?$AA@ 0051b7b8     LIBCMTD:undname.obj
 0003:0001d7c4       ??_C@_08GAHOLHEO@__int128?$AA@ 0051b7c4     LIBCMTD:undname.obj
 0003:0001d7d0       ??_C@_07LFCOJCAC@__int64?$AA@ 0051b7d0     LIBCMTD:undname.obj
 0003:0001d7dc       ??_C@_07OFLPPHGP@__int32?$AA@ 0051b7dc     LIBCMTD:undname.obj
 0003:0001d7e8       ??_C@_07ICFHOGAF@__int16?$AA@ 0051b7e8     LIBCMTD:undname.obj
 0003:0001d7f4       ??_C@_06EBGKOKIG@__int8?$AA@ 0051b7f4     LIBCMTD:undname.obj
 0003:0001d7fc       ??_C@_04DDKJGDCM@bool?$AA@ 0051b7fc     LIBCMTD:undname.obj
 0003:0001d804       ??_C@_06BNJCAIGJ@double?$AA@ 0051b804     LIBCMTD:undname.obj
 0003:0001d80c       ??_C@_05CJIMAING@long?5?$AA@ 0051b80c     LIBCMTD:undname.obj
 0003:0001d814       ??_C@_05KNFBNCOH@float?$AA@ 0051b814     LIBCMTD:undname.obj
 0003:0001d81c       ??_C@_04GOKPGOLB@long?$AA@ 0051b81c     LIBCMTD:undname.obj
 0003:0001d824       ??_C@_03JBIPMCLC@int?$AA@  0051b824     LIBCMTD:undname.obj
 0003:0001d828       ??_C@_05BFKKPKCG@short?$AA@ 0051b828     LIBCMTD:undname.obj
 0003:0001d830       ??_C@_04ENMBGAPA@char?$AA@ 0051b830     LIBCMTD:undname.obj
 0003:0001d838       ??_C@_05LJGMCFOG@enum?5?$AA@ 0051b838     LIBCMTD:undname.obj
 0003:0001d840       ??_C@_0N@DLIEFKNA@cointerface?5?$AA@ 0051b840     LIBCMTD:undname.obj
 0003:0001d850       ??_C@_08KOFANOFK@coclass?5?$AA@ 0051b850     LIBCMTD:undname.obj
 0003:0001d85c       ??_C@_06LJBABKPM@class?5?$AA@ 0051b85c     LIBCMTD:undname.obj
 0003:0001d864       ??_C@_07DIBCDNGL@struct?5?$AA@ 0051b864     LIBCMTD:undname.obj
 0003:0001d870       ??_C@_06MOJHIBMG@union?5?$AA@ 0051b870     LIBCMTD:undname.obj
 0003:0001d878       ??_C@_0P@GCIFDJCJ@?$GAunknown?5ecsu?8?$AA@ 0051b878     LIBCMTD:undname.obj
 0003:0001d88c       ??_C@_04LAHKHJMA@int?5?$AA@ 0051b88c     LIBCMTD:undname.obj
 0003:0001d894       ??_C@_06EHJMALKF@short?5?$AA@ 0051b894     LIBCMTD:undname.obj
 0003:0001d89c       ??_C@_05CIHEBHNO@char?5?$AA@ 0051b89c     LIBCMTD:undname.obj
 0003:0001d8a4       ??_C@_06LIJLOJAG@const?5?$AA@ 0051b8a4     LIBCMTD:undname.obj
 0003:0001d8ac       ??_C@_09GAIEOBLP@volatile?5?$AA@ 0051b8ac     LIBCMTD:undname.obj
 0003:0001d8b8       ??_C@_0O@GKABPPIF@cli?3?3pin_ptr?$DM?$AA@ 0051b8b8     LIBCMTD:undname.obj
 0003:0001d8c8       ??_C@_0M@EALIELKG@cli?3?3array?$DM?$AA@ 0051b8c8     LIBCMTD:undname.obj
 0003:0001d8d8       ??_C@_02GOGNNPBN@?$CJ?$FL?$AA@ 0051b8d8     LIBCMTD:undname.obj
 0003:0001d8dc       ??_C@_06EEGAIFAK@?$HLflat?$HN?$AA@ 0051b8dc     LIBCMTD:undname.obj
 0003:0001d8e4       ??_C@_02MDINNEEG@s?5?$AA@  0051b8e4     LIBCMTD:undname.obj
 0003:0001d8e8       ??_C@_05JIBOFOHK@?$HLfor?5?$AA@ 0051b8e8     LIBCMTD:undname.obj
 0003:0001d8f4       ??_7DNameNode@@6B@         0051b8f4     LIBCMTD:undname.obj
 0003:0001d908       ??_7charNode@@6B@          0051b908     LIBCMTD:undname.obj
 0003:0001d91c       ??_7pcharNode@@6B@         0051b91c     LIBCMTD:undname.obj
 0003:0001d930       ??_7pDNameNode@@6B@        0051b930     LIBCMTD:undname.obj
 0003:0001d944       ??_7DNameStatusNode@@6B@   0051b944     LIBCMTD:undname.obj
 0003:0001d954       ??_C@_04OKOHEJBO@?5?$DP?$DP?5?$AA@ 0051b954     LIBCMTD:undname.obj
 0003:0001d95c       ??_C@_1BA@DGECELNE@?$AAa?$AA_?$AAc?$AAm?$AAp?$AA?4?$AAc?$AA?$AA@ 0051b95c     LIBCMTD:a_cmp.obj
 0003:0001d970       ??_C@_1HK@ELDMAMK@?$AAc?$AAc?$AAh?$AAC?$AAo?$AAu?$AAn?$AAt?$AA1?$AA?$DN?$AA?$DN?$AA0?$AA?5?$AA?$CG?$AA?$CG?$AA?5?$AAc?$AAc?$AAh?$AAC?$AAo?$AAu?$AAn?$AAt?$AA2?$AA?$DN?$AA?$DN?$AA1?$AA?5?$AA?$HM?$AA?$HM?$AA?5@ 0051b970     LIBCMTD:a_cmp.obj
 0003:0001da04       ??_C@_1CC@CNADELFK@?$AA_?$AAs?$AAt?$AAr?$AAi?$AAn?$AAg?$AA2?$AA?5?$AA?$CB?$AA?$DN?$AA?5?$AAN?$AAU?$AAL?$AAL?$AA?$AA@ 0051ba04     LIBCMTD:strnicol.obj
 0003:0001da2c       ??_C@_1BK@IOJEBPLP@?$AA_?$AAs?$AAt?$AAr?$AAn?$AAi?$AAc?$AAo?$AAl?$AAl?$AA_?$AAl?$AA?$AA@ 0051ba2c     LIBCMTD:strnicol.obj
 0003:0001da4c       ??_C@_1BG@BPACDEKP@?$AAs?$AAt?$AAr?$AAn?$AAi?$AAc?$AAo?$AAl?$AA?4?$AAc?$AA?$AA@ 0051ba4c     LIBCMTD:strnicol.obj
 0003:0001da68       ??_C@_1CC@ICKKAGJA@?$AA_?$AAs?$AAt?$AAr?$AAi?$AAn?$AAg?$AA1?$AA?5?$AA?$CB?$AA?$DN?$AA?5?$AAN?$AAU?$AAL?$AAL?$AA?$AA@ 0051ba68     LIBCMTD:strnicol.obj
 0003:0001da90       ??_C@_1FG@OKIAKKPK@?$AAs?$AAt?$AAr?$AAc?$AAp?$AAy?$AA_?$AAs?$AA?$CI?$AAn?$AAa?$AAm?$AAe?$AA?0?$AA?5?$AAs?$AAt?$AAr?$AAl?$AAe?$AAn?$AA?$CI?$AAo?$AAp?$AAt?$AAi?$AAo?$AAn?$AA?$CJ?$AA?5?$AA?$CL?$AA?5@ 0051ba90     LIBCMTD:setenv.obj
 0003:0001daf8       ??_C@_1EI@GHDNAPMG@?$AA?$CI?$AA?$CC?$AAC?$AAR?$AAT?$AA?5?$AAL?$AAo?$AAg?$AAi?$AAc?$AA?5?$AAe?$AAr?$AAr?$AAo?$AAr?$AA?5?$AAd?$AAu?$AAr?$AAi?$AAn?$AAg?$AA?5?$AAs?$AAe?$AAt?$AAe?$AAn?$AAv?$AA?$CC@ 0051baf8     LIBCMTD:setenv.obj
 0003:0001db50       ??_C@_08BMJILFKN@setenv?4c?$AA@ 0051bb50     LIBCMTD:setenv.obj
 0003:0001db60       ??_C@_1FC@EEJIEIDF@?$AA_?$AAt?$AAc?$AAs?$AAn?$AAl?$AAe?$AAn?$AA?$CI?$AAe?$AAq?$AAu?$AAa?$AAl?$AA?5?$AA?$CL?$AA?5?$AA1?$AA?0?$AA?5?$AA_?$AAM?$AAA?$AAX?$AA_?$AAE?$AAN?$AAV?$AA?$CJ?$AA?5?$AA?$DM?$AA?5@ 0051bb60     LIBCMTD:setenv.obj
 0003:0001dbc4       ??_C@_1DE@EEHFNNGH@?$AAe?$AAq?$AAu?$AAa?$AAl?$AA?5?$AA?9?$AA?5?$AAo?$AAp?$AAt?$AAi?$AAo?$AAn?$AA?5?$AA?$DM?$AA?5?$AA_?$AAM?$AAA?$AAX?$AA_?$AAE?$AAN?$AAV?$AA?$AA@ 0051bbc4     LIBCMTD:setenv.obj
 0003:0001dc04       ??_C@_1BI@CDAFOAAL@?$AA_?$AA_?$AAc?$AAr?$AAt?$AAs?$AAe?$AAt?$AAe?$AAn?$AAv?$AA?$AA@ 0051bc04     LIBCMTD:setenv.obj
 0003:0001dc20       ??_C@_1BC@KAEJODA@?$AAs?$AAe?$AAt?$AAe?$AAn?$AAv?$AA?4?$AAc?$AA?$AA@ 0051bc20     LIBCMTD:setenv.obj
 0003:0001dc38       ??_C@_1CA@LMBEKBDN@?$AAp?$AAo?$AAp?$AAt?$AAi?$AAo?$AAn?$AA?5?$AA?$CB?$AA?$DN?$AA?5?$AAN?$AAU?$AAL?$AAL?$AA?$AA@ 0051bc38     LIBCMTD:setenv.obj
 0003:0001dc60       ??_C@_1FK@DNFLNPD@?$AAs?$AAt?$AAr?$AAc?$AAp?$AAy?$AA_?$AAs?$AA?$CI?$AA?$CK?$AAn?$AAe?$AAw?$AAe?$AAn?$AAv?$AAp?$AAt?$AAr?$AA?0?$AA?5?$AAe?$AAn?$AAv?$AAp?$AAt?$AAr?$AAS?$AAi?$AAz?$AAe?$AA?0@ 0051bc60     LIBCMTD:setenv.obj
 0003:0001dccc       ??_C@_1BK@ECKIJLPM@?$AAc?$AAo?$AAp?$AAy?$AA_?$AAe?$AAn?$AAv?$AAi?$AAr?$AAo?$AAn?$AA?$AA@ 0051bccc     LIBCMTD:setenv.obj
 0003:0001dcec       ??_C@_1BE@JKKFLIKJ@?$AA_?$AAm?$AAb?$AAs?$AAc?$AAh?$AAr?$AA_?$AAl?$AA?$AA@ 0051bcec     LIBCMTD:mbschr.obj
 0003:0001dd04       ??_C@_1BC@MDNHFJEJ@?$AAm?$AAb?$AAs?$AAc?$AAh?$AAr?$AA?4?$AAc?$AA?$AA@ 0051bd04     LIBCMTD:mbschr.obj
 0003:0001dd1c       ??_C@_1BO@JIBAMMGI@?$AAs?$AAt?$AAr?$AAi?$AAn?$AAg?$AA?5?$AA?$CB?$AA?$DN?$AA?5?$AAN?$AAU?$AAL?$AAL?$AA?$AA@ 0051bd1c     LIBCMTD:mbschr.obj
 0003:0001e618       ??_R4bad_exception@std@@6B@ 0051c618     LIBCMTD:frame.obj
 0003:0001e630       ??_R3bad_exception@std@@8  0051c630     LIBCMTD:frame.obj
 0003:0001e644       ??_R2bad_exception@std@@8  0051c644     LIBCMTD:frame.obj
 0003:0001e650       ??_R1A@?0A@EA@bad_exception@std@@8 0051c650     LIBCMTD:frame.obj
 0003:0001e674       ??_R1A@?0A@EA@exception@std@@8 0051c674     LIBCMTD:frame.obj
 0003:0001e698       ??_R3exception@std@@8      0051c698     LIBCMTD:frame.obj
 0003:0001e6ac       ??_R2exception@std@@8      0051c6ac     LIBCMTD:frame.obj
 0003:0001e6b4       ??_R4type_info@@6B@        0051c6b4     LIBCMTD:typinfo.obj
 0003:0001e6cc       ??_R3type_info@@8          0051c6cc     LIBCMTD:typinfo.obj
 0003:0001e6e0       ??_R2type_info@@8          0051c6e0     LIBCMTD:typinfo.obj
 0003:0001e6e8       ??_R1A@?0A@EA@type_info@@8 0051c6e8     LIBCMTD:typinfo.obj
 0003:0001e70c       ??_R4exception@std@@6B@    0051c70c     LIBCMTD:stdexcpt.obj
 0003:0001e724       ??_R4bad_cast@std@@6B@     0051c724     LIBCMTD:stdexcpt.obj
 0003:0001e73c       ??_R3bad_cast@std@@8       0051c73c     LIBCMTD:stdexcpt.obj
 0003:0001e750       ??_R2bad_cast@std@@8       0051c750     LIBCMTD:stdexcpt.obj
 0003:0001e75c       ??_R1A@?0A@EA@bad_cast@std@@8 0051c75c     LIBCMTD:stdexcpt.obj
 0003:0001e780       ??_R4bad_typeid@std@@6B@   0051c780     LIBCMTD:stdexcpt.obj
 0003:0001e798       ??_R3bad_typeid@std@@8     0051c798     LIBCMTD:stdexcpt.obj
 0003:0001e7ac       ??_R2bad_typeid@std@@8     0051c7ac     LIBCMTD:stdexcpt.obj
 0003:0001e7b8       ??_R1A@?0A@EA@bad_typeid@std@@8 0051c7b8     LIBCMTD:stdexcpt.obj
 0003:0001e7dc       ??_R4__non_rtti_object@std@@6B@ 0051c7dc     LIBCMTD:stdexcpt.obj
 0003:0001e7f4       ??_R3__non_rtti_object@std@@8 0051c7f4     LIBCMTD:stdexcpt.obj
 0003:0001e808       ??_R2__non_rtti_object@std@@8 0051c808     LIBCMTD:stdexcpt.obj
 0003:0001e818       ??_R1A@?0A@EA@__non_rtti_object@std@@8 0051c818     LIBCMTD:stdexcpt.obj
 0003:0001e83c       ??_R4DNameNode@@6B@        0051c83c     LIBCMTD:undname.obj
 0003:0001e854       ??_R3DNameNode@@8          0051c854     LIBCMTD:undname.obj
 0003:0001e868       ??_R2DNameNode@@8          0051c868     LIBCMTD:undname.obj
 0003:0001e870       ??_R1A@?0A@EA@DNameNode@@8 0051c870     LIBCMTD:undname.obj
 0003:0001e894       ??_R4charNode@@6B@         0051c894     LIBCMTD:undname.obj
 0003:0001e8ac       ??_R3charNode@@8           0051c8ac     LIBCMTD:undname.obj
 0003:0001e8c0       ??_R2charNode@@8           0051c8c0     LIBCMTD:undname.obj
 0003:0001e8cc       ??_R1A@?0A@EA@charNode@@8  0051c8cc     LIBCMTD:undname.obj
 0003:0001e8f0       ??_R4pcharNode@@6B@        0051c8f0     LIBCMTD:undname.obj
 0003:0001e908       ??_R3pcharNode@@8          0051c908     LIBCMTD:undname.obj
 0003:0001e91c       ??_R2pcharNode@@8          0051c91c     LIBCMTD:undname.obj
 0003:0001e928       ??_R1A@?0A@EA@pcharNode@@8 0051c928     LIBCMTD:undname.obj
 0003:0001e94c       ??_R4pDNameNode@@6B@       0051c94c     LIBCMTD:undname.obj
 0003:0001e964       ??_R3pDNameNode@@8         0051c964     LIBCMTD:undname.obj
 0003:0001e978       ??_R2pDNameNode@@8         0051c978     LIBCMTD:undname.obj
 0003:0001e984       ??_R1A@?0A@EA@pDNameNode@@8 0051c984     LIBCMTD:undname.obj
 0003:0001e9a8       ??_R4DNameStatusNode@@6B@  0051c9a8     LIBCMTD:undname.obj
 0003:0001e9c0       ??_R3DNameStatusNode@@8    0051c9c0     LIBCMTD:undname.obj
 0003:0001e9d4       ??_R2DNameStatusNode@@8    0051c9d4     LIBCMTD:undname.obj
 0003:0001e9e0       ??_R1A@?0A@EA@DNameStatusNode@@8 0051c9e0     LIBCMTD:undname.obj
 0003:0001eb1c       ___rtc_iaa                 0051cb1c     LIBCMTD:initsect.obj
 0003:0001ec20       ___rtc_izz                 0051cc20     LIBCMTD:initsect.obj
 0003:0001ed24       ___rtc_taa                 0051cd24     LIBCMTD:initsect.obj
 0003:0001ee28       ___rtc_tzz                 0051ce28     LIBCMTD:initsect.obj
 0003:0001f9a0       __TI2?AVbad_exception@std@@ 0051d9a0     LIBCMTD:frame.obj
 0003:0001f9b4       __CTA2?AVbad_exception@std@@ 0051d9b4     LIBCMTD:frame.obj
 0003:0001f9c4       __CT??_R0?AVbad_exception@std@@@8??0bad_exception@std@@QAE@ABV01@@Z12 0051d9c4     LIBCMTD:frame.obj
 0003:0001f9e4       __CT??_R0?AVexception@std@@@8??0exception@std@@QAE@ABV01@@Z12 0051d9e4     LIBCMTD:frame.obj
 0004:000024f0       ?__LINE__Var@?1??pj_ice_strans_create@@9@9 005214f0     pjnath-i386-win32-vc8-debug:ice_strans.obj
 0004:000024f4       ?__LINE__Var@?1??pj_stun_config_check_valid@@9@9@2c8b8ce9 005214f4     pjnath-i386-win32-vc8-debug:ice_strans.obj
 0004:000024f8       ?__LINE__Var@?1??create_comp@@9@9@2c8b8ce9 005214f8     pjnath-i386-win32-vc8-debug:ice_strans.obj
 0004:000024fc       ?__LINE__Var@?1??destroy_ice_st@@9@9@2c8b8ce9 005214fc     pjnath-i386-win32-vc8-debug:ice_strans.obj
 0004:00002500       ?__LINE__Var@?1??pj_ice_strans_state_name@@9@9 00521500     pjnath-i386-win32-vc8-debug:ice_strans.obj
 0004:00002504       ?__LINE__Var@?1??pj_ice_strans_destroy@@9@9 00521504     pjnath-i386-win32-vc8-debug:ice_strans.obj
 0004:00002508       ?__LINE__Var@?1??pj_ice_strans_get_user_data@@9@9 00521508     pjnath-i386-win32-vc8-debug:ice_strans.obj
 0004:0000250c       ?__LINE__Var@?1??pj_ice_strans_get_options@@9@9 0052150c     pjnath-i386-win32-vc8-debug:ice_strans.obj
 0004:00002510       ?__LINE__Var@?1??pj_ice_strans_set_options@@9@9 00521510     pjnath-i386-win32-vc8-debug:ice_strans.obj
 0004:00002514       ?__LINE__Var@?1??pj_ice_strans_init_ice@@9@9 00521514     pjnath-i386-win32-vc8-debug:ice_strans.obj
 0004:00002518       ?__LINE__Var@?1??pj_ice_strans_has_sess@@9@9 00521518     pjnath-i386-win32-vc8-debug:ice_strans.obj
 0004:0000251c       ?__LINE__Var@?1??pj_ice_strans_get_running_comp_cnt@@9@9 0052151c     pjnath-i386-win32-vc8-debug:ice_strans.obj
 0004:00002520       ?__LINE__Var@?1??pj_ice_strans_get_ufrag_pwd@@9@9 00521520     pjnath-i386-win32-vc8-debug:ice_strans.obj
 0004:00002524       ?__LINE__Var@?1??pj_ice_strans_get_cands_count@@9@9 00521524     pjnath-i386-win32-vc8-debug:ice_strans.obj
 0004:00002528       ?__LINE__Var@?1??pj_ice_strans_enum_cands@@9@9 00521528     pjnath-i386-win32-vc8-debug:ice_strans.obj
 0004:0000252c       ?__LINE__Var@?1??pj_ice_strans_get_def_cand@@9@9 0052152c     pjnath-i386-win32-vc8-debug:ice_strans.obj
 0004:00002530       ?__LINE__Var@?1??pj_ice_strans_get_role@@9@9 00521530     pjnath-i386-win32-vc8-debug:ice_strans.obj
 0004:00002534       ?__LINE__Var@?1??pj_ice_strans_change_role@@9@9 00521534     pjnath-i386-win32-vc8-debug:ice_strans.obj
 0004:00002538       ?__LINE__Var@?1??pj_ice_strans_start_ice@@9@9 00521538     pjnath-i386-win32-vc8-debug:ice_strans.obj
 0004:0000253c       ?__LINE__Var@?1??pj_ice_strans_get_valid_pair@@9@9 0052153c     pjnath-i386-win32-vc8-debug:ice_strans.obj
 0004:00002540       ?__LINE__Var@?1??pj_ice_strans_sendto@@9@9 00521540     pjnath-i386-win32-vc8-debug:ice_strans.obj
 0004:00002544       ?__LINE__Var@?1??sess_dec_ref@@9@9@2c8b8ce9 00521544     pjnath-i386-win32-vc8-debug:ice_strans.obj
 0004:00002548       ?__LINE__Var@?1??ice_tx_pkt@@9@9@2c8b8ce9 00521548     pjnath-i386-win32-vc8-debug:ice_strans.obj
 0004:0000254c       ?__LINE__Var@?1??stun_on_status@@9@9@2c8b8ce9 0052154c     pjnath-i386-win32-vc8-debug:ice_strans.obj
 0004:00002550       ?__LINE__Var@?1??turn_on_state@@9@9@2c8b8ce9 00521550     pjnath-i386-win32-vc8-debug:ice_strans.obj
 0004:000025a0       ?__LINE__Var@?1??pj_ice_get_cand_type_name@@9@9 005215a0     pjnath-i386-win32-vc8-debug:ice_session.obj
 0004:000025a4       ?__LINE__Var@?1??get_type_prefix@@9@9@c89bf09c 005215a4     pjnath-i386-win32-vc8-debug:ice_session.obj
 0004:000025a8       ?__LINE__Var@?1??pj_ice_sess_create@@9@9 005215a8     pjnath-i386-win32-vc8-debug:ice_session.obj
 0004:000025ac       ?__LINE__Var@?1??pj_ice_sess_get_options@@9@9 005215ac     pjnath-i386-win32-vc8-debug:ice_session.obj
 0004:000025b0       ?__LINE__Var@?1??pj_ice_sess_set_options@@9@9 005215b0     pjnath-i386-win32-vc8-debug:ice_session.obj
 0004:000025b4       ?__LINE__Var@?1??pj_ice_sess_destroy@@9@9 005215b4     pjnath-i386-win32-vc8-debug:ice_session.obj
 0004:000025b8       ?__LINE__Var@?1??pj_ice_sess_change_role@@9@9 005215b8     pjnath-i386-win32-vc8-debug:ice_session.obj
 0004:000025bc       ?__LINE__Var@?1??pj_ice_sess_set_prefs@@9@9 005215bc     pjnath-i386-win32-vc8-debug:ice_session.obj
 0004:000025c0       ?__LINE__Var@?1??pj_ice_sess_add_cand@@9@9 005215c0     pjnath-i386-win32-vc8-debug:ice_session.obj
 0004:000025c4       ?__LINE__Var@?1??pj_ice_sess_find_default_cand@@9@9 005215c4     pjnath-i386-win32-vc8-debug:ice_session.obj
 0004:000025c8       ?__LINE__Var@?1??ice_keep_alive@@9@9@c89bf09c 005215c8     pjnath-i386-win32-vc8-debug:ice_session.obj
 0004:000025cc       ?__LINE__Var@?1??dump_check@@9@9@c89bf09c 005215cc     pjnath-i386-win32-vc8-debug:ice_session.obj
 0004:000025d0       ?__LINE__Var@?1??pj_ice_sess_create_check_list@@9@9 005215d0     pjnath-i386-win32-vc8-debug:ice_session.obj
 0004:000025d4       ?__LINE__Var@?1??sockaddr_cmp@@9@9@c89bf09c 005215d4     pjnath-i386-win32-vc8-debug:ice_session.obj
 0004:000025d8       ?__LINE__Var@?1??start_nominated_check@@9@9@c89bf09c 005215d8     pjnath-i386-win32-vc8-debug:ice_session.obj
 0004:000025dc       ?__LINE__Var@?1??check_set_state@@9@9@c89bf09c 005215dc     pjnath-i386-win32-vc8-debug:ice_session.obj
 0004:000025e0       ?__LINE__Var@?1??find_comp@@9@9@c89bf09c 005215e0     pjnath-i386-win32-vc8-debug:ice_session.obj
 0004:000025e4       ?__LINE__Var@?1??pj_ice_sess_start_check@@9@9 005215e4     pjnath-i386-win32-vc8-debug:ice_session.obj
 0004:000025e8       ?__LINE__Var@?1??on_stun_request_complete@@9@9@c89bf09c 005215e8     pjnath-i386-win32-vc8-debug:ice_session.obj
 0004:000025ec       ?__LINE__Var@?1??on_check_complete@@9@9@c89bf09c 005215ec     pjnath-i386-win32-vc8-debug:ice_session.obj
 0004:000025f0       ?__LINE__Var@?1??on_stun_rx_request@@9@9@c89bf09c 005215f0     pjnath-i386-win32-vc8-debug:ice_session.obj
 0004:000025f4       ?__LINE__Var@?1??pj_ice_sess_send_data@@9@9 005215f4     pjnath-i386-win32-vc8-debug:ice_session.obj
 0004:000025f8       ?__LINE__Var@?1??pj_ice_sess_on_rx_pkt@@9@9 005215f8     pjnath-i386-win32-vc8-debug:ice_session.obj
 0004:000025fc       ?__LINE__Var@?1??pj_turn_sock_create@@9@9 005215fc     pjnath-i386-win32-vc8-debug:turn_sock.obj
 0004:00002600       ?__LINE__Var@?1??timer_cb@@9@9@bad442d2 00521600     pjnath-i386-win32-vc8-debug:turn_sock.obj
 0004:00002604       ?__LINE__Var@?1??pj_turn_sock_set_user_data@@9@9 00521604     pjnath-i386-win32-vc8-debug:turn_sock.obj
 0004:00002608       ?__LINE__Var@?1??pj_turn_sock_get_user_data@@9@9 00521608     pjnath-i386-win32-vc8-debug:turn_sock.obj
 0004:0000260c       ?__LINE__Var@?1??pj_turn_sock_get_info@@9@9 0052160c     pjnath-i386-win32-vc8-debug:turn_sock.obj
 0004:00002610       ?__LINE__Var@?1??pj_turn_sock_alloc@@9@9 00521610     pjnath-i386-win32-vc8-debug:turn_sock.obj
 0004:00002614       ?__LINE__Var@?1??pj_turn_sock_sendto@@9@9 00521614     pjnath-i386-win32-vc8-debug:turn_sock.obj
 0004:00002618       ?__LINE__Var@?1??pj_turn_sock_bind_channel@@9@9 00521618     pjnath-i386-win32-vc8-debug:turn_sock.obj
 0004:0000261c       ?__LINE__Var@?1??turn_on_send_pkt@@9@9@bad442d2 0052161c     pjnath-i386-win32-vc8-debug:turn_sock.obj
 0004:00002648       ?__LINE__Var@?1??pj_turn_session_create@@9@9 00521648     pjnath-i386-win32-vc8-debug:turn_session.obj
 0004:0000264c       ?__LINE__Var@?1??pj_turn_session_shutdown@@9@9 0052164c     pjnath-i386-win32-vc8-debug:turn_session.obj
 0004:00002650       ?__LINE__Var@?1??pj_turn_session_destroy@@9@9 00521650     pjnath-i386-win32-vc8-debug:turn_session.obj
 0004:00002654       ?__LINE__Var@?1??pj_turn_session_get_info@@9@9 00521654     pjnath-i386-win32-vc8-debug:turn_session.obj
 0004:00002658       ?__LINE__Var@?1??pj_turn_session_set_server@@9@9 00521658     pjnath-i386-win32-vc8-debug:turn_session.obj
 0004:0000265c       ?__LINE__Var@?1??pj_turn_session_set_credential@@9@9 0052165c     pjnath-i386-win32-vc8-debug:turn_session.obj
 0004:00002660       ?__LINE__Var@?1??pj_turn_session_alloc@@9@9 00521660     pjnath-i386-win32-vc8-debug:turn_session.obj
 0004:00002664       ?__LINE__Var@?1??pj_turn_session_set_perm@@9@9 00521664     pjnath-i386-win32-vc8-debug:turn_session.obj
 0004:00002668       ?__LINE__Var@?1??send_refresh@@9@9@e9973e5b 00521668     pjnath-i386-win32-vc8-debug:turn_session.obj
 0004:0000266c       ?__LINE__Var@?1??pj_turn_session_sendto@@9@9 0052166c     pjnath-i386-win32-vc8-debug:turn_session.obj
 0004:00002670       ?__LINE__Var@?1??pj_turn_session_bind_channel@@9@9 00521670     pjnath-i386-win32-vc8-debug:turn_session.obj
 0004:00002674       ?__LINE__Var@?1??stun_on_request_complete@@9@9@e9973e5b 00521674     pjnath-i386-win32-vc8-debug:turn_session.obj
 0004:00002678       ?__LINE__Var@?1??on_allocate_success@@9@9@e9973e5b 00521678     pjnath-i386-win32-vc8-debug:turn_session.obj
 0004:0000267c       ?__LINE__Var@?1??lookup_ch_by_addr@@9@9@e9973e5b 0052167c     pjnath-i386-win32-vc8-debug:turn_session.obj
 0004:00002680       ?__LINE__Var@?1??on_timer_event@@9@9@e9973e5b 00521680     pjnath-i386-win32-vc8-debug:turn_session.obj
 0004:00002684       ?__LINE__Var@?1??pj_stun_sock_create@@9@9 00521684     pjnath-i386-win32-vc8-debug:stun_sock.obj
 0004:00002688       ?__LINE__Var@?1??pj_stun_config_check_valid@@9@9@184c51a6 00521688     pjnath-i386-win32-vc8-debug:stun_sock.obj
 0004:0000268c       ?__LINE__Var@?1??pj_stun_sock_start@@9@9 0052168c     pjnath-i386-win32-vc8-debug:stun_sock.obj
 0004:00002690       ?__LINE__Var@?1??pj_stun_sock_set_user_data@@9@9 00521690     pjnath-i386-win32-vc8-debug:stun_sock.obj
 0004:00002694       ?__LINE__Var@?1??pj_stun_sock_get_user_data@@9@9 00521694     pjnath-i386-win32-vc8-debug:stun_sock.obj
 0004:00002698       ?__LINE__Var@?1??dns_srv_resolver_cb@@9@9@184c51a6 00521698     pjnath-i386-win32-vc8-debug:stun_sock.obj
 0004:0000269c       ?__LINE__Var@?1??pj_stun_sock_get_info@@9@9 0052169c     pjnath-i386-win32-vc8-debug:stun_sock.obj
 0004:000026a0       ?__LINE__Var@?1??pj_stun_sock_sendto@@9@9 005216a0     pjnath-i386-win32-vc8-debug:stun_sock.obj
 0004:000026a4       ?__LINE__Var@?1??sess_on_send_msg@@9@9@184c51a6 005216a4     pjnath-i386-win32-vc8-debug:stun_sock.obj
 0004:000026a8       ?__LINE__Var@?1??start_ka_timer@@9@9@184c51a6 005216a8     pjnath-i386-win32-vc8-debug:stun_sock.obj
 0004:000026ac       ?__LINE__Var@?1??pj_stun_create_key@@9@9 005216ac     pjnath-i386-win32-vc8-debug:stun_auth.obj
 0004:000026b0       ?__LINE__Var@?1??pj_stun_authenticate_request@@9@9 005216b0     pjnath-i386-win32-vc8-debug:stun_auth.obj
 0004:000026b4       ?__LINE__Var@?1??pj_stun_authenticate_response@@9@9 005216b4     pjnath-i386-win32-vc8-debug:stun_auth.obj
 0004:00002c14       ?__LINE__Var@?1??find_attr_desc@@9@9@bc633ec1 00521c14     pjnath-i386-win32-vc8-debug:stun_msg.obj
 0004:00002c18       ?__LINE__Var@?1??pj_stun_sockaddr_attr_init@@9@9 00521c18     pjnath-i386-win32-vc8-debug:stun_msg.obj
 0004:00002c1c       ?__LINE__Var@?1??pj_stun_sockaddr_attr_create@@9@9 00521c1c     pjnath-i386-win32-vc8-debug:stun_msg.obj
 0004:00002c20       ?__LINE__Var@?1??decode_sockaddr_attr@@9@9@bc633ec1 00521c20     pjnath-i386-win32-vc8-debug:stun_msg.obj
 0004:00002c24       ?__LINE__Var@?1??encode_sockaddr_attr@@9@9@bc633ec1 00521c24     pjnath-i386-win32-vc8-debug:stun_msg.obj
 0004:00002c28       ?__LINE__Var@?1??pj_stun_string_attr_create@@9@9 00521c28     pjnath-i386-win32-vc8-debug:stun_msg.obj
 0004:00002c2c       ?__LINE__Var@?1??encode_string_attr@@9@9@bc633ec1 00521c2c     pjnath-i386-win32-vc8-debug:stun_msg.obj
 0004:00002c30       ?__LINE__Var@?1??pj_stun_empty_attr_create@@9@9 00521c30     pjnath-i386-win32-vc8-debug:stun_msg.obj
 0004:00002c34       ?__LINE__Var@?1??pj_stun_uint_attr_create@@9@9 00521c34     pjnath-i386-win32-vc8-debug:stun_msg.obj
 0004:00002c38       ?__LINE__Var@?1??encode_uint_attr@@9@9@bc633ec1 00521c38     pjnath-i386-win32-vc8-debug:stun_msg.obj
 0004:00002c3c       ?__LINE__Var@?1??pj_stun_uint64_attr_create@@9@9 00521c3c     pjnath-i386-win32-vc8-debug:stun_msg.obj
 0004:00002c40       ?__LINE__Var@?1??encode_uint64_attr@@9@9@bc633ec1 00521c40     pjnath-i386-win32-vc8-debug:stun_msg.obj
 0004:00002c44       ?__LINE__Var@?1??pj_stun_msgint_attr_create@@9@9 00521c44     pjnath-i386-win32-vc8-debug:stun_msg.obj
 0004:00002c48       ?__LINE__Var@?1??encode_msgint_attr@@9@9@bc633ec1 00521c48     pjnath-i386-win32-vc8-debug:stun_msg.obj
 0004:00002c4c       ?__LINE__Var@?1??pj_stun_errcode_attr_create@@9@9 00521c4c     pjnath-i386-win32-vc8-debug:stun_msg.obj
 0004:00002c50       ?__LINE__Var@?1??encode_errcode_attr@@9@9@bc633ec1 00521c50     pjnath-i386-win32-vc8-debug:stun_msg.obj
 0004:00002c54       ?__LINE__Var@?1??pj_stun_unknown_attr_create@@9@9 00521c54     pjnath-i386-win32-vc8-debug:stun_msg.obj
 0004:00002c58       ?__LINE__Var@?1??encode_unknown_attr@@9@9@bc633ec1 00521c58     pjnath-i386-win32-vc8-debug:stun_msg.obj
 0004:00002c5c       ?__LINE__Var@?1??pj_stun_binary_attr_init@@9@9 00521c5c     pjnath-i386-win32-vc8-debug:stun_msg.obj
 0004:00002c60       ?__LINE__Var@?1??pj_stun_binary_attr_create@@9@9 00521c60     pjnath-i386-win32-vc8-debug:stun_msg.obj
 0004:00002c64       ?__LINE__Var@?1??encode_binary_attr@@9@9@bc633ec1 00521c64     pjnath-i386-win32-vc8-debug:stun_msg.obj
 0004:00002c68       ?__LINE__Var@?1??pj_stun_msg_init@@9@9 00521c68     pjnath-i386-win32-vc8-debug:stun_msg.obj
 0004:00002c6c       ?__LINE__Var@?1??pj_stun_msg_create@@9@9 00521c6c     pjnath-i386-win32-vc8-debug:stun_msg.obj
 0004:00002c70       ?__LINE__Var@?1??pj_stun_msg_clone@@9@9 00521c70     pjnath-i386-win32-vc8-debug:stun_msg.obj
 0004:00002c74       ?__LINE__Var@?1??pj_stun_msg_add_attr@@9@9 00521c74     pjnath-i386-win32-vc8-debug:stun_msg.obj
 0004:00002c78       ?__LINE__Var@?1??pj_stun_msg_check@@9@9 00521c78     pjnath-i386-win32-vc8-debug:stun_msg.obj
 0004:00002c7c       ?__LINE__Var@?1??pj_stun_msg_create_response@@9@9 00521c7c     pjnath-i386-win32-vc8-debug:stun_msg.obj
 0004:00002c80       ?__LINE__Var@?1??pj_stun_msg_decode@@9@9 00521c80     pjnath-i386-win32-vc8-debug:stun_msg.obj
 0004:00002c84       ?__LINE__Var@?1??pj_stun_msg_encode@@9@9 00521c84     pjnath-i386-win32-vc8-debug:stun_msg.obj
 0004:00002c88       ?__LINE__Var@?1??pj_stun_msg_find_attr@@9@9 00521c88     pjnath-i386-win32-vc8-debug:stun_msg.obj
 0004:00002c8c       ?__LINE__Var@?1??pj_stun_attr_clone@@9@9 00521c8c     pjnath-i386-win32-vc8-debug:stun_msg.obj
 0004:00002ca0       ?__LINE__Var@?1??pj_stun_session_create@@9@9 00521ca0     pjnath-i386-win32-vc8-debug:stun_session.obj
 0004:00002ca4       ?__LINE__Var@?1??pj_stun_session_destroy@@9@9 00521ca4     pjnath-i386-win32-vc8-debug:stun_session.obj
 0004:00002ca8       ?__LINE__Var@?1??pj_stun_session_set_user_data@@9@9 00521ca8     pjnath-i386-win32-vc8-debug:stun_session.obj
 0004:00002cac       ?__LINE__Var@?1??pj_stun_session_get_user_data@@9@9 00521cac     pjnath-i386-win32-vc8-debug:stun_session.obj
 0004:00002cb0       ?__LINE__Var@?1??pj_stun_session_set_lock@@9@9 00521cb0     pjnath-i386-win32-vc8-debug:stun_session.obj
 0004:00002cb4       ?__LINE__Var@?1??pj_stun_session_set_software_name@@9@9 00521cb4     pjnath-i386-win32-vc8-debug:stun_session.obj
 0004:00002cb8       ?__LINE__Var@?1??pj_stun_session_set_credential@@9@9 00521cb8     pjnath-i386-win32-vc8-debug:stun_session.obj
 0004:00002cbc       ?__LINE__Var@?1??pj_stun_session_set_log@@9@9 00521cbc     pjnath-i386-win32-vc8-debug:stun_session.obj
 0004:00002cc0       ?__LINE__Var@?1??pj_stun_session_use_fingerprint@@9@9 00521cc0     pjnath-i386-win32-vc8-debug:stun_session.obj
 0004:00002cc4       ?__LINE__Var@?1??pj_stun_session_create_req@@9@9 00521cc4     pjnath-i386-win32-vc8-debug:stun_session.obj
 0004:00002cc8       ?__LINE__Var@?1??create_tdata@@9@9@2554a491 00521cc8     pjnath-i386-win32-vc8-debug:stun_session.obj
 0004:00002ccc       ?__LINE__Var@?1??get_auth@@9@9@2554a491 00521ccc     pjnath-i386-win32-vc8-debug:stun_session.obj
 0004:00002cd0       ?__LINE__Var@?1??pj_stun_session_create_ind@@9@9 00521cd0     pjnath-i386-win32-vc8-debug:stun_session.obj
 0004:00002cd4       ?__LINE__Var@?1??pj_stun_session_send_msg@@9@9 00521cd4     pjnath-i386-win32-vc8-debug:stun_session.obj
 0004:00002cd8       ?__LINE__Var@?1??apply_msg_options@@9@9@2554a491 00521cd8     pjnath-i386-win32-vc8-debug:stun_session.obj
 0004:00002cdc       ?__LINE__Var@?1??pj_stun_session_cancel_req@@9@9 00521cdc     pjnath-i386-win32-vc8-debug:stun_session.obj
 0004:00002ce0       ?__LINE__Var@?1??pj_stun_session_retransmit_req@@9@9 00521ce0     pjnath-i386-win32-vc8-debug:stun_session.obj
 0004:00002ce4       ?__LINE__Var@?1??pj_stun_session_on_rx_pkt@@9@9 00521ce4     pjnath-i386-win32-vc8-debug:stun_session.obj
 0004:00002ce8       ?__LINE__Var@?1??pj_stun_client_tsx_create@@9@9 00521ce8     pjnath-i386-win32-vc8-debug:stun_transaction.obj
 0004:00002cec       ?__LINE__Var@?1??pj_stun_client_tsx_schedule_destroy@@9@9 00521cec     pjnath-i386-win32-vc8-debug:stun_transaction.obj
 0004:00002cf0       ?__LINE__Var@?1??pj_stun_client_tsx_destroy@@9@9 00521cf0     pjnath-i386-win32-vc8-debug:stun_transaction.obj
 0004:00002cf4       ?__LINE__Var@?1??pj_stun_client_tsx_is_complete@@9@9 00521cf4     pjnath-i386-win32-vc8-debug:stun_transaction.obj
 0004:00002cf8       ?__LINE__Var@?1??pj_stun_client_tsx_set_data@@9@9 00521cf8     pjnath-i386-win32-vc8-debug:stun_transaction.obj
 0004:00002cfc       ?__LINE__Var@?1??pj_stun_client_tsx_get_data@@9@9 00521cfc     pjnath-i386-win32-vc8-debug:stun_transaction.obj
 0004:00002d00       ?__LINE__Var@?1??pj_stun_client_tsx_send_msg@@9@9 00521d00     pjnath-i386-win32-vc8-debug:stun_transaction.obj
 0004:00002d04       ?__LINE__Var@?1??tsx_transmit_msg@@9@9@3bc1fa8f 00521d04     pjnath-i386-win32-vc8-debug:stun_transaction.obj
 0004:00002d08       ?__LINE__Var@?1??pj_stun_msg_dump@@9@9 00521d08     pjnath-i386-win32-vc8-debug:stun_msg_dump.obj
 0004:00002d0c       _pj_optind                 00521d0c     pjlib-util-i386-win32-vc8-debug:getopt.obj
 0004:00002d10       _pj_optopt                 00521d10     pjlib-util-i386-win32-vc8-debug:getopt.obj
 0004:00002d28       ?__LINE__Var@?1??pj_dns_resolver_create@@9@9 00521d28     pjlib-util-i386-win32-vc8-debug:resolver.obj
 0004:00002d2c       ?__LINE__Var@?1??pj_dns_resolver_destroy@@9@9 00521d2c     pjlib-util-i386-win32-vc8-debug:resolver.obj
 0004:00002d30       ?__LINE__Var@?1??pj_dns_resolver_set_ns@@9@9 00521d30     pjlib-util-i386-win32-vc8-debug:resolver.obj
 0004:00002d34       ?__LINE__Var@?1??pj_dns_resolver_set_settings@@9@9 00521d34     pjlib-util-i386-win32-vc8-debug:resolver.obj
 0004:00002d38       ?__LINE__Var@?1??pj_dns_resolver_get_settings@@9@9 00521d38     pjlib-util-i386-win32-vc8-debug:resolver.obj
 0004:00002d3c       ?__LINE__Var@?1??pj_dns_resolver_handle_events@@9@9 00521d3c     pjlib-util-i386-win32-vc8-debug:resolver.obj
 0004:00002d40       ?__LINE__Var@?1??pj_dns_resolver_start_query@@9@9 00521d40     pjlib-util-i386-win32-vc8-debug:resolver.obj
 0004:00002d44       ?__LINE__Var@?1??transmit_query@@9@9@e83462b8 00521d44     pjlib-util-i386-win32-vc8-debug:resolver.obj
 0004:00002d48       ?__LINE__Var@?1??pj_dns_resolver_cancel_query@@9@9 00521d48     pjlib-util-i386-win32-vc8-debug:resolver.obj
 0004:00002d4c       ?__LINE__Var@?1??pj_dns_parse_a_response@@9@9 00521d4c     pjlib-util-i386-win32-vc8-debug:resolver.obj
 0004:00002d50       ?__LINE__Var@?1??select_nameservers@@9@9@e83462b8 00521d50     pjlib-util-i386-win32-vc8-debug:resolver.obj
 0004:00002d54       ?__LINE__Var@?1??on_read_complete@@9@9@e83462b8 00521d54     pjlib-util-i386-win32-vc8-debug:resolver.obj
 0004:00002d58       ?__LINE__Var@?1??pj_dns_resolver_add_entry@@9@9 00521d58     pjlib-util-i386-win32-vc8-debug:resolver.obj
 0004:00002d5c       ?__LINE__Var@?1??pj_dns_resolver_get_cached_count@@9@9 00521d5c     pjlib-util-i386-win32-vc8-debug:resolver.obj
 0004:00002d60       ?__LINE__Var@?1??pj_dns_srv_resolve@@9@9 00521d60     pjlib-util-i386-win32-vc8-debug:srv_resolver.obj
 0004:00002d64       ?__LINE__Var@?1??dns_callback@@9@9@1c8aa667 00521d64     pjlib-util-i386-win32-vc8-debug:srv_resolver.obj
 0004:00002d68       ?__LINE__Var@?1??build_server_entries@@9@9@1c8aa667 00521d68     pjlib-util-i386-win32-vc8-debug:srv_resolver.obj
 0004:00002d6c       ?__LINE__Var@?1??pj_dns_make_query@@9@9 00521d6c     pjlib-util-i386-win32-vc8-debug:dns.obj
 0004:00002d70       ?__LINE__Var@?1??pj_dns_parse_packet@@9@9 00521d70     pjlib-util-i386-win32-vc8-debug:dns.obj
 0004:00002d74       ?__LINE__Var@?1??pj_dns_packet_dup@@9@9 00521d74     pjlib-util-i386-win32-vc8-debug:dns.obj
 0004:00002d78       ?__LINE__Var@?1??pj_create_random_string@@9@9 00521d78     pjlib-i386-win32-vc8-debug:string.obj
 0004:00002d7c       ?__LINE__Var@?1??pj_strtoul@@9@9 00521d7c     pjlib-i386-win32-vc8-debug:string.obj
 0004:00002d80       ?__LINE__Var@?1??pj_strtoul2@@9@9 00521d80     pjlib-i386-win32-vc8-debug:string.obj
 0004:00002d84       ?__LINE__Var@?1??pj_utoa_pad@@9@9 00521d84     pjlib-i386-win32-vc8-debug:string.obj
 0004:00002d8c       ?__LINE__Var@?1??pj_getpid@@9@9 00521d8c     pjlib-i386-win32-vc8-debug:os_core_win32.obj
 0004:00002d90       ?__LINE__Var@?1??pj_thread_set_prio@@9@9 00521d90     pjlib-i386-win32-vc8-debug:os_core_win32.obj
 0004:00002d94       ?__LINE__Var@?1??pj_thread_get_os_handle@@9@9 00521d94     pjlib-i386-win32-vc8-debug:os_core_win32.obj
 0004:00002d98       ?__LINE__Var@?1??pj_thread_register@@9@9 00521d98     pjlib-i386-win32-vc8-debug:os_core_win32.obj
 0004:00002d9c       ?__LINE__Var@?1??pj_thread_create@@9@9 00521d9c     pjlib-i386-win32-vc8-debug:os_core_win32.obj
 0004:00002da0       ?__LINE__Var@?1??thread_main@@9@9@b730e761 00521da0     pjlib-i386-win32-vc8-debug:os_core_win32.obj
 0004:00002da4       ?__LINE__Var@?1??pj_thread_get_name@@9@9 00521da4     pjlib-i386-win32-vc8-debug:os_core_win32.obj
 0004:00002da8       ?__LINE__Var@?1??pj_thread_resume@@9@9 00521da8     pjlib-i386-win32-vc8-debug:os_core_win32.obj
 0004:00002dac       ?__LINE__Var@?1??pj_thread_this@@9@9 00521dac     pjlib-i386-win32-vc8-debug:os_core_win32.obj
 0004:00002db0       ?__LINE__Var@?1??pj_thread_join@@9@9 00521db0     pjlib-i386-win32-vc8-debug:os_core_win32.obj
 0004:00002db4       ?__LINE__Var@?1??pj_thread_destroy@@9@9 00521db4     pjlib-i386-win32-vc8-debug:os_core_win32.obj
 0004:00002db8       ?__LINE__Var@?1??pj_thread_sleep@@9@9 00521db8     pjlib-i386-win32-vc8-debug:os_core_win32.obj
 0004:00002dbc       ?__LINE__Var@?1??pj_thread_check_stack@@9@9 00521dbc     pjlib-i386-win32-vc8-debug:os_core_win32.obj
 0004:00002dc0       ?__LINE__Var@?1??pj_thread_get_stack_info@@9@9 00521dc0     pjlib-i386-win32-vc8-debug:os_core_win32.obj
 0004:00002dc4       ?__LINE__Var@?1??pj_atomic_destroy@@9@9 00521dc4     pjlib-i386-win32-vc8-debug:os_core_win32.obj
 0004:00002dc8       ?__LINE__Var@?1??pj_atomic_set@@9@9 00521dc8     pjlib-i386-win32-vc8-debug:os_core_win32.obj
 0004:00002dcc       ?__LINE__Var@?1??pj_atomic_get@@9@9 00521dcc     pjlib-i386-win32-vc8-debug:os_core_win32.obj
 0004:00002dd0       ?__LINE__Var@?1??pj_atomic_inc_and_get@@9@9 00521dd0     pjlib-i386-win32-vc8-debug:os_core_win32.obj
 0004:00002dd4       ?__LINE__Var@?1??pj_atomic_dec_and_get@@9@9 00521dd4     pjlib-i386-win32-vc8-debug:os_core_win32.obj
 0004:00002dd8       ?__LINE__Var@?1??pj_thread_local_alloc@@9@9 00521dd8     pjlib-i386-win32-vc8-debug:os_core_win32.obj
 0004:00002ddc       ?__LINE__Var@?1??pj_thread_local_free@@9@9 00521ddc     pjlib-i386-win32-vc8-debug:os_core_win32.obj
 0004:00002de0       ?__LINE__Var@?1??init_mutex@@9@9@b730e761 00521de0     pjlib-i386-win32-vc8-debug:os_core_win32.obj
 0004:00002de4       ?__LINE__Var@?1??pj_mutex_create@@9@9 00521de4     pjlib-i386-win32-vc8-debug:os_core_win32.obj
 0004:00002de8       ?__LINE__Var@?1??pj_mutex_lock@@9@9 00521de8     pjlib-i386-win32-vc8-debug:os_core_win32.obj
 0004:00002dec       ?__LINE__Var@?1??pj_mutex_unlock@@9@9 00521dec     pjlib-i386-win32-vc8-debug:os_core_win32.obj
 0004:00002df0       ?__LINE__Var@?1??pj_mutex_trylock@@9@9 00521df0     pjlib-i386-win32-vc8-debug:os_core_win32.obj
 0004:00002df4       ?__LINE__Var@?1??pj_mutex_destroy@@9@9 00521df4     pjlib-i386-win32-vc8-debug:os_core_win32.obj
 0004:00002df8       ?__LINE__Var@?1??pj_rwmutex_create@@9@9 00521df8     pjlib-i386-win32-vc8-debug:os_core_win32.obj
 0004:00002dfc       ?__LINE__Var@?1??pj_rwmutex_lock_read@@9@9 00521dfc     pjlib-i386-win32-vc8-debug:os_core_win32.obj
 0004:00002e00       ?__LINE__Var@?1??pj_rwmutex_lock_write@@9@9 00521e00     pjlib-i386-win32-vc8-debug:os_core_win32.obj
 0004:00002e04       ?__LINE__Var@?1??pj_rwmutex_unlock_read@@9@9 00521e04     pjlib-i386-win32-vc8-debug:os_core_win32.obj
 0004:00002e08       ?__LINE__Var@?1??pj_rwmutex_unlock_write@@9@9 00521e08     pjlib-i386-win32-vc8-debug:os_core_win32.obj
 0004:00002e0c       ?__LINE__Var@?1??pj_rwmutex_destroy@@9@9 00521e0c     pjlib-i386-win32-vc8-debug:os_core_win32.obj
 0004:00002e10       ?__LINE__Var@?1??pj_sem_create@@9@9 00521e10     pjlib-i386-win32-vc8-debug:os_core_win32.obj
 0004:00002e14       ?__LINE__Var@?1??pj_sem_wait@@9@9 00521e14     pjlib-i386-win32-vc8-debug:os_core_win32.obj
 0004:00002e18       ?__LINE__Var@?1??pj_sem_wait_for@@9@9@b730e761 00521e18     pjlib-i386-win32-vc8-debug:os_core_win32.obj
 0004:00002e1c       ?__LINE__Var@?1??pj_sem_trywait@@9@9 00521e1c     pjlib-i386-win32-vc8-debug:os_core_win32.obj
 0004:00002e20       ?__LINE__Var@?1??pj_sem_post@@9@9 00521e20     pjlib-i386-win32-vc8-debug:os_core_win32.obj
 0004:00002e24       ?__LINE__Var@?1??pj_sem_destroy@@9@9 00521e24     pjlib-i386-win32-vc8-debug:os_core_win32.obj
 0004:00002e28       ?__LINE__Var@?1??pj_event_create@@9@9 00521e28     pjlib-i386-win32-vc8-debug:os_core_win32.obj
 0004:00002e2c       ?__LINE__Var@?1??pj_event_wait@@9@9 00521e2c     pjlib-i386-win32-vc8-debug:os_core_win32.obj
 0004:00002e30       ?__LINE__Var@?1??pj_event_wait_for@@9@9@b730e761 00521e30     pjlib-i386-win32-vc8-debug:os_core_win32.obj
 0004:00002e34       ?__LINE__Var@?1??pj_event_trywait@@9@9 00521e34     pjlib-i386-win32-vc8-debug:os_core_win32.obj
 0004:00002e38       ?__LINE__Var@?1??pj_event_set@@9@9 00521e38     pjlib-i386-win32-vc8-debug:os_core_win32.obj
 0004:00002e3c       ?__LINE__Var@?1??pj_event_pulse@@9@9 00521e3c     pjlib-i386-win32-vc8-debug:os_core_win32.obj
 0004:00002e40       ?__LINE__Var@?1??pj_event_reset@@9@9 00521e40     pjlib-i386-win32-vc8-debug:os_core_win32.obj
 0004:00002e44       ?__LINE__Var@?1??pj_event_destroy@@9@9 00521e44     pjlib-i386-win32-vc8-debug:os_core_win32.obj
 0004:00002e48       ?__LINE__Var@?1??pj_term_set_color@@9@9 00521e48     pjlib-i386-win32-vc8-debug:os_core_win32.obj
 0004:00002e4c       ?__LINE__Var@?1??pj_term_get_color@@9@9 00521e4c     pjlib-i386-win32-vc8-debug:os_core_win32.obj
 0004:00002e9c       ?__LINE__Var@?1??pj_caching_pool_init@@9@9 00521e9c     pjlib-i386-win32-vc8-debug:pool_caching.obj
 0004:00002ea0       ?__LINE__Var@?1??pj_caching_pool_destroy@@9@9 00521ea0     pjlib-i386-win32-vc8-debug:pool_caching.obj
 0004:00002ea4       ?__LINE__Var@?1??cpool_create_pool@@9@9@5b1f4ce0 00521ea4     pjlib-i386-win32-vc8-debug:pool_caching.obj
 0004:00002ea8       ?__LINE__Var@?1??cpool_release_pool@@9@9@5b1f4ce0 00521ea8     pjlib-i386-win32-vc8-debug:pool_caching.obj
 0004:00002eac       ?__LINE__Var@?1??pj_timer_heap_create@@9@9 00521eac     pjlib-i386-win32-vc8-debug:timer.obj
 0004:00002eb0       ?__LINE__Var@?1??pj_timer_entry_init@@9@9 00521eb0     pjlib-i386-win32-vc8-debug:timer.obj
 0004:00002eb4       ?__LINE__Var@?1??pj_timer_heap_schedule@@9@9 00521eb4     pjlib-i386-win32-vc8-debug:timer.obj
 0004:00002eb8       ?__LINE__Var@?1??pop_freelist@@9@9@d1033410 00521eb8     pjlib-i386-win32-vc8-debug:timer.obj
 0004:00002ebc       ?__LINE__Var@?1??copy_node@@9@9@d1033410 00521ebc     pjlib-i386-win32-vc8-debug:timer.obj
 0004:00002ec0       ?__LINE__Var@?1??pj_timer_heap_cancel@@9@9 00521ec0     pjlib-i386-win32-vc8-debug:timer.obj
 0004:00002ec4       ?__LINE__Var@?1??cancel@@9@9@d1033410 00521ec4     pjlib-i386-win32-vc8-debug:timer.obj
 0004:00002ec8       ?__LINE__Var@?1??push_freelist@@9@9@d1033410 00521ec8     pjlib-i386-win32-vc8-debug:timer.obj
 0004:00002ecc       ?__LINE__Var@?1??reheap_down@@9@9@d1033410 00521ecc     pjlib-i386-win32-vc8-debug:timer.obj
 0004:00002ed0       ?__LINE__Var@?1??pj_timer_heap_poll@@9@9 00521ed0     pjlib-i386-win32-vc8-debug:timer.obj
 0004:00002ed4       ?__LINE__Var@?1??pj_timer_heap_count@@9@9 00521ed4     pjlib-i386-win32-vc8-debug:timer.obj
 0004:00002ed8       ?__LINE__Var@?1??pj_timer_heap_earliest_time@@9@9 00521ed8     pjlib-i386-win32-vc8-debug:timer.obj
 0004:00002edc       ?__LINE__Var@?1??pj_ioqueue_set_lock@@9@9 00521edc     pjlib-i386-win32-vc8-debug:ioqueue_select.obj
 0004:00002ee0       ?__LINE__Var@?1??pj_ioqueue_get_user_data@@9@9 00521ee0     pjlib-i386-win32-vc8-debug:ioqueue_select.obj
 0004:00002ee4       ?__LINE__Var@?1??pj_ioqueue_set_user_data@@9@9 00521ee4     pjlib-i386-win32-vc8-debug:ioqueue_select.obj
 0004:00002ee8       ?__LINE__Var@?1??ioqueue_dispatch_write_event@@9@9 00521ee8     pjlib-i386-win32-vc8-debug:ioqueue_select.obj
 0004:00002eec       ?__LINE__Var@?1??ioqueue_dispatch_read_event@@9@9 00521eec     pjlib-i386-win32-vc8-debug:ioqueue_select.obj
 0004:00002ef0       ?__LINE__Var@?1??pj_ioqueue_recv@@9@9 00521ef0     pjlib-i386-win32-vc8-debug:ioqueue_select.obj
 0004:00002ef4       ?__LINE__Var@?1??pj_ioqueue_recvfrom@@9@9 00521ef4     pjlib-i386-win32-vc8-debug:ioqueue_select.obj
 0004:00002ef8       ?__LINE__Var@?1??pj_ioqueue_send@@9@9 00521ef8     pjlib-i386-win32-vc8-debug:ioqueue_select.obj
 0004:00002efc       ?__LINE__Var@?1??pj_ioqueue_sendto@@9@9 00521efc     pjlib-i386-win32-vc8-debug:ioqueue_select.obj
 0004:00002f00       ?__LINE__Var@?1??pj_ioqueue_accept@@9@9 00521f00     pjlib-i386-win32-vc8-debug:ioqueue_select.obj
 0004:00002f04       ?__LINE__Var@?1??pj_ioqueue_connect@@9@9 00521f04     pjlib-i386-win32-vc8-debug:ioqueue_select.obj
 0004:00002f08       ?__LINE__Var@?1??pj_ioqueue_set_default_concurrency@@9@9 00521f08     pjlib-i386-win32-vc8-debug:ioqueue_select.obj
 0004:00002f0c       ?__LINE__Var@?1??pj_ioqueue_set_concurrency@@9@9 00521f0c     pjlib-i386-win32-vc8-debug:ioqueue_select.obj
 0004:00002f10       ?__LINE__Var@?1??pj_ioqueue_create@@9@9 00521f10     pjlib-i386-win32-vc8-debug:ioqueue_select.obj
 0004:00002f14       ?__LINE__Var@?1??pj_ioqueue_destroy@@9@9 00521f14     pjlib-i386-win32-vc8-debug:ioqueue_select.obj
 0004:00002f18       ?__LINE__Var@?1??pj_ioqueue_register_sock@@9@9 00521f18     pjlib-i386-win32-vc8-debug:ioqueue_select.obj
 0004:00002f1c       ?__LINE__Var@?1??ioqueue_init_key@@9@9@8392aa3e 00521f1c     pjlib-i386-win32-vc8-debug:ioqueue_select.obj
 0004:00002f20       ?__LINE__Var@?1??pj_ioqueue_unregister@@9@9 00521f20     pjlib-i386-win32-vc8-debug:ioqueue_select.obj
 0004:00002f24       ?__LINE__Var@?1??decrement_counter@@9@9@8392aa3e 00521f24     pjlib-i386-win32-vc8-debug:ioqueue_select.obj
 0004:00002f28       ?__LINE__Var@?1??ioqueue_remove_from_set@@9@9@8392aa3e 00521f28     pjlib-i386-win32-vc8-debug:ioqueue_select.obj
 0004:00002f2c       ?__LINE__Var@?1??ioqueue_add_to_set@@9@9@8392aa3e 00521f2c     pjlib-i386-win32-vc8-debug:ioqueue_select.obj
 0004:00002f30       ?__LINE__Var@?1??scan_closing_keys@@9@9@8392aa3e 00521f30     pjlib-i386-win32-vc8-debug:ioqueue_select.obj
 0004:00002f34       ?__LINE__Var@?1??pj_ioqueue_poll@@9@9 00521f34     pjlib-i386-win32-vc8-debug:ioqueue_select.obj
 0004:00002fb4       ?__LINE__Var@?1??pj_log@@9@9 00521fb4     pjlib-i386-win32-vc8-debug:log.obj
 0004:00002fb8       ?__LINE__Var@?1??pj_register_strerror@@9@9 00521fb8     pjlib-i386-win32-vc8-debug:errno.obj
 0004:00002fbc       ?__LINE__Var@?1??pj_strerror@@9@9 00521fbc     pjlib-i386-win32-vc8-debug:errno.obj
 0004:00002fc0       ?__LINE__Var@?1??pj_inet_aton@@9@9 00521fc0     pjlib-i386-win32-vc8-debug:sock_bsd.obj
 0004:00002fc4       ?__LINE__Var@?1??pj_inet_pton@@9@9 00521fc4     pjlib-i386-win32-vc8-debug:sock_bsd.obj
 0004:00002fc8       ?__LINE__Var@?1??pj_inet_ntop@@9@9 00521fc8     pjlib-i386-win32-vc8-debug:sock_bsd.obj
 0004:00002fcc       ?__LINE__Var@?1??pj_gethostname@@9@9 00521fcc     pjlib-i386-win32-vc8-debug:sock_bsd.obj
 0004:00002fd0       ?__LINE__Var@?1??pj_sock_socket@@9@9 00521fd0     pjlib-i386-win32-vc8-debug:sock_bsd.obj
 0004:00002fd4       ?__LINE__Var@?1??pj_sock_bind@@9@9 00521fd4     pjlib-i386-win32-vc8-debug:sock_bsd.obj
 0004:00002fd8       ?__LINE__Var@?1??pj_sock_bind_in@@9@9 00521fd8     pjlib-i386-win32-vc8-debug:sock_bsd.obj
 0004:00002fdc       ?__LINE__Var@?1??pj_sock_close@@9@9 00521fdc     pjlib-i386-win32-vc8-debug:sock_bsd.obj
 0004:00002fe0       ?__LINE__Var@?1??pj_sock_getpeername@@9@9 00521fe0     pjlib-i386-win32-vc8-debug:sock_bsd.obj
 0004:00002fe4       ?__LINE__Var@?1??pj_sock_getsockname@@9@9 00521fe4     pjlib-i386-win32-vc8-debug:sock_bsd.obj
 0004:00002fe8       ?__LINE__Var@?1??pj_sock_send@@9@9 00521fe8     pjlib-i386-win32-vc8-debug:sock_bsd.obj
 0004:00002fec       ?__LINE__Var@?1??pj_sock_sendto@@9@9 00521fec     pjlib-i386-win32-vc8-debug:sock_bsd.obj
 0004:00002ff0       ?__LINE__Var@?1??pj_sock_recv@@9@9 00521ff0     pjlib-i386-win32-vc8-debug:sock_bsd.obj
 0004:00002ff4       ?__LINE__Var@?1??pj_sock_recvfrom@@9@9 00521ff4     pjlib-i386-win32-vc8-debug:sock_bsd.obj
 0004:00002ff8       ?__LINE__Var@?1??pj_sock_getsockopt@@9@9 00521ff8     pjlib-i386-win32-vc8-debug:sock_bsd.obj
 0004:00002ffc       ?__LINE__Var@?1??pj_sock_setsockopt@@9@9 00521ffc     pjlib-i386-win32-vc8-debug:sock_bsd.obj
 0004:00003000       ?__LINE__Var@?1??pj_sock_connect@@9@9 00522000     pjlib-i386-win32-vc8-debug:sock_bsd.obj
 0004:00003004       ?__LINE__Var@?1??pj_sock_shutdown@@9@9 00522004     pjlib-i386-win32-vc8-debug:sock_bsd.obj
 0004:00003008       ?__LINE__Var@?1??pj_sock_listen@@9@9 00522008     pjlib-i386-win32-vc8-debug:sock_bsd.obj
 0004:0000300c       ?__LINE__Var@?1??pj_sock_accept@@9@9 0052200c     pjlib-i386-win32-vc8-debug:sock_bsd.obj
 0004:00003010       ?__LINE__Var@?1??pj_pool_allocate_find@@9@9 00522010     pjlib-i386-win32-vc8-debug:pool.obj
 0004:00003014       ?__LINE__Var@?1??pj_pool_create_block@@9@9@17398a00 00522014     pjlib-i386-win32-vc8-debug:pool.obj
 0004:00003018       ?__LINE__Var@?1??pj_pool_init_int@@9@9 00522018     pjlib-i386-win32-vc8-debug:pool.obj
 0004:0000301c       ?__LINE__Var@?1??pj_pool_create_int@@9@9 0052201c     pjlib-i386-win32-vc8-debug:pool.obj
 0004:00003020       ?__LINE__Var@?1??reset_pool@@9@9@17398a00 00522020     pjlib-i386-win32-vc8-debug:pool.obj
 0004:00003024       ?__LINE__Var@?1??platform_strerror@@9@9 00522024     pjlib-i386-win32-vc8-debug:os_error_win32.obj
 0004:00003028       ?__LINE__Var@?1??pj_log_write@@9@9 00522028     pjlib-i386-win32-vc8-debug:log_writer_stdout.obj
 0004:0000302c       ?__LINE__Var@?1??pj_sockaddr_in_set_str_addr@@9@9 0052202c     pjlib-i386-win32-vc8-debug:sock_common.obj
 0004:00003030       ?__LINE__Var@?1??pj_sockaddr_set_str_addr@@9@9 00522030     pjlib-i386-win32-vc8-debug:sock_common.obj
 0004:00003034       ?__LINE__Var@?1??pj_sockaddr_in_init@@9@9 00522034     pjlib-i386-win32-vc8-debug:sock_common.obj
 0004:00003038       ?__LINE__Var@?1??pj_sockaddr_init@@9@9 00522038     pjlib-i386-win32-vc8-debug:sock_common.obj
 0004:0000303c       ?__LINE__Var@?1??pj_sockaddr_get_addr@@9@9 0052203c     pjlib-i386-win32-vc8-debug:sock_common.obj
 0004:00003040       ?__LINE__Var@?1??pj_sockaddr_get_port@@9@9 00522040     pjlib-i386-win32-vc8-debug:sock_common.obj
 0004:00003044       ?__LINE__Var@?1??pj_sockaddr_get_addr_len@@9@9 00522044     pjlib-i386-win32-vc8-debug:sock_common.obj
 0004:00003048       ?__LINE__Var@?1??pj_sockaddr_get_len@@9@9 00522048     pjlib-i386-win32-vc8-debug:sock_common.obj
 0004:0000304c       ?__LINE__Var@?1??pj_sockaddr_set_port@@9@9 0052204c     pjlib-i386-win32-vc8-debug:sock_common.obj
 0004:00003050       ?__LINE__Var@?1??pj_sockaddr_parse2@@9@9 00522050     pjlib-i386-win32-vc8-debug:sock_common.obj
 0004:00003054       ?__LINE__Var@?1??pj_sockaddr_parse@@9@9 00522054     pjlib-i386-win32-vc8-debug:sock_common.obj
 0004:00003058       ?__LINE__Var@?1??pj_gethostip@@9@9 00522058     pjlib-i386-win32-vc8-debug:sock_common.obj
 0004:00003060       _PJ_VERSION                00522060     pjlib-i386-win32-vc8-debug:config.obj
 0004:000030b0       ?__LINE__Var@?1??create_mutex_lock@@9@9@2cb4e1dd 005220b0     pjlib-i386-win32-vc8-debug:lock.obj
 0004:000030b4       ?__LINE__Var@?1??pj_lock_create_null_mutex@@9@9 005220b4     pjlib-i386-win32-vc8-debug:lock.obj
 0004:000030b8       ?__LINE__Var@?1??pj_lock_create_semaphore@@9@9 005220b8     pjlib-i386-win32-vc8-debug:lock.obj
 0004:000030bc       ?__LINE__Var@?1??pj_lock_acquire@@9@9 005220bc     pjlib-i386-win32-vc8-debug:lock.obj
 0004:000030c0       ?__LINE__Var@?1??pj_lock_tryacquire@@9@9 005220c0     pjlib-i386-win32-vc8-debug:lock.obj
 0004:000030c4       ?__LINE__Var@?1??pj_lock_release@@9@9 005220c4     pjlib-i386-win32-vc8-debug:lock.obj
 0004:000030c8       ?__LINE__Var@?1??pj_lock_destroy@@9@9 005220c8     pjlib-i386-win32-vc8-debug:lock.obj
 0004:000030cc       ?__LINE__Var@?1??pj_time_val_normalize@@9@9 005220cc     pjlib-i386-win32-vc8-debug:types.obj
 0004:000030d0       ?__LINE__Var@?1??pj_array_erase@@9@9 005220d0     pjlib-i386-win32-vc8-debug:array.obj
 0004:000030d4       ?__LINE__Var@?1??pj_hash_calc@@9@9 005220d4     pjlib-i386-win32-vc8-debug:hash.obj
 0004:000030d8       ?__LINE__Var@?1??find_entry@@9@9@5a4af46c 005220d8     pjlib-i386-win32-vc8-debug:hash.obj
 0004:000030dc       ?__LINE__Var@?1??pj_hash_this@@9@9 005220dc     pjlib-i386-win32-vc8-debug:hash.obj
 0004:000030e0       ?__LINE__Var@?1??pj_srand@@9@9 005220e0     pjlib-i386-win32-vc8-debug:rand.obj
 0004:000030e4       ?__LINE__Var@?1??pj_rand@@9@9 005220e4     pjlib-i386-win32-vc8-debug:rand.obj
 0004:000030e8       ?__LINE__Var@?1??pj_activesock_create@@9@9 005220e8     pjlib-i386-win32-vc8-debug:activesock.obj
 0004:000030ec       ?__LINE__Var@?1??pj_activesock_close@@9@9 005220ec     pjlib-i386-win32-vc8-debug:activesock.obj
 0004:000030f0       ?__LINE__Var@?1??pj_activesock_set_user_data@@9@9 005220f0     pjlib-i386-win32-vc8-debug:activesock.obj
 0004:000030f4       ?__LINE__Var@?1??pj_activesock_get_user_data@@9@9 005220f4     pjlib-i386-win32-vc8-debug:activesock.obj
 0004:000030f8       ?__LINE__Var@?1??pj_activesock_start_read@@9@9 005220f8     pjlib-i386-win32-vc8-debug:activesock.obj
 0004:000030fc       ?__LINE__Var@?1??pj_activesock_start_read2@@9@9 005220fc     pjlib-i386-win32-vc8-debug:activesock.obj
 0004:00003100       ?__LINE__Var@?1??pj_activesock_start_recvfrom@@9@9 00522100     pjlib-i386-win32-vc8-debug:activesock.obj
 0004:00003104       ?__LINE__Var@?1??pj_activesock_start_recvfrom2@@9@9 00522104     pjlib-i386-win32-vc8-debug:activesock.obj
 0004:00003108       ?__LINE__Var@?1??pj_activesock_send@@9@9 00522108     pjlib-i386-win32-vc8-debug:activesock.obj
 0004:0000310c       ?__LINE__Var@?1??pj_activesock_sendto@@9@9 0052210c     pjlib-i386-win32-vc8-debug:activesock.obj
 0004:00003110       ?__LINE__Var@?1??pj_activesock_start_accept@@9@9 00522110     pjlib-i386-win32-vc8-debug:activesock.obj
 0004:00003114       ?__LINE__Var@?1??pj_qos_get_params@@9@9 00522114     pjlib-i386-win32-vc8-debug:sock_qos_common.obj
 0004:00003118       ?__LINE__Var@?1??pj_qos_get_type@@9@9 00522118     pjlib-i386-win32-vc8-debug:sock_qos_common.obj
 0004:0000311c       ?__LINE__Var@?1??pj_gethostbyname@@9@9 0052211c     pjlib-i386-win32-vc8-debug:addr_resolv_sock.obj
 0004:00003120       ?__LINE__Var@?1??pj_getaddrinfo@@9@9 00522120     pjlib-i386-win32-vc8-debug:addr_resolv_sock.obj
 0004:00003124       ?__LINE__Var@?1??pj_enum_ip_interface@@9@9 00522124     pjlib-i386-win32-vc8-debug:ip_helper_win32.obj
 0004:00003128       ?__LINE__Var@?1??enum_ipv4_interface@@9@9@477ebd5e 00522128     pjlib-i386-win32-vc8-debug:ip_helper_win32.obj
 0004:0000312c       ?__LINE__Var@?1??pj_enum_ip_route@@9@9 0052212c     pjlib-i386-win32-vc8-debug:ip_helper_win32.obj
 0004:00003134       ?__LINE__Var@?1??pj_throw_exception_@@9@9 00522134     pjlib-i386-win32-vc8-debug:except.obj
 0004:00003138       ?__LINE__Var@?1??pj_push_exception_handler_@@9@9 00522138     pjlib-i386-win32-vc8-debug:except.obj
 0004:0000313c       ?__LINE__Var@?1??pj_exception_id_free@@9@9 0052213c     pjlib-i386-win32-vc8-debug:except.obj
 0004:00003140       ?__LINE__Var@?1??pj_exception_id_name@@9@9 00522140     pjlib-i386-win32-vc8-debug:except.obj
 0004:00003148       ?__LINE__Var@?1??pj_pool_create_on_buf@@9@9 00522148     pjlib-i386-win32-vc8-debug:pool_buf.obj
 0004:0000314c       ?__LINE__Var@?1??stack_alloc@@9@9@53ecbf0d 0052214c     pjlib-i386-win32-vc8-debug:pool_buf.obj
 0004:00003164       ?__LINE__Var@?1??pj_generate_unique_string@@9@9 00522164     pjlib-i386-win32-vc8-debug:guid_win32.obj
 0004:00003168       _pj_pool_factory_default_policy 00522168     pjlib-i386-win32-vc8-debug:pool_policy_malloc.obj
 0004:0000317c       ?__LINE__Var@?1??default_block_alloc@@9@9@96a09bc9 0052217c     pjlib-i386-win32-vc8-debug:pool_policy_malloc.obj
 0004:00003180       ?__LINE__Var@?1??default_block_free@@9@9@96a09bc9 00522180     pjlib-i386-win32-vc8-debug:pool_policy_malloc.obj
 0004:00003184       ?__LINE__Var@?1??default_pool_callback@@9@9@96a09bc9 00522184     pjlib-i386-win32-vc8-debug:pool_policy_malloc.obj
 0004:00003188       ?__LINE__Var@?1??PJ_FD_ZERO@@9@9 00522188     pjlib-i386-win32-vc8-debug:sock_select.obj
 0004:0000318c       ?__LINE__Var@?1??PJ_FD_SET@@9@9 0052218c     pjlib-i386-win32-vc8-debug:sock_select.obj
 0004:00003190       ?__LINE__Var@?1??PJ_FD_CLR@@9@9 00522190     pjlib-i386-win32-vc8-debug:sock_select.obj
 0004:00003194       ?__LINE__Var@?1??PJ_FD_ISSET@@9@9 00522194     pjlib-i386-win32-vc8-debug:sock_select.obj
 0004:00003198       ?__LINE__Var@?1??pj_sock_select@@9@9 00522198     pjlib-i386-win32-vc8-debug:sock_select.obj
 0004:0000319c       __aexit_rtn                0052219c     LIBCMTD:crt0dat.obj
 0004:000031a0       ___security_cookie         005221a0     LIBCMTD:gs_cookie.obj
 0004:000031a4       ___security_cookie_complement 005221a4     LIBCMTD:gs_cookie.obj
 0004:00003220       __iob                      00522220     LIBCMTD:_file.obj
 0004:00003520       ___app_type                00522520     LIBCMTD:crt0.obj
 0004:00003530       __crtDbgFlag               00522530     LIBCMTD:dbgheap.obj
 0004:00003534       ___crtDebugFillThreshold   00522534     LIBCMTD:dbgheap.obj
 0004:0000353c       __crtBreakAlloc            0052253c     LIBCMTD:dbgheap.obj
 0004:00003548       ___nullstring              00522548     LIBCMTD:output.obj
 0004:0000354c       ___wnullstring             0052254c     LIBCMTD:output.obj
 0004:00003728       ___badioinfo               00522728     LIBCMTD:ioinit.obj
 0004:0000376c       __cfltcvt_tab              0052276c     LIBCMTD:cmiscdat.obj
 0004:0000379c       ___flsindex                0052279c     LIBCMTD:tidtable.obj
 0004:000037a0       ___getvalueindex           005227a0     LIBCMTD:tidtable.obj
 0004:00003888       ___initialmbcinfo          00522888     LIBCMTD:mbctype.obj
 0004:00003aa8       __mbctype                  00522aa8     LIBCMTD:mbctype.obj
 0004:00003bb0       __mbcasemap                00522bb0     LIBCMTD:mbctype.obj
 0004:00003cb0       ___ptmbcinfo               00522cb0     LIBCMTD:mbctype.obj
 0004:00004010       __XcptActTab               00523010     LIBCMTD:winxfltr.obj
 0004:00004088       __First_FPE_Indx           00523088     LIBCMTD:winxfltr.obj
 0004:0000408c       __Num_FPE                  0052308c     LIBCMTD:winxfltr.obj
 0004:00004090       __XcptActTabSize           00523090     LIBCMTD:winxfltr.obj
 0004:00004094       __XcptActTabCount          00523094     LIBCMTD:winxfltr.obj
 0004:000040b4       ___abort_behavior          005230b4     LIBCMTD:abort.obj
 0004:000040fc       ___globallocalestatus      005230fc     LIBCMTD:glstatus.obj
 0004:00004100       ___clocalestr              00523100     LIBCMTD:nlsdata2.obj
 0004:00004108       ___initiallocinfo          00523108     LIBCMTD:nlsdata2.obj
 0004:000041e0       ___ptlocinfo               005231e0     LIBCMTD:nlsdata2.obj
 0004:000041e4       ___lc_clike                005231e4     LIBCMTD:nlsdata2.obj
 0004:000041e8       ___initiallocalestructinfo 005231e8     LIBCMTD:nlsdata2.obj
 0004:00004220       __amblksiz                 00523220     LIBCMTD:heapinit.obj
 0004:00004224       __NLG_Destination          00523224     LIBCMTD:exsup.obj
 0004:00004254       __pfnAllocHook             00523254     LIBCMTD:dbghook.obj
 0004:00004260       __crtAssertBusy            00523260     LIBCMTD:dbgrptt.obj
 0004:00004264       __CrtDbgMode               00523264     LIBCMTD:dbgrptt.obj
 0004:00004270       __CrtDbgFile               00523270     LIBCMTD:dbgrptt.obj
 0004:00004288       __lookuptrailbytes         00523288     LIBCMTD:read.obj
 0004:000043bc       __pctype                   005233bc     LIBCMTD:ctype.obj
 0004:000043c0       __pwctype                  005233c0     LIBCMTD:ctype.obj
 0004:000043c8       ___lc_time_c               005233c8     LIBCMTD:strftime.obj
 0004:000044a4       ___lc_time_curr            005234a4     LIBCMTD:strftime.obj
 0004:000044a8       ___lconv_static_decimal    005234a8     LIBCMTD:lconv.obj
 0004:000044ac       ___lconv_c                 005234ac     LIBCMTD:lconv.obj
 0004:000044dc       ___lconv                   005234dc     LIBCMTD:lconv.obj
 0004:000044ec       ___mb_cur_max              005234ec     LIBCMTD:nlsdata1.obj
 0004:000044f0       ___decimal_point           005234f0     LIBCMTD:nlsdata1.obj
 0004:000044f4       ___decimal_point_length    005234f4     LIBCMTD:nlsdata1.obj
 0004:00004500       ?_RTC_ErrorLevels@@3PAHA   00523500     LIBCMTD:error.obj
 0004:00004538       ??_R0?AVbad_exception@std@@@8 00523538     LIBCMTD:frame.obj
 0004:00004560       ??_R0?AVexception@std@@@8  00523560     LIBCMTD:frame.obj
 0004:00004590       __coninpfh                 00523590     LIBCMTD:initcon.obj
 0004:00004594       __confh                    00523594     LIBCMTD:initcon.obj
 0004:000045a0       __timezone                 005235a0     LIBCMTD:timeset.obj
 0004:000045a4       __daylight                 005235a4     LIBCMTD:timeset.obj
 0004:000045a8       __dstbias                  005235a8     LIBCMTD:timeset.obj
 0004:00004630       __tzname                   00523630     LIBCMTD:timeset.obj
 0004:0000467c       ??_R0?AVtype_info@@@8      0052367c     LIBCMTD:typinfo.obj
 0004:0000469c       ??_R0?AVbad_cast@std@@@8   0052369c     LIBCMTD:stdexcpt.obj
 0004:000046bc       ??_R0?AVbad_typeid@std@@@8 005236bc     LIBCMTD:stdexcpt.obj
 0004:000046e0       ??_R0?AV__non_rtti_object@std@@@8 005236e0     LIBCMTD:stdexcpt.obj
 0004:0000470c       __lpdays                   0052370c     LIBCMTD:days.obj
 0004:00004740       __days                     00523740     LIBCMTD:days.obj
 0004:0000478c       ??_R0?AVDNameNode@@@8      0052378c     LIBCMTD:undname.obj
 0004:000047a8       ??_R0?AVcharNode@@@8       005237a8     LIBCMTD:undname.obj
 0004:000047c4       ??_R0?AVpcharNode@@@8      005237c4     LIBCMTD:undname.obj
 0004:000047e0       ??_R0?AVpDNameNode@@@8     005237e0     LIBCMTD:undname.obj
 0004:00004800       ??_R0?AVDNameStatusNode@@@8 00523800     LIBCMTD:undname.obj
 0004:00005874       _pj_optarg                 00524874     pjlib-util-i386-win32-vc8-debug:getopt.obj
 0004:00005878       ___getopt_initialized      00524878     pjlib-util-i386-win32-vc8-debug:getopt.obj
 0004:00005c7c       __umaskval                 00524c7c     LIBCMTD:crt0dat.obj
 0004:00005c80       __osplatform               00524c80     LIBCMTD:crt0dat.obj
 0004:00005c84       __osver                    00524c84     LIBCMTD:crt0dat.obj
 0004:00005c88       __winver                   00524c88     LIBCMTD:crt0dat.obj
 0004:00005c8c       __winmajor                 00524c8c     LIBCMTD:crt0dat.obj
 0004:00005c90       __winminor                 00524c90     LIBCMTD:crt0dat.obj
 0004:00005c94       ___argc                    00524c94     LIBCMTD:crt0dat.obj
 0004:00005c98       ___argv                    00524c98     LIBCMTD:crt0dat.obj
 0004:00005c9c       ___wargv                   00524c9c     LIBCMTD:crt0dat.obj
 0004:00005ca0       __environ                  00524ca0     LIBCMTD:crt0dat.obj
 0004:00005ca4       ___initenv                 00524ca4     LIBCMTD:crt0dat.obj
 0004:00005ca8       __wenviron                 00524ca8     LIBCMTD:crt0dat.obj
 0004:00005cac       ___winitenv                00524cac     LIBCMTD:crt0dat.obj
 0004:00005cb0       __pgmptr                   00524cb0     LIBCMTD:crt0dat.obj
 0004:00005cb4       __wpgmptr                  00524cb4     LIBCMTD:crt0dat.obj
 0004:00005cb8       __exitflag                 00524cb8     LIBCMTD:crt0dat.obj
 0004:00005cbc       __C_Termination_Done       00524cbc     LIBCMTD:crt0dat.obj
 0004:00005cc0       __C_Exit_Done              00524cc0     LIBCMTD:crt0dat.obj
 0004:00005cd8       __cflush                   00524cd8     LIBCMTD:_file.obj
 0004:00005cdc       __aenvptr                  00524cdc     LIBCMTD:crt0.obj
 0004:00005ce0       __wenvptr                  00524ce0     LIBCMTD:crt0.obj
 0004:00005ce4       ___error_mode              00524ce4     LIBCMTD:crt0.obj
 0004:00005d00       ?_pfnDumpClient@@3P6AXPAXI@ZA 00524d00     LIBCMTD:dbgheap.obj
 0004:00005d08       ___crtDebugCheckCount      00524d08     LIBCMTD:dbgheap.obj
 0004:00005d18       __stdbuf                   00524d18     LIBCMTD:_sftbuf.obj
 0004:00005d24       ___pInvalidArgHandler      00524d24     LIBCMTD:invarg.obj
 0004:00005d28       _gpFlsAlloc                00524d28     LIBCMTD:tidtable.obj
 0004:00005d2c       _gpFlsGetValue             00524d2c     LIBCMTD:tidtable.obj
 0004:00005d30       _gpFlsSetValue             00524d30     LIBCMTD:tidtable.obj
 0004:00005d34       _gpFlsFree                 00524d34     LIBCMTD:tidtable.obj
 0004:000060f8       ___mbulinfo                005250f8     LIBCMTD:mbctype.obj
 0004:00006104       ___mbcodepage              00525104     LIBCMTD:mbctype.obj
 0004:00006108       ___ismbcodepage            00525108     LIBCMTD:mbctype.obj
 0004:0000610c       ___mblcid                  0052510c     LIBCMTD:mbctype.obj
 0004:000062c8       ?__pInconsistency@@3P6AXXZA 005252c8     LIBCMTD:hooks.obj
 0004:000062f0       ___pPurecall               005252f0     LIBCMTD:inithelp.obj
 0004:000062fc       ?_pnhHeap@@3P6AHI@ZA       005252fc     LIBCMTD:handler.obj
 0004:000066e0       ___locale_changed          005256e0     LIBCMTD:setlocal.obj
 0004:000066e4       ___lc_handle               005256e4     LIBCMTD:nlsdata2.obj
 0004:000066fc       ___lc_codepage             005256fc     LIBCMTD:nlsdata2.obj
 0004:00006700       ___lc_collate_cp           00525700     LIBCMTD:nlsdata2.obj
 0004:00006850       __crtheap                  00525850     LIBCMTD:heapinit.obj
 0004:00006854       __newmode                  00525854     LIBCMTD:_newmode.obj
 0004:00006858       ___sbh_pHeaderDefer        00525858     LIBCMTD:sbheap.obj
 0004:00006880       __commode                  00525880     LIBCMTD:ncommode.obj
 0004:00006884       ___lconv_static_null       00525884     LIBCMTD:lconv.obj
 0004:00006888       ?wsprintffp@@3P6AHPADPBDZZA 00525888     LIBCMTD:error.obj
 0004:00006984       __fmode                    00525984     LIBCMTD:txtmode.obj
 0004:000069a8       ?pArgList@UnDecorator@@0PAVReplicator@@A 005259a8     LIBCMTD:undname.obj
 0004:000069ac       ?pZNameList@UnDecorator@@0PAVReplicator@@A 005259ac     LIBCMTD:undname.obj
 0004:000069b0       ?pTemplateArgList@UnDecorator@@0PAVReplicator@@A 005259b0     LIBCMTD:undname.obj
 0004:000069b4       ?gName@UnDecorator@@0PBDB  005259b4     LIBCMTD:undname.obj
 0004:000069b8       ?name@UnDecorator@@0PBDB   005259b8     LIBCMTD:undname.obj
 0004:000069bc       ?outputString@UnDecorator@@0PADA 005259bc     LIBCMTD:undname.obj
 0004:000069c0       ?maxStringLength@UnDecorator@@0HA 005259c0     LIBCMTD:undname.obj
 0004:000069c4       ?disableFlags@UnDecorator@@0KA 005259c4     LIBCMTD:undname.obj
 0004:000069c8       ?m_pGetParameter@UnDecorator@@0P6APADJ@ZA 005259c8     LIBCMTD:undname.obj
 0004:000069cc       ?fExplicitTemplateParams@UnDecorator@@0_NA 005259cc     LIBCMTD:undname.obj
 0004:000069cd       ?fGetTemplateArgumentList@UnDecorator@@0_NA 005259cd     LIBCMTD:undname.obj
 0004:00006a60       _stack_based_factory       00525a60     <common>
 0004:00006a94       _PJ_NO_MEMORY_EXCEPTION    00525a94     <common>
 0004:00006aa0       __pfnReportHook            00525aa0     <common>
 0004:00006ab0       __pReportHookListW         00525ab0     <common>
 0004:00006ab4       __pReportHookList          00525ab4     <common>
 0004:00006ab8       ___sbh_initialized         00525ab8     <common>
 0004:00006acc       ___sbh_cntHeaderList       00525acc     <common>
 0004:00006ad0       ___sbh_pHeaderList         00525ad0     <common>
 0004:00006ad4       ___sbh_threshold           00525ad4     <common>
 0004:00006ad8       ___sbh_pHeaderScan         00525ad8     <common>
 0004:00006adc       ___sbh_sizeHeaderList      00525adc     <common>
 0004:00006ae0       ___sbh_indGroupDefer       00525ae0     <common>
 0004:00006ae4       __debugger_hook_dummy      00525ae4     <common>
 0004:00006af0       ___active_heap             00525af0     <common>
 0004:00006afc       ___setlc_active            00525afc     <common>
 0004:00006b0c       ___unguarded_readlc_active 00525b0c     <common>
 0004:00006b10       ___use_sse2_mathfcns       00525b10     <common>
 0004:00006b20       ___sse2_available          00525b20     <common>
 0004:00006b24       __nhandle                  00525b24     <common>
 0004:00006b80       ___pioinfo                 00525b80     <common>
 0004:00006c80       __setjmpexused             00525c80     <common>
 0004:00006c8c       __acmdln                   00525c8c     <common>
 0004:00006c98       ___piob                    00525c98     <common>
 0004:00006fe0       __bufin                    00525fe0     <common>
 0004:00007fe0       __nstream                  00526fe0     <common>
 0004:00007fe4       ___env_initialized         00526fe4     <common>
 0004:00007ff4       ___onexitend               00526ff4     <common>
 0004:00007ff8       ___onexitbegin             00526ff8     <common>
 0004:00007ffc       ___mbctype_initialized     00526ffc     <common>
 0004:00008000       __FPinit                   00527000     <common>
 0004:00008004       ___dyn_tls_init_callback   00527004     <common>
 0005:00000000       __IMPORT_DESCRIPTOR_ole32  00528000     ole32:ole32.dll
 0005:00000014       __IMPORT_DESCRIPTOR_WS2_32 00528014     ws2_32:WS2_32.dll
 0005:00000028       __IMPORT_DESCRIPTOR_KERNEL32 00528028     kernel32:KERNEL32.dll
 0005:0000003c       __NULL_IMPORT_DESCRIPTOR   0052803c     ole32:ole32.dll
 0005:0000039c       __imp__QueryPerformanceCounter@4 0052839c     kernel32:KERNEL32.dll
 0005:000003a0       __imp__SetEnvironmentVariableA@8 005283a0     kernel32:KERNEL32.dll
 0005:000003a4       __imp__CompareStringW@24   005283a4     kernel32:KERNEL32.dll
 0005:000003a8       __imp__CompareStringA@24   005283a8     kernel32:KERNEL32.dll
 0005:000003ac       __imp__VirtualQuery@12     005283ac     kernel32:KERNEL32.dll
 0005:000003b0       __imp__GetTimeZoneInformation@4 005283b0     kernel32:KERNEL32.dll
 0005:000003b4       __imp__SetEndOfFile@4      005283b4     kernel32:KERNEL32.dll
 0005:000003b8       __imp__lstrlenA@4          005283b8     kernel32:KERNEL32.dll
 0005:000003bc       __imp__RaiseException@16   005283bc     kernel32:KERNEL32.dll
 0005:000003c0       __imp__GetUserDefaultLCID@0 005283c0     kernel32:KERNEL32.dll
 0005:000003c4       __imp__EnumSystemLocalesA@8 005283c4     kernel32:KERNEL32.dll
 0005:000003c8       __imp__IsValidLocale@8     005283c8     kernel32:KERNEL32.dll
 0005:000003cc       __imp__GetDateFormatA@24   005283cc     kernel32:KERNEL32.dll
 0005:000003d0       __imp__GetTimeFormatA@24   005283d0     kernel32:KERNEL32.dll
 0005:000003d4       __imp__ReadFile@20         005283d4     kernel32:KERNEL32.dll
 0005:000003d8       __imp__GetConsoleOutputCP@0 005283d8     kernel32:KERNEL32.dll
 0005:000003dc       __imp__WriteConsoleA@20    005283dc     kernel32:KERNEL32.dll
 0005:000003e0       __imp__CreateFileA@28      005283e0     kernel32:KERNEL32.dll
 0005:000003e4       __imp__SetStdHandle@8      005283e4     kernel32:KERNEL32.dll
 0005:000003e8       __imp__GetLocaleInfoW@16   005283e8     kernel32:KERNEL32.dll
 0005:000003ec       __imp__GetLocaleInfoA@16   005283ec     kernel32:KERNEL32.dll
 0005:000003f0       __imp__GetStringTypeW@16   005283f0     kernel32:KERNEL32.dll
 0005:000003f4       __imp__GetStringTypeA@20   005283f4     kernel32:KERNEL32.dll
 0005:000003f8       __imp__SetFilePointer@16   005283f8     kernel32:KERNEL32.dll
 0005:000003fc       __imp__OutputDebugStringW@4 005283fc     kernel32:KERNEL32.dll
 0005:00000400       __imp__OutputDebugStringA@4 00528400     kernel32:KERNEL32.dll
 0005:00000404       __imp__DebugBreak@0        00528404     kernel32:KERNEL32.dll
 0005:00000408       __imp__VirtualAlloc@16     00528408     kernel32:KERNEL32.dll
 0005:0000040c       __imp__HeapReAlloc@16      0052840c     kernel32:KERNEL32.dll
 0005:00000410       __imp__VirtualFree@12      00528410     kernel32:KERNEL32.dll
 0005:00000414       __imp__HeapCreate@12       00528414     kernel32:KERNEL32.dll
 0005:00000418       __imp__HeapDestroy@4       00528418     kernel32:KERNEL32.dll
 0005:0000041c       __imp__GetEnvironmentStringsW@0 0052841c     kernel32:KERNEL32.dll
 0005:00000420       __imp__FreeEnvironmentStringsW@4 00528420     kernel32:KERNEL32.dll
 0005:00000424       __imp__GetEnvironmentStrings@0 00528424     kernel32:KERNEL32.dll
 0005:00000428       __imp__GetCurrentProcessId@0 00528428     kernel32:KERNEL32.dll
 0005:0000042c       __imp__GetThreadPriority@4 0052842c     kernel32:KERNEL32.dll
 0005:00000430       __imp__GetLastError@0      00528430     kernel32:KERNEL32.dll
 0005:00000434       __imp__SetThreadPriority@8 00528434     kernel32:KERNEL32.dll
 0005:00000438       __imp__GetCurrentThreadId@0 00528438     kernel32:KERNEL32.dll
 0005:0000043c       __imp__GetCurrentThread@0  0052843c     kernel32:KERNEL32.dll
 0005:00000440       __imp__CreateThread@24     00528440     kernel32:KERNEL32.dll
 0005:00000444       __imp__ResumeThread@4      00528444     kernel32:KERNEL32.dll
 0005:00000448       __imp__WaitForSingleObject@8 00528448     kernel32:KERNEL32.dll
 0005:0000044c       __imp__CloseHandle@4       0052844c     kernel32:KERNEL32.dll
 0005:00000450       __imp__Sleep@4             00528450     kernel32:KERNEL32.dll
 0005:00000454       __imp__InterlockedExchange@8 00528454     kernel32:KERNEL32.dll
 0005:00000458       __imp__InterlockedIncrement@4 00528458     kernel32:KERNEL32.dll
 0005:0000045c       __imp__InterlockedDecrement@4 0052845c     kernel32:KERNEL32.dll
 0005:00000460       __imp__InterlockedExchangeAdd@8 00528460     kernel32:KERNEL32.dll
 0005:00000464       __imp__TlsAlloc@0          00528464     kernel32:KERNEL32.dll
 0005:00000468       __imp__TlsFree@4           00528468     kernel32:KERNEL32.dll
 0005:0000046c       __imp__TlsSetValue@8       0052846c     kernel32:KERNEL32.dll
 0005:00000470       __imp__TlsGetValue@4       00528470     kernel32:KERNEL32.dll
 0005:00000474       __imp__InitializeCriticalSection@4 00528474     kernel32:KERNEL32.dll
 0005:00000478       __imp__EnterCriticalSection@4 00528478     kernel32:KERNEL32.dll
 0005:0000047c       __imp__LeaveCriticalSection@4 0052847c     kernel32:KERNEL32.dll
 0005:00000480       __imp__TryEnterCriticalSection@4 00528480     kernel32:KERNEL32.dll
 0005:00000484       __imp__DeleteCriticalSection@4 00528484     kernel32:KERNEL32.dll
 0005:00000488       __imp__CreateSemaphoreA@16 00528488     kernel32:KERNEL32.dll
 0005:0000048c       __imp__ReleaseSemaphore@12 0052848c     kernel32:KERNEL32.dll
 0005:00000490       __imp__CreateEventA@16     00528490     kernel32:KERNEL32.dll
 0005:00000494       __imp__SetEvent@4          00528494     kernel32:KERNEL32.dll
 0005:00000498       __imp__PulseEvent@4        00528498     kernel32:KERNEL32.dll
 0005:0000049c       __imp__ResetEvent@4        0052849c     kernel32:KERNEL32.dll
 0005:000004a0       __imp__SetConsoleTextAttribute@8 005284a0     kernel32:KERNEL32.dll
 0005:000004a4       __imp__GetStdHandle@4      005284a4     kernel32:KERNEL32.dll
 0005:000004a8       __imp__GetConsoleScreenBufferInfo@8 005284a8     kernel32:KERNEL32.dll
 0005:000004ac       __imp__SetLastError@4      005284ac     kernel32:KERNEL32.dll
 0005:000004b0       __imp__FormatMessageA@28   005284b0     kernel32:KERNEL32.dll
 0005:000004b4       __imp__SystemTimeToFileTime@8 005284b4     kernel32:KERNEL32.dll
 0005:000004b8       __imp__GetLocalTime@4      005284b8     kernel32:KERNEL32.dll
 0005:000004bc       __imp__FileTimeToSystemTime@8 005284bc     kernel32:KERNEL32.dll
 0005:000004c0       __imp__GetProcAddress@8    005284c0     kernel32:KERNEL32.dll
 0005:000004c4       __imp__LoadLibraryA@4      005284c4     kernel32:KERNEL32.dll
 0005:000004c8       __imp__FreeLibrary@4       005284c8     kernel32:KERNEL32.dll
 0005:000004cc       __imp__QueryPerformanceFrequency@4 005284cc     kernel32:KERNEL32.dll
 0005:000004d0       __imp__GetModuleHandleA@4  005284d0     kernel32:KERNEL32.dll
 0005:000004d4       __imp__ExitProcess@4       005284d4     kernel32:KERNEL32.dll
 0005:000004d8       __imp__GetModuleFileNameW@12 005284d8     kernel32:KERNEL32.dll
 0005:000004dc       __imp__WriteConsoleW@20    005284dc     kernel32:KERNEL32.dll
 0005:000004e0       __imp__GetFileType@4       005284e0     kernel32:KERNEL32.dll
 0005:000004e4       __imp__GetCommandLineA@0   005284e4     kernel32:KERNEL32.dll
 0005:000004e8       __imp__HeapFree@12         005284e8     kernel32:KERNEL32.dll
 0005:000004ec       __imp__GetVersionExA@4     005284ec     kernel32:KERNEL32.dll
 0005:000004f0       __imp__HeapAlloc@12        005284f0     kernel32:KERNEL32.dll
 0005:000004f4       __imp__GetProcessHeap@0    005284f4     kernel32:KERNEL32.dll
 0005:000004f8       __imp__HeapValidate@12     005284f8     kernel32:KERNEL32.dll
 0005:000004fc       __imp__IsBadReadPtr@8      005284fc     kernel32:KERNEL32.dll
 0005:00000500       __imp__RtlUnwind@16        00528500     kernel32:KERNEL32.dll
 0005:00000504       __imp__TerminateProcess@8  00528504     kernel32:KERNEL32.dll
 0005:00000508       __imp__GetCurrentProcess@0 00528508     kernel32:KERNEL32.dll
 0005:0000050c       __imp__UnhandledExceptionFilter@4 0052850c     kernel32:KERNEL32.dll
 0005:00000510       __imp__SetUnhandledExceptionFilter@4 00528510     kernel32:KERNEL32.dll
 0005:00000514       __imp__IsDebuggerPresent@0 00528514     kernel32:KERNEL32.dll
 0005:00000518       __imp__SetHandleCount@4    00528518     kernel32:KERNEL32.dll
 0005:0000051c       __imp__GetStartupInfoA@4   0052851c     kernel32:KERNEL32.dll
 0005:00000520       __imp__GetModuleFileNameA@12 00528520     kernel32:KERNEL32.dll
 0005:00000524       __imp__WriteFile@20        00528524     kernel32:KERNEL32.dll
 0005:00000528       __imp__GetACP@0            00528528     kernel32:KERNEL32.dll
 0005:0000052c       __imp__GetOEMCP@0          0052852c     kernel32:KERNEL32.dll
 0005:00000530       __imp__GetCPInfo@8         00528530     kernel32:KERNEL32.dll
 0005:00000534       __imp__IsValidCodePage@4   00528534     kernel32:KERNEL32.dll
 0005:00000538       __imp__FatalAppExitA@8     00528538     kernel32:KERNEL32.dll
 0005:0000053c       __imp__SetConsoleCtrlHandler@8 0052853c     kernel32:KERNEL32.dll
 0005:00000540       __imp__LoadLibraryW@4      00528540     kernel32:KERNEL32.dll
 0005:00000544       __imp__WideCharToMultiByte@32 00528544     kernel32:KERNEL32.dll
 0005:00000548       __imp__GetConsoleCP@0      00528548     kernel32:KERNEL32.dll
 0005:0000054c       __imp__GetConsoleMode@8    0052854c     kernel32:KERNEL32.dll
 0005:00000550       __imp__FlushFileBuffers@4  00528550     kernel32:KERNEL32.dll
 0005:00000554       __imp__MultiByteToWideChar@24 00528554     kernel32:KERNEL32.dll
 0005:00000558       __imp__LCMapStringA@24     00528558     kernel32:KERNEL32.dll
 0005:0000055c       __imp__LCMapStringW@24     0052855c     kernel32:KERNEL32.dll
 0005:00000560       __imp__GetTickCount@0      00528560     kernel32:KERNEL32.dll
 0005:00000564       __imp__GetSystemTimeAsFileTime@4 00528564     kernel32:KERNEL32.dll
 0005:00000568       __imp__FreeEnvironmentStringsA@4 00528568     kernel32:KERNEL32.dll
 0005:0000056c       \177KERNEL32_NULL_THUNK_DATA 0052856c     kernel32:KERNEL32.dll
 0005:000005f4       __imp__select@20           005285f4     ws2_32:WS2_32.dll
 0005:000005f8       __imp____WSAFDIsSet@8      005285f8     ws2_32:WS2_32.dll
 0005:000005fc       __imp__gethostbyname@4     005285fc     ws2_32:WS2_32.dll
 0005:00000600       __imp__WSASetLastError@4   00528600     ws2_32:WS2_32.dll
 0005:00000604       __imp__accept@12           00528604     ws2_32:WS2_32.dll
 0005:00000608       __imp__listen@8            00528608     ws2_32:WS2_32.dll
 0005:0000060c       __imp__shutdown@8          0052860c     ws2_32:WS2_32.dll
 0005:00000610       __imp__connect@12          00528610     ws2_32:WS2_32.dll
 0005:00000614       __imp__setsockopt@20       00528614     ws2_32:WS2_32.dll
 0005:00000618       __imp__getsockopt@20       00528618     ws2_32:WS2_32.dll
 0005:0000061c       __imp__recvfrom@24         0052861c     ws2_32:WS2_32.dll
 0005:00000620       __imp__recv@16             00528620     ws2_32:WS2_32.dll
 0005:00000624       __imp__sendto@24           00528624     ws2_32:WS2_32.dll
 0005:00000628       __imp__send@16             00528628     ws2_32:WS2_32.dll
 0005:0000062c       __imp__getsockname@12      0052862c     ws2_32:WS2_32.dll
 0005:00000630       __imp__getpeername@12      00528630     ws2_32:WS2_32.dll
 0005:00000634       __imp__closesocket@4       00528634     ws2_32:WS2_32.dll
 0005:00000638       __imp__bind@12             00528638     ws2_32:WS2_32.dll
 0005:0000063c       __imp__WSASocketA@24       0052863c     ws2_32:WS2_32.dll
 0005:00000640       __imp__gethostname@8       00528640     ws2_32:WS2_32.dll
 0005:00000644       __imp__WSAAddressToStringA@20 00528644     ws2_32:WS2_32.dll
 0005:00000648       __imp__WSAStringToAddressA@20 00528648     ws2_32:WS2_32.dll
 0005:0000064c       __imp__inet_addr@4         0052864c     ws2_32:WS2_32.dll
 0005:00000650       __imp__inet_ntoa@4         00528650     ws2_32:WS2_32.dll
 0005:00000654       __imp__htonl@4             00528654     ws2_32:WS2_32.dll
 0005:00000658       __imp__ntohl@4             00528658     ws2_32:WS2_32.dll
 0005:0000065c       __imp__htons@4             0052865c     ws2_32:WS2_32.dll
 0005:00000660       __imp__ntohs@4             00528660     ws2_32:WS2_32.dll
 0005:00000664       __imp__ioctlsocket@12      00528664     ws2_32:WS2_32.dll
 0005:00000668       __imp__WSACleanup@0        00528668     ws2_32:WS2_32.dll
 0005:0000066c       __imp__WSAStartup@8        0052866c     ws2_32:WS2_32.dll
 0005:00000670       __imp__WSAGetLastError@0   00528670     ws2_32:WS2_32.dll
 0005:00000674       \177WS2_32_NULL_THUNK_DATA 00528674     ws2_32:WS2_32.dll
 0005:000006b8       __imp__CoCreateGuid@4      005286b8     ole32:ole32.dll
 0005:000006bc       \177ole32_NULL_THUNK_DATA  005286bc     ole32:ole32.dll

 entry point at        0002:00000c85

