 siprtp

 Timestamp is 4c52aca9 (Fri Jul 30 16:12:49 2010)

 Preferred load address is 00400000

 Start         Length     Name                   Class
 0001:00000000 000796c0H .textbss                DATA
 0002:00000000 000f8fc2H .text                   CODE
 0002:000f8fd0 0000111bH .text$x                 CODE
 0003:00000000 00000104H .CRT$XCA                DATA
 0003:00000104 00000104H .CRT$XCZ                DATA
 0003:00000208 00000104H .CRT$XIA                DATA
 0003:0000030c 0000011cH .CRT$XIC                DATA
 0003:00000428 00000104H .CRT$XIY                DATA
 0003:0000052c 00000104H .CRT$XIZ                DATA
 0003:00000630 00000104H .CRT$XPA                DATA
 0003:00000734 00000109H .CRT$XPX                DATA
 0003:00000840 00000104H .CRT$XPXA               DATA
 0003:00000944 00000104H .CRT$XPZ                DATA
 0003:00000a48 00000104H .CRT$XTA                DATA
 0003:00000b4c 00000104H .CRT$XTZ                DATA
 0003:00000c50 00035edaH .rdata                  DATA
 0003:00036b2c 0000017aH .rdata$debug            DATA
 0003:00036ca8 00000504H .rdata$r                DATA
 0003:000371ac 00000104H .rtc$IAA                DATA
 0003:000372b0 00000104H .rtc$IZZ                DATA
 0003:000373b4 00000104H .rtc$TAA                DATA
 0003:000374b8 00000104H .rtc$TZZ                DATA
 0003:000375c0 000011f9H .xdata$x                DATA
 0003:000387b9 00000000H .edata                  DATA
 0004:00000000 00008c81H .data                   DATA
 0004:00008ca0 000f8624H .bss                    DATA
 0005:00000000 00000050H .idata$2                DATA
 0005:00000050 00000014H .idata$3                DATA
 0005:00000064 000003f0H .idata$4                DATA
 0005:00000454 000003f0H .idata$5                DATA
 0005:00000844 00000ce9H .idata$6                DATA

  Address         Publics by Value              Rva+Base       Lib:Object

 0000:00000000       __except_list              00000000     <absolute>
 0000:00000000       ___safe_se_handler_table   00000000     <absolute>
 0000:00000000       ___safe_se_handler_count   00000000     <absolute>
 0000:00000000       ___ImageBase               00400000     <linker-defined>
 0001:00000000       __enc$textbss$begin        00401000     <linker-defined>
 0001:000796c0       __enc$textbss$end          0047a6c0     <linker-defined>
 0002:00006320       _app_logging_init          00481320 f   siprtp.obj
 0002:000063f0       _app_logging_shutdown      004813f0 f   siprtp.obj
 0002:00006420       _main                      00481420 f   siprtp.obj
 0002:0000b480       _inv_set_state             00486480 f   pjsip-ua-i386-win32-vc8-debug:sip_inv.obj
 0002:0000b690       _inv_set_cause             00486690 f   pjsip-ua-i386-win32-vc8-debug:sip_inv.obj
 0002:0000bd80       _pjsip_inv_usage_init      00486d80 f   pjsip-ua-i386-win32-vc8-debug:sip_inv.obj
 0002:0000bf10       _pjsip_inv_usage_instance  00486f10 f   pjsip-ua-i386-win32-vc8-debug:sip_inv.obj
 0002:0000bf30       _pjsip_dlg_get_inv_session 00486f30 f   pjsip-ua-i386-win32-vc8-debug:sip_inv.obj
 0002:0000bf60       _pjsip_inv_state_name      00486f60 f   pjsip-ua-i386-win32-vc8-debug:sip_inv.obj
 0002:0000bfd0       _pjsip_inv_create_uac      00486fd0 f   pjsip-ua-i386-win32-vc8-debug:sip_inv.obj
 0002:0000c2d0       _pjsip_inv_verify_request2 004872d0 f   pjsip-ua-i386-win32-vc8-debug:sip_inv.obj
 0002:0000d4f0       _pjsip_inv_verify_request  004884f0 f   pjsip-ua-i386-win32-vc8-debug:sip_inv.obj
 0002:0000d530       _pjsip_inv_create_uas      00488530 f   pjsip-ua-i386-win32-vc8-debug:sip_inv.obj
 0002:0000da00       _pjsip_inv_terminate       00488a00 f   pjsip-ua-i386-win32-vc8-debug:sip_inv.obj
 0002:0000db00       _pjsip_inv_uac_restart     00488b00 f   pjsip-ua-i386-win32-vc8-debug:sip_inv.obj
 0002:0000dbe0       _pjsip_create_sdp_body     00488be0 f   pjsip-ua-i386-win32-vc8-debug:sip_inv.obj
 0002:0000dd30       _pjsip_inv_invite          00488d30 f   pjsip-ua-i386-win32-vc8-debug:sip_inv.obj
 0002:0000e9b0       _pjsip_inv_initial_answer  004899b0 f   pjsip-ua-i386-win32-vc8-debug:sip_inv.obj
 0002:0000eea0       _pjsip_inv_answer          00489ea0 f   pjsip-ua-i386-win32-vc8-debug:sip_inv.obj
 0002:0000f080       _pjsip_inv_set_sdp_answer  0048a080 f   pjsip-ua-i386-win32-vc8-debug:sip_inv.obj
 0002:0000f130       _pjsip_inv_end_session     0048a130 f   pjsip-ua-i386-win32-vc8-debug:sip_inv.obj
 0002:0000f460       _pjsip_inv_process_redirect 0048a460 f   pjsip-ua-i386-win32-vc8-debug:sip_inv.obj
 0002:0000fa00       _pjsip_inv_reinvite        0048aa00 f   pjsip-ua-i386-win32-vc8-debug:sip_inv.obj
 0002:0000fcf0       _pjsip_inv_update          0048acf0 f   pjsip-ua-i386-win32-vc8-debug:sip_inv.obj
 0002:00010050       _pjsip_inv_create_ack      0048b050 f   pjsip-ua-i386-win32-vc8-debug:sip_inv.obj
 0002:00010320       _pjsip_inv_send_msg        0048b320 f   pjsip-ua-i386-win32-vc8-debug:sip_inv.obj
 0002:00013380       _pjsip_get_prack_method    0048e380 f   pjsip-ua-i386-win32-vc8-debug:sip_100rel.obj
 0002:000133a0       _pjsip_100rel_init_module  0048e3a0 f   pjsip-ua-i386-win32-vc8-debug:sip_100rel.obj
 0002:000133e0       _pjsip_100rel_attach       0048e3e0 f   pjsip-ua-i386-win32-vc8-debug:sip_100rel.obj
 0002:000134f0       _pjsip_100rel_is_reliable  0048e4f0 f   pjsip-ua-i386-win32-vc8-debug:sip_100rel.obj
 0002:00013670       _pjsip_100rel_create_prack 0048e670 f   pjsip-ua-i386-win32-vc8-debug:sip_100rel.obj
 0002:00013a30       _pjsip_100rel_send_prack   0048ea30 f   pjsip-ua-i386-win32-vc8-debug:sip_100rel.obj
 0002:00013ae0       _pjsip_100rel_end_session  0048eae0 f   pjsip-ua-i386-win32-vc8-debug:sip_100rel.obj
 0002:00013bd0       _pjsip_100rel_on_rx_prack  0048ebd0 f   pjsip-ua-i386-win32-vc8-debug:sip_100rel.obj
 0002:000143b0       _pjsip_100rel_tx_response  0048f3b0 f   pjsip-ua-i386-win32-vc8-debug:sip_100rel.obj
 0002:00015380       _pjsip_timer_init_module   00490380 f   pjsip-ua-i386-win32-vc8-debug:sip_timer.obj
 0002:000157e0       _pjsip_timer_setting_default 004907e0 f   pjsip-ua-i386-win32-vc8-debug:sip_timer.obj
 0002:00015850       _pjsip_timer_init_session  00490850 f   pjsip-ua-i386-win32-vc8-debug:sip_timer.obj
 0002:00015a30       _pjsip_sess_expires_hdr_create 00490a30 f   pjsip-ua-i386-win32-vc8-debug:sip_timer.obj
 0002:00015b30       _pjsip_min_se_hdr_create   00490b30 f   pjsip-ua-i386-win32-vc8-debug:sip_timer.obj
 0002:00015be0       _pjsip_timer_update_req    00490be0 f   pjsip-ua-i386-win32-vc8-debug:sip_timer.obj
 0002:00015eb0       _pjsip_timer_process_resp  00490eb0 f   pjsip-ua-i386-win32-vc8-debug:sip_timer.obj
 0002:00016c60       _pjsip_timer_process_req   00491c60 f   pjsip-ua-i386-win32-vc8-debug:sip_timer.obj
 0002:00017040       _pjsip_timer_update_resp   00492040 f   pjsip-ua-i386-win32-vc8-debug:sip_timer.obj
 0002:00017190       _pjsip_timer_end_session   00492190 f   pjsip-ua-i386-win32-vc8-debug:sip_timer.obj
 0002:00017220       _pjsip_target_set_add_uri  00492220 f   pjsip-core-i386-win32-vc8-debug:sip_util.obj
 0002:00017470       _pjsip_target_set_add_from_msg 00492470 f   pjsip-core-i386-win32-vc8-debug:sip_util.obj
 0002:00017580       _pjsip_target_set_get_next 00492580 f   pjsip-core-i386-win32-vc8-debug:sip_util.obj
 0002:00017620       _pjsip_target_set_set_current 00492620 f   pjsip-core-i386-win32-vc8-debug:sip_util.obj
 0002:00017700       _pjsip_target_assign_status 00492700 f   pjsip-core-i386-win32-vc8-debug:sip_util.obj
 0002:000177b0       _pjsip_endpt_create_request 004927b0 f   pjsip-core-i386-win32-vc8-debug:sip_util.obj
 0002:00017fd0       _pjsip_endpt_create_request_from_hdr 00492fd0 f   pjsip-core-i386-win32-vc8-debug:sip_util.obj
 0002:000182f0       _pjsip_endpt_create_response 004932f0 f   pjsip-core-i386-win32-vc8-debug:sip_util.obj
 0002:00018790       _pjsip_endpt_create_ack    00493790 f   pjsip-core-i386-win32-vc8-debug:sip_util.obj
 0002:00018b40       _pjsip_endpt_create_cancel 00493b40 f   pjsip-core-i386-win32-vc8-debug:sip_util.obj
 0002:00018f90       _pjsip_get_request_dest    00493f90 f   pjsip-core-i386-win32-vc8-debug:sip_util.obj
 0002:00019360       _pjsip_process_route_set   00494360 f   pjsip-core-i386-win32-vc8-debug:sip_util.obj
 0002:00019700       _pjsip_restore_strict_route_set 00494700 f   pjsip-core-i386-win32-vc8-debug:sip_util.obj
 0002:00019840       _pjsip_endpt_send_request_stateless 00494840 f   pjsip-core-i386-win32-vc8-debug:sip_util.obj
 0002:0001a0f0       _pjsip_endpt_send_raw      004950f0 f   pjsip-core-i386-win32-vc8-debug:sip_util.obj
 0002:0001a150       _pjsip_endpt_send_raw_to_uri 00495150 f   pjsip-core-i386-win32-vc8-debug:sip_util.obj
 0002:0001a560       _pjsip_get_response_addr   00495560 f   pjsip-core-i386-win32-vc8-debug:sip_util.obj
 0002:0001a970       _pjsip_endpt_send_response 00495970 f   pjsip-core-i386-win32-vc8-debug:sip_util.obj
 0002:0001ad60       _pjsip_endpt_send_response2 00495d60 f   pjsip-core-i386-win32-vc8-debug:sip_util.obj
 0002:0001ae00       _pjsip_endpt_respond_stateless 00495e00 f   pjsip-core-i386-win32-vc8-debug:sip_util.obj
 0002:0001b0a0       _pjsip_event_str           004960a0 f   pjsip-core-i386-win32-vc8-debug:sip_util.obj
 0002:0001b0c0       _pjsip_method_creates_dialog 004960c0 f   pjsip-core-i386-win32-vc8-debug:sip_dialog.obj
 0002:0001b1d0       _pjsip_dlg_create_uac      004961d0 f   pjsip-core-i386-win32-vc8-debug:sip_dialog.obj
 0002:0001bda0       _pjsip_dlg_create_uas      00496da0 f   pjsip-core-i386-win32-vc8-debug:sip_dialog.obj
 0002:0001c710       _pjsip_dlg_set_transport   00497710 f   pjsip-core-i386-win32-vc8-debug:sip_dialog.obj
 0002:0001c810       _pjsip_dlg_fork            00497810 f   pjsip-core-i386-win32-vc8-debug:sip_dialog.obj
 0002:0001ce00       _pjsip_dlg_terminate       00497e00 f   pjsip-core-i386-win32-vc8-debug:sip_dialog.obj
 0002:0001d010       _pjsip_dlg_set_route_set   00498010 f   pjsip-core-i386-win32-vc8-debug:sip_dialog.obj
 0002:0001d120       _pjsip_dlg_inc_session     00498120 f   pjsip-core-i386-win32-vc8-debug:sip_dialog.obj
 0002:0001d210       _pjsip_dlg_inc_lock        00498210 f   pjsip-core-i386-win32-vc8-debug:sip_dialog.obj
 0002:0001d270       _pjsip_dlg_try_inc_lock    00498270 f   pjsip-core-i386-win32-vc8-debug:sip_dialog.obj
 0002:0001d2f0       _pjsip_dlg_dec_lock        004982f0 f   pjsip-core-i386-win32-vc8-debug:sip_dialog.obj
 0002:0001d410       _pjsip_dlg_dec_session     00498410 f   pjsip-core-i386-win32-vc8-debug:sip_dialog.obj
 0002:0001d4f0       _pjsip_dlg_has_usage       004984f0 f   pjsip-core-i386-win32-vc8-debug:sip_dialog.obj
 0002:0001d580       _pjsip_dlg_add_usage       00498580 f   pjsip-core-i386-win32-vc8-debug:sip_dialog.obj
 0002:0001d840       _pjsip_dlg_set_mod_data    00498840 f   pjsip-core-i386-win32-vc8-debug:sip_dialog.obj
 0002:0001d900       _pjsip_dlg_get_mod_data    00498900 f   pjsip-core-i386-win32-vc8-debug:sip_dialog.obj
 0002:0001d9b0       _pjsip_dlg_create_request  004989b0 f   pjsip-core-i386-win32-vc8-debug:sip_dialog.obj
 0002:0001dcd0       _pjsip_dlg_send_request    00498cd0 f   pjsip-core-i386-win32-vc8-debug:sip_dialog.obj
 0002:0001e070       _pjsip_dlg_create_response 00499070 f   pjsip-core-i386-win32-vc8-debug:sip_dialog.obj
 0002:0001e410       _pjsip_dlg_modify_response 00499410 f   pjsip-core-i386-win32-vc8-debug:sip_dialog.obj
 0002:0001e660       _pjsip_dlg_send_response   00499660 f   pjsip-core-i386-win32-vc8-debug:sip_dialog.obj
 0002:0001e9f0       _pjsip_dlg_respond         004999f0 f   pjsip-core-i386-win32-vc8-debug:sip_dialog.obj
 0002:0001ec70       _pjsip_dlg_on_rx_request   00499c70 f   pjsip-core-i386-win32-vc8-debug:sip_dialog.obj
 0002:0001f180       _pjsip_dlg_on_rx_response  0049a180 f   pjsip-core-i386-win32-vc8-debug:sip_dialog.obj
 0002:0001f950       _pjsip_dlg_on_tsx_state    0049a950 f   pjsip-core-i386-win32-vc8-debug:sip_dialog.obj
 0002:0001fad0       _pjsip_dlg_remote_has_cap  0049aad0 f   pjsip-core-i386-win32-vc8-debug:sip_dialog.obj
 0002:0001fbf0       _pjsip_dlg_update_remote_cap 0049abf0 f   pjsip-core-i386-win32-vc8-debug:sip_dialog.obj
 0002:0001fe40       _pjsip_dlg_get_remote_cap_hdr 0049ae40 f   pjsip-core-i386-win32-vc8-debug:sip_dialog.obj
 0002:0001ffa0       _pjsip_dlg_set_remote_cap_hdr 0049afa0 f   pjsip-core-i386-win32-vc8-debug:sip_dialog.obj
 0002:00020170       _pjsip_dlg_remove_remote_cap_hdr 0049b170 f   pjsip-core-i386-win32-vc8-debug:sip_dialog.obj
 0002:000202a0       _pjsip_tsx_state_str       0049b2a0 f   pjsip-core-i386-win32-vc8-debug:sip_transaction.obj
 0002:000202c0       _pjsip_role_name           0049b2c0 f   pjsip-core-i386-win32-vc8-debug:sip_transaction.obj
 0002:000202e0       _pjsip_tsx_create_key      0049b2e0 f   pjsip-core-i386-win32-vc8-debug:sip_transaction.obj
 0002:000209c0       _pjsip_tsx_layer_init_module 0049b9c0 f   pjsip-core-i386-win32-vc8-debug:sip_transaction.obj
 0002:00020cd0       _pjsip_tsx_layer_instance  0049bcd0 f   pjsip-core-i386-win32-vc8-debug:sip_transaction.obj
 0002:00020cf0       _pjsip_tsx_layer_destroy   0049bcf0 f   pjsip-core-i386-win32-vc8-debug:sip_transaction.obj
 0002:00020d70       _pjsip_tsx_layer_get_tsx_count 0049bd70 f   pjsip-core-i386-win32-vc8-debug:sip_transaction.obj
 0002:00020e10       _pjsip_tsx_layer_find_tsx  0049be10 f   pjsip-core-i386-win32-vc8-debug:sip_transaction.obj
 0002:00021310       _pjsip_rdata_get_tsx       0049c310 f   pjsip-core-i386-win32-vc8-debug:sip_transaction.obj
 0002:00021340       _pjsip_tsx_layer_dump      0049c340 f   pjsip-core-i386-win32-vc8-debug:sip_transaction.obj
 0002:00021720       _pjsip_tsx_create_uac      0049c720 f   pjsip-core-i386-win32-vc8-debug:sip_transaction.obj
 0002:00022130       _pjsip_tsx_create_uas      0049d130 f   pjsip-core-i386-win32-vc8-debug:sip_transaction.obj
 0002:00022600       _pjsip_tsx_set_transport   0049d600 f   pjsip-core-i386-win32-vc8-debug:sip_transaction.obj
 0002:000226e0       _pjsip_tsx_terminate       0049d6e0 f   pjsip-core-i386-win32-vc8-debug:sip_transaction.obj
 0002:00022b70       _pjsip_tsx_stop_retransmit 0049db70 f   pjsip-core-i386-win32-vc8-debug:sip_transaction.obj
 0002:00022cc0       _pjsip_tsx_set_timeout     0049dcc0 f   pjsip-core-i386-win32-vc8-debug:sip_transaction.obj
 0002:00022ea0       _pjsip_tsx_send_msg        0049dea0 f   pjsip-core-i386-win32-vc8-debug:sip_transaction.obj
 0002:00022ff0       _pjsip_tsx_recv_msg        0049dff0 f   pjsip-core-i386-win32-vc8-debug:sip_transaction.obj
 0002:000230c0       _pjsip_tsx_retransmit_no_state 0049e0c0 f   pjsip-core-i386-win32-vc8-debug:sip_transaction.obj
 0002:00026130       _pjsip_ua_init_module      004a1130 f   pjsip-core-i386-win32-vc8-debug:sip_ua_layer.obj
 0002:00026200       _pjsip_ua_instance         004a1200 f   pjsip-core-i386-win32-vc8-debug:sip_ua_layer.obj
 0002:00026220       _pjsip_ua_get_endpt        004a1220 f   pjsip-core-i386-win32-vc8-debug:sip_ua_layer.obj
 0002:00026270       _pjsip_ua_destroy          004a1270 f   pjsip-core-i386-win32-vc8-debug:sip_ua_layer.obj
 0002:000262f0       _pjsip_ua_register_dlg     004a12f0 f   pjsip-core-i386-win32-vc8-debug:sip_ua_layer.obj
 0002:000266c0       _pjsip_ua_unregister_dlg   004a16c0 f   pjsip-core-i386-win32-vc8-debug:sip_ua_layer.obj
 0002:000268b0       _pjsip_rdata_get_dlg       004a18b0 f   pjsip-core-i386-win32-vc8-debug:sip_ua_layer.obj
 0002:000268e0       _pjsip_tsx_get_dlg         004a18e0 f   pjsip-core-i386-win32-vc8-debug:sip_ua_layer.obj
 0002:00026910       _pjsip_ua_get_dlg_set_count 004a1910 f   pjsip-core-i386-win32-vc8-debug:sip_ua_layer.obj
 0002:000269b0       _pjsip_ua_find_dialog      004a19b0 f   pjsip-core-i386-win32-vc8-debug:sip_ua_layer.obj
 0002:00027530       _pjsip_ua_dump             004a2530 f   pjsip-core-i386-win32-vc8-debug:sip_ua_layer.obj
 0002:000278d0       _get_tpname                004a28d0 f   pjsip-core-i386-win32-vc8-debug:sip_transport.obj
 0002:00027960       _pjsip_transport_register_type 004a2960 f   pjsip-core-i386-win32-vc8-debug:sip_transport.obj
 0002:00027b20       _pjsip_transport_get_type_from_name 004a2b20 f   pjsip-core-i386-win32-vc8-debug:sip_transport.obj
 0002:00027bd0       _pjsip_transport_get_type_from_flag 004a2bd0 f   pjsip-core-i386-win32-vc8-debug:sip_transport.obj
 0002:00027c60       _pjsip_transport_type_get_af 004a2c60 f   pjsip-core-i386-win32-vc8-debug:sip_transport.obj
 0002:00027ca0       _pjsip_transport_get_flag_from_type 004a2ca0 f   pjsip-core-i386-win32-vc8-debug:sip_transport.obj
 0002:00027cd0       _pjsip_transport_get_default_port_for_type 004a2cd0 f   pjsip-core-i386-win32-vc8-debug:sip_transport.obj
 0002:00027d00       _pjsip_transport_get_type_name 004a2d00 f   pjsip-core-i386-win32-vc8-debug:sip_transport.obj
 0002:00027d30       _pjsip_transport_get_type_desc 004a2d30 f   pjsip-core-i386-win32-vc8-debug:sip_transport.obj
 0002:00027d60       _pjsip_tpselector_add_ref  004a2d60 f   pjsip-core-i386-win32-vc8-debug:sip_transport.obj
 0002:00027da0       _pjsip_tpselector_dec_ref  004a2da0 f   pjsip-core-i386-win32-vc8-debug:sip_transport.obj
 0002:00027de0       _pjsip_tx_data_create      004a2de0 f   pjsip-core-i386-win32-vc8-debug:sip_transport.obj
 0002:00028010       _pjsip_tx_data_add_ref     004a3010 f   pjsip-core-i386-win32-vc8-debug:sip_transport.obj
 0002:00028040       _pjsip_tx_data_dec_ref     004a3040 f   pjsip-core-i386-win32-vc8-debug:sip_transport.obj
 0002:00028180       _pjsip_tx_data_invalidate_msg 004a3180 f   pjsip-core-i386-win32-vc8-debug:sip_transport.obj
 0002:000281c0       _pjsip_tx_data_encode      004a31c0 f   pjsip-core-i386-win32-vc8-debug:sip_transport.obj
 0002:00028360       _pjsip_tx_data_is_valid    004a3360 f   pjsip-core-i386-win32-vc8-debug:sip_transport.obj
 0002:00028390       _pjsip_tx_data_get_info    004a3390 f   pjsip-core-i386-win32-vc8-debug:sip_transport.obj
 0002:00028600       _pjsip_tx_data_set_transport 004a3600 f   pjsip-core-i386-win32-vc8-debug:sip_transport.obj
 0002:000286e0       _pjsip_rx_data_get_info    004a36e0 f   pjsip-core-i386-win32-vc8-debug:sip_transport.obj
 0002:00028820       _pjsip_transport_send      004a3820 f   pjsip-core-i386-win32-vc8-debug:sip_transport.obj
 0002:00028b20       _pjsip_tpmgr_send_raw      004a3b20 f   pjsip-core-i386-win32-vc8-debug:sip_transport.obj
 0002:00028da0       _pjsip_transport_add_ref   004a3da0 f   pjsip-core-i386-win32-vc8-debug:sip_transport.obj
 0002:00028eb0       _pjsip_transport_dec_ref   004a3eb0 f   pjsip-core-i386-win32-vc8-debug:sip_transport.obj
 0002:00029060       _pjsip_transport_register  004a4060 f   pjsip-core-i386-win32-vc8-debug:sip_transport.obj
 0002:00029230       _pjsip_transport_shutdown  004a4230 f   pjsip-core-i386-win32-vc8-debug:sip_transport.obj
 0002:00029360       _pjsip_transport_destroy   004a4360 f   pjsip-core-i386-win32-vc8-debug:sip_transport.obj
 0002:00029510       _pjsip_tpmgr_register_tpfactory 004a4510 f   pjsip-core-i386-win32-vc8-debug:sip_transport.obj
 0002:000295f0       _pjsip_tpmgr_unregister_tpfactory 004a45f0 f   pjsip-core-i386-win32-vc8-debug:sip_transport.obj
 0002:00029680       _pjsip_tpmgr_create        004a4680 f   pjsip-core-i386-win32-vc8-debug:sip_transport.obj
 0002:000298a0       _pjsip_tpmgr_find_local_addr 004a48a0 f   pjsip-core-i386-win32-vc8-debug:sip_transport.obj
 0002:00029bb0       _pjsip_tpmgr_get_transport_count 004a4bb0 f   pjsip-core-i386-win32-vc8-debug:sip_transport.obj
 0002:00029c40       _pjsip_tpmgr_destroy       004a4c40 f   pjsip-core-i386-win32-vc8-debug:sip_transport.obj
 0002:00029df0       _mystrcasestr              004a4df0 f   pjsip-core-i386-win32-vc8-debug:sip_transport.obj
 0002:00029ef0       _pjsip_tpmgr_receive_packet 004a4ef0 f   pjsip-core-i386-win32-vc8-debug:sip_transport.obj
 0002:0002a930       _pjsip_tpmgr_acquire_transport 004a5930 f   pjsip-core-i386-win32-vc8-debug:sip_transport.obj
 0002:0002a970       _pjsip_tpmgr_acquire_transport2 004a5970 f   pjsip-core-i386-win32-vc8-debug:sip_transport.obj
 0002:0002ad90       _pjsip_tpmgr_dump_transports 004a5d90 f   pjsip-core-i386-win32-vc8-debug:sip_transport.obj
 0002:0002afb0       _pjsip_tpmgr_set_state_cb  004a5fb0 f   pjsip-core-i386-win32-vc8-debug:sip_transport.obj
 0002:0002b020       _pjsip_tpmgr_get_state_cb  004a6020 f   pjsip-core-i386-win32-vc8-debug:sip_transport.obj
 0002:0002b150       _pjsip_transport_add_state_listener 004a6150 f   pjsip-core-i386-win32-vc8-debug:sip_transport.obj
 0002:0002b370       _pjsip_transport_remove_state_listener 004a6370 f   pjsip-core-i386-win32-vc8-debug:sip_transport.obj
 0002:0002b4f0       _pjsip_endpt_register_module 004a64f0 f   pjsip-core-i386-win32-vc8-debug:sip_endpoint.obj
 0002:0002b7e0       _pjsip_endpt_unregister_module 004a67e0 f   pjsip-core-i386-win32-vc8-debug:sip_endpoint.obj
 0002:0002bad0       _pjsip_endpt_get_capability 004a6ad0 f   pjsip-core-i386-win32-vc8-debug:sip_endpoint.obj
 0002:0002bbc0       _pjsip_endpt_has_capability 004a6bc0 f   pjsip-core-i386-win32-vc8-debug:sip_endpoint.obj
 0002:0002bc90       _pjsip_endpt_add_capability 004a6c90 f   pjsip-core-i386-win32-vc8-debug:sip_endpoint.obj
 0002:0002bec0       _pjsip_endpt_get_request_headers 004a6ec0 f   pjsip-core-i386-win32-vc8-debug:sip_endpoint.obj
 0002:0002bee0       _pjsip_endpt_create        004a6ee0 f   pjsip-core-i386-win32-vc8-debug:sip_endpoint.obj
 0002:0002c4a0       _pjsip_endpt_destroy       004a74a0 f   pjsip-core-i386-win32-vc8-debug:sip_endpoint.obj
 0002:0002c630       _pjsip_endpt_name          004a7630 f   pjsip-core-i386-win32-vc8-debug:sip_endpoint.obj
 0002:0002c650       _pjsip_endpt_create_pool   004a7650 f   pjsip-core-i386-win32-vc8-debug:sip_endpoint.obj
 0002:0002c6d0       _pjsip_endpt_release_pool  004a76d0 f   pjsip-core-i386-win32-vc8-debug:sip_endpoint.obj
 0002:0002c700       _pjsip_endpt_handle_events2 004a7700 f   pjsip-core-i386-win32-vc8-debug:sip_endpoint.obj
 0002:0002c8c0       _pjsip_endpt_handle_events 004a78c0 f   pjsip-core-i386-win32-vc8-debug:sip_endpoint.obj
 0002:0002c8f0       _pjsip_endpt_schedule_timer 004a78f0 f   pjsip-core-i386-win32-vc8-debug:sip_endpoint.obj
 0002:0002c930       _pjsip_endpt_cancel_timer  004a7930 f   pjsip-core-i386-win32-vc8-debug:sip_endpoint.obj
 0002:0002c970       _pjsip_endpt_get_timer_heap 004a7970 f   pjsip-core-i386-win32-vc8-debug:sip_endpoint.obj
 0002:0002d080       _pjsip_endpt_create_tdata  004a8080 f   pjsip-core-i386-win32-vc8-debug:sip_endpoint.obj
 0002:0002d0b0       _pjsip_endpt_create_resolver 004a80b0 f   pjsip-core-i386-win32-vc8-debug:sip_endpoint.obj
 0002:0002d140       _pjsip_endpt_set_resolver  004a8140 f   pjsip-core-i386-win32-vc8-debug:sip_endpoint.obj
 0002:0002d170       _pjsip_endpt_get_resolver  004a8170 f   pjsip-core-i386-win32-vc8-debug:sip_endpoint.obj
 0002:0002d1e0       _pjsip_endpt_resolve       004a81e0 f   pjsip-core-i386-win32-vc8-debug:sip_endpoint.obj
 0002:0002d220       _pjsip_endpt_get_tpmgr     004a8220 f   pjsip-core-i386-win32-vc8-debug:sip_endpoint.obj
 0002:0002d240       _pjsip_endpt_get_ioqueue   004a8240 f   pjsip-core-i386-win32-vc8-debug:sip_endpoint.obj
 0002:0002d260       _pjsip_endpt_acquire_transport 004a8260 f   pjsip-core-i386-win32-vc8-debug:sip_endpoint.obj
 0002:0002d2a0       _pjsip_endpt_acquire_transport2 004a82a0 f   pjsip-core-i386-win32-vc8-debug:sip_endpoint.obj
 0002:0002d2f0       _pjsip_endpt_log_error     004a82f0 f   pjsip-core-i386-win32-vc8-debug:sip_endpoint.obj
 0002:0002d490       _pjsip_endpt_dump          004a8490 f   pjsip-core-i386-win32-vc8-debug:sip_endpoint.obj
 0002:0002d640       _pjsip_udp_transport_attach 004a8640 f   pjsip-core-i386-win32-vc8-debug:sip_transport_udp.obj
 0002:0002e900       _pjsip_udp_transport_attach2 004a9900 f   pjsip-core-i386-win32-vc8-debug:sip_transport_udp.obj
 0002:0002e940       _pjsip_udp_transport_start 004a9940 f   pjsip-core-i386-win32-vc8-debug:sip_transport_udp.obj
 0002:0002edf0       _pjsip_udp_transport_start6 004a9df0 f   pjsip-core-i386-win32-vc8-debug:sip_transport_udp.obj
 0002:0002ef20       _pjsip_udp_transport_get_socket 004a9f20 f   pjsip-core-i386-win32-vc8-debug:sip_transport_udp.obj
 0002:0002ef90       _pjsip_udp_transport_pause 004a9f90 f   pjsip-core-i386-win32-vc8-debug:sip_transport_udp.obj
 0002:0002f1c0       _pjsip_udp_transport_restart 004aa1c0 f   pjsip-core-i386-win32-vc8-debug:sip_transport_udp.obj
 0002:0002f4e0       _pjsip_get_invite_method   004aa4e0 f   pjsip-core-i386-win32-vc8-debug:sip_msg.obj
 0002:0002f500       _pjsip_get_cancel_method   004aa500 f   pjsip-core-i386-win32-vc8-debug:sip_msg.obj
 0002:0002f520       _pjsip_get_ack_method      004aa520 f   pjsip-core-i386-win32-vc8-debug:sip_msg.obj
 0002:0002f540       _pjsip_get_bye_method      004aa540 f   pjsip-core-i386-win32-vc8-debug:sip_msg.obj
 0002:0002f560       _pjsip_get_register_method 004aa560 f   pjsip-core-i386-win32-vc8-debug:sip_msg.obj
 0002:0002f580       _pjsip_get_options_method  004aa580 f   pjsip-core-i386-win32-vc8-debug:sip_msg.obj
 0002:0002f5a0       _pjsip_method_init         004aa5a0 f   pjsip-core-i386-win32-vc8-debug:sip_msg.obj
 0002:0002f5e0       _pjsip_method_set          004aa5e0 f   pjsip-core-i386-win32-vc8-debug:sip_msg.obj
 0002:0002f650       _pjsip_method_init_np      004aa650 f   pjsip-core-i386-win32-vc8-debug:sip_msg.obj
 0002:0002f750       _pjsip_method_copy         004aa750 f   pjsip-core-i386-win32-vc8-debug:sip_msg.obj
 0002:0002f7c0       _pjsip_method_cmp          004aa7c0 f   pjsip-core-i386-win32-vc8-debug:sip_msg.obj
 0002:0002f830       _pjsip_msg_create          004aa830 f   pjsip-core-i386-win32-vc8-debug:sip_msg.obj
 0002:0002f8c0       _pjsip_msg_clone           004aa8c0 f   pjsip-core-i386-win32-vc8-debug:sip_msg.obj
 0002:0002fa50       _pjsip_msg_find_hdr        004aaa50 f   pjsip-core-i386-win32-vc8-debug:sip_msg.obj
 0002:0002fac0       _pjsip_msg_find_hdr_by_name 004aaac0 f   pjsip-core-i386-win32-vc8-debug:sip_msg.obj
 0002:0002fb40       _pjsip_msg_find_hdr_by_names 004aab40 f   pjsip-core-i386-win32-vc8-debug:sip_msg.obj
 0002:0002fbe0       _pjsip_msg_find_remove_hdr 004aabe0 f   pjsip-core-i386-win32-vc8-debug:sip_msg.obj
 0002:0002fc30       _pjsip_msg_print           004aac30 f   pjsip-core-i386-win32-vc8-debug:sip_msg.obj
 0002:000302f0       _pjsip_hdr_clone           004ab2f0 f   pjsip-core-i386-win32-vc8-debug:sip_msg.obj
 0002:00030330       _pjsip_hdr_shallow_clone   004ab330 f   pjsip-core-i386-win32-vc8-debug:sip_msg.obj
 0002:00030370       _pjsip_hdr_print_on        004ab370 f   pjsip-core-i386-win32-vc8-debug:sip_msg.obj
 0002:000303b0       _pjsip_get_status_text     004ab3b0 f   pjsip-core-i386-win32-vc8-debug:sip_msg.obj
 0002:00030a10       _pjsip_media_type_cp       004aba10 f   pjsip-core-i386-win32-vc8-debug:sip_msg.obj
 0002:00030ae0       _pjsip_generic_string_hdr_init2 004abae0 f   pjsip-core-i386-win32-vc8-debug:sip_msg.obj
 0002:00030c40       _pjsip_generic_string_hdr_init 004abc40 f   pjsip-core-i386-win32-vc8-debug:sip_msg.obj
 0002:00030cd0       _pjsip_generic_string_hdr_create 004abcd0 f   pjsip-core-i386-win32-vc8-debug:sip_msg.obj
 0002:00030ee0       _pjsip_generic_int_hdr_init 004abee0 f   pjsip-core-i386-win32-vc8-debug:sip_msg.obj
 0002:00030f60       _pjsip_generic_int_hdr_create 004abf60 f   pjsip-core-i386-win32-vc8-debug:sip_msg.obj
 0002:00031130       _pjsip_generic_array_hdr_init 004ac130 f   pjsip-core-i386-win32-vc8-debug:sip_msg.obj
 0002:000311b0       _pjsip_generic_array_hdr_create 004ac1b0 f   pjsip-core-i386-win32-vc8-debug:sip_msg.obj
 0002:000314e0       _pjsip_accept_hdr_init     004ac4e0 f   pjsip-core-i386-win32-vc8-debug:sip_msg.obj
 0002:00031530       _pjsip_accept_hdr_create   004ac530 f   pjsip-core-i386-win32-vc8-debug:sip_msg.obj
 0002:00031580       _pjsip_allow_hdr_init      004ac580 f   pjsip-core-i386-win32-vc8-debug:sip_msg.obj
 0002:000315d0       _pjsip_allow_hdr_create    004ac5d0 f   pjsip-core-i386-win32-vc8-debug:sip_msg.obj
 0002:00031620       _pjsip_cid_hdr_init        004ac620 f   pjsip-core-i386-win32-vc8-debug:sip_msg.obj
 0002:00031660       _pjsip_cid_hdr_create      004ac660 f   pjsip-core-i386-win32-vc8-debug:sip_msg.obj
 0002:000316a0       _pjsip_clen_hdr_init       004ac6a0 f   pjsip-core-i386-win32-vc8-debug:sip_msg.obj
 0002:000316f0       _pjsip_clen_hdr_create     004ac6f0 f   pjsip-core-i386-win32-vc8-debug:sip_msg.obj
 0002:00031860       _pjsip_cseq_hdr_init       004ac860 f   pjsip-core-i386-win32-vc8-debug:sip_msg.obj
 0002:000318d0       _pjsip_cseq_hdr_create     004ac8d0 f   pjsip-core-i386-win32-vc8-debug:sip_msg.obj
 0002:00031ad0       _pjsip_contact_hdr_init    004acad0 f   pjsip-core-i386-win32-vc8-debug:sip_msg.obj
 0002:00031b70       _pjsip_contact_hdr_create  004acb70 f   pjsip-core-i386-win32-vc8-debug:sip_msg.obj
 0002:00032070       _pjsip_ctype_hdr_init      004ad070 f   pjsip-core-i386-win32-vc8-debug:sip_msg.obj
 0002:000320c0       _pjsip_ctype_hdr_create    004ad0c0 f   pjsip-core-i386-win32-vc8-debug:sip_msg.obj
 0002:00032360       _pjsip_expires_hdr_init    004ad360 f   pjsip-core-i386-win32-vc8-debug:sip_msg.obj
 0002:000323b0       _pjsip_expires_hdr_create  004ad3b0 f   pjsip-core-i386-win32-vc8-debug:sip_msg.obj
 0002:00032400       _pjsip_from_hdr_init       004ad400 f   pjsip-core-i386-win32-vc8-debug:sip_msg.obj
 0002:00032460       _pjsip_from_hdr_create     004ad460 f   pjsip-core-i386-win32-vc8-debug:sip_msg.obj
 0002:000324a0       _pjsip_to_hdr_init         004ad4a0 f   pjsip-core-i386-win32-vc8-debug:sip_msg.obj
 0002:00032500       _pjsip_to_hdr_create       004ad500 f   pjsip-core-i386-win32-vc8-debug:sip_msg.obj
 0002:00032540       _pjsip_fromto_hdr_set_from 004ad540 f   pjsip-core-i386-win32-vc8-debug:sip_msg.obj
 0002:000325a0       _pjsip_fromto_hdr_set_to   004ad5a0 f   pjsip-core-i386-win32-vc8-debug:sip_msg.obj
 0002:00032940       _pjsip_max_fwd_hdr_init    004ad940 f   pjsip-core-i386-win32-vc8-debug:sip_msg.obj
 0002:00032990       _pjsip_max_fwd_hdr_create  004ad990 f   pjsip-core-i386-win32-vc8-debug:sip_msg.obj
 0002:000329e0       _pjsip_min_expires_hdr_init 004ad9e0 f   pjsip-core-i386-win32-vc8-debug:sip_msg.obj
 0002:00032a30       _pjsip_min_expires_hdr_create 004ada30 f   pjsip-core-i386-win32-vc8-debug:sip_msg.obj
 0002:00032a80       _pjsip_rr_hdr_init         004ada80 f   pjsip-core-i386-win32-vc8-debug:sip_msg.obj
 0002:00032ae0       _pjsip_rr_hdr_create       004adae0 f   pjsip-core-i386-win32-vc8-debug:sip_msg.obj
 0002:00032b20       _pjsip_route_hdr_init      004adb20 f   pjsip-core-i386-win32-vc8-debug:sip_msg.obj
 0002:00032b80       _pjsip_route_hdr_create    004adb80 f   pjsip-core-i386-win32-vc8-debug:sip_msg.obj
 0002:00032bc0       _pjsip_routing_hdr_set_rr  004adbc0 f   pjsip-core-i386-win32-vc8-debug:sip_msg.obj
 0002:00032c20       _pjsip_routing_hdr_set_route 004adc20 f   pjsip-core-i386-win32-vc8-debug:sip_msg.obj
 0002:00032f90       _pjsip_require_hdr_init    004adf90 f   pjsip-core-i386-win32-vc8-debug:sip_msg.obj
 0002:00032fe0       _pjsip_require_hdr_create  004adfe0 f   pjsip-core-i386-win32-vc8-debug:sip_msg.obj
 0002:00033030       _pjsip_retry_after_hdr_init 004ae030 f   pjsip-core-i386-win32-vc8-debug:sip_msg.obj
 0002:000330a0       _pjsip_retry_after_hdr_create 004ae0a0 f   pjsip-core-i386-win32-vc8-debug:sip_msg.obj
 0002:00033420       _pjsip_supported_hdr_init  004ae420 f   pjsip-core-i386-win32-vc8-debug:sip_msg.obj
 0002:00033470       _pjsip_supported_hdr_create 004ae470 f   pjsip-core-i386-win32-vc8-debug:sip_msg.obj
 0002:000334c0       _pjsip_unsupported_hdr_init 004ae4c0 f   pjsip-core-i386-win32-vc8-debug:sip_msg.obj
 0002:00033510       _pjsip_unsupported_hdr_create 004ae510 f   pjsip-core-i386-win32-vc8-debug:sip_msg.obj
 0002:00033560       _pjsip_via_hdr_init        004ae560 f   pjsip-core-i386-win32-vc8-debug:sip_msg.obj
 0002:000335e0       _pjsip_via_hdr_create      004ae5e0 f   pjsip-core-i386-win32-vc8-debug:sip_msg.obj
 0002:00033fe0       _pjsip_warning_hdr_create  004aefe0 f   pjsip-core-i386-win32-vc8-debug:sip_msg.obj
 0002:00034090       _pjsip_warning_hdr_create_from_status 004af090 f   pjsip-core-i386-win32-vc8-debug:sip_msg.obj
 0002:00034100       _pjsip_print_text_body     004af100 f   pjsip-core-i386-win32-vc8-debug:sip_msg.obj
 0002:00034150       _pjsip_clone_text_data     004af150 f   pjsip-core-i386-win32-vc8-debug:sip_msg.obj
 0002:000341b0       _pjsip_msg_body_copy       004af1b0 f   pjsip-core-i386-win32-vc8-debug:sip_msg.obj
 0002:000342d0       _pjsip_msg_body_clone      004af2d0 f   pjsip-core-i386-win32-vc8-debug:sip_msg.obj
 0002:00034360       _pjsip_msg_body_create     004af360 f   pjsip-core-i386-win32-vc8-debug:sip_msg.obj
 0002:00034520       _pjsip_parser_const        004af520 f   pjsip-core-i386-win32-vc8-debug:sip_parser.obj
 0002:00034540       _pjsip_concat_param_imp    004af540 f   pjsip-core-i386-win32-vc8-debug:sip_parser.obj
 0002:000346b0       _init_sip_parser           004af6b0 f   pjsip-core-i386-win32-vc8-debug:sip_parser.obj
 0002:00035a60       _deinit_sip_parser         004b0a60 f   pjsip-core-i386-win32-vc8-debug:sip_parser.obj
 0002:00035b30       _pjsip_register_hdr_parser 004b0b30 f   pjsip-core-i386-win32-vc8-debug:sip_parser.obj
 0002:00035fa0       _pjsip_register_uri_parser 004b0fa0 f   pjsip-core-i386-win32-vc8-debug:sip_parser.obj
 0002:00036020       _pjsip_parse_msg           004b1020 f   pjsip-core-i386-win32-vc8-debug:sip_parser.obj
 0002:000360d0       _pjsip_parse_rdata         004b10d0 f   pjsip-core-i386-win32-vc8-debug:sip_parser.obj
 0002:00036160       _pjsip_find_msg            004b1160 f   pjsip-core-i386-win32-vc8-debug:sip_parser.obj
 0002:000364e0       _pjsip_parse_uri           004b14e0 f   pjsip-core-i386-win32-vc8-debug:sip_parser.obj
 0002:00036e00       _pjsip_parse_param_imp     004b1e00 f   pjsip-core-i386-win32-vc8-debug:sip_parser.obj
 0002:00037060       _pjsip_parse_uri_param_imp 004b2060 f   pjsip-core-i386-win32-vc8-debug:sip_parser.obj
 0002:00037f40       _pjsip_parse_status_line   004b2f40 f   pjsip-core-i386-win32-vc8-debug:sip_parser.obj
 0002:00038030       _pjsip_parse_end_hdr_imp   004b3030 f   pjsip-core-i386-win32-vc8-debug:sip_parser.obj
 0002:000399e0       _pjsip_parse_hdr           004b49e0 f   pjsip-core-i386-win32-vc8-debug:sip_parser.obj
 0002:00039b40       _pjsip_cred_info_dup       004b4b40 f   pjsip-core-i386-win32-vc8-debug:sip_auth_client.obj
 0002:00039d10       _pjsip_cred_info_cmp       004b4d10 f   pjsip-core-i386-win32-vc8-debug:sip_auth_client.obj
 0002:00039e80       _pjsip_auth_create_digest  004b4e80 f   pjsip-core-i386-win32-vc8-debug:sip_auth_client.obj
 0002:0003a370       _pjsip_auth_clt_init       004b5370 f   pjsip-core-i386-win32-vc8-debug:sip_auth_client.obj
 0002:0003a470       _pjsip_auth_clt_clone      004b5470 f   pjsip-core-i386-win32-vc8-debug:sip_auth_client.obj
 0002:0003a670       _pjsip_auth_clt_set_credentials 004b5670 f   pjsip-core-i386-win32-vc8-debug:sip_auth_client.obj
 0002:0003aaf0       _pjsip_auth_clt_set_prefs  004b5af0 f   pjsip-core-i386-win32-vc8-debug:sip_auth_client.obj
 0002:0003aba0       _pjsip_auth_clt_get_prefs  004b5ba0 f   pjsip-core-i386-win32-vc8-debug:sip_auth_client.obj
 0002:0003ac20       _pjsip_auth_clt_init_req   004b5c20 f   pjsip-core-i386-win32-vc8-debug:sip_auth_client.obj
 0002:0003b080       _pjsip_auth_clt_reinit_req 004b6080 f   pjsip-core-i386-win32-vc8-debug:sip_auth_client.obj
 0002:0003c310       _pjsip_param_find          004b7310 f   pjsip-core-i386-win32-vc8-debug:sip_uri.obj
 0002:0003c370       _pjsip_param_cfind         004b7370 f   pjsip-core-i386-win32-vc8-debug:sip_uri.obj
 0002:0003c3d0       _pjsip_param_clone         004b73d0 f   pjsip-core-i386-win32-vc8-debug:sip_uri.obj
 0002:0003c4b0       _pjsip_param_shallow_clone 004b74b0 f   pjsip-core-i386-win32-vc8-debug:sip_uri.obj
 0002:0003c550       _pjsip_param_print_on      004b7550 f   pjsip-core-i386-win32-vc8-debug:sip_uri.obj
 0002:0003c7f0       _pjsip_sip_uri_set_secure  004b77f0 f   pjsip-core-i386-win32-vc8-debug:sip_uri.obj
 0002:0003c830       _pjsip_sip_uri_init        004b7830 f   pjsip-core-i386-win32-vc8-debug:sip_uri.obj
 0002:0003c8d0       _pjsip_sip_uri_create      004b78d0 f   pjsip-core-i386-win32-vc8-debug:sip_uri.obj
 0002:0003d5f0       _pjsip_sip_uri_assign      004b85f0 f   pjsip-core-i386-win32-vc8-debug:sip_uri.obj
 0002:0003d840       _pjsip_name_addr_init      004b8840 f   pjsip-core-i386-win32-vc8-debug:sip_uri.obj
 0002:0003d890       _pjsip_name_addr_create    004b8890 f   pjsip-core-i386-win32-vc8-debug:sip_uri.obj
 0002:0003dac0       _pjsip_name_addr_assign    004b8ac0 f   pjsip-core-i386-win32-vc8-debug:sip_uri.obj
 0002:0003dcf0       _pjsip_other_uri_create    004b8cf0 f   pjsip-core-i386-win32-vc8-debug:sip_uri.obj
 0002:0003e030       _pjsip_endpt_send_request  004b9030 f   pjsip-core-i386-win32-vc8-debug:sip_util_statefull.obj
 0002:0003e1d0       _pjsip_endpt_respond       004b91d0 f   pjsip-core-i386-win32-vc8-debug:sip_util_statefull.obj
 0002:0003e400       _pjsip_resolver_create     004b9400 f   pjsip-core-i386-win32-vc8-debug:sip_resolve.obj
 0002:0003e4c0       _pjsip_resolver_set_resolver 004b94c0 f   pjsip-core-i386-win32-vc8-debug:sip_resolve.obj
 0002:0003e4e0       _pjsip_resolver_get_resolver 004b94e0 f   pjsip-core-i386-win32-vc8-debug:sip_resolve.obj
 0002:0003e500       _pjsip_resolver_destroy    004b9500 f   pjsip-core-i386-win32-vc8-debug:sip_resolve.obj
 0002:0003e540       _pjsip_resolve             004b9540 f   pjsip-core-i386-win32-vc8-debug:sip_resolve.obj
 0002:0003f3e0       _pjsip_tel_uri_create      004ba3e0 f   pjsip-core-i386-win32-vc8-debug:sip_tel_uri.obj
 0002:0003f4d0       _pjsip_tel_uri_subsys_init 004ba4d0 f   pjsip-core-i386-win32-vc8-debug:sip_tel_uri.obj
 0002:0003fd10       _pjsip_tel_nb_cmp          004bad10 f   pjsip-core-i386-win32-vc8-debug:sip_tel_uri.obj
 0002:00040580       _pjsip_strerror            004bb580 f   pjsip-core-i386-win32-vc8-debug:sip_errno.obj
 0002:00040780       _pjsip_auth_init_parser    004bb780 f   pjsip-core-i386-win32-vc8-debug:sip_auth_parser.obj
 0002:000412c0       _pjsip_auth_deinit_parser  004bc2c0 f   pjsip-core-i386-win32-vc8-debug:sip_auth_parser.obj
 0002:000412e0       _pjsip_authorization_hdr_create 004bc2e0 f   pjsip-core-i386-win32-vc8-debug:sip_auth_msg.obj
 0002:00041460       _pjsip_proxy_authorization_hdr_create 004bc460 f   pjsip-core-i386-win32-vc8-debug:sip_auth_msg.obj
 0002:000422f0       _pjsip_www_authenticate_hdr_create 004bd2f0 f   pjsip-core-i386-win32-vc8-debug:sip_auth_msg.obj
 0002:00042350       _pjsip_proxy_authenticate_hdr_create 004bd350 f   pjsip-core-i386-win32-vc8-debug:sip_auth_msg.obj
 0002:00042f00       _pjmedia_sdp_attr_create   004bdf00 f   pjmedia-i386-win32-vc8-debug:sdp.obj
 0002:00042fd0       _pjmedia_sdp_attr_clone    004bdfd0 f   pjmedia-i386-win32-vc8-debug:sdp.obj
 0002:00043080       _pjmedia_sdp_attr_find     004be080 f   pjmedia-i386-win32-vc8-debug:sdp.obj
 0002:00043150       _pjmedia_sdp_attr_find2    004be150 f   pjmedia-i386-win32-vc8-debug:sdp.obj
 0002:000431a0       _pjmedia_sdp_attr_add      004be1a0 f   pjmedia-i386-win32-vc8-debug:sdp.obj
 0002:00043280       _pjmedia_sdp_attr_remove_all 004be280 f   pjmedia-i386-win32-vc8-debug:sdp.obj
 0002:000433a0       _pjmedia_sdp_attr_remove   004be3a0 f   pjmedia-i386-win32-vc8-debug:sdp.obj
 0002:000434a0       _pjmedia_sdp_attr_get_rtpmap 004be4a0 f   pjmedia-i386-win32-vc8-debug:sdp.obj
 0002:000438d0       _pjmedia_sdp_attr_get_fmtp 004be8d0 f   pjmedia-i386-win32-vc8-debug:sdp.obj
 0002:00043a40       _pjmedia_sdp_attr_get_rtcp 004bea40 f   pjmedia-i386-win32-vc8-debug:sdp.obj
 0002:00043c70       _pjmedia_sdp_attr_create_rtcp 004bec70 f   pjmedia-i386-win32-vc8-debug:sdp.obj
 0002:00043df0       _pjmedia_sdp_attr_to_rtpmap 004bedf0 f   pjmedia-i386-win32-vc8-debug:sdp.obj
 0002:00043ee0       _pjmedia_sdp_rtpmap_to_attr 004beee0 f   pjmedia-i386-win32-vc8-debug:sdp.obj
 0002:00044190       _pjmedia_sdp_conn_clone    004bf190 f   pjmedia-i386-win32-vc8-debug:sdp.obj
 0002:00044250       _pjmedia_sdp_media_clone   004bf250 f   pjmedia-i386-win32-vc8-debug:sdp.obj
 0002:000444e0       _pjmedia_sdp_media_find_attr 004bf4e0 f   pjmedia-i386-win32-vc8-debug:sdp.obj
 0002:00044570       _pjmedia_sdp_media_find_attr2 004bf570 f   pjmedia-i386-win32-vc8-debug:sdp.obj
 0002:00044600       _pjmedia_sdp_media_add_attr 004bf600 f   pjmedia-i386-win32-vc8-debug:sdp.obj
 0002:00044640       _pjmedia_sdp_session_add_attr 004bf640 f   pjmedia-i386-win32-vc8-debug:sdp.obj
 0002:00044680       _pjmedia_sdp_media_remove_all_attr 004bf680 f   pjmedia-i386-win32-vc8-debug:sdp.obj
 0002:000446c0       _pjmedia_sdp_media_remove_attr 004bf6c0 f   pjmedia-i386-win32-vc8-debug:sdp.obj
 0002:00044720       _pjmedia_sdp_parse         004bf720 f   pjmedia-i386-win32-vc8-debug:sdp.obj
 0002:00045790       _pjmedia_sdp_print         004c0790 f   pjmedia-i386-win32-vc8-debug:sdp.obj
 0002:000460e0       _pjmedia_sdp_session_clone 004c10e0 f   pjmedia-i386-win32-vc8-debug:sdp.obj
 0002:000463c0       _pjmedia_sdp_validate      004c13c0 f   pjmedia-i386-win32-vc8-debug:sdp.obj
 0002:000467b0       _pjmedia_sdp_transport_cmp 004c17b0 f   pjmedia-i386-win32-vc8-debug:sdp.obj
 0002:00046860       _pjmedia_sdp_media_deactivate 004c1860 f   pjmedia-i386-win32-vc8-debug:sdp.obj
 0002:000468d0       _pjmedia_sdp_media_clone_deactivate 004c18d0 f   pjmedia-i386-win32-vc8-debug:sdp.obj
 0002:00046a90       _pjmedia_transport_udp_create 004c1a90 f   pjmedia-i386-win32-vc8-debug:transport_udp.obj
 0002:00046ad0       _pjmedia_transport_udp_create2 004c1ad0 f   pjmedia-i386-win32-vc8-debug:transport_udp.obj
 0002:00046b20       _pjmedia_transport_udp_create3 004c1b20 f   pjmedia-i386-win32-vc8-debug:transport_udp.obj
 0002:00046d90       _pjmedia_transport_udp_attach 004c1d90 f   pjmedia-i386-win32-vc8-debug:transport_udp.obj
 0002:00048450       _pjmedia_codec_g711_init   004c3450 f   pjmedia-i386-win32-vc8-debug:g711.obj
 0002:000485f0       _pjmedia_codec_g711_deinit 004c35f0 f   pjmedia-i386-win32-vc8-debug:g711.obj
 0002:00049530       _pjmedia_endpt_create      004c4530 f   pjmedia-i386-win32-vc8-debug:endpoint.obj
 0002:000498d0       _pjmedia_endpt_get_codec_mgr 004c48d0 f   pjmedia-i386-win32-vc8-debug:endpoint.obj
 0002:000498f0       _pjmedia_endpt_destroy     004c48f0 f   pjmedia-i386-win32-vc8-debug:endpoint.obj
 0002:00049a60       _pjmedia_endpt_get_ioqueue 004c4a60 f   pjmedia-i386-win32-vc8-debug:endpoint.obj
 0002:00049ac0       _pjmedia_endpt_get_thread_count 004c4ac0 f   pjmedia-i386-win32-vc8-debug:endpoint.obj
 0002:00049b20       _pjmedia_endpt_get_thread  004c4b20 f   pjmedia-i386-win32-vc8-debug:endpoint.obj
 0002:00049c30       _pjmedia_endpt_create_pool 004c4c30 f   pjmedia-i386-win32-vc8-debug:endpoint.obj
 0002:00049ca0       _pjmedia_endpt_create_sdp  004c4ca0 f   pjmedia-i386-win32-vc8-debug:endpoint.obj
 0002:0004a7c0       _pjmedia_endpt_dump        004c57c0 f   pjmedia-i386-win32-vc8-debug:endpoint.obj
 0002:0004ac60       _pjmedia_rtcp_get_ntp_time 004c5c60 f   pjmedia-i386-win32-vc8-debug:rtcp.obj
 0002:0004af40       _pjmedia_rtcp_session_setting_default 004c5f40 f   pjmedia-i386-win32-vc8-debug:rtcp.obj
 0002:0004afa0       _pjmedia_rtcp_init         004c5fa0 f   pjmedia-i386-win32-vc8-debug:rtcp.obj
 0002:0004b000       _pjmedia_rtcp_init2        004c6000 f   pjmedia-i386-win32-vc8-debug:rtcp.obj
 0002:0004b2f0       _pjmedia_rtcp_fini         004c62f0 f   pjmedia-i386-win32-vc8-debug:rtcp.obj
 0002:0004b310       _pjmedia_rtcp_rx_rtp       004c6310 f   pjmedia-i386-win32-vc8-debug:rtcp.obj
 0002:0004b350       _pjmedia_rtcp_rx_rtp2      004c6350 f   pjmedia-i386-win32-vc8-debug:rtcp.obj
 0002:0004b830       _pjmedia_rtcp_tx_rtp       004c6830 f   pjmedia-i386-win32-vc8-debug:rtcp.obj
 0002:0004b880       _pjmedia_rtcp_rx_rtcp      004c6880 f   pjmedia-i386-win32-vc8-debug:rtcp.obj
 0002:0004bd60       _pjmedia_rtcp_build_rtcp   004c6d60 f   pjmedia-i386-win32-vc8-debug:rtcp.obj
 0002:0004c2d0       _pjmedia_rtcp_enable_xr    004c72d0 f   pjmedia-i386-win32-vc8-debug:rtcp.obj
 0002:0004c2f0       _pjmedia_rtp_session_init  004c72f0 f   pjmedia-i386-win32-vc8-debug:rtp.obj
 0002:0004c500       _pjmedia_rtp_session_init2 004c7500 f   pjmedia-i386-win32-vc8-debug:rtp.obj
 0002:0004c5d0       _pjmedia_rtp_encode_rtp    004c75d0 f   pjmedia-i386-win32-vc8-debug:rtp.obj
 0002:0004c6e0       _pjmedia_rtp_decode_rtp    004c76e0 f   pjmedia-i386-win32-vc8-debug:rtp.obj
 0002:0004c7d0       _pjmedia_rtp_session_update 004c77d0 f   pjmedia-i386-win32-vc8-debug:rtp.obj
 0002:0004c800       _pjmedia_rtp_session_update2 004c7800 f   pjmedia-i386-win32-vc8-debug:rtp.obj
 0002:0004c9f0       _pjmedia_rtp_seq_init      004c79f0 f   pjmedia-i386-win32-vc8-debug:rtp.obj
 0002:0004ca90       _pjmedia_rtp_seq_update    004c7a90 f   pjmedia-i386-win32-vc8-debug:rtp.obj
 0002:0004ccb0       _pjmedia_stream_info_from_sdp 004c7cb0 f   pjmedia-i386-win32-vc8-debug:session.obj
 0002:0004df30       _pjmedia_session_info_from_sdp 004c8f30 f   pjmedia-i386-win32-vc8-debug:session.obj
 0002:0004e070       _pjmedia_session_create    004c9070 f   pjmedia-i386-win32-vc8-debug:session.obj
 0002:0004e320       _pjmedia_session_get_info  004c9320 f   pjmedia-i386-win32-vc8-debug:session.obj
 0002:0004e3c0       _pjmedia_session_get_user_data 004c93c0 f   pjmedia-i386-win32-vc8-debug:session.obj
 0002:0004e400       _pjmedia_session_destroy   004c9400 f   pjmedia-i386-win32-vc8-debug:session.obj
 0002:0004e4b0       _pjmedia_session_resume    004c94b0 f   pjmedia-i386-win32-vc8-debug:session.obj
 0002:0004e550       _pjmedia_session_pause     004c9550 f   pjmedia-i386-win32-vc8-debug:session.obj
 0002:0004e5f0       _pjmedia_session_pause_stream 004c95f0 f   pjmedia-i386-win32-vc8-debug:session.obj
 0002:0004e680       _pjmedia_session_resume_stream 004c9680 f   pjmedia-i386-win32-vc8-debug:session.obj
 0002:0004e710       _pjmedia_session_enum_streams 004c9710 f   pjmedia-i386-win32-vc8-debug:session.obj
 0002:0004e810       _pjmedia_session_get_port  004c9810 f   pjmedia-i386-win32-vc8-debug:session.obj
 0002:0004e850       _pjmedia_session_get_stream_stat 004c9850 f   pjmedia-i386-win32-vc8-debug:session.obj
 0002:0004e8f0       _pjmedia_session_get_stream_stat_jbuf 004c98f0 f   pjmedia-i386-win32-vc8-debug:session.obj
 0002:0004e990       _pjmedia_session_dial_dtmf 004c9990 f   pjmedia-i386-win32-vc8-debug:session.obj
 0002:0004ea20       _pjmedia_session_check_dtmf 004c9a20 f   pjmedia-i386-win32-vc8-debug:session.obj
 0002:0004ea90       _pjmedia_session_get_dtmf  004c9a90 f   pjmedia-i386-win32-vc8-debug:session.obj
 0002:0004eb30       _pjmedia_session_set_dtmf_callback 004c9b30 f   pjmedia-i386-win32-vc8-debug:session.obj
 0002:0004ebd0       _pjmedia_sdp_neg_state_str 004c9bd0 f   pjmedia-i386-win32-vc8-debug:sdp_neg.obj
 0002:0004ec10       _pjmedia_sdp_neg_create_w_local_offer 004c9c10 f   pjmedia-i386-win32-vc8-debug:sdp_neg.obj
 0002:0004ede0       _pjmedia_sdp_neg_create_w_remote_offer 004c9de0 f   pjmedia-i386-win32-vc8-debug:sdp_neg.obj
 0002:0004efd0       _pjmedia_sdp_neg_set_prefer_remote_codec_order 004c9fd0 f   pjmedia-i386-win32-vc8-debug:sdp_neg.obj
 0002:0004f030       _pjmedia_sdp_neg_get_state 004ca030 f   pjmedia-i386-win32-vc8-debug:sdp_neg.obj
 0002:0004f090       _pjmedia_sdp_neg_get_active_local 004ca090 f   pjmedia-i386-win32-vc8-debug:sdp_neg.obj
 0002:0004f150       _pjmedia_sdp_neg_get_active_remote 004ca150 f   pjmedia-i386-win32-vc8-debug:sdp_neg.obj
 0002:0004f210       _pjmedia_sdp_neg_was_answer_remote 004ca210 f   pjmedia-i386-win32-vc8-debug:sdp_neg.obj
 0002:0004f270       _pjmedia_sdp_neg_get_neg_remote 004ca270 f   pjmedia-i386-win32-vc8-debug:sdp_neg.obj
 0002:0004f330       _pjmedia_sdp_neg_get_neg_local 004ca330 f   pjmedia-i386-win32-vc8-debug:sdp_neg.obj
 0002:0004f3f0       _pjmedia_sdp_neg_modify_local_offer 004ca3f0 f   pjmedia-i386-win32-vc8-debug:sdp_neg.obj
 0002:0004f780       _pjmedia_sdp_neg_send_local_offer 004ca780 f   pjmedia-i386-win32-vc8-debug:sdp_neg.obj
 0002:0004f8f0       _pjmedia_sdp_neg_set_remote_answer 004ca8f0 f   pjmedia-i386-win32-vc8-debug:sdp_neg.obj
 0002:0004f9e0       _pjmedia_sdp_neg_set_remote_offer 004ca9e0 f   pjmedia-i386-win32-vc8-debug:sdp_neg.obj
 0002:0004fac0       _pjmedia_sdp_neg_set_local_answer 004caac0 f   pjmedia-i386-win32-vc8-debug:sdp_neg.obj
 0002:0004fc60       _pjmedia_sdp_neg_has_local_answer 004cac60 f   pjmedia-i386-win32-vc8-debug:sdp_neg.obj
 0002:0004fcc0       _pjmedia_sdp_neg_cancel_offer 004cacc0 f   pjmedia-i386-win32-vc8-debug:sdp_neg.obj
 0002:0004fda0       _pjmedia_sdp_neg_negotiate 004cada0 f   pjmedia-i386-win32-vc8-debug:sdp_neg.obj
 0002:00052500       _pjmedia_codec_mgr_init    004cd500 f   pjmedia-i386-win32-vc8-debug:codec.obj
 0002:00052670       _pjmedia_codec_mgr_destroy 004cd670 f   pjmedia-i386-win32-vc8-debug:codec.obj
 0002:000527b0       _pjmedia_codec_mgr_register_factory 004cd7b0 f   pjmedia-i386-win32-vc8-debug:codec.obj
 0002:00052a70       _pjmedia_codec_mgr_unregister_factory 004cda70 f   pjmedia-i386-win32-vc8-debug:codec.obj
 0002:00052c40       _pjmedia_codec_mgr_enum_codecs 004cdc40 f   pjmedia-i386-win32-vc8-debug:codec.obj
 0002:00052da0       _pjmedia_codec_mgr_get_codec_info 004cdda0 f   pjmedia-i386-win32-vc8-debug:codec.obj
 0002:00052ec0       _pjmedia_codec_info_to_id  004cdec0 f   pjmedia-i386-win32-vc8-debug:codec.obj
 0002:00052f90       _pjmedia_codec_mgr_find_codecs_by_id 004cdf90 f   pjmedia-i386-win32-vc8-debug:codec.obj
 0002:00053300       _pjmedia_codec_mgr_set_codec_priority 004ce300 f   pjmedia-i386-win32-vc8-debug:codec.obj
 0002:00053450       _pjmedia_codec_mgr_alloc_codec 004ce450 f   pjmedia-i386-win32-vc8-debug:codec.obj
 0002:00053590       _pjmedia_codec_mgr_get_default_param 004ce590 f   pjmedia-i386-win32-vc8-debug:codec.obj
 0002:00053810       _pjmedia_codec_mgr_set_default_param 004ce810 f   pjmedia-i386-win32-vc8-debug:codec.obj
 0002:00053c00       _pjmedia_codec_mgr_dealloc_codec 004cec00 f   pjmedia-i386-win32-vc8-debug:codec.obj
 0002:00053c90       _pjmedia_silence_det_create 004cec90 f   pjmedia-i386-win32-vc8-debug:silencedet.obj
 0002:00053db0       _pjmedia_silence_det_set_name 004cedb0 f   pjmedia-i386-win32-vc8-debug:silencedet.obj
 0002:00053e40       _pjmedia_silence_det_set_adaptive 004cee40 f   pjmedia-i386-win32-vc8-debug:silencedet.obj
 0002:00053ec0       _pjmedia_silence_det_set_fixed 004ceec0 f   pjmedia-i386-win32-vc8-debug:silencedet.obj
 0002:00053f40       _pjmedia_silence_det_set_params 004cef40 f   pjmedia-i386-win32-vc8-debug:silencedet.obj
 0002:00053ff0       _pjmedia_silence_det_disable 004ceff0 f   pjmedia-i386-win32-vc8-debug:silencedet.obj
 0002:00054060       _pjmedia_calc_avg_signal   004cf060 f   pjmedia-i386-win32-vc8-debug:silencedet.obj
 0002:00054100       _pjmedia_silence_det_apply 004cf100 f   pjmedia-i386-win32-vc8-debug:silencedet.obj
 0002:000544a0       _pjmedia_silence_det_detect 004cf4a0 f   pjmedia-i386-win32-vc8-debug:silencedet.obj
 0002:00054500       _pjmedia_plc_create        004cf500 f   pjmedia-i386-win32-vc8-debug:plc_common.obj
 0002:00054650       _pjmedia_plc_save          004cf650 f   pjmedia-i386-win32-vc8-debug:plc_common.obj
 0002:000546e0       _pjmedia_plc_generate      004cf6e0 f   pjmedia-i386-win32-vc8-debug:plc_common.obj
 0002:00054890       _pjmedia_strerror          004cf890 f   pjmedia-i386-win32-vc8-debug:errno.obj
 0002:00054a80       _pjmedia_stream_create     004cfa80 f   pjmedia-i386-win32-vc8-debug:stream.obj
 0002:000585f0       _pjmedia_stream_destroy    004d35f0 f   pjmedia-i386-win32-vc8-debug:stream.obj
 0002:00058910       _pjmedia_stream_get_port   004d3910 f   pjmedia-i386-win32-vc8-debug:stream.obj
 0002:00058940       _pjmedia_stream_get_transport 004d3940 f   pjmedia-i386-win32-vc8-debug:stream.obj
 0002:00058960       _pjmedia_stream_start      004d3960 f   pjmedia-i386-win32-vc8-debug:stream.obj
 0002:00058af0       _pjmedia_stream_get_stat   004d3af0 f   pjmedia-i386-win32-vc8-debug:stream.obj
 0002:00058b80       _pjmedia_stream_get_stat_jbuf 004d3b80 f   pjmedia-i386-win32-vc8-debug:stream.obj
 0002:00058c00       _pjmedia_stream_pause      004d3c00 f   pjmedia-i386-win32-vc8-debug:stream.obj
 0002:00058d40       _pjmedia_stream_resume     004d3d40 f   pjmedia-i386-win32-vc8-debug:stream.obj
 0002:00058e40       _pjmedia_stream_dial_dtmf  004d3e40 f   pjmedia-i386-win32-vc8-debug:stream.obj
 0002:00059070       _pjmedia_stream_check_dtmf 004d4070 f   pjmedia-i386-win32-vc8-debug:stream.obj
 0002:000590a0       _pjmedia_stream_get_dtmf   004d40a0 f   pjmedia-i386-win32-vc8-debug:stream.obj
 0002:00059220       _pjmedia_stream_set_dtmf_callback 004d4220 f   pjmedia-i386-win32-vc8-debug:stream.obj
 0002:000592c0       _pjmedia_wsola_create      004d42c0 f   pjmedia-i386-win32-vc8-debug:wsola.obj
 0002:000598f0       _pjmedia_wsola_destroy     004d48f0 f   pjmedia-i386-win32-vc8-debug:wsola.obj
 0002:00059910       _pjmedia_wsola_set_max_expand 004d4910 f   pjmedia-i386-win32-vc8-debug:wsola.obj
 0002:00059990       _pjmedia_wsola_reset       004d4990 f   pjmedia-i386-win32-vc8-debug:wsola.obj
 0002:00059af0       _pjmedia_wsola_save        004d4af0 f   pjmedia-i386-win32-vc8-debug:wsola.obj
 0002:0005a870       _pjmedia_wsola_generate    004d5870 f   pjmedia-i386-win32-vc8-debug:wsola.obj
 0002:0005b0f0       _pjmedia_wsola_discard     004d60f0 f   pjmedia-i386-win32-vc8-debug:wsola.obj
 0002:0005b7e0       _get_libsrtp_errstr        004d67e0 f   pjmedia-i386-win32-vc8-debug:transport_srtp.obj
 0002:0005b840       _pjmedia_srtp_init_lib     004d6840 f   pjmedia-i386-win32-vc8-debug:transport_srtp.obj
 0002:0005b980       _pjmedia_srtp_setting_default 004d6980 f   pjmedia-i386-win32-vc8-debug:transport_srtp.obj
 0002:0005ba80       _pjmedia_transport_srtp_create 004d6a80 f   pjmedia-i386-win32-vc8-debug:transport_srtp.obj
 0002:0005bf50       _pjmedia_transport_srtp_start 004d6f50 f   pjmedia-i386-win32-vc8-debug:transport_srtp.obj
 0002:0005c8d0       _pjmedia_transport_srtp_stop 004d78d0 f   pjmedia-i386-win32-vc8-debug:transport_srtp.obj
 0002:0005ca20       _pjmedia_transport_srtp_get_member 004d7a20 f   pjmedia-i386-win32-vc8-debug:transport_srtp.obj
 0002:0005f2d0       _pjmedia_transport_srtp_decrypt_pkt 004da2d0 f   pjmedia-i386-win32-vc8-debug:transport_srtp.obj
 0002:0005f4f0       _pjmedia_jbuf_create       004da4f0 f   pjmedia-i386-win32-vc8-debug:jbuf.obj
 0002:0005f920       _pjmedia_jbuf_set_fixed    004da920 f   pjmedia-i386-win32-vc8-debug:jbuf.obj
 0002:0005f9f0       _pjmedia_jbuf_set_adaptive 004da9f0 f   pjmedia-i386-win32-vc8-debug:jbuf.obj
 0002:0005faf0       _pjmedia_jbuf_reset        004daaf0 f   pjmedia-i386-win32-vc8-debug:jbuf.obj
 0002:0005fb70       _pjmedia_jbuf_destroy      004dab70 f   pjmedia-i386-win32-vc8-debug:jbuf.obj
 0002:0005fd80       _pjmedia_jbuf_put_frame    004dad80 f   pjmedia-i386-win32-vc8-debug:jbuf.obj
 0002:0005fdc0       _pjmedia_jbuf_put_frame2   004dadc0 f   pjmedia-i386-win32-vc8-debug:jbuf.obj
 0002:00060b20       _pjmedia_jbuf_get_frame    004dbb20 f   pjmedia-i386-win32-vc8-debug:jbuf.obj
 0002:00060b60       _pjmedia_jbuf_get_frame2   004dbb60 f   pjmedia-i386-win32-vc8-debug:jbuf.obj
 0002:00060ed0       _pjmedia_jbuf_get_state    004dbed0 f   pjmedia-i386-win32-vc8-debug:jbuf.obj
 0002:00061040       _pjmedia_port_info_init    004dc040 f   pjmedia-i386-win32-vc8-debug:port.obj
 0002:00061150       _pjmedia_port_get_frame    004dc150 f   pjmedia-i386-win32-vc8-debug:port.obj
 0002:000611f0       _pjmedia_port_put_frame    004dc1f0 f   pjmedia-i386-win32-vc8-debug:port.obj
 0002:00061280       _pjmedia_port_destroy      004dc280 f   pjmedia-i386-win32-vc8-debug:port.obj
 0002:00061310       _pjlib_util_strerror       004dc310 f   pjlib-util-i386-win32-vc8-debug:errno.obj
 0002:00061480       _pjlib_util_init           004dc480 f   pjlib-util-i386-win32-vc8-debug:errno.obj
 0002:000614b0       _pj_getopt_long            004dc4b0 f   pjlib-util-i386-win32-vc8-debug:getopt.obj
 0002:000614f0       _pj_getopt                 004dc4f0 f   pjlib-util-i386-win32-vc8-debug:getopt.obj
 0002:00062430       _pj_cis_buf_init           004dd430 f   pjlib-util-i386-win32-vc8-debug:scanner.obj
 0002:000624a0       _pj_cis_init               004dd4a0 f   pjlib-util-i386-win32-vc8-debug:scanner.obj
 0002:00062540       _pj_cis_dup                004dd540 f   pjlib-util-i386-win32-vc8-debug:scanner.obj
 0002:00062630       _pj_cis_add_range          004dd630 f   pjlib-util-i386-win32-vc8-debug:scanner.obj
 0002:000626b0       _pj_cis_add_alpha          004dd6b0 f   pjlib-util-i386-win32-vc8-debug:scanner.obj
 0002:000626f0       _pj_cis_add_num            004dd6f0 f   pjlib-util-i386-win32-vc8-debug:scanner.obj
 0002:00062720       _pj_cis_add_str            004dd720 f   pjlib-util-i386-win32-vc8-debug:scanner.obj
 0002:00062790       _pj_cis_add_cis            004dd790 f   pjlib-util-i386-win32-vc8-debug:scanner.obj
 0002:00062820       _pj_cis_del_range          004dd820 f   pjlib-util-i386-win32-vc8-debug:scanner.obj
 0002:00062880       _pj_cis_del_str            004dd880 f   pjlib-util-i386-win32-vc8-debug:scanner.obj
 0002:000628f0       _pj_cis_invert             004dd8f0 f   pjlib-util-i386-win32-vc8-debug:scanner.obj
 0002:000629b0       _pj_scan_init              004dd9b0 f   pjlib-util-i386-win32-vc8-debug:scanner.obj
 0002:00062a50       _pj_scan_fini              004dda50 f   pjlib-util-i386-win32-vc8-debug:scanner.obj
 0002:00062a80       _pj_scan_skip_whitespace   004dda80 f   pjlib-util-i386-win32-vc8-debug:scanner.obj
 0002:00062ce0       _pj_scan_skip_line         004ddce0 f   pjlib-util-i386-win32-vc8-debug:scanner.obj
 0002:00062d60       _pj_scan_peek              004ddd60 f   pjlib-util-i386-win32-vc8-debug:scanner.obj
 0002:00062e90       _pj_scan_peek_n            004dde90 f   pjlib-util-i386-win32-vc8-debug:scanner.obj
 0002:00062f30       _pj_scan_peek_until        004ddf30 f   pjlib-util-i386-win32-vc8-debug:scanner.obj
 0002:00062fd0       _pj_scan_get               004ddfd0 f   pjlib-util-i386-win32-vc8-debug:scanner.obj
 0002:000630d0       _pj_scan_get_unescape      004de0d0 f   pjlib-util-i386-win32-vc8-debug:scanner.obj
 0002:00063440       _pj_scan_get_quote         004de440 f   pjlib-util-i386-win32-vc8-debug:scanner.obj
 0002:00063490       _pj_scan_get_quotes        004de490 f   pjlib-util-i386-win32-vc8-debug:scanner.obj
 0002:000636d0       _pj_scan_get_n             004de6d0 f   pjlib-util-i386-win32-vc8-debug:scanner.obj
 0002:00063770       _pj_scan_get_char          004de770 f   pjlib-util-i386-win32-vc8-debug:scanner.obj
 0002:000637f0       _pj_scan_get_newline       004de7f0 f   pjlib-util-i386-win32-vc8-debug:scanner.obj
 0002:000638b0       _pj_scan_get_until         004de8b0 f   pjlib-util-i386-win32-vc8-debug:scanner.obj
 0002:00063980       _pj_scan_get_until_ch      004de980 f   pjlib-util-i386-win32-vc8-debug:scanner.obj
 0002:00063a40       _pj_scan_get_until_chr     004dea40 f   pjlib-util-i386-win32-vc8-debug:scanner.obj
 0002:00063b30       _pj_scan_advance_n         004deb30 f   pjlib-util-i386-win32-vc8-debug:scanner.obj
 0002:00063bb0       _pj_scan_strcmp            004debb0 f   pjlib-util-i386-win32-vc8-debug:scanner.obj
 0002:00063c10       _pj_scan_stricmp           004dec10 f   pjlib-util-i386-win32-vc8-debug:scanner.obj
 0002:00063c70       _pj_scan_stricmp_alnum     004dec70 f   pjlib-util-i386-win32-vc8-debug:scanner.obj
 0002:00063cd0       _pj_scan_save_state        004decd0 f   pjlib-util-i386-win32-vc8-debug:scanner.obj
 0002:00063d10       _pj_scan_restore_state     004ded10 f   pjlib-util-i386-win32-vc8-debug:scanner.obj
 0002:00063d50       _pj_dns_settings_default   004ded50 f   pjlib-util-i386-win32-vc8-debug:resolver.obj
 0002:00063df0       _pj_dns_resolver_create    004dedf0 f   pjlib-util-i386-win32-vc8-debug:resolver.obj
 0002:00064240       _pj_dns_resolver_destroy   004df240 f   pjlib-util-i386-win32-vc8-debug:resolver.obj
 0002:000645a0       _pj_dns_resolver_set_ns    004df5a0 f   pjlib-util-i386-win32-vc8-debug:resolver.obj
 0002:000647c0       _pj_dns_resolver_set_settings 004df7c0 f   pjlib-util-i386-win32-vc8-debug:resolver.obj
 0002:000648a0       _pj_dns_resolver_get_settings 004df8a0 f   pjlib-util-i386-win32-vc8-debug:resolver.obj
 0002:00064950       _pj_dns_resolver_handle_events 004df950 f   pjlib-util-i386-win32-vc8-debug:resolver.obj
 0002:000649f0       _pj_dns_resolver_start_query 004df9f0 f   pjlib-util-i386-win32-vc8-debug:resolver.obj
 0002:00065570       _pj_dns_resolver_cancel_query 004e0570 f   pjlib-util-i386-win32-vc8-debug:resolver.obj
 0002:00065640       _pj_dns_parse_a_response   004e0640 f   pjlib-util-i386-win32-vc8-debug:resolver.obj
 0002:00066d60       _pj_dns_resolver_add_entry 004e1d60 f   pjlib-util-i386-win32-vc8-debug:resolver.obj
 0002:00067060       _pj_dns_resolver_get_cached_count 004e2060 f   pjlib-util-i386-win32-vc8-debug:resolver.obj
 0002:00067100       _pj_dns_resolver_dump      004e2100 f   pjlib-util-i386-win32-vc8-debug:resolver.obj
 0002:00067570       _pj_str_unescape           004e2570 f   pjlib-util-i386-win32-vc8-debug:string.obj
 0002:000677a0       _pj_strcpy_unescape        004e27a0 f   pjlib-util-i386-win32-vc8-debug:string.obj
 0002:00067890       _pj_strncpy2_escape        004e2890 f   pjlib-util-i386-win32-vc8-debug:string.obj
 0002:00067a50       _pj_strncpy_escape         004e2a50 f   pjlib-util-i386-win32-vc8-debug:string.obj
 0002:00067ab0       _pj_md5_init               004e2ab0 f   pjlib-util-i386-win32-vc8-debug:md5.obj
 0002:00067b10       _pj_md5_update             004e2b10 f   pjlib-util-i386-win32-vc8-debug:md5.obj
 0002:00067cc0       _pj_md5_final              004e2cc0 f   pjlib-util-i386-win32-vc8-debug:md5.obj
 0002:00069020       _pj_dns_srv_resolve        004e4020 f   pjlib-util-i386-win32-vc8-debug:srv_resolver.obj
 0002:00069300       _pj_dns_srv_cancel_query   004e4300 f   pjlib-util-i386-win32-vc8-debug:srv_resolver.obj
 0002:0006abb0       _pj_dns_get_type_name      004e5bb0 f   pjlib-util-i386-win32-vc8-debug:dns.obj
 0002:0006acb0       _pj_dns_make_query         004e5cb0 f   pjlib-util-i386-win32-vc8-debug:dns.obj
 0002:0006afd0       _pj_dns_parse_packet       004e5fd0 f   pjlib-util-i386-win32-vc8-debug:dns.obj
 0002:0006bf00       _pj_dns_packet_dup         004e6f00 f   pjlib-util-i386-win32-vc8-debug:dns.obj
 0002:0006c650       _pj_dns_init_srv_rr        004e7650 f   pjlib-util-i386-win32-vc8-debug:dns.obj
 0002:0006c6f0       _pj_dns_init_cname_rr      004e76f0 f   pjlib-util-i386-win32-vc8-debug:dns.obj
 0002:0006c770       _pj_dns_init_a_rr          004e7770 f   pjlib-util-i386-win32-vc8-debug:dns.obj
 0002:0006c7e0       _pj_base64_encode          004e77e0 f   pjlib-util-i386-win32-vc8-debug:base64.obj
 0002:0006cb40       _pj_base64_decode          004e7b40 f   pjlib-util-i386-win32-vc8-debug:base64.obj
 0002:0006cfe0       _pj_str                    004e7fe0 f   pjlib-i386-win32-vc8-debug:string.obj
 0002:0006d030       _pj_strdup                 004e8030 f   pjlib-i386-win32-vc8-debug:string.obj
 0002:0006d0f0       _pj_strdup_with_null       004e80f0 f   pjlib-i386-win32-vc8-debug:string.obj
 0002:0006d180       _pj_strdup2                004e8180 f   pjlib-i386-win32-vc8-debug:string.obj
 0002:0006d220       _pj_strdup2_with_null      004e8220 f   pjlib-i386-win32-vc8-debug:string.obj
 0002:0006d2d0       _pj_strdup3                004e82d0 f   pjlib-i386-win32-vc8-debug:string.obj
 0002:0006d310       _pj_strassign              004e8310 f   pjlib-i386-win32-vc8-debug:string.obj
 0002:0006d350       _pj_strcpy                 004e8350 f   pjlib-i386-win32-vc8-debug:string.obj
 0002:0006d3b0       _pj_strcpy2                004e83b0 f   pjlib-i386-win32-vc8-debug:string.obj
 0002:0006d430       _pj_strncpy                004e8430 f   pjlib-i386-win32-vc8-debug:string.obj
 0002:0006d490       _pj_strncpy_with_null      004e8490 f   pjlib-i386-win32-vc8-debug:string.obj
 0002:0006d510       _pj_strcmp                 004e8510 f   pjlib-i386-win32-vc8-debug:string.obj
 0002:0006d630       _pj_strncmp                004e8630 f   pjlib-i386-win32-vc8-debug:string.obj
 0002:0006d6b0       _pj_strncmp2               004e86b0 f   pjlib-i386-win32-vc8-debug:string.obj
 0002:0006d710       _pj_strcmp2                004e8710 f   pjlib-i386-win32-vc8-debug:string.obj
 0002:0006d770       _pj_stricmp                004e8770 f   pjlib-i386-win32-vc8-debug:string.obj
 0002:0006d860       _pj_stricmp2               004e8860 f   pjlib-i386-win32-vc8-debug:string.obj
 0002:0006d8c0       _pj_strnicmp               004e88c0 f   pjlib-i386-win32-vc8-debug:string.obj
 0002:0006d940       _pj_strnicmp2              004e8940 f   pjlib-i386-win32-vc8-debug:string.obj
 0002:0006d9a0       _pj_strcat                 004e89a0 f   pjlib-i386-win32-vc8-debug:string.obj
 0002:0006da00       _pj_strcat2                004e8a00 f   pjlib-i386-win32-vc8-debug:string.obj
 0002:0006da80       _pj_strtrim                004e8a80 f   pjlib-i386-win32-vc8-debug:string.obj
 0002:0006dac0       _pj_strstr                 004e8ac0 f   pjlib-i386-win32-vc8-debug:string.obj
 0002:0006db60       _pj_stristr                004e8b60 f   pjlib-i386-win32-vc8-debug:string.obj
 0002:0006dc00       _pj_strltrim               004e8c00 f   pjlib-i386-win32-vc8-debug:string.obj
 0002:0006dcc0       _pj_strrtrim               004e8cc0 f   pjlib-i386-win32-vc8-debug:string.obj
 0002:0006dd50       _pj_create_random_string   004e8d50 f   pjlib-i386-win32-vc8-debug:string.obj
 0002:0006def0       _pj_strtoul                004e8ef0 f   pjlib-i386-win32-vc8-debug:string.obj
 0002:0006dfd0       _pj_strtoul2               004e8fd0 f   pjlib-i386-win32-vc8-debug:string.obj
 0002:0006e1f0       _pj_utoa                   004e91f0 f   pjlib-i386-win32-vc8-debug:string.obj
 0002:0006e220       _pj_utoa_pad               004e9220 f   pjlib-i386-win32-vc8-debug:string.obj
 0002:0006e330       _pj_gettimeofday           004e9330 f   pjlib-i386-win32-vc8-debug:os_time_win32.obj
 0002:0006e490       _pj_time_decode            004e9490 f   pjlib-i386-win32-vc8-debug:os_time_win32.obj
 0002:0006e580       _pj_time_encode            004e9580 f   pjlib-i386-win32-vc8-debug:os_time_win32.obj
 0002:0006e6b0       _pj_ntohs                  004e96b0 f   pjlib-i386-win32-vc8-debug:sock_bsd.obj
 0002:0006e6e0       _pj_htons                  004e96e0 f   pjlib-i386-win32-vc8-debug:sock_bsd.obj
 0002:0006e710       _pj_ntohl                  004e9710 f   pjlib-i386-win32-vc8-debug:sock_bsd.obj
 0002:0006e730       _pj_htonl                  004e9730 f   pjlib-i386-win32-vc8-debug:sock_bsd.obj
 0002:0006e750       _pj_inet_ntoa              004e9750 f   pjlib-i386-win32-vc8-debug:sock_bsd.obj
 0002:0006e770       _pj_inet_aton              004e9770 f   pjlib-i386-win32-vc8-debug:sock_bsd.obj
 0002:0006e8a0       _pj_inet_pton              004e98a0 f   pjlib-i386-win32-vc8-debug:sock_bsd.obj
 0002:0006eb00       _pj_inet_ntop              004e9b00 f   pjlib-i386-win32-vc8-debug:sock_bsd.obj
 0002:0006ed70       _pj_gethostname            004e9d70 f   pjlib-i386-win32-vc8-debug:sock_bsd.obj
 0002:0006ee10       _pj_sock_socket            004e9e10 f   pjlib-i386-win32-vc8-debug:sock_bsd.obj
 0002:0006ef30       _pj_sock_bind              004e9f30 f   pjlib-i386-win32-vc8-debug:sock_bsd.obj
 0002:0006f020       _pj_sock_bind_in           004ea020 f   pjlib-i386-win32-vc8-debug:sock_bsd.obj
 0002:0006f0d0       _pj_sock_close             004ea0d0 f   pjlib-i386-win32-vc8-debug:sock_bsd.obj
 0002:0006f170       _pj_sock_getpeername       004ea170 f   pjlib-i386-win32-vc8-debug:sock_bsd.obj
 0002:0006f210       _pj_sock_getsockname       004ea210 f   pjlib-i386-win32-vc8-debug:sock_bsd.obj
 0002:0006f2b0       _pj_sock_send              004ea2b0 f   pjlib-i386-win32-vc8-debug:sock_bsd.obj
 0002:0006f3a0       _pj_sock_sendto            004ea3a0 f   pjlib-i386-win32-vc8-debug:sock_bsd.obj
 0002:0006f4a0       _pj_sock_recv              004ea4a0 f   pjlib-i386-win32-vc8-debug:sock_bsd.obj
 0002:0006f5a0       _pj_sock_recvfrom          004ea5a0 f   pjlib-i386-win32-vc8-debug:sock_bsd.obj
 0002:0006f710       _pj_sock_getsockopt        004ea710 f   pjlib-i386-win32-vc8-debug:sock_bsd.obj
 0002:0006f810       _pj_sock_setsockopt        004ea810 f   pjlib-i386-win32-vc8-debug:sock_bsd.obj
 0002:0006f8c0       _pj_sock_connect           004ea8c0 f   pjlib-i386-win32-vc8-debug:sock_bsd.obj
 0002:0006f960       _pj_sock_shutdown          004ea960 f   pjlib-i386-win32-vc8-debug:sock_bsd.obj
 0002:0006fa00       _pj_sock_listen            004eaa00 f   pjlib-i386-win32-vc8-debug:sock_bsd.obj
 0002:0006faa0       _pj_sock_accept            004eaaa0 f   pjlib-i386-win32-vc8-debug:sock_bsd.obj
 0002:0006fb90       _pj_pool_get_capacity      004eab90 f   pjlib-i386-win32-vc8-debug:pool.obj
 0002:0006fbb0       _pj_pool_get_used_size     004eabb0 f   pjlib-i386-win32-vc8-debug:pool.obj
 0002:0006fc20       _pj_pool_alloc_from_block  004eac20 f   pjlib-i386-win32-vc8-debug:pool.obj
 0002:0006fc90       _pj_pool_alloc             004eac90 f   pjlib-i386-win32-vc8-debug:pool.obj
 0002:0006fcf0       _pj_pool_calloc            004eacf0 f   pjlib-i386-win32-vc8-debug:pool.obj
 0002:0006fd80       _pj_pool_getobjname        004ead80 f   pjlib-i386-win32-vc8-debug:pool.obj
 0002:0006fda0       _pj_pool_create            004eada0 f   pjlib-i386-win32-vc8-debug:pool.obj
 0002:0006fde0       _pj_pool_release           004eade0 f   pjlib-i386-win32-vc8-debug:pool.obj
 0002:0006fe30       _pj_NO_MEMORY_EXCEPTION    004eae30 f   pjlib-i386-win32-vc8-debug:pool.obj
 0002:0006fe50       _pj_pool_allocate_find     004eae50 f   pjlib-i386-win32-vc8-debug:pool.obj
 0002:00070100       _pj_pool_init_int          004eb100 f   pjlib-i386-win32-vc8-debug:pool.obj
 0002:000701c0       _pj_pool_create_int        004eb1c0 f   pjlib-i386-win32-vc8-debug:pool.obj
 0002:00070370       _pj_pool_reset             004eb370 f   pjlib-i386-win32-vc8-debug:pool.obj
 0002:00070490       _pj_pool_destroy_int       004eb490 f   pjlib-i386-win32-vc8-debug:pool.obj
 0002:00070510       _pj_log_init               004eb510 f   pjlib-i386-win32-vc8-debug:log.obj
 0002:000705a0       _pj_log_set_decor          004eb5a0 f   pjlib-i386-win32-vc8-debug:log.obj
 0002:000705c0       _pj_log_get_decor          004eb5c0 f   pjlib-i386-win32-vc8-debug:log.obj
 0002:000705e0       _pj_log_set_color          004eb5e0 f   pjlib-i386-win32-vc8-debug:log.obj
 0002:00070710       _pj_log_get_color          004eb710 f   pjlib-i386-win32-vc8-debug:log.obj
 0002:000707b0       _pj_log_set_level          004eb7b0 f   pjlib-i386-win32-vc8-debug:log.obj
 0002:000707d0       _pj_log_get_level          004eb7d0 f   pjlib-i386-win32-vc8-debug:log.obj
 0002:000707f0       _pj_log_set_log_func       004eb7f0 f   pjlib-i386-win32-vc8-debug:log.obj
 0002:00070810       _pj_log_get_log_func       004eb810 f   pjlib-i386-win32-vc8-debug:log.obj
 0002:00070830       _pj_log                    004eb830 f   pjlib-i386-win32-vc8-debug:log.obj
 0002:00071030       _pj_log_1                  004ec030 f   pjlib-i386-win32-vc8-debug:log.obj
 0002:00071070       _pj_log_2                  004ec070 f   pjlib-i386-win32-vc8-debug:log.obj
 0002:000710b0       _pj_log_3                  004ec0b0 f   pjlib-i386-win32-vc8-debug:log.obj
 0002:000710f0       _pj_log_4                  004ec0f0 f   pjlib-i386-win32-vc8-debug:log.obj
 0002:00071130       _pj_log_5                  004ec130 f   pjlib-i386-win32-vc8-debug:log.obj
 0002:00071170       _pj_log_write              004ec170 f   pjlib-i386-win32-vc8-debug:log_writer_stdout.obj
 0002:00071250       _pj_init                   004ec250 f   pjlib-i386-win32-vc8-debug:os_core_win32.obj
 0002:00071450       _pj_atexit                 004ec450 f   pjlib-i386-win32-vc8-debug:os_core_win32.obj
 0002:000714a0       _pj_shutdown               004ec4a0 f   pjlib-i386-win32-vc8-debug:os_core_win32.obj
 0002:000715b0       _pj_getpid                 004ec5b0 f   pjlib-i386-win32-vc8-debug:os_core_win32.obj
 0002:000715f0       _pj_thread_is_registered   004ec5f0 f   pjlib-i386-win32-vc8-debug:os_core_win32.obj
 0002:00071620       _pj_thread_get_prio        004ec620 f   pjlib-i386-win32-vc8-debug:os_core_win32.obj
 0002:00071650       _pj_thread_set_prio        004ec650 f   pjlib-i386-win32-vc8-debug:os_core_win32.obj
 0002:00071760       _pj_thread_get_prio_min    004ec760 f   pjlib-i386-win32-vc8-debug:os_core_win32.obj
 0002:00071780       _pj_thread_get_prio_max    004ec780 f   pjlib-i386-win32-vc8-debug:os_core_win32.obj
 0002:000717a0       _pj_thread_get_os_handle   004ec7a0 f   pjlib-i386-win32-vc8-debug:os_core_win32.obj
 0002:00071800       _pj_thread_register        004ec800 f   pjlib-i386-win32-vc8-debug:os_core_win32.obj
 0002:000719c0       _pj_thread_init            004ec9c0 f   pjlib-i386-win32-vc8-debug:os_core_win32.obj
 0002:00071a20       _pj_thread_create          004eca20 f   pjlib-i386-win32-vc8-debug:os_core_win32.obj
 0002:00071d40       _pj_thread_get_name        004ecd40 f   pjlib-i386-win32-vc8-debug:os_core_win32.obj
 0002:00071dc0       _pj_thread_resume          004ecdc0 f   pjlib-i386-win32-vc8-debug:os_core_win32.obj
 0002:00071ea0       _pj_thread_this            004ecea0 f   pjlib-i386-win32-vc8-debug:os_core_win32.obj
 0002:00071f10       _pj_thread_join            004ecf10 f   pjlib-i386-win32-vc8-debug:os_core_win32.obj
 0002:00072020       _pj_thread_destroy         004ed020 f   pjlib-i386-win32-vc8-debug:os_core_win32.obj
 0002:00072100       _pj_thread_sleep           004ed100 f   pjlib-i386-win32-vc8-debug:os_core_win32.obj
 0002:00072140       _pj_thread_check_stack     004ed140 f   pjlib-i386-win32-vc8-debug:os_core_win32.obj
 0002:00072240       _pj_thread_get_stack_max_usage 004ed240 f   pjlib-i386-win32-vc8-debug:os_core_win32.obj
 0002:00072260       _pj_thread_get_stack_info  004ed260 f   pjlib-i386-win32-vc8-debug:os_core_win32.obj
 0002:000722c0       _pj_atomic_create          004ed2c0 f   pjlib-i386-win32-vc8-debug:os_core_win32.obj
 0002:00072310       _pj_atomic_destroy         004ed310 f   pjlib-i386-win32-vc8-debug:os_core_win32.obj
 0002:00072370       _pj_atomic_set             004ed370 f   pjlib-i386-win32-vc8-debug:os_core_win32.obj
 0002:000723c0       _pj_atomic_get             004ed3c0 f   pjlib-i386-win32-vc8-debug:os_core_win32.obj
 0002:00072430       _pj_atomic_inc_and_get     004ed430 f   pjlib-i386-win32-vc8-debug:os_core_win32.obj
 0002:00072470       _pj_atomic_inc             004ed470 f   pjlib-i386-win32-vc8-debug:os_core_win32.obj
 0002:000724a0       _pj_atomic_dec_and_get     004ed4a0 f   pjlib-i386-win32-vc8-debug:os_core_win32.obj
 0002:000724e0       _pj_atomic_dec             004ed4e0 f   pjlib-i386-win32-vc8-debug:os_core_win32.obj
 0002:00072510       _pj_atomic_add             004ed510 f   pjlib-i386-win32-vc8-debug:os_core_win32.obj
 0002:00072540       _pj_atomic_add_and_get     004ed540 f   pjlib-i386-win32-vc8-debug:os_core_win32.obj
 0002:00072570       _pj_thread_local_alloc     004ed570 f   pjlib-i386-win32-vc8-debug:os_core_win32.obj
 0002:00072630       _pj_thread_local_free      004ed630 f   pjlib-i386-win32-vc8-debug:os_core_win32.obj
 0002:00072670       _pj_thread_local_set       004ed670 f   pjlib-i386-win32-vc8-debug:os_core_win32.obj
 0002:00072700       _pj_thread_local_get       004ed700 f   pjlib-i386-win32-vc8-debug:os_core_win32.obj
 0002:000727f0       _pj_mutex_create           004ed7f0 f   pjlib-i386-win32-vc8-debug:os_core_win32.obj
 0002:000728b0       _pj_mutex_create_simple    004ed8b0 f   pjlib-i386-win32-vc8-debug:os_core_win32.obj
 0002:000728e0       _pj_mutex_create_recursive 004ed8e0 f   pjlib-i386-win32-vc8-debug:os_core_win32.obj
 0002:00072910       _pj_mutex_lock             004ed910 f   pjlib-i386-win32-vc8-debug:os_core_win32.obj
 0002:000729e0       _pj_mutex_unlock           004ed9e0 f   pjlib-i386-win32-vc8-debug:os_core_win32.obj
 0002:00072ad0       _pj_mutex_trylock          004edad0 f   pjlib-i386-win32-vc8-debug:os_core_win32.obj
 0002:00072bb0       _pj_mutex_destroy          004edbb0 f   pjlib-i386-win32-vc8-debug:os_core_win32.obj
 0002:00072c40       _pj_mutex_is_locked        004edc40 f   pjlib-i386-win32-vc8-debug:os_core_win32.obj
 0002:00072c70       _pj_rwmutex_create         004edc70 f   pjlib-i386-win32-vc8-debug:os_core_win32.obj
 0002:00072d80       _pj_rwmutex_lock_read      004edd80 f   pjlib-i386-win32-vc8-debug:os_core_win32.obj
 0002:00072eb0       _pj_rwmutex_lock_write     004edeb0 f   pjlib-i386-win32-vc8-debug:os_core_win32.obj
 0002:00072f20       _pj_rwmutex_unlock_read    004edf20 f   pjlib-i386-win32-vc8-debug:os_core_win32.obj
 0002:00073040       _pj_rwmutex_unlock_write   004ee040 f   pjlib-i386-win32-vc8-debug:os_core_win32.obj
 0002:000730e0       _pj_rwmutex_destroy        004ee0e0 f   pjlib-i386-win32-vc8-debug:os_core_win32.obj
 0002:00073160       _pj_enter_critical_section 004ee160 f   pjlib-i386-win32-vc8-debug:os_core_win32.obj
 0002:00073190       _pj_leave_critical_section 004ee190 f   pjlib-i386-win32-vc8-debug:os_core_win32.obj
 0002:000731c0       _pj_sem_create             004ee1c0 f   pjlib-i386-win32-vc8-debug:os_core_win32.obj
 0002:00073350       _pj_sem_wait               004ee350 f   pjlib-i386-win32-vc8-debug:os_core_win32.obj
 0002:00073500       _pj_sem_trywait            004ee500 f   pjlib-i386-win32-vc8-debug:os_core_win32.obj
 0002:00073580       _pj_sem_post               004ee580 f   pjlib-i386-win32-vc8-debug:os_core_win32.obj
 0002:00073670       _pj_sem_destroy            004ee670 f   pjlib-i386-win32-vc8-debug:os_core_win32.obj
 0002:00073760       _pj_event_create           004ee760 f   pjlib-i386-win32-vc8-debug:os_core_win32.obj
 0002:00073920       _pj_event_wait             004ee920 f   pjlib-i386-win32-vc8-debug:os_core_win32.obj
 0002:00073ac0       _pj_event_trywait          004eeac0 f   pjlib-i386-win32-vc8-debug:os_core_win32.obj
 0002:00073b30       _pj_event_set              004eeb30 f   pjlib-i386-win32-vc8-debug:os_core_win32.obj
 0002:00073c20       _pj_event_pulse            004eec20 f   pjlib-i386-win32-vc8-debug:os_core_win32.obj
 0002:00073d10       _pj_event_reset            004eed10 f   pjlib-i386-win32-vc8-debug:os_core_win32.obj
 0002:00073e00       _pj_event_destroy          004eee00 f   pjlib-i386-win32-vc8-debug:os_core_win32.obj
 0002:00073ef0       _pj_term_set_color         004eeef0 f   pjlib-i386-win32-vc8-debug:os_core_win32.obj
 0002:00074040       _pj_term_get_color         004ef040 f   pjlib-i386-win32-vc8-debug:os_core_win32.obj
 0002:00074120       _pj_caching_pool_init      004ef120 f   pjlib-i386-win32-vc8-debug:pool_caching.obj
 0002:00074300       _pj_caching_pool_destroy   004ef300 f   pjlib-i386-win32-vc8-debug:pool_caching.obj
 0002:00074b80       _pj_inet_addr              004efb80 f   pjlib-i386-win32-vc8-debug:sock_common.obj
 0002:00074bb0       _pj_inet_addr2             004efbb0 f   pjlib-i386-win32-vc8-debug:sock_common.obj
 0002:00074bf0       _pj_inet_ntop2             004efbf0 f   pjlib-i386-win32-vc8-debug:sock_common.obj
 0002:00074c40       _pj_sockaddr_print         004efc40 f   pjlib-i386-win32-vc8-debug:sock_common.obj
 0002:00074d70       _pj_sockaddr_in_set_str_addr 004efd70 f   pjlib-i386-win32-vc8-debug:sock_common.obj
 0002:00074ef0       _pj_sockaddr_set_str_addr  004efef0 f   pjlib-i386-win32-vc8-debug:sock_common.obj
 0002:00075090       _pj_sockaddr_in_init       004f0090 f   pjlib-i386-win32-vc8-debug:sock_common.obj
 0002:00075140       _pj_sockaddr_init          004f0140 f   pjlib-i386-win32-vc8-debug:sock_common.obj
 0002:00075240       _pj_sockaddr_cmp           004f0240 f   pjlib-i386-win32-vc8-debug:sock_common.obj
 0002:00075380       _pj_gethostaddr            004f0380 f   pjlib-i386-win32-vc8-debug:sock_common.obj
 0002:000753d0       _pj_sockaddr_in_get_port   004f03d0 f   pjlib-i386-win32-vc8-debug:sock_common.obj
 0002:00075400       _pj_sockaddr_get_addr      004f0400 f   pjlib-i386-win32-vc8-debug:sock_common.obj
 0002:000754d0       _pj_sockaddr_has_addr      004f04d0 f   pjlib-i386-win32-vc8-debug:sock_common.obj
 0002:000755a0       _pj_sockaddr_get_port      004f05a0 f   pjlib-i386-win32-vc8-debug:sock_common.obj
 0002:00075680       _pj_sockaddr_get_addr_len  004f0680 f   pjlib-i386-win32-vc8-debug:sock_common.obj
 0002:00075740       _pj_sockaddr_get_len       004f0740 f   pjlib-i386-win32-vc8-debug:sock_common.obj
 0002:00075800       _pj_sockaddr_copy_addr     004f0800 f   pjlib-i386-win32-vc8-debug:sock_common.obj
 0002:00075860       _pj_sockaddr_cp            004f0860 f   pjlib-i386-win32-vc8-debug:sock_common.obj
 0002:000758a0       _pj_sockaddr_in_set_port   004f08a0 f   pjlib-i386-win32-vc8-debug:sock_common.obj
 0002:000758d0       _pj_sockaddr_set_port      004f08d0 f   pjlib-i386-win32-vc8-debug:sock_common.obj
 0002:000759b0       _pj_sockaddr_in_get_addr   004f09b0 f   pjlib-i386-win32-vc8-debug:sock_common.obj
 0002:000759e0       _pj_sockaddr_in_set_addr   004f09e0 f   pjlib-i386-win32-vc8-debug:sock_common.obj
 0002:00075a10       _pj_sockaddr_parse2        004f0a10 f   pjlib-i386-win32-vc8-debug:sock_common.obj
 0002:00075f20       _pj_sockaddr_parse         004f0f20 f   pjlib-i386-win32-vc8-debug:sock_common.obj
 0002:000760c0       _pj_gethostip              004f10c0 f   pjlib-i386-win32-vc8-debug:sock_common.obj
 0002:00076dd0       _pj_getdefaultipinterface  004f1dd0 f   pjlib-i386-win32-vc8-debug:sock_common.obj
 0002:00077130       _pj_pool_factory_get_default_policy 004f2130 f   pjlib-i386-win32-vc8-debug:pool_policy_malloc.obj
 0002:00077150       _pj_time_val_normalize     004f2150 f   pjlib-i386-win32-vc8-debug:types.obj
 0002:00077290       _pj_register_strerror      004f2290 f   pjlib-i386-win32-vc8-debug:errno.obj
 0002:00077490       _pj_errno_clear_handlers   004f2490 f   pjlib-i386-win32-vc8-debug:errno.obj
 0002:00077500       _pj_strerror               004f2500 f   pjlib-i386-win32-vc8-debug:errno.obj
 0002:000777f0       _pj_perror                 004f27f0 f   pjlib-i386-win32-vc8-debug:errno.obj
 0002:00077960       _pj_perror_1               004f2960 f   pjlib-i386-win32-vc8-debug:errno.obj
 0002:000779b0       _pj_perror_2               004f29b0 f   pjlib-i386-win32-vc8-debug:errno.obj
 0002:00077a00       _pj_perror_3               004f2a00 f   pjlib-i386-win32-vc8-debug:errno.obj
 0002:00077a50       _pj_perror_4               004f2a50 f   pjlib-i386-win32-vc8-debug:errno.obj
 0002:00077aa0       _pj_perror_5               004f2aa0 f   pjlib-i386-win32-vc8-debug:errno.obj
 0002:00077af0       _pj_srand                  004f2af0 f   pjlib-i386-win32-vc8-debug:rand.obj
 0002:00077b30       _pj_rand                   004f2b30 f   pjlib-i386-win32-vc8-debug:rand.obj
 0002:00077bb0       _pj_get_timestamp          004f2bb0 f   pjlib-i386-win32-vc8-debug:os_timestamp_win32.obj
 0002:00077c40       _pj_get_timestamp_freq     004f2c40 f   pjlib-i386-win32-vc8-debug:os_timestamp_win32.obj
 0002:00077cd0       _pj_list_insert_after      004f2cd0 f   pjlib-i386-win32-vc8-debug:list.obj
 0002:00077d20       _pj_list_insert_before     004f2d20 f   pjlib-i386-win32-vc8-debug:list.obj
 0002:00077d50       _pj_list_insert_nodes_after 004f2d50 f   pjlib-i386-win32-vc8-debug:list.obj
 0002:00077de0       _pj_list_insert_nodes_before 004f2de0 f   pjlib-i386-win32-vc8-debug:list.obj
 0002:00077e10       _pj_list_merge_last        004f2e10 f   pjlib-i386-win32-vc8-debug:list.obj
 0002:00077ee0       _pj_list_merge_first       004f2ee0 f   pjlib-i386-win32-vc8-debug:list.obj
 0002:00077f50       _pj_list_erase             004f2f50 f   pjlib-i386-win32-vc8-debug:list.obj
 0002:00077f90       _pj_list_find_node         004f2f90 f   pjlib-i386-win32-vc8-debug:list.obj
 0002:00077ff0       _pj_list_search            004f2ff0 f   pjlib-i386-win32-vc8-debug:list.obj
 0002:00078050       _pj_list_size              004f3050 f   pjlib-i386-win32-vc8-debug:list.obj
 0002:000780a0       _pj_timer_heap_mem_size    004f30a0 f   pjlib-i386-win32-vc8-debug:timer.obj
 0002:000780c0       _pj_timer_heap_create      004f30c0 f   pjlib-i386-win32-vc8-debug:timer.obj
 0002:00078270       _pj_timer_heap_destroy     004f3270 f   pjlib-i386-win32-vc8-debug:timer.obj
 0002:000782c0       _pj_timer_heap_set_lock    004f32c0 f   pjlib-i386-win32-vc8-debug:timer.obj
 0002:00078320       _pj_timer_heap_set_max_timed_out_per_poll 004f3320 f   pjlib-i386-win32-vc8-debug:timer.obj
 0002:00078350       _pj_timer_entry_init       004f3350 f   pjlib-i386-win32-vc8-debug:timer.obj
 0002:000783d0       _pj_timer_heap_schedule    004f33d0 f   pjlib-i386-win32-vc8-debug:timer.obj
 0002:00078a00       _pj_timer_heap_cancel      004f3a00 f   pjlib-i386-win32-vc8-debug:timer.obj
 0002:00078ff0       _pj_timer_heap_poll        004f3ff0 f   pjlib-i386-win32-vc8-debug:timer.obj
 0002:00079230       _pj_timer_heap_count       004f4230 f   pjlib-i386-win32-vc8-debug:timer.obj
 0002:00079290       _pj_timer_heap_earliest_time 004f4290 f   pjlib-i386-win32-vc8-debug:timer.obj
 0002:00079330       _pj_throw_exception_       004f4330 f   pjlib-i386-win32-vc8-debug:except.obj
 0002:000793f0       _pj_push_exception_handler_ 004f43f0 f   pjlib-i386-win32-vc8-debug:except.obj
 0002:00079510       _pj_pop_exception_handler_ 004f4510 f   pjlib-i386-win32-vc8-debug:except.obj
 0002:00079570       _pj_exception_id_alloc     004f4570 f   pjlib-i386-win32-vc8-debug:except.obj
 0002:000795f0       _pj_exception_id_free      004f45f0 f   pjlib-i386-win32-vc8-debug:except.obj
 0002:00079680       _pj_exception_id_name      004f4680 f   pjlib-i386-win32-vc8-debug:except.obj
 0002:00079730       _pj_create_unique_string   004f4730 f   pjlib-i386-win32-vc8-debug:guid.obj
 0002:00079770       _pj_GUID_STRING_LENGTH     004f4770 f   pjlib-i386-win32-vc8-debug:guid_win32.obj
 0002:00079790       _pj_generate_unique_string 004f4790 f   pjlib-i386-win32-vc8-debug:guid_win32.obj
 0002:00079940       _pj_hash_calc              004f4940 f   pjlib-i386-win32-vc8-debug:hash.obj
 0002:00079a00       _pj_hash_calc_tolower      004f4a00 f   pjlib-i386-win32-vc8-debug:hash.obj
 0002:00079ab0       _pj_hash_create            004f4ab0 f   pjlib-i386-win32-vc8-debug:hash.obj
 0002:00079b60       _pj_hash_get               004f4b60 f   pjlib-i386-win32-vc8-debug:hash.obj
 0002:00079ed0       _pj_hash_set               004f4ed0 f   pjlib-i386-win32-vc8-debug:hash.obj
 0002:00079f70       _pj_hash_set_np            004f4f70 f   pjlib-i386-win32-vc8-debug:hash.obj
 0002:0007a010       _pj_hash_count             004f5010 f   pjlib-i386-win32-vc8-debug:hash.obj
 0002:0007a030       _pj_hash_first             004f5030 f   pjlib-i386-win32-vc8-debug:hash.obj
 0002:0007a0c0       _pj_hash_next              004f50c0 f   pjlib-i386-win32-vc8-debug:hash.obj
 0002:0007a170       _pj_hash_this              004f5170 f   pjlib-i386-win32-vc8-debug:hash.obj
 0002:0007a1b0       _pj_array_insert           004f51b0 f   pjlib-i386-win32-vc8-debug:array.obj
 0002:0007a260       _pj_array_erase            004f5260 f   pjlib-i386-win32-vc8-debug:array.obj
 0002:0007a2f0       _pj_array_find             004f52f0 f   pjlib-i386-win32-vc8-debug:array.obj
 0002:0007a370       _pj_ioqueue_set_lock       004f5370 f   pjlib-i386-win32-vc8-debug:ioqueue_select.obj
 0002:0007a410       _pj_ioqueue_get_user_data  004f5410 f   pjlib-i386-win32-vc8-debug:ioqueue_select.obj
 0002:0007a470       _pj_ioqueue_set_user_data  004f5470 f   pjlib-i386-win32-vc8-debug:ioqueue_select.obj
 0002:0007a4f0       _ioqueue_dispatch_write_event 004f54f0 f   pjlib-i386-win32-vc8-debug:ioqueue_select.obj
 0002:0007a9e0       _ioqueue_dispatch_read_event 004f59e0 f   pjlib-i386-win32-vc8-debug:ioqueue_select.obj
 0002:0007ae00       _ioqueue_dispatch_exception_event 004f5e00 f   pjlib-i386-win32-vc8-debug:ioqueue_select.obj
 0002:0007afc0       _pj_ioqueue_recv           004f5fc0 f   pjlib-i386-win32-vc8-debug:ioqueue_select.obj
 0002:0007b1d0       _pj_ioqueue_recvfrom       004f61d0 f   pjlib-i386-win32-vc8-debug:ioqueue_select.obj
 0002:0007b400       _pj_ioqueue_send           004f6400 f   pjlib-i386-win32-vc8-debug:ioqueue_select.obj
 0002:0007b660       _pj_ioqueue_sendto         004f6660 f   pjlib-i386-win32-vc8-debug:ioqueue_select.obj
 0002:0007b970       _pj_ioqueue_accept         004f6970 f   pjlib-i386-win32-vc8-debug:ioqueue_select.obj
 0002:0007bbb0       _pj_ioqueue_connect        004f6bb0 f   pjlib-i386-win32-vc8-debug:ioqueue_select.obj
 0002:0007bd40       _pj_ioqueue_op_key_init    004f6d40 f   pjlib-i386-win32-vc8-debug:ioqueue_select.obj
 0002:0007bda0       _pj_ioqueue_is_pending     004f6da0 f   pjlib-i386-win32-vc8-debug:ioqueue_select.obj
 0002:0007bdd0       _pj_ioqueue_post_completion 004f6dd0 f   pjlib-i386-win32-vc8-debug:ioqueue_select.obj
 0002:0007bfb0       _pj_ioqueue_set_default_concurrency 004f6fb0 f   pjlib-i386-win32-vc8-debug:ioqueue_select.obj
 0002:0007c010       _pj_ioqueue_set_concurrency 004f7010 f   pjlib-i386-win32-vc8-debug:ioqueue_select.obj
 0002:0007c0d0       _pj_ioqueue_lock_key       004f70d0 f   pjlib-i386-win32-vc8-debug:ioqueue_select.obj
 0002:0007c100       _pj_ioqueue_unlock_key     004f7100 f   pjlib-i386-win32-vc8-debug:ioqueue_select.obj
 0002:0007c130       _pj_ioqueue_name           004f7130 f   pjlib-i386-win32-vc8-debug:ioqueue_select.obj
 0002:0007c150       _pj_ioqueue_create         004f7150 f   pjlib-i386-win32-vc8-debug:ioqueue_select.obj
 0002:0007c530       _pj_ioqueue_destroy        004f7530 f   pjlib-i386-win32-vc8-debug:ioqueue_select.obj
 0002:0007c6e0       _pj_ioqueue_register_sock  004f76e0 f   pjlib-i386-win32-vc8-debug:ioqueue_select.obj
 0002:0007caa0       _pj_ioqueue_unregister     004f7aa0 f   pjlib-i386-win32-vc8-debug:ioqueue_select.obj
 0002:0007d090       _pj_ioqueue_poll           004f8090 f   pjlib-i386-win32-vc8-debug:ioqueue_select.obj
 0002:0007d790       _pj_lock_create_simple_mutex 004f8790 f   pjlib-i386-win32-vc8-debug:lock.obj
 0002:0007d8e0       _pj_lock_create_recursive_mutex 004f88e0 f   pjlib-i386-win32-vc8-debug:lock.obj
 0002:0007d930       _pj_lock_create_null_mutex 004f8930 f   pjlib-i386-win32-vc8-debug:lock.obj
 0002:0007d990       _pj_lock_create_semaphore  004f8990 f   pjlib-i386-win32-vc8-debug:lock.obj
 0002:0007da80       _pj_lock_acquire           004f8a80 f   pjlib-i386-win32-vc8-debug:lock.obj
 0002:0007daf0       _pj_lock_tryacquire        004f8af0 f   pjlib-i386-win32-vc8-debug:lock.obj
 0002:0007db60       _pj_lock_release           004f8b60 f   pjlib-i386-win32-vc8-debug:lock.obj
 0002:0007dbd0       _pj_lock_destroy           004f8bd0 f   pjlib-i386-win32-vc8-debug:lock.obj
 0002:0007dc40       _pj_get_os_error           004f8c40 f   pjlib-i386-win32-vc8-debug:os_error_win32.obj
 0002:0007dc90       _pj_set_os_error           004f8c90 f   pjlib-i386-win32-vc8-debug:os_error_win32.obj
 0002:0007dce0       _pj_get_netos_error        004f8ce0 f   pjlib-i386-win32-vc8-debug:os_error_win32.obj
 0002:0007dd30       _pj_set_netos_error        004f8d30 f   pjlib-i386-win32-vc8-debug:os_error_win32.obj
 0002:0007dd80       _platform_strerror         004f8d80 f   pjlib-i386-win32-vc8-debug:os_error_win32.obj
 0002:0007dfb0       _pj_gethostbyname          004f8fb0 f   pjlib-i386-win32-vc8-debug:addr_resolv_sock.obj
 0002:0007e110       _pj_getaddrinfo            004f9110 f   pjlib-i386-win32-vc8-debug:addr_resolv_sock.obj
 0002:0007e470       _pj_pool_create_on_buf     004f9470 f   pjlib-i386-win32-vc8-debug:pool_buf.obj
 0002:0007e6e0       _pj_get_version            004f96e0 f   pjlib-i386-win32-vc8-debug:config.obj
 0002:0007e700       _pj_dump_config            004f9700 f   pjlib-i386-win32-vc8-debug:config.obj
 0002:0007ece0       _pj_enum_ip_interface      004f9ce0 f   pjlib-i386-win32-vc8-debug:ip_helper_win32.obj
 0002:0007f840       _pj_enum_ip_route          004fa840 f   pjlib-i386-win32-vc8-debug:ip_helper_win32.obj
 0002:0007fc60       _PJ_FD_ZERO                004fac60 f   pjlib-i386-win32-vc8-debug:sock_select.obj
 0002:0007fcb0       _PJ_FD_SET                 004facb0 f   pjlib-i386-win32-vc8-debug:sock_select.obj
 0002:0007fd90       _PJ_FD_CLR                 004fad90 f   pjlib-i386-win32-vc8-debug:sock_select.obj
 0002:0007fe80       _PJ_FD_ISSET               004fae80 f   pjlib-i386-win32-vc8-debug:sock_select.obj
 0002:0007fee0       _PJ_FD_COUNT               004faee0 f   pjlib-i386-win32-vc8-debug:sock_select.obj
 0002:0007ff00       _pj_sock_select            004faf00 f   pjlib-i386-win32-vc8-debug:sock_select.obj
 0002:00080000       _srtp_stream_alloc         004fb000 f   libsrtp-i386-win32-vc8-debug:srtp.obj
 0002:000802c0       _srtp_stream_dealloc       004fb2c0 f   libsrtp-i386-win32-vc8-debug:srtp.obj
 0002:00080470       _srtp_stream_clone         004fb470 f   libsrtp-i386-win32-vc8-debug:srtp.obj
 0002:000805c0       _srtp_kdf_init             004fb5c0 f   libsrtp-i386-win32-vc8-debug:srtp.obj
 0002:000805f0       _srtp_kdf_generate         004fb5f0 f   libsrtp-i386-win32-vc8-debug:srtp.obj
 0002:00080680       _srtp_kdf_clear            004fb680 f   libsrtp-i386-win32-vc8-debug:srtp.obj
 0002:000806b0       _srtp_stream_init_keys     004fb6b0 f   libsrtp-i386-win32-vc8-debug:srtp.obj
 0002:00080be0       _srtp_stream_init          004fbbe0 f   libsrtp-i386-win32-vc8-debug:srtp.obj
 0002:00080ce0       _srtp_event_reporter       004fbce0 f   libsrtp-i386-win32-vc8-debug:srtp.obj
 0002:00080db0       _srtp_install_event_handler 004fbdb0 f   libsrtp-i386-win32-vc8-debug:srtp.obj
 0002:00080dd0       _srtp_protect              004fbdd0 f   libsrtp-i386-win32-vc8-debug:srtp.obj
 0002:00081570       _srtp_unprotect            004fc570 f   libsrtp-i386-win32-vc8-debug:srtp.obj
 0002:00081d10       _srtp_init                 004fcd10 f   libsrtp-i386-win32-vc8-debug:srtp.obj
 0002:00081d60       _srtp_deinit               004fcd60 f   libsrtp-i386-win32-vc8-debug:srtp.obj
 0002:00081d90       _srtp_get_stream           004fcd90 f   libsrtp-i386-win32-vc8-debug:srtp.obj
 0002:00081de0       _srtp_dealloc              004fcde0 f   libsrtp-i386-win32-vc8-debug:srtp.obj
 0002:00081f70       _srtp_add_stream           004fcf70 f   libsrtp-i386-win32-vc8-debug:srtp.obj
 0002:000820d0       _srtp_create               004fd0d0 f   libsrtp-i386-win32-vc8-debug:srtp.obj
 0002:00082190       _srtp_remove_stream        004fd190 f   libsrtp-i386-win32-vc8-debug:srtp.obj
 0002:00082240       _crypto_policy_set_rtp_default 004fd240 f   libsrtp-i386-win32-vc8-debug:srtp.obj
 0002:000822a0       _crypto_policy_set_rtcp_default 004fd2a0 f   libsrtp-i386-win32-vc8-debug:srtp.obj
 0002:00082300       _crypto_policy_set_aes_cm_128_hmac_sha1_32 004fd300 f   libsrtp-i386-win32-vc8-debug:srtp.obj
 0002:00082360       _crypto_policy_set_aes_cm_128_null_auth 004fd360 f   libsrtp-i386-win32-vc8-debug:srtp.obj
 0002:000823c0       _crypto_policy_set_null_cipher_hmac_sha1_80 004fd3c0 f   libsrtp-i386-win32-vc8-debug:srtp.obj
 0002:00082420       _srtp_protect_rtcp         004fd420 f   libsrtp-i386-win32-vc8-debug:srtp.obj
 0002:00082920       _srtp_unprotect_rtcp       004fd920 f   libsrtp-i386-win32-vc8-debug:srtp.obj
 0002:00082ec0       _crypto_policy_set_from_profile_for_rtp 004fdec0 f   libsrtp-i386-win32-vc8-debug:srtp.obj
 0002:00082f40       _crypto_policy_set_from_profile_for_rtcp 004fdf40 f   libsrtp-i386-win32-vc8-debug:srtp.obj
 0002:00082fc0       _append_salt_to_key        004fdfc0 f   libsrtp-i386-win32-vc8-debug:srtp.obj
 0002:00082ff0       _srtp_profile_get_master_key_length 004fdff0 f   libsrtp-i386-win32-vc8-debug:srtp.obj
 0002:00083050       _srtp_profile_get_master_salt_length 004fe050 f   libsrtp-i386-win32-vc8-debug:srtp.obj
 0002:000830b0       _octet_get_weight          004fe0b0 f   libsrtp-i386-win32-vc8-debug:datatypes.obj
 0002:000830e0       _nibble_to_hex_char        004fe0e0 f   libsrtp-i386-win32-vc8-debug:datatypes.obj
 0002:00083170       _octet_string_hex_string   004fe170 f   libsrtp-i386-win32-vc8-debug:datatypes.obj
 0002:00083240       _is_hex_string             004fe240 f   libsrtp-i386-win32-vc8-debug:datatypes.obj
 0002:000832a0       _hex_char_to_nibble        004fe2a0 f i libsrtp-i386-win32-vc8-debug:datatypes.obj
 0002:00083480       _hex_string_to_octet_string 004fe480 f   libsrtp-i386-win32-vc8-debug:datatypes.obj
 0002:00083560       _v128_hex_string           004fe560 f   libsrtp-i386-win32-vc8-debug:datatypes.obj
 0002:00083610       _v128_bit_string           004fe610 f   libsrtp-i386-win32-vc8-debug:datatypes.obj
 0002:000836c0       _v128_copy_octet_string    004fe6c0 f   libsrtp-i386-win32-vc8-debug:datatypes.obj
 0002:000837d0       _v128_right_shift          004fe7d0 f   libsrtp-i386-win32-vc8-debug:datatypes.obj
 0002:00083960       _v128_left_shift           004fe960 f   libsrtp-i386-win32-vc8-debug:datatypes.obj
 0002:00083ae0       _octet_string_is_eq        004feae0 f   libsrtp-i386-win32-vc8-debug:datatypes.obj
 0002:00083b50       _octet_string_set_to_zero  004feb50 f   libsrtp-i386-win32-vc8-debug:datatypes.obj
 0002:00083b90       _base64_char_to_sextet     004feb90 f   libsrtp-i386-win32-vc8-debug:datatypes.obj
 0002:00084050       _base64_string_to_octet_string 004ff050 f   libsrtp-i386-win32-vc8-debug:datatypes.obj
 0002:00084130       _crypto_kernel_init        004ff130 f   libsrtp-i386-win32-vc8-debug:crypto_kernel.obj
 0002:000843a0       _crypto_kernel_status      004ff3a0 f   libsrtp-i386-win32-vc8-debug:crypto_kernel.obj
 0002:00084620       _crypto_kernel_list_debug_modules 004ff620 f   libsrtp-i386-win32-vc8-debug:crypto_kernel.obj
 0002:000846c0       _crypto_kernel_shutdown    004ff6c0 f   libsrtp-i386-win32-vc8-debug:crypto_kernel.obj
 0002:00084830       _crypto_kernel_load_cipher_type 004ff830 f   libsrtp-i386-win32-vc8-debug:crypto_kernel.obj
 0002:00084930       _crypto_kernel_load_auth_type 004ff930 f   libsrtp-i386-win32-vc8-debug:crypto_kernel.obj
 0002:00084a30       _crypto_kernel_get_cipher_type 004ffa30 f   libsrtp-i386-win32-vc8-debug:crypto_kernel.obj
 0002:00084a80       _crypto_kernel_alloc_cipher 004ffa80 f   libsrtp-i386-win32-vc8-debug:crypto_kernel.obj
 0002:00084af0       _crypto_kernel_get_auth_type 004ffaf0 f   libsrtp-i386-win32-vc8-debug:crypto_kernel.obj
 0002:00084b40       _crypto_kernel_alloc_auth  004ffb40 f   libsrtp-i386-win32-vc8-debug:crypto_kernel.obj
 0002:00084bb0       _crypto_kernel_load_debug_module 004ffbb0 f   libsrtp-i386-win32-vc8-debug:crypto_kernel.obj
 0002:00084c70       _crypto_kernel_set_debug_module 004ffc70 f   libsrtp-i386-win32-vc8-debug:crypto_kernel.obj
 0002:00084ce0       _crypto_get_random         004ffce0 f   libsrtp-i386-win32-vc8-debug:crypto_kernel.obj
 0002:00084d20       _crypto_alloc              004ffd20 f   libsrtp-i386-win32-vc8-debug:alloc.obj
 0002:00084db0       _crypto_free               004ffdb0 f   libsrtp-i386-win32-vc8-debug:alloc.obj
 0002:00084e00       _rdb_init                  004ffe00 f   libsrtp-i386-win32-vc8-debug:rdb.obj
 0002:00084e60       _rdb_check                 004ffe60 f   libsrtp-i386-win32-vc8-debug:rdb.obj
 0002:00084ee0       _rdb_add_index             004ffee0 f   libsrtp-i386-win32-vc8-debug:rdb.obj
 0002:00084fc0       _rdb_increment             004fffc0 f   libsrtp-i386-win32-vc8-debug:rdb.obj
 0002:00085000       _rdb_get_value             00500000 f   libsrtp-i386-win32-vc8-debug:rdb.obj
 0002:00085020       _index_init                00500020 f   libsrtp-i386-win32-vc8-debug:rdbx.obj
 0002:00085050       _index_advance             00500050 f   libsrtp-i386-win32-vc8-debug:rdbx.obj
 0002:00085080       _index_guess               00500080 f   libsrtp-i386-win32-vc8-debug:rdbx.obj
 0002:000851d0       _rdbx_init                 005001d0 f   libsrtp-i386-win32-vc8-debug:rdbx.obj
 0002:00085230       _rdbx_check                00500230 f   libsrtp-i386-win32-vc8-debug:rdbx.obj
 0002:000852a0       _rdbx_add_index            005002a0 f   libsrtp-i386-win32-vc8-debug:rdbx.obj
 0002:00085340       _rdbx_estimate_index       00500340 f   libsrtp-i386-win32-vc8-debug:rdbx.obj
 0002:000853b0       _key_limit_set             005003b0 f   libsrtp-i386-win32-vc8-debug:key.obj
 0002:00085410       _key_limit_clone           00500410 f   libsrtp-i386-win32-vc8-debug:key.obj
 0002:00085440       _key_limit_check           00500440 f   libsrtp-i386-win32-vc8-debug:key.obj
 0002:00085470       _key_limit_update          00500470 f   libsrtp-i386-win32-vc8-debug:key.obj
 0002:00085520       _err_reporting_init        00500520 f   libsrtp-i386-win32-vc8-debug:srtp_err.obj
 0002:00085540       _err_report                00500540 f   libsrtp-i386-win32-vc8-debug:srtp_err.obj
 0002:000855a0       _err_reporting_set_level   005005a0 f   libsrtp-i386-win32-vc8-debug:srtp_err.obj
 0002:000855c0       _aes_icm_alloc_ismacryp    005005c0 f   libsrtp-i386-win32-vc8-debug:aes_icm.obj
 0002:00085690       _aes_icm_alloc             00500690 f   libsrtp-i386-win32-vc8-debug:aes_icm.obj
 0002:000856c0       _aes_icm_dealloc           005006c0 f   libsrtp-i386-win32-vc8-debug:aes_icm.obj
 0002:00085710       _aes_icm_context_init      00500710 f   libsrtp-i386-win32-vc8-debug:aes_icm.obj
 0002:00085850       _aes_icm_set_octet         00500850 f   libsrtp-i386-win32-vc8-debug:aes_icm.obj
 0002:00085a20       _aes_icm_set_iv            00500a20 f   libsrtp-i386-win32-vc8-debug:aes_icm.obj
 0002:00085b20       _aes_icm_encrypt_ismacryp  00500b20 f   libsrtp-i386-win32-vc8-debug:aes_icm.obj
 0002:00086090       _aes_icm_advance_ismacryp  00501090 f i libsrtp-i386-win32-vc8-debug:aes_icm.obj
 0002:000861f0       _aes_icm_encrypt           005011f0 f   libsrtp-i386-win32-vc8-debug:aes_icm.obj
 0002:00086220       _aes_icm_output            00501220 f   libsrtp-i386-win32-vc8-debug:aes_icm.obj
 0002:00086270       _auth_get_key_length       00501270 f   libsrtp-i386-win32-vc8-debug:auth.obj
 0002:00086290       _auth_get_tag_length       00501290 f   libsrtp-i386-win32-vc8-debug:auth.obj
 0002:000862b0       _auth_get_prefix_length    005012b0 f   libsrtp-i386-win32-vc8-debug:auth.obj
 0002:000862d0       _auth_type_get_ref_count   005012d0 f   libsrtp-i386-win32-vc8-debug:auth.obj
 0002:000862f0       _auth_type_self_test       005012f0 f   libsrtp-i386-win32-vc8-debug:auth.obj
 0002:000866d0       _cipher_output             005016d0 f   libsrtp-i386-win32-vc8-debug:cipher.obj
 0002:00086720       _cipher_get_key_length     00501720 f   libsrtp-i386-win32-vc8-debug:cipher.obj
 0002:00086740       _cipher_type_self_test     00501740 f   libsrtp-i386-win32-vc8-debug:cipher.obj
 0002:00087660       _cipher_bits_per_second    00502660 f   libsrtp-i386-win32-vc8-debug:cipher.obj
 0002:000877f0       _hmac_alloc                005027f0 f   libsrtp-i386-win32-vc8-debug:hmac.obj
 0002:00087910       _hmac_dealloc              00502910 f   libsrtp-i386-win32-vc8-debug:hmac.obj
 0002:00087960       _hmac_init                 00502960 f   libsrtp-i386-win32-vc8-debug:hmac.obj
 0002:00087ac0       _hmac_start                00502ac0 f   libsrtp-i386-win32-vc8-debug:hmac.obj
 0002:00087b00       _hmac_update               00502b00 f   libsrtp-i386-win32-vc8-debug:hmac.obj
 0002:00087b70       _hmac_compute              00502b70 f   libsrtp-i386-win32-vc8-debug:hmac.obj
 0002:00087ce0       _null_auth_alloc           00502ce0 f   libsrtp-i386-win32-vc8-debug:null_auth.obj
 0002:00087de0       _null_auth_dealloc         00502de0 f   libsrtp-i386-win32-vc8-debug:null_auth.obj
 0002:00087e30       _null_auth_init            00502e30 f   libsrtp-i386-win32-vc8-debug:null_auth.obj
 0002:00087e50       _null_auth_compute         00502e50 f   libsrtp-i386-win32-vc8-debug:null_auth.obj
 0002:00087e70       _null_auth_update          00502e70 f   libsrtp-i386-win32-vc8-debug:null_auth.obj
 0002:00087e90       _null_auth_start           00502e90 f   libsrtp-i386-win32-vc8-debug:null_auth.obj
 0002:00087eb0       _aes_cbc_alloc             00502eb0 f   libsrtp-i386-win32-vc8-debug:aes_cbc.obj
 0002:00087f80       _aes_cbc_dealloc           00502f80 f   libsrtp-i386-win32-vc8-debug:aes_cbc.obj
 0002:00087fd0       _aes_cbc_context_init      00502fd0 f   libsrtp-i386-win32-vc8-debug:aes_cbc.obj
 0002:000880a0       _aes_cbc_set_iv            005030a0 f   libsrtp-i386-win32-vc8-debug:aes_cbc.obj
 0002:00088140       _aes_cbc_encrypt           00503140 f   libsrtp-i386-win32-vc8-debug:aes_cbc.obj
 0002:000882f0       _aes_cbc_decrypt           005032f0 f   libsrtp-i386-win32-vc8-debug:aes_cbc.obj
 0002:00088500       _aes_cbc_nist_encrypt      00503500 f   libsrtp-i386-win32-vc8-debug:aes_cbc.obj
 0002:000885d0       _aes_cbc_nist_decrypt      005035d0 f   libsrtp-i386-win32-vc8-debug:aes_cbc.obj
 0002:00088670       _null_cipher_alloc         00503670 f   libsrtp-i386-win32-vc8-debug:null_cipher.obj
 0002:00088720       _null_cipher_dealloc       00503720 f   libsrtp-i386-win32-vc8-debug:null_cipher.obj
 0002:00088770       _null_cipher_init          00503770 f   libsrtp-i386-win32-vc8-debug:null_cipher.obj
 0002:000887b0       _null_cipher_set_iv        005037b0 f   libsrtp-i386-win32-vc8-debug:null_cipher.obj
 0002:000887d0       _null_cipher_encrypt       005037d0 f   libsrtp-i386-win32-vc8-debug:null_cipher.obj
 0002:000887f0       _ctr_prng_init             005037f0 f   libsrtp-i386-win32-vc8-debug:ctr_prng.obj
 0002:00088880       _ctr_prng_get_octet_string 00503880 f   libsrtp-i386-win32-vc8-debug:ctr_prng.obj
 0002:00088910       _ctr_prng_deinit           00503910 f   libsrtp-i386-win32-vc8-debug:ctr_prng.obj
 0002:00088930       _stat_test_monobit         00503930 f   libsrtp-i386-win32-vc8-debug:stat.obj
 0002:000889f0       _stat_test_poker           005039f0 f   libsrtp-i386-win32-vc8-debug:stat.obj
 0002:00088be0       _stat_test_runs            00503be0 f   libsrtp-i386-win32-vc8-debug:stat.obj
 0002:00089070       _stat_test_rand_source     00504070 f   libsrtp-i386-win32-vc8-debug:stat.obj
 0002:00089860       _stat_test_rand_source_with_repetition 00504860 f   libsrtp-i386-win32-vc8-debug:stat.obj
 0002:000898f0       _rand_source_init          005048f0 f   libsrtp-i386-win32-vc8-debug:rand_source.obj
 0002:00089930       _rand_source_get_octet_string 00504930 f   libsrtp-i386-win32-vc8-debug:rand_source.obj
 0002:00089990       _rand_source_deinit        00504990 f   libsrtp-i386-win32-vc8-debug:rand_source.obj
 0002:000899c0       _aes_expand_encryption_key 005049c0 f   libsrtp-i386-win32-vc8-debug:aes.obj
 0002:00089c00       _aes_expand_decryption_key 00504c00 f   libsrtp-i386-win32-vc8-debug:aes.obj
 0002:0008a070       _aes_encrypt               00505070 f   libsrtp-i386-win32-vc8-debug:aes.obj
 0002:0008a540       _aes_decrypt               00505540 f   libsrtp-i386-win32-vc8-debug:aes.obj
 0002:0008aa10       _sha1                      00505a10 f   libsrtp-i386-win32-vc8-debug:sha1.obj
 0002:0008aa70       _sha1_core                 00505a70 f   libsrtp-i386-win32-vc8-debug:sha1.obj
 0002:0008b580       _sha1_init                 00506580 f   libsrtp-i386-win32-vc8-debug:sha1.obj
 0002:0008b5f0       _sha1_update               005065f0 f   libsrtp-i386-win32-vc8-debug:sha1.obj
 0002:0008b780       _sha1_final                00506780 f   libsrtp-i386-win32-vc8-debug:sha1.obj
 0002:0008c266       _CoCreateGuid@4            00507266 f   ole32:ole32.dll
 0002:0008c26c       _ntohs@4                   0050726c f   ws2_32:WS2_32.dll
 0002:0008c272       _htons@4                   00507272 f   ws2_32:WS2_32.dll
 0002:0008c278       _ntohl@4                   00507278 f   ws2_32:WS2_32.dll
 0002:0008c27e       _htonl@4                   0050727e f   ws2_32:WS2_32.dll
 0002:0008c284       _inet_ntoa@4               00507284 f   ws2_32:WS2_32.dll
 0002:0008c28a       _inet_addr@4               0050728a f   ws2_32:WS2_32.dll
 0002:0008c290       _WSAStringToAddressA@20    00507290 f   ws2_32:WS2_32.dll
 0002:0008c296       _WSAAddressToStringA@20    00507296 f   ws2_32:WS2_32.dll
 0002:0008c29c       _gethostname@8             0050729c f   ws2_32:WS2_32.dll
 0002:0008c2a2       _WSAGetLastError@0         005072a2 f   ws2_32:WS2_32.dll
 0002:0008c2a8       _WSASocketA@24             005072a8 f   ws2_32:WS2_32.dll
 0002:0008c2ae       _bind@12                   005072ae f   ws2_32:WS2_32.dll
 0002:0008c2b4       _closesocket@4             005072b4 f   ws2_32:WS2_32.dll
 0002:0008c2ba       _getpeername@12            005072ba f   ws2_32:WS2_32.dll
 0002:0008c2c0       _getsockname@12            005072c0 f   ws2_32:WS2_32.dll
 0002:0008c2c6       _send@16                   005072c6 f   ws2_32:WS2_32.dll
 0002:0008c2cc       _sendto@24                 005072cc f   ws2_32:WS2_32.dll
 0002:0008c2d2       _recv@16                   005072d2 f   ws2_32:WS2_32.dll
 0002:0008c2d8       _recvfrom@24               005072d8 f   ws2_32:WS2_32.dll
 0002:0008c2de       _getsockopt@20             005072de f   ws2_32:WS2_32.dll
 0002:0008c2e4       _setsockopt@20             005072e4 f   ws2_32:WS2_32.dll
 0002:0008c2ea       _connect@12                005072ea f   ws2_32:WS2_32.dll
 0002:0008c2f0       _shutdown@8                005072f0 f   ws2_32:WS2_32.dll
 0002:0008c2f6       _listen@8                  005072f6 f   ws2_32:WS2_32.dll
 0002:0008c2fc       _accept@12                 005072fc f   ws2_32:WS2_32.dll
 0002:0008c302       _WSAStartup@8              00507302 f   ws2_32:WS2_32.dll
 0002:0008c308       _WSACleanup@0              00507308 f   ws2_32:WS2_32.dll
 0002:0008c30e       _ioctlsocket@12            0050730e f   ws2_32:WS2_32.dll
 0002:0008c314       _WSASetLastError@4         00507314 f   ws2_32:WS2_32.dll
 0002:0008c31a       _gethostbyname@4           0050731a f   ws2_32:WS2_32.dll
 0002:0008c320       ___WSAFDIsSet@8            00507320 f   ws2_32:WS2_32.dll
 0002:0008c326       _select@20                 00507326 f   ws2_32:WS2_32.dll
 0002:0008c330       __wassert                  00507330 f   LIBCMTD:wassert.obj
 0002:0008d440       __invoke_watson_if_error   00508440 f i LIBCMTD:wassert.obj
 0002:0008d480       __invoke_watson_if_oneof   00508480 f i LIBCMTD:wassert.obj
 0002:0008d520       @__security_check_cookie@4 00508520 f   LIBCMTD:secchk.obj
 0002:0008d540       _sprintf                   00508540 f   LIBCMTD:sprintf.obj
 0002:0008d720       __sprintf_l                00508720 f   LIBCMTD:sprintf.obj
 0002:0008d750       _sprintf_s                 00508750 f   LIBCMTD:sprintf.obj
 0002:0008d790       __sprintf_s_l              00508790 f   LIBCMTD:sprintf.obj
 0002:0008d7d0       __snprintf_s               005087d0 f   LIBCMTD:sprintf.obj
 0002:0008d810       __snprintf_s_l             00508810 f   LIBCMTD:sprintf.obj
 0002:0008d850       __sprintf_p                00508850 f   LIBCMTD:sprintf.obj
 0002:0008d890       __sprintf_p_l              00508890 f   LIBCMTD:sprintf.obj
 0002:0008d8d0       __scprintf                 005088d0 f   LIBCMTD:sprintf.obj
 0002:0008d900       __scprintf_p               00508900 f   LIBCMTD:sprintf.obj
 0002:0008d930       __scprintf_l               00508930 f   LIBCMTD:sprintf.obj
 0002:0008d960       __scprintf_p_l             00508960 f   LIBCMTD:sprintf.obj
 0002:0008d990       _memset                    00508990 f   LIBCMTD:memset.obj
 0002:0008da30       __fsopen                   00508a30 f   LIBCMTD:fopen.obj
 0002:0008dcc0       _fopen                     00508cc0 f   LIBCMTD:fopen.obj
 0002:0008dce0       _fopen_s                   00508ce0 f   LIBCMTD:fopen.obj
 0002:0008ddb0       _fflush                    00508db0 f   LIBCMTD:fflush.obj
 0002:0008de70       __fflush_nolock            00508e70 f   LIBCMTD:fflush.obj
 0002:0008dee0       __flush                    00508ee0 f   LIBCMTD:fflush.obj
 0002:0008dfd0       __flushall                 00508fd0 f   LIBCMTD:fflush.obj
 0002:0008e200       _fwrite                    00509200 f   LIBCMTD:fwrite.obj
 0002:0008e350       __fwrite_nolock            00509350 f   LIBCMTD:fwrite.obj
 0002:0008e810       _fclose                    00509810 f   LIBCMTD:fclose.obj
 0002:0008e960       __fclose_nolock            00509960 f   LIBCMTD:fclose.obj
 0002:0008eaa0       _printf                    00509aa0 f   LIBCMTD:printf.obj
 0002:0008ec20       __printf_l                 00509c20 f   LIBCMTD:printf.obj
 0002:0008ec50       __printf_s_l               00509c50 f   LIBCMTD:printf.obj
 0002:0008ec80       _printf_s                  00509c80 f   LIBCMTD:printf.obj
 0002:0008ecb0       __printf_p_l               00509cb0 f   LIBCMTD:printf.obj
 0002:0008ece0       __printf_p                 00509ce0 f   LIBCMTD:printf.obj
 0002:0008ed10       __set_printf_count_output  00509d10 f   LIBCMTD:printf.obj
 0002:0008ed70       __get_printf_count_output  00509d70 f   LIBCMTD:printf.obj
 0002:0008ed90       _puts                      00509d90 f   LIBCMTD:puts.obj
 0002:0008f170       _atol                      0050a170 f   LIBCMTD:atox.obj
 0002:0008f190       __atol_l                   0050a190 f   LIBCMTD:atox.obj
 0002:0008f1b0       _atoi                      0050a1b0 f   LIBCMTD:atox.obj
 0002:0008f1d0       __atoi_l                   0050a1d0 f   LIBCMTD:atox.obj
 0002:0008f1f0       __atoi64                   0050a1f0 f   LIBCMTD:atox.obj
 0002:0008f210       __atoi64_l                 0050a210 f   LIBCMTD:atox.obj
 0002:0008f230       _strcpy                    0050a230 f   LIBCMTD:strcat.obj
 0002:0008f240       _strcat                    0050a240 f   LIBCMTD:strcat.obj
 0002:0008f370       __aulldiv                  0050a370 f   LIBCMTD:ulldiv.obj
 0002:0008f400       __allmul                   0050a400 f   LIBCMTD:llmul.obj
 0002:0008f450       _memcpy                    0050a450 f   LIBCMTD:memcpy.obj
 0002:0008f890       __fpmath                   0050a890 f   LIBCMTD:fpinit.obj
 0002:0008f8c0       __fpclear                  0050a8c0 f   LIBCMTD:fpinit.obj
 0002:0008f8d0       __cfltcvt_init             0050a8d0 f   LIBCMTD:fpinit.obj
 0002:0008f960       ___setfflag                0050a960 f   LIBCMTD:fpinit.obj
 0002:0008f990       _fgets                     0050a990 f   LIBCMTD:fgets.obj
 0002:0008fe50       ___iob_func                0050ae50 f   LIBCMTD:_file.obj
 0002:0008fe60       ___initstdio               0050ae60 f   LIBCMTD:_file.obj
 0002:00090000       ___endstdio                0050b000 f   LIBCMTD:_file.obj
 0002:00090040       __lock_file                0050b040 f   LIBCMTD:_file.obj
 0002:000900b0       __lock_file2               0050b0b0 f   LIBCMTD:_file.obj
 0002:00090100       __unlock_file              0050b100 f   LIBCMTD:_file.obj
 0002:00090170       __unlock_file2             0050b170 f   LIBCMTD:_file.obj
 0002:000901c0       _mainCRTStartup            0050b1c0 f   LIBCMTD:crt0.obj
 0002:00090540       __set_osplatform           0050b540 f i LIBCMTD:crt0.obj
 0002:00090550       __set_osver                0050b550 f i LIBCMTD:crt0.obj
 0002:00090560       __set_winver               0050b560 f i LIBCMTD:crt0.obj
 0002:00090570       __set_winmajor             0050b570 f i LIBCMTD:crt0.obj
 0002:00090580       __set_winminor             0050b580 f i LIBCMTD:crt0.obj
 0002:00090660       __snprintf                 0050b660 f   LIBCMTD:snprintf.obj
 0002:00090870       __snprintf_l               0050b870 f   LIBCMTD:snprintf.obj
 0002:000908b0       __isalpha_l                0050b8b0 f i LIBCMTD:_ctype.obj
 0002:00090960       ??0_LocaleUpdate@@QAE@PAUlocaleinfo_struct@@@Z 0050b960 f i LIBCMTD:_ctype.obj
 0002:00090a70       ??1_LocaleUpdate@@QAE@XZ   0050ba70 f i LIBCMTD:_ctype.obj
 0002:00090ab0       ?GetLocaleT@_LocaleUpdate@@QAEPAUlocaleinfo_struct@@XZ 0050bab0 f i LIBCMTD:_ctype.obj
 0002:00090ad0       _isalpha                   0050bad0 f i LIBCMTD:_ctype.obj
 0002:00090b10       __isupper_l                0050bb10 f i LIBCMTD:_ctype.obj
 0002:00090bb0       _isupper                   0050bbb0 f i LIBCMTD:_ctype.obj
 0002:00090bf0       __islower_l                0050bbf0 f i LIBCMTD:_ctype.obj
 0002:00090c90       _islower                   0050bc90 f i LIBCMTD:_ctype.obj
 0002:00090cd0       __isdigit_l                0050bcd0 f i LIBCMTD:_ctype.obj
 0002:00090d70       _isdigit                   0050bd70 f i LIBCMTD:_ctype.obj
 0002:00090db0       __isxdigit_l               0050bdb0 f i LIBCMTD:_ctype.obj
 0002:00090e60       _isxdigit                  0050be60 f i LIBCMTD:_ctype.obj
 0002:00090ea0       __isspace_l                0050bea0 f i LIBCMTD:_ctype.obj
 0002:00090f40       _isspace                   0050bf40 f i LIBCMTD:_ctype.obj
 0002:00090f80       __ispunct_l                0050bf80 f i LIBCMTD:_ctype.obj
 0002:00091020       _ispunct                   0050c020 f i LIBCMTD:_ctype.obj
 0002:00091060       __isalnum_l                0050c060 f i LIBCMTD:_ctype.obj
 0002:00091110       _isalnum                   0050c110 f i LIBCMTD:_ctype.obj
 0002:00091150       __isprint_l                0050c150 f i LIBCMTD:_ctype.obj
 0002:00091200       _isprint                   0050c200 f i LIBCMTD:_ctype.obj
 0002:00091240       __isgraph_l                0050c240 f i LIBCMTD:_ctype.obj
 0002:000912f0       _isgraph                   0050c2f0 f i LIBCMTD:_ctype.obj
 0002:00091330       __iscntrl_l                0050c330 f i LIBCMTD:_ctype.obj
 0002:000913d0       _iscntrl                   0050c3d0 f i LIBCMTD:_ctype.obj
 0002:00091410       ___isascii                 0050c410 f i LIBCMTD:_ctype.obj
 0002:00091430       ___toascii                 0050c430 f i LIBCMTD:_ctype.obj
 0002:00091440       __iscsymf_l                0050c440 f i LIBCMTD:_ctype.obj
 0002:00091490       ___iscsymf                 0050c490 f i LIBCMTD:_ctype.obj
 0002:000914d0       __iscsym_l                 0050c4d0 f i LIBCMTD:_ctype.obj
 0002:00091520       ___iscsym                  0050c520 f i LIBCMTD:_ctype.obj
 0002:00091564       __setjmp3                  0050c564 f   LIBCMTD:setjmp3.obj
 0002:00091600       _memchr                    0050c600 f   LIBCMTD:memchr.obj
 0002:000916e0       _strlen                    0050c6e0 f   LIBCMTD:strlen.obj
 0002:00091790       __toupper                  0050c790 f   LIBCMTD:toupper.obj
 0002:000917a0       __toupper_l                0050c7a0 f   LIBCMTD:toupper.obj
 0002:000919f0       _toupper                   0050c9f0 f   LIBCMTD:toupper.obj
 0002:00091a50       _malloc                    0050ca50 f   LIBCMTD:dbgheap.obj
 0002:00091a80       __malloc_dbg               0050ca80 f   LIBCMTD:dbgheap.obj
 0002:00091ac0       __nh_malloc                0050cac0 f   LIBCMTD:dbgheap.obj
 0002:00091af0       __nh_malloc_dbg            0050caf0 f   LIBCMTD:dbgheap.obj
 0002:00091b70       __heap_alloc               0050cb70 f   LIBCMTD:dbgheap.obj
 0002:00091b90       __heap_alloc_dbg           0050cb90 f   LIBCMTD:dbgheap.obj
 0002:00092010       _calloc                    0050d010 f   LIBCMTD:dbgheap.obj
 0002:00092040       __calloc_dbg               0050d040 f   LIBCMTD:dbgheap.obj
 0002:00092130       _realloc                   0050d130 f   LIBCMTD:dbgheap.obj
 0002:00092160       __recalloc                 0050d160 f   LIBCMTD:dbgheap.obj
 0002:000921a0       __realloc_dbg              0050d1a0 f   LIBCMTD:dbgheap.obj
 0002:00092960       __recalloc_dbg             0050d960 f   LIBCMTD:dbgheap.obj
 0002:00092aa0       __expand                   0050daa0 f   LIBCMTD:dbgheap.obj
 0002:00092ad0       __expand_dbg               0050dad0 f   LIBCMTD:dbgheap.obj
 0002:00092c20       _free                      0050dc20 f   LIBCMTD:dbgheap.obj
 0002:00092c40       __free_nolock              0050dc40 f   LIBCMTD:dbgheap.obj
 0002:00092c60       __free_dbg                 0050dc60 f   LIBCMTD:dbgheap.obj
 0002:00092d00       __free_dbg_nolock          0050dd00 f   LIBCMTD:dbgheap.obj
 0002:00093310       __msize                    0050e310 f   LIBCMTD:dbgheap.obj
 0002:00093330       __msize_dbg                0050e330 f   LIBCMTD:dbgheap.obj
 0002:00093590       __CrtSetBreakAlloc         0050e590 f   LIBCMTD:dbgheap.obj
 0002:000935c0       __CrtSetDbgBlockType       0050e5c0 f   LIBCMTD:dbgheap.obj
 0002:000936e0       __CrtSetAllocHook          0050e6e0 f   LIBCMTD:dbgheap.obj
 0002:00093710       __CrtGetAllocHook          0050e710 f   LIBCMTD:dbgheap.obj
 0002:00093780       __CrtCheckMemory           0050e780 f   LIBCMTD:dbgheap.obj
 0002:00093cf0       __CrtSetDbgFlag            0050ecf0 f   LIBCMTD:dbgheap.obj
 0002:00093e90       __CrtDoForAllClientObjects 0050ee90 f   LIBCMTD:dbgheap.obj
 0002:00093ff0       __CrtIsValidPointer        0050eff0 f   LIBCMTD:dbgheap.obj
 0002:00094010       __CrtIsValidHeapPointer    0050f010 f   LIBCMTD:dbgheap.obj
 0002:00094130       __CrtIsMemoryBlock         0050f130 f   LIBCMTD:dbgheap.obj
 0002:00094300       __CrtReportBlockType       0050f300 f   LIBCMTD:dbgheap.obj
 0002:00094340       __CrtSetDumpClient         0050f340 f   LIBCMTD:dbgheap.obj
 0002:00094370       __CrtGetDumpClient         0050f370 f   LIBCMTD:dbgheap.obj
 0002:00094380       __CrtMemCheckpoint         0050f380 f   LIBCMTD:dbgheap.obj
 0002:00094620       __CrtMemDifference         0050f620 f   LIBCMTD:dbgheap.obj
 0002:000948c0       __CrtMemDumpAllObjectsSince 0050f8c0 f   LIBCMTD:dbgheap.obj
 0002:00094ef0       __CrtDumpMemoryLeaks       0050fef0 f   LIBCMTD:dbgheap.obj
 0002:00094f70       __CrtMemDumpStatistics     0050ff70 f   LIBCMTD:dbgheap.obj
 0002:000950c0       __aligned_malloc           005100c0 f   LIBCMTD:dbgheap.obj
 0002:000950f0       __aligned_malloc_dbg       005100f0 f   LIBCMTD:dbgheap.obj
 0002:00095120       __aligned_realloc          00510120 f   LIBCMTD:dbgheap.obj
 0002:00095150       __aligned_recalloc         00510150 f   LIBCMTD:dbgheap.obj
 0002:00095180       __aligned_realloc_dbg      00510180 f   LIBCMTD:dbgheap.obj
 0002:000951b0       __aligned_recalloc_dbg     005101b0 f   LIBCMTD:dbgheap.obj
 0002:000951e0       __aligned_offset_malloc    005101e0 f   LIBCMTD:dbgheap.obj
 0002:00095210       __aligned_offset_malloc_dbg 00510210 f   LIBCMTD:dbgheap.obj
 0002:00095410       __aligned_offset_realloc   00510410 f   LIBCMTD:dbgheap.obj
 0002:00095440       __aligned_offset_recalloc  00510440 f   LIBCMTD:dbgheap.obj
 0002:00095470       __aligned_offset_realloc_dbg 00510470 f   LIBCMTD:dbgheap.obj
 0002:000957f0       __aligned_offset_recalloc_dbg 005107f0 f   LIBCMTD:dbgheap.obj
 0002:00095940       __aligned_free             00510940 f   LIBCMTD:dbgheap.obj
 0002:00095960       __aligned_free_dbg         00510960 f   LIBCMTD:dbgheap.obj
 0002:00095a30       __CrtSetDebugFillThreshold 00510a30 f   LIBCMTD:dbgheap.obj
 0002:00095a60       __CrtSetCheckCount         00510a60 f   LIBCMTD:dbgheap.obj
 0002:00095a80       __CrtGetCheckCount         00510a80 f   LIBCMTD:dbgheap.obj
 0002:00095a90       __aligned_msize            00510a90 f   LIBCMTD:dbgheap.obj
 0002:00095ab0       __aligned_msize_dbg        00510ab0 f   LIBCMTD:dbgheap.obj
 0002:00095c00       _strstr                    00510c00 f   LIBCMTD:strstr.obj
 0002:00095cb0       _memcmp                    00510cb0 f   LIBCMTD:memcmp.obj
 0002:000969b0       __tolower                  005119b0 f   LIBCMTD:tolower.obj
 0002:000969c0       __tolower_l                005119c0 f   LIBCMTD:tolower.obj
 0002:00096c10       _tolower                   00511c10 f   LIBCMTD:tolower.obj
 0002:00096c70       _memmove                   00511c70 f   LIBCMTD:memmove.obj
 0002:000970b0       __strnicmp_l               005120b0 f   LIBCMTD:strnicmp.obj
 0002:00097380       __strnicmp                 00512380 f   LIBCMTD:strnicmp.obj
 0002:00097570       __ftol2_sse                00512570 f   LIBCMTD:ftol2.obj
 0002:00097579       __ftol2_pentium4           00512579 f   LIBCMTD:ftol2.obj
 0002:0009758c       __ftol2_sse_excpt          0051258c f   LIBCMTD:ftol2.obj
 0002:000975a6       __ftol2                    005125a6 f   LIBCMTD:ftol2.obj
 0002:00097650       __allshl                   00512650 f   LIBCMTD:llshl.obj
 0002:00097680       __aullrem                  00512680 f   LIBCMTD:ullrem.obj
 0002:00097720       __aullshr                  00512720 f   LIBCMTD:ullshr.obj
 0002:00097750       _strncpy                   00512750 f   LIBCMTD:strncpy.obj
 0002:000978c0       __stricmp_l                005128c0 f   LIBCMTD:stricmp.obj
 0002:00097ad0       ___ascii_stricmp           00512ad0 f   LIBCMTD:stricmp.obj
 0002:00097b60       __stricmp                  00512b60 f   LIBCMTD:stricmp.obj
 0002:00097cb0       _cos                       00512cb0 f   LIBCMTD:cos.obj
 0002:00097cf0       __CIcos                    00512cf0 f   LIBCMTD:cos.obj
 0002:00097d2b       __CIcos_default            00512d2b f   LIBCMTD:cos.obj
 0002:00097d3f       __cos_default              00512d3f     LIBCMTD:cos.obj
 0002:00097e30       _strtok                    00512e30 f   LIBCMTD:strtok.obj
 0002:00097fd0       _strncmp                   00512fd0 f   LIBCMTD:strncmp.obj
 0002:000981a0       _strcmp                    005131a0 f   LIBCMTD:strcmp.obj
 0002:00098260       _strchr                    00513260 f   LIBCMTD:strchr.obj
 0002:00098266       ___from_strstr_to_strchr   00513266     LIBCMTD:strchr.obj
 0002:00098360       __alldiv                   00513360 f   LIBCMTD:lldiv.obj
 0002:00098440       __vsnprintf_l              00513440 f   LIBCMTD:vsnprint.obj
 0002:00098650       __vsnprintf                00513650 f   LIBCMTD:vsnprint.obj
 0002:00098680       __alloca_probe             00513680     LIBCMTD:chkstk.obj
 0002:00098680       __chkstk                   00513680 f   LIBCMTD:chkstk.obj
 0002:000986c0       _srand                     005136c0 f   LIBCMTD:rand.obj
 0002:000986e0       _rand                      005136e0 f   LIBCMTD:rand.obj
 0002:00098724       _longjmp                   00513724 f   LIBCMTD:longjmp.obj
 0002:00098810       __cinit                    00513810 f   LIBCMTD:crt0dat.obj
 0002:000988e0       _exit                      005138e0 f   LIBCMTD:crt0dat.obj
 0002:00098900       __exit                     00513900 f   LIBCMTD:crt0dat.obj
 0002:00098920       __cexit                    00513920 f   LIBCMTD:crt0dat.obj
 0002:00098940       __c_exit                   00513940 f   LIBCMTD:crt0dat.obj
 0002:00098960       __amsg_exit                00513960 f   LIBCMTD:crt0dat.obj
 0002:000989b0       ___freeCrtMemory           005139b0 f   LIBCMTD:crt0dat.obj
 0002:00098d10       ___crtCorExitProcess       00513d10 f   LIBCMTD:crt0dat.obj
 0002:00098d60       ___crtExitProcess          00513d60 f   LIBCMTD:crt0dat.obj
 0002:00098d90       __lockexit                 00513d90 f   LIBCMTD:crt0dat.obj
 0002:00098db0       __unlockexit               00513db0 f   LIBCMTD:crt0dat.obj
 0002:00098dd0       __init_pointers            00513dd0 f   LIBCMTD:crt0dat.obj
 0002:00098eb0       __initterm_e               00513eb0 f   LIBCMTD:crt0dat.obj
 0002:00098f00       __get_osplatform           00513f00 f   LIBCMTD:crt0dat.obj
 0002:00099030       __get_osver                00514030 f   LIBCMTD:crt0dat.obj
 0002:00099160       __get_winver               00514160 f   LIBCMTD:crt0dat.obj
 0002:00099290       __get_winmajor             00514290 f   LIBCMTD:crt0dat.obj
 0002:000993c0       __get_winminor             005143c0 f   LIBCMTD:crt0dat.obj
 0002:000994f0       __get_wpgmptr              005144f0 f   LIBCMTD:crt0dat.obj
 0002:00099620       __get_pgmptr               00514620 f   LIBCMTD:crt0dat.obj
 0002:00099750       _clock                     00514750 f   LIBCMTD:clock.obj
 0002:000997d0       ___inittime                005147d0 f   LIBCMTD:clock.obj
 0002:00099820       __initp_misc_winsig        00514820 f   LIBCMTD:winsig.obj
 0002:00099850       _signal                    00514850 f   LIBCMTD:winsig.obj
 0002:00099e20       _raise                     00514e20 f   LIBCMTD:winsig.obj
 0002:0009a260       ___get_sigabrt             00515260 f   LIBCMTD:winsig.obj
 0002:0009a280       ___fpecode                 00515280 f   LIBCMTD:winsig.obj
 0002:0009a290       ___pxcptinfoptrs           00515290 f   LIBCMTD:winsig.obj
 0002:0009a2a0       ___crtMessageBoxW          005152a0 f   LIBCMTD:crtmboxw.obj
 0002:0009a5e0       __itow_s                   005155e0 f   LIBCMTD:xtows.obj
 0002:0009aaa0       __ltow_s                   00515aa0 f   LIBCMTD:xtows.obj
 0002:0009aaf0       __ultow_s                  00515af0 f   LIBCMTD:xtows.obj
 0002:0009ab20       __i64tow_s                 00515b20 f   LIBCMTD:xtows.obj
 0002:0009b030       __ui64tow_s                00516030 f   LIBCMTD:xtows.obj
 0002:0009b060       _wcsncat_s                 00516060 f   LIBCMTD:wcsncat_s.obj
 0002:0009b640       _wcsncpy_s                 00516640 f   LIBCMTD:wcsncpy_s.obj
 0002:0009bb40       _wcscat_s                  00516b40 f   LIBCMTD:wcscat_s.obj
 0002:0009c020       _wcscpy_s                  00517020 f   LIBCMTD:wcscpy_s.obj
 0002:0009c3c0       _fwprintf                  005173c0 f   LIBCMTD:fwprintf.obj
 0002:0009c5a0       __fwprintf_l               005175a0 f   LIBCMTD:fwprintf.obj
 0002:0009c5d0       __fwprintf_s_l             005175d0 f   LIBCMTD:fwprintf.obj
 0002:0009c600       _fwprintf_s                00517600 f   LIBCMTD:fwprintf.obj
 0002:0009c630       __fwprintf_p_l             00517630 f   LIBCMTD:fwprintf.obj
 0002:0009c660       __fwprintf_p               00517660 f   LIBCMTD:fwprintf.obj
 0002:0009c690       _setvbuf                   00517690 f   LIBCMTD:setvbuf.obj
 0002:0009ca20       _abort                     00517a20 f   LIBCMTD:abort.obj
 0002:0009cba0       __set_abort_behavior       00517ba0 f   LIBCMTD:abort.obj
 0002:0009cbe0       _wcslen                    00517be0 f   LIBCMTD:wcslen.obj
 0002:0009cc20       __set_error_mode           00517c20 f   LIBCMTD:errmode.obj
 0002:0009cd10       ___set_app_type            00517d10 f   LIBCMTD:errmode.obj
 0002:0009cd20       ___get_app_type            00517d20 f   LIBCMTD:errmode.obj
 0002:0009cd30       __assert                   00517d30 f   LIBCMTD:assert.obj
 0002:0009dac0       _strcpy_s                  00518ac0 f   LIBCMTD:strcpy_s.obj
 0002:0009de50       _strcat_s                  00518e50 f   LIBCMTD:strcat_s.obj
 0002:0009e320       __wcstombs_l_helper        00519320 f   LIBCMTD:wcstombs.obj
 0002:0009e9c0       __wcstombs_l               005199c0 f   LIBCMTD:wcstombs.obj
 0002:0009e9f0       _wcstombs                  005199f0 f   LIBCMTD:wcstombs.obj
 0002:0009ea20       __wcstombs_s_l             00519a20 f   LIBCMTD:wcstombs.obj
 0002:0009ed80       _wcstombs_s                00519d80 f   LIBCMTD:wcstombs.obj
 0002:0009edb0       __initp_misc_invarg        00519db0 f   LIBCMTD:invarg.obj
 0002:0009edc0       __invalid_parameter        00519dc0 f   LIBCMTD:invarg.obj
 0002:0009ee40       __invoke_watson            00519e40 f   LIBCMTD:invarg.obj
 0002:0009efc0       __set_invalid_parameter_handler 00519fc0 f   LIBCMTD:invarg.obj
 0002:0009f010       __get_invalid_parameter_handler 0051a010 f   LIBCMTD:invarg.obj
 0002:0009f050       ?_invalid_parameter@@YAXPBG00II@Z 0051a050 f   LIBCMTD:invarg.obj
 0002:0009f080       ?_invoke_watson@@YAXPBG00II@Z 0051a080 f   LIBCMTD:invarg.obj
 0002:0009f0b0       __vswprintf_helper         0051a0b0 f   LIBCMTD:vswprnc.obj
 0002:0009f370       __vswprintf_c              0051a370 f   LIBCMTD:vswprnc.obj
 0002:0009f3d0       __vswprintf_c_l            0051a3d0 f   LIBCMTD:vswprnc.obj
 0002:0009f430       __vswprintf_s_l            0051a430 f   LIBCMTD:vswprnc.obj
 0002:0009f730       _vswprintf_s               0051a730 f   LIBCMTD:vswprnc.obj
 0002:0009f760       __vsnwprintf_s_l           0051a760 f   LIBCMTD:vswprnc.obj
 0002:0009fc00       __vsnwprintf_s             0051ac00 f   LIBCMTD:vswprnc.obj
 0002:0009fc30       __vswprintf_p              0051ac30 f   LIBCMTD:vswprnc.obj
 0002:0009fc90       __vswprintf_p_l            0051ac90 f   LIBCMTD:vswprnc.obj
 0002:0009fcf0       ___report_gsfailure        0051acf0 f   LIBCMTD:gs_report.obj
 0002:0009fe40       __flsbuf                   0051ae40 f   LIBCMTD:_flsbuf.obj
 0002:000a01b0       __output_l                 0051b1b0 f   LIBCMTD:output.obj
 0002:000a1b40       _get_int_arg               0051cb40 f i LIBCMTD:output.obj
 0002:000a1b60       _get_int64_arg             0051cb60 f i LIBCMTD:output.obj
 0002:000a1b90       _get_short_arg             0051cb90 f i LIBCMTD:output.obj
 0002:000a1bc0       __dosmaperr                0051cbc0 f   LIBCMTD:dosmap.obj
 0002:000a1bf0       __get_errno_from_oserr     0051cbf0 f   LIBCMTD:dosmap.obj
 0002:000a1c80       __set_errno                0051cc80 f   LIBCMTD:dosmap.obj
 0002:000a1cc0       __get_errno                0051ccc0 f   LIBCMTD:dosmap.obj
 0002:000a1d60       __set_doserrno             0051cd60 f   LIBCMTD:dosmap.obj
 0002:000a1da0       __get_doserrno             0051cda0 f   LIBCMTD:dosmap.obj
 0002:000a1e40       __errno                    0051ce40 f   LIBCMTD:dosmap.obj
 0002:000a1e70       ___doserrno                0051ce70 f   LIBCMTD:dosmap.obj
 0002:000a1ea0       __CrtSetReportHookW2       0051cea0 f   LIBCMTD:dbgrptw.obj
 0002:000a2290       __CrtDbgReportW            0051d290 f   LIBCMTD:dbgrptw.obj
 0002:000a22e0       __CrtDbgReportWV           0051d2e0 f i LIBCMTD:dbgrptw.obj
 0002:000a26f0       ___crtMessageWindowW       0051d6f0 f   LIBCMTD:dbgrptw.obj
 0002:000a2bf0       ?_CrtDbgReportW@@YAHHPBGH00ZZ 0051dbf0 f   LIBCMTD:dbgrptw.obj
 0002:000a2c40       __vsprintf_l               0051dc40 f   LIBCMTD:vsprintf.obj
 0002:000a2e10       _vsprintf                  0051de10 f   LIBCMTD:vsprintf.obj
 0002:000a2e40       __vscprintf_helper         0051de40 f   LIBCMTD:vsprintf.obj
 0002:000a2f30       __vscprintf                0051df30 f   LIBCMTD:vsprintf.obj
 0002:000a2f60       __vscprintf_l              0051df60 f   LIBCMTD:vsprintf.obj
 0002:000a2f90       __vscprintf_p              0051df90 f   LIBCMTD:vsprintf.obj
 0002:000a2fc0       __vscprintf_p_l            0051dfc0 f   LIBCMTD:vsprintf.obj
 0002:000a2ff0       __vsnprintf_helper         0051dff0 f   LIBCMTD:vsnprnc.obj
 0002:000a3230       __vsnprintf_c              0051e230 f   LIBCMTD:vsnprnc.obj
 0002:000a3290       __vsnprintf_c_l            0051e290 f   LIBCMTD:vsnprnc.obj
 0002:000a32f0       __vsprintf_s_l             0051e2f0 f   LIBCMTD:vsnprnc.obj
 0002:000a35f0       _vsprintf_s                0051e5f0 f   LIBCMTD:vsnprnc.obj
 0002:000a3620       __vsnprintf_s_l            0051e620 f   LIBCMTD:vsnprnc.obj
 0002:000a3aa0       __vsnprintf_s              0051eaa0 f   LIBCMTD:vsnprnc.obj
 0002:000a3ad0       __vsprintf_p               0051ead0 f   LIBCMTD:vsnprnc.obj
 0002:000a3b30       __vsprintf_p_l             0051eb30 f   LIBCMTD:vsnprnc.obj
 0002:000a3b90       __VEC_memzero              0051eb90 f   LIBCMTD:p4_memset.obj
 0002:000a3cc0       __sse2_mathfcns_init       0051ecc0 f   LIBCMTD:mathfcns.obj
 0002:000a3cf0       __set_SSE2_enable          0051ecf0 f   LIBCMTD:mathfcns.obj
 0002:000a3d20       __openfile                 0051ed20 f   LIBCMTD:_open.obj
 0002:000a45e0       __getstream                0051f5e0 f   LIBCMTD:stream.obj
 0002:000a48d0       __except_handler4          0051f8d0 f   LIBCMTD:chandler4.obj
 0002:000a4b64       __local_unwind4            0051fb64 f   LIBCMTD:exsup4.obj
 0002:000a4c3a       __seh_longjmp_unwind4@4    0051fc3a f   LIBCMTD:exsup4.obj
 0002:000a4c56       @_EH4_CallFilterFunc@8     0051fc56 f   LIBCMTD:exsup4.obj
 0002:000a4c6d       @_EH4_TransferToHandler@8  0051fc6d f   LIBCMTD:exsup4.obj
 0002:000a4c86       @_EH4_GlobalUnwind@4       0051fc86 f   LIBCMTD:exsup4.obj
 0002:000a4ca0       @_EH4_LocalUnwind@16       0051fca0 f   LIBCMTD:exsup4.obj
 0002:000a4d10       __commit                   0051fd10 f   LIBCMTD:commit.obj
 0002:000a4fb0       __fileno                   0051ffb0 f   LIBCMTD:fileno.obj
 0002:000a5040       __write                    00520040 f   LIBCMTD:write.obj
 0002:000a52f0       __write_nolock             005202f0 f   LIBCMTD:write.obj
 0002:000a5f90       __mtinitlocks              00520f90 f   LIBCMTD:mlock.obj
 0002:000a6040       __mtdeletelocks            00521040 f   LIBCMTD:mlock.obj
 0002:000a6130       __mtinitlocknum            00521130 f   LIBCMTD:mlock.obj
 0002:000a62d0       __lock                     005212d0 f   LIBCMTD:mlock.obj
 0002:000a6320       __unlock                   00521320 f   LIBCMTD:mlock.obj
 0002:000a6340       __lockerr_exit             00521340 f   LIBCMTD:mlock.obj
 0002:000a6370       __close                    00521370 f   LIBCMTD:close.obj
 0002:000a6600       __close_nolock             00521600 f   LIBCMTD:close.obj
 0002:000a6700       __freebuf                  00521700 f   LIBCMTD:_freebuf.obj
 0002:000a67b0       __stbuf                    005217b0 f   LIBCMTD:_sftbuf.obj
 0002:000a6960       __ftbuf                    00521960 f   LIBCMTD:_sftbuf.obj
 0002:000a6a10       _vprintf_helper            00521a10 f   LIBCMTD:vprintf.obj
 0002:000a6b70       __vprintf_l                00521b70 f   LIBCMTD:vprintf.obj
 0002:000a6ba0       __vprintf_s_l              00521ba0 f   LIBCMTD:vprintf.obj
 0002:000a6bd0       __vprintf_p_l              00521bd0 f   LIBCMTD:vprintf.obj
 0002:000a6c00       _vprintf                   00521c00 f   LIBCMTD:vprintf.obj
 0002:000a6c30       _vprintf_s                 00521c30 f   LIBCMTD:vprintf.obj
 0002:000a6c60       __vprintf_p                00521c60 f   LIBCMTD:vprintf.obj
 0002:000a6c90       __ioinit                   00521c90 f   LIBCMTD:ioinit.obj
 0002:000a7230       __ioterm                   00522230 f   LIBCMTD:ioinit.obj
 0002:000a7300       _strtol                    00522300 f   LIBCMTD:strtol.obj
 0002:000a7970       __strtol_l                 00522970 f   LIBCMTD:strtol.obj
 0002:000a79a0       _strtoul                   005229a0 f   LIBCMTD:strtol.obj
 0002:000a7a00       __strtoul_l                00522a00 f   LIBCMTD:strtol.obj
 0002:000a7a30       __strtoi64                 00522a30 f   LIBCMTD:strtoq.obj
 0002:000a80f0       __strtoi64_l               005230f0 f   LIBCMTD:strtoq.obj
 0002:000a8120       __strtoui64                00523120 f   LIBCMTD:strtoq.obj
 0002:000a8180       __strtoui64_l              00523180 f   LIBCMTD:strtoq.obj
 0002:000a81b0       __VEC_memcpy               005231b0 f   LIBCMTD:p4_memcpy.obj
 0002:000a8380       __setdefaultprecision      00523380 f   LIBCMTD:fp8.obj
 0002:000a83d0       __ms_p5_test_fdiv          005233d0 f   LIBCMTD:testfdiv.obj
 0002:000a8430       __ms_p5_mp_test_fdiv       00523430 f   LIBCMTD:testfdiv.obj
 0002:000a8490       __forcdecpt                00523490 f   LIBCMTD:cvt.obj
 0002:000a84b0       __forcdecpt_l              005234b0 f   LIBCMTD:cvt.obj
 0002:000a85a0       __cropzeros                005235a0 f   LIBCMTD:cvt.obj
 0002:000a85c0       __cropzeros_l              005235c0 f   LIBCMTD:cvt.obj
 0002:000a8710       __positive                 00523710 f   LIBCMTD:cvt.obj
 0002:000a8750       __fassign_l                00523750 f   LIBCMTD:cvt.obj
 0002:000a87c0       __fassign                  005237c0 f   LIBCMTD:cvt.obj
 0002:000a87f0       __cftoe_l                  005237f0 f   LIBCMTD:cvt.obj
 0002:000a8e90       __cftoe                    00523e90 f   LIBCMTD:cvt.obj
 0002:000a8ec0       __cftoa_l                  00523ec0 f   LIBCMTD:cvt.obj
 0002:000a9880       ?strrchr@@YAPADPADH@Z      00524880 f i LIBCMTD:cvt.obj
 0002:000a98a0       __cftoa                    005248a0 f   LIBCMTD:cvt.obj
 0002:000a98d0       __cftof_l                  005248d0 f   LIBCMTD:cvt.obj
 0002:000a9dd0       __cftof                    00524dd0 f   LIBCMTD:cvt.obj
 0002:000a9e00       __cftog_l                  00524e00 f   LIBCMTD:cvt.obj
 0002:000aa0b0       __cftog                    005250b0 f   LIBCMTD:cvt.obj
 0002:000aa0e0       __cfltcvt_l                005250e0 f   LIBCMTD:cvt.obj
 0002:000aa1d0       __cfltcvt                  005251d0 f   LIBCMTD:cvt.obj
 0002:000aa240       __initp_misc_cfltcvt_tab   00525240 f   LIBCMTD:cmiscdat.obj
 0002:000aa290       __filbuf                   00525290 f   LIBCMTD:_filbuf.obj
 0002:000aa570       __fcloseall                00525570 f   LIBCMTD:closeall.obj
 0002:000aa6e0       ?__CxxUnhandledExceptionFilter@@YGJPAU_EXCEPTION_POINTERS@@@Z 005256e0 f   LIBCMTD:unhandld.obj
 0002:000aa760       ___CxxSetUnhandledExceptionFilter 00525760 f   LIBCMTD:unhandld.obj
 0002:000aa780       ___security_init_cookie    00525780 f   LIBCMTD:gs_support.obj
 0002:000aa890       __initp_misc_winxfltr      00525890 f   LIBCMTD:winxfltr.obj
 0002:000aa8a0       ___CppXcptFilter           005258a0 f   LIBCMTD:winxfltr.obj
 0002:000aa8d0       __XcptFilter               005258d0 f   LIBCMTD:winxfltr.obj
 0002:000aab80       __setenvp                  00525b80 f   LIBCMTD:stdenvp.obj
 0002:000aad80       __setargv                  00525d80 f   LIBCMTD:stdargv.obj
 0002:000aaee0       __set_pgmptr               00525ee0 f i LIBCMTD:stdargv.obj
 0002:000ab330       ___crtGetEnvironmentStringsA 00526330 f   LIBCMTD:a_env.obj
 0002:000ab5d0       __RTC_Initialize           005265d0 f   LIBCMTD:initsect.obj
 0002:000ab600       __RTC_Terminate            00526600 f   LIBCMTD:initsect.obj
 0002:000ab630       __encode_pointer           00526630 f   LIBCMTD:tidtable.obj
 0002:000ab7c0       __encoded_null             005267c0 f   LIBCMTD:tidtable.obj
 0002:000ab7e0       __decode_pointer           005267e0 f   LIBCMTD:tidtable.obj
 0002:000ab8a0       ___crtTlsAlloc@4           005268a0 f   LIBCMTD:tidtable.obj
 0002:000ab8b0       ___fls_getvalue@4          005268b0 f   LIBCMTD:tidtable.obj
 0002:000ab8d0       ___get_flsindex            005268d0 f   LIBCMTD:tidtable.obj
 0002:000ab8e0       ___set_flsgetvalue         005268e0 f   LIBCMTD:tidtable.obj
 0002:000ab940       ___fls_setvalue@8          00526940 f   LIBCMTD:tidtable.obj
 0002:000ab970       __mtinit                   00526970 f   LIBCMTD:tidtable.obj
 0002:000abc00       __mtterm                   00526c00 f   LIBCMTD:tidtable.obj
 0002:000abc70       __initptd                  00526c70 f   LIBCMTD:tidtable.obj
 0002:000abdf0       __getptd_noexit            00526df0 f   LIBCMTD:tidtable.obj
 0002:000abed0       __getptd                   00526ed0 f   LIBCMTD:tidtable.obj
 0002:000abf00       __freefls@4                00526f00 f   LIBCMTD:tidtable.obj
 0002:000ac160       __freeptd                  00527160 f   LIBCMTD:tidtable.obj
 0002:000ac200       ___threadid                00527200 f   LIBCMTD:tidtable.obj
 0002:000ac210       ___threadhandle            00527210 f   LIBCMTD:tidtable.obj
 0002:000ac220       ___heap_select             00527220 f   LIBCMTD:heapinit.obj
 0002:000ac2d0       __heap_init                005272d0 f   LIBCMTD:heapinit.obj
 0002:000ac360       __heap_term                00527360 f   LIBCMTD:heapinit.obj
 0002:000ac420       __get_heap_handle          00527420 f   LIBCMTD:heapinit.obj
 0002:000ac470       __FF_MSGBANNER             00527470 f   LIBCMTD:crt0msg.obj
 0002:000ac4d0       __NMSG_WRITE               005274d0 f   LIBCMTD:crt0msg.obj
 0002:000ac810       __GET_RTERRMSG             00527810 f   LIBCMTD:crt0msg.obj
 0002:000ac860       __chvalidator              00527860 f   LIBCMTD:isctype.obj
 0002:000ac8c0       __chvalidator_l            005278c0 f   LIBCMTD:isctype.obj
 0002:000ac9a0       __isctype_l                005279a0 f   LIBCMTD:isctype.obj
 0002:000acb00       __isctype                  00527b00 f   LIBCMTD:isctype.obj
 0002:000acb50       ___updatetmbcinfo          00527b50 f   LIBCMTD:mbctype.obj
 0002:000acca0       __setmbcp                  00527ca0 f   LIBCMTD:mbctype.obj
 0002:000ad130       __setmbcp_nolock           00528130 f   LIBCMTD:mbctype.obj
 0002:000adb10       __getmbcp                  00528b10 f   LIBCMTD:mbctype.obj
 0002:000adba0       ___initmbctable            00528ba0 f   LIBCMTD:mbctype.obj
 0002:000adbd0       ____setlc_active_func      00528bd0 f   LIBCMTD:setlocal.obj
 0002:000adbe0       ____unguarded_readlc_active_add_func 00528be0 f   LIBCMTD:setlocal.obj
 0002:000adbf0       ___freetlocinfo            00528bf0 f   LIBCMTD:setlocal.obj
 0002:000adf90       ___addlocaleref            00528f90 f   LIBCMTD:setlocal.obj
 0002:000ae100       ___removelocaleref         00529100 f   LIBCMTD:setlocal.obj
 0002:000ae280       ___updatetlocinfo          00529280 f   LIBCMTD:setlocal.obj
 0002:000ae420       __configthreadlocale       00529420 f   LIBCMTD:setlocal.obj
 0002:000ae570       __locterm                  00529570 f   LIBCMTD:setlocal.obj
 0002:000ae630       __free_locale              00529630 f   LIBCMTD:setlocal.obj
 0002:000ae790       ___free_locale             00529790 f   LIBCMTD:setlocal.obj
 0002:000ae7b0       __create_locale            005297b0 f   LIBCMTD:setlocal.obj
 0002:000aea50       ___create_locale           00529a50 f   LIBCMTD:setlocal.obj
 0002:000aea70       __get_current_locale       00529a70 f   LIBCMTD:setlocal.obj
 0002:000aeba0       ___get_current_locale      00529ba0 f   LIBCMTD:setlocal.obj
 0002:000aebb0       _setlocale                 00529bb0 f   LIBCMTD:setlocal.obj
 0002:000afe60       __expandlocale             0052ae60 f   LIBCMTD:setlocal.obj
 0002:000b01b0       ___init_dummy              0052b1b0 f   LIBCMTD:setlocal.obj
 0002:000b01c0       __strcats                  0052b1c0 f   LIBCMTD:setlocal.obj
 0002:000b0250       ___lc_strtolc              0052b250 f   LIBCMTD:setlocal.obj
 0002:000b04d0       ___lc_lctostr              0052b4d0 f   LIBCMTD:setlocal.obj
 0002:000b0584       __global_unwind2           0052b584 f   LIBCMTD:exsup.obj
 0002:000b05e9       __local_unwind2            0052b5e9 f   LIBCMTD:exsup.obj
 0002:000b066d       __abnormal_termination     0052b66d f   LIBCMTD:exsup.obj
 0002:000b0690       __NLG_Notify1              0052b690 f   LIBCMTD:exsup.obj
 0002:000b0699       __NLG_Notify               0052b699 f   LIBCMTD:exsup.obj
 0002:000b06b0       __NLG_Dispatch2            0052b6b0     LIBCMTD:exsup.obj
 0002:000b06b0       __NLG_Dispatch             0052b6b0     LIBCMTD:exsup.obj
 0002:000b06b8       __NLG_Call                 0052b6b8 f   LIBCMTD:exsup.obj
 0002:000b06ba       __NLG_Return2              0052b6ba     LIBCMTD:exsup.obj
 0002:000b0710       ___crtLCMapStringA         0052b710 f   LIBCMTD:a_map.obj
 0002:000b0dc0       __MarkAllocaS              0052bdc0 f i LIBCMTD:a_map.obj
 0002:000b0df0       __freea                    0052bdf0 f i LIBCMTD:a_map.obj
 0002:000b0ed0       __isleadbyte_l             0052bed0 f i LIBCMTD:_wctype.obj
 0002:000b0f30       _isleadbyte                0052bf30 f i LIBCMTD:_wctype.obj
 0002:000b0f50       __iswalpha_l               0052bf50 f i LIBCMTD:_wctype.obj
 0002:000b0f80       _iswalpha                  0052bf80 f i LIBCMTD:_wctype.obj
 0002:000b0fa0       __iswupper_l               0052bfa0 f i LIBCMTD:_wctype.obj
 0002:000b0fc0       _iswupper                  0052bfc0 f i LIBCMTD:_wctype.obj
 0002:000b0fe0       __iswlower_l               0052bfe0 f i LIBCMTD:_wctype.obj
 0002:000b1000       _iswlower                  0052c000 f i LIBCMTD:_wctype.obj
 0002:000b1020       __iswdigit_l               0052c020 f i LIBCMTD:_wctype.obj
 0002:000b1040       _iswdigit                  0052c040 f i LIBCMTD:_wctype.obj
 0002:000b1060       __iswxdigit_l              0052c060 f i LIBCMTD:_wctype.obj
 0002:000b1090       _iswxdigit                 0052c090 f i LIBCMTD:_wctype.obj
 0002:000b10b0       __iswspace_l               0052c0b0 f i LIBCMTD:_wctype.obj
 0002:000b10d0       _iswspace                  0052c0d0 f i LIBCMTD:_wctype.obj
 0002:000b10f0       __iswpunct_l               0052c0f0 f i LIBCMTD:_wctype.obj
 0002:000b1110       _iswpunct                  0052c110 f i LIBCMTD:_wctype.obj
 0002:000b1130       __iswalnum_l               0052c130 f i LIBCMTD:_wctype.obj
 0002:000b1160       _iswalnum                  0052c160 f i LIBCMTD:_wctype.obj
 0002:000b1180       __iswprint_l               0052c180 f i LIBCMTD:_wctype.obj
 0002:000b11b0       _iswprint                  0052c1b0 f i LIBCMTD:_wctype.obj
 0002:000b11d0       __iswgraph_l               0052c1d0 f i LIBCMTD:_wctype.obj
 0002:000b1200       _iswgraph                  0052c200 f i LIBCMTD:_wctype.obj
 0002:000b1220       __iswcntrl_l               0052c220 f i LIBCMTD:_wctype.obj
 0002:000b1240       _iswcntrl                  0052c240 f i LIBCMTD:_wctype.obj
 0002:000b1260       _iswascii                  0052c260 f i LIBCMTD:_wctype.obj
 0002:000b1280       __iswcsym_l                0052c280 f i LIBCMTD:_wctype.obj
 0002:000b12d0       ___iswcsym                 0052c2d0 f i LIBCMTD:_wctype.obj
 0002:000b1320       __iswcsymf_l               0052c320 f i LIBCMTD:_wctype.obj
 0002:000b1370       ___iswcsymf                0052c370 f i LIBCMTD:_wctype.obj
 0002:000b13c0       __initp_heap_handler       0052c3c0 f   LIBCMTD:handler.obj
 0002:000b13d0       ?_set_new_handler@@YAP6AHI@ZP6AHI@Z@Z 0052c3d0 f   LIBCMTD:handler.obj
 0002:000b1430       ?_set_new_handler@@YAP6AHI@ZH@Z 0052c430 f   LIBCMTD:handler.obj
 0002:000b1470       ?_query_new_handler@@YAP6AHI@ZXZ 0052c470 f   LIBCMTD:handler.obj
 0002:000b1490       __callnewh                 0052c490 f   LIBCMTD:handler.obj
 0002:000b14e0       _V6_HeapAlloc              0052c4e0 f   LIBCMTD:malloc.obj
 0002:000b15a0       __malloc_base              0052c5a0 f   LIBCMTD:malloc.obj
 0002:000b1650       __heap_alloc_base          0052c650 f i LIBCMTD:malloc.obj
 0002:000b1730       __CrtSetReportHook2        0052c730 f   LIBCMTD:dbgrpt.obj
 0002:000b1b20       __CrtDbgReport             0052cb20 f   LIBCMTD:dbgrpt.obj
 0002:000b1b70       __CrtDbgReportV            0052cb70 f i LIBCMTD:dbgrpt.obj
 0002:000b1ba0       ___crtMessageWindowA       0052cba0 f   LIBCMTD:dbgrpt.obj
 0002:000b20a0       __CrtDefaultAllocHook      0052d0a0 f   LIBCMTD:dbghook.obj
 0002:000b20b0       __crt_debugger_hook        0052d0b0 f   LIBCMTD:dbghook.obj
 0002:000b20d0       __expand_base              0052d0d0 f   LIBCMTD:expand.obj
 0002:000b2310       __realloc_base             0052d310 f   LIBCMTD:realloc.obj
 0002:000b2790       __recalloc_base            0052d790 f   LIBCMTD:realloc.obj
 0002:000b28c0       __free_base                0052d8c0 f   LIBCMTD:free.obj
 0002:000b2a30       __heapchk                  0052da30 f   LIBCMTD:heapchk.obj
 0002:000b2b30       __heapset                  0052db30 f   LIBCMTD:heapchk.obj
 0002:000b2b40       __get_sbh_threshold        0052db40 f   LIBCMTD:sbheap.obj
 0002:000b2ba0       __set_sbh_threshold        0052dba0 f   LIBCMTD:sbheap.obj
 0002:000b2d90       __set_amblksiz             0052dd90 f   LIBCMTD:sbheap.obj
 0002:000b2ed0       __get_amblksiz             0052ded0 f   LIBCMTD:sbheap.obj
 0002:000b3000       ___sbh_heap_init           0052e000 f   LIBCMTD:sbheap.obj
 0002:000b3080       ___sbh_find_block          0052e080 f   LIBCMTD:sbheap.obj
 0002:000b30f0       ___sbh_verify_block        0052e0f0 f   LIBCMTD:sbheap.obj
 0002:000b3160       ___sbh_free_block          0052e160 f   LIBCMTD:sbheap.obj
 0002:000b3890       ___sbh_alloc_block         0052e890 f   LIBCMTD:sbheap.obj
 0002:000b3ef0       ___sbh_alloc_new_region    0052eef0 f   LIBCMTD:sbheap.obj
 0002:000b4040       ___sbh_alloc_new_group     0052f040 f   LIBCMTD:sbheap.obj
 0002:000b42b0       ___sbh_resize_block        0052f2b0 f   LIBCMTD:sbheap.obj
 0002:000b49f0       ___sbh_heapmin             0052f9f0 f   LIBCMTD:sbheap.obj
 0002:000b4b70       ___sbh_heap_check          0052fb70 f   LIBCMTD:sbheap.obj
 0002:000b5190       ___ascii_strnicmp          00530190 f   LIBCMTD:_strnicm.obj
 0002:000b5210       __CIcos_pentium4           00530210 f   LIBCMTD:cos_pentium4.obj
 0002:000b5228       __cos_pentium4             00530228     LIBCMTD:cos_pentium4.obj
 0002:000b5430       __trandisp1                00530430 f   LIBCMTD:87disp.obj
 0002:000b5497       __trandisp2                00530497 f   LIBCMTD:87disp.obj
 0002:000b5523       __rttospopde               00530523     LIBCMTD:87disp.obj
 0002:000b5528       __rttospop                 00530528     LIBCMTD:87disp.obj
 0002:000b552a       __rtnospop                 0053052a     LIBCMTD:87disp.obj
 0002:000b552c       __rttosnpop                0053052c     LIBCMTD:87disp.obj
 0002:000b552d       __rtnospopde               0053052d     LIBCMTD:87disp.obj
 0002:000b5534       __rtzeropop                00530534     LIBCMTD:87disp.obj
 0002:000b5536       __rtzeronpop               00530536     LIBCMTD:87disp.obj
 0002:000b553b       __rtonepop                 0053053b     LIBCMTD:87disp.obj
 0002:000b553d       __rtonenpop                0053053d     LIBCMTD:87disp.obj
 0002:000b5542       __tosnan1                  00530542     LIBCMTD:87disp.obj
 0002:000b556d       __nosnan2                  0053056d     LIBCMTD:87disp.obj
 0002:000b556f       __tosnan2                  0053056f     LIBCMTD:87disp.obj
 0002:000b5597       __nan2                     00530597     LIBCMTD:87disp.obj
 0002:000b55d6       __rtindfpop                005305d6     LIBCMTD:87disp.obj
 0002:000b55d8       __rtindfnpop               005305d8     LIBCMTD:87disp.obj
 0002:000b55e9       __rttosnpopde              005305e9     LIBCMTD:87disp.obj
 0002:000b55f3       __rtchsifneg               005305f3     LIBCMTD:87disp.obj
 0002:000b5670       __twoToTOS                 00530670 f   LIBCMTD:common.obj
 0002:000b5685       __load_CW                  00530685 f   LIBCMTD:common.obj
 0002:000b569c       __convertTOStoQNaN         0053069c f   LIBCMTD:common.obj
 0002:000b56b5       __fload_withFB             005306b5 f   LIBCMTD:common.obj
 0002:000b56f8       __checkTOS_withFB          005306f8 f   LIBCMTD:common.obj
 0002:000b570e       __fast_exit                0053070e f   LIBCMTD:common.obj
 0002:000b571b       __math_exit                0053071b f   LIBCMTD:common.obj
 0002:000b5745       __check_overflow_exit      00530745 f   LIBCMTD:common.obj
 0002:000b5759       __check_range_exit         00530759 f   LIBCMTD:common.obj
 0002:000b5860       __startTwoArgErrorHandling 00530860 f   LIBCMTD:genexcep.obj
 0002:000b5877       __startOneArgErrorHandling 00530877 f   LIBCMTD:genexcep.obj
 0002:000b58d0       __rt_probe_read4@4         005308d0 f   LIBCMTD:sehsupp.obj
 0002:000b5990       __onexit                   00530990 f   LIBCMTD:onexit.obj
 0002:000b5bd0       _atexit                    00530bd0 f   LIBCMTD:onexit.obj
 0002:000b5bf0       ___onexitinit              00530bf0 f   LIBCMTD:onexit.obj
 0002:000b5c60       __ValidateImageBase        00530c60 f   LIBCMTD:pesect.obj
 0002:000b5ce0       __FindPESection            00530ce0 f   LIBCMTD:pesect.obj
 0002:000b5d70       __IsNonwritableInCurrentImage 00530d70 f   LIBCMTD:pesect.obj
 0002:000b5ed0       __initp_eh_hooks           00530ed0 f   LIBCMTD:hooks.obj
 0002:000b5ef0       ?terminate@@YAXXZ          00530ef0 f   LIBCMTD:hooks.obj
 0002:000b5f90       ?unexpected@@YAXXZ         00530f90 f   LIBCMTD:hooks.obj
 0002:000b5fc0       ?_inconsistency@@YAXXZ     00530fc0 f   LIBCMTD:hooks.obj
 0002:000b6070       __initp_misc_rand_s        00531070 f   LIBCMTD:rand_s.obj
 0002:000b6080       _rand_s                    00531080 f   LIBCMTD:rand_s.obj
 0002:000b6320       ___getlocaleinfo           00531320 f   LIBCMTD:inithelp.obj
 0002:000b6670       __initp_misc_purevirt      00531670 f   LIBCMTD:inithelp.obj
 0002:000b6680       __initp_misc_initcrit      00531680 f   LIBCMTD:initcrit.obj
 0002:000b6690       ___crtInitCritSecAndSpinCount 00531690 f   LIBCMTD:initcrit.obj
 0002:000b6850       __woutput_l                00531850 f   LIBCMTD:woutput.obj
 0002:000b7e90       _vfwprintf_helper          00532e90 f   LIBCMTD:vfwprint.obj
 0002:000b8070       __vfwprintf_l              00533070 f   LIBCMTD:vfwprint.obj
 0002:000b80a0       __vfwprintf_s_l            005330a0 f   LIBCMTD:vfwprint.obj
 0002:000b80d0       __vfwprintf_p_l            005330d0 f   LIBCMTD:vfwprint.obj
 0002:000b8100       _vfwprintf                 00533100 f   LIBCMTD:vfwprint.obj
 0002:000b8130       _vfwprintf_s               00533130 f   LIBCMTD:vfwprint.obj
 0002:000b8160       __vfwprintf_p              00533160 f   LIBCMTD:vfwprint.obj
 0002:000b8190       ___crtMessageBoxA          00533190 f   LIBCMTD:crtmbox.obj
 0002:000b84d0       __itoa_s                   005334d0 f   LIBCMTD:xtoas.obj
 0002:000b8980       __ltoa_s                   00533980 f   LIBCMTD:xtoas.obj
 0002:000b89d0       __ultoa_s                  005339d0 f   LIBCMTD:xtoas.obj
 0002:000b8a00       __i64toa_s                 00533a00 f   LIBCMTD:xtoas.obj
 0002:000b8f00       __ui64toa_s                00533f00 f   LIBCMTD:xtoas.obj
 0002:000b8f30       __mbsnbcat_s               00533f30 f   LIBCMTD:mbsnbcat_s.obj
 0002:000b8f60       __mbsnbcpy_s               00533f60 f   LIBCMTD:mbsnbcpy_s.obj
 0002:000b8f90       _fprintf                   00533f90 f   LIBCMTD:fprintf.obj
 0002:000b9330       __fprintf_l                00534330 f   LIBCMTD:fprintf.obj
 0002:000b9360       __fprintf_s_l              00534360 f   LIBCMTD:fprintf.obj
 0002:000b9390       _fprintf_s                 00534390 f   LIBCMTD:fprintf.obj
 0002:000b93c0       __fprintf_p_l              005343c0 f   LIBCMTD:fprintf.obj
 0002:000b93f0       __fprintf_p                005343f0 f   LIBCMTD:fprintf.obj
 0002:000b9420       __woutput_s_l              00534420 f   LIBCMTD:woutputs.obj
 0002:000bac10       __validate_param_reuseW    00535c10 f   LIBCMTD:woutputp.obj
 0002:000baf10       __woutput_p_l              00535f10 f   LIBCMTD:woutputp.obj
 0002:000bf440       __lseeki64                 0053a440 f   LIBCMTD:lseeki64.obj
 0002:000bf720       __lseeki64_nolock          0053a720 f   LIBCMTD:lseeki64.obj
 0002:000bf840       __getbuf                   0053a840 f   LIBCMTD:_getbuf.obj
 0002:000bf930       __isatty                   0053a930 f   LIBCMTD:isatty.obj
 0002:000bfa50       __wctomb_s_l               0053aa50 f   LIBCMTD:wctomb.obj
 0002:000bfe10       _wctomb_s                  0053ae10 f   LIBCMTD:wctomb.obj
 0002:000bfe40       __wctomb_l                 0053ae40 f   LIBCMTD:wctomb.obj
 0002:000bfee0       _wctomb                    0053aee0 f   LIBCMTD:wctomb.obj
 0002:000bff40       __CrtDbgBreak              0053af40 f   LIBCMTD:dbgrptt.obj
 0002:000bff50       __CrtSetReportMode         0053af50 f   LIBCMTD:dbgrptt.obj
 0002:000c00e0       __CrtSetReportFile         0053b0e0 f   LIBCMTD:dbgrptt.obj
 0002:000c0210       __CrtSetReportHook         0053b210 f   LIBCMTD:dbgrptt.obj
 0002:000c0240       __CrtGetReportHook         0053b240 f   LIBCMTD:dbgrptt.obj
 0002:000c0250       __VCrtDbgReportA           0053b250 f   LIBCMTD:dbgrptt.obj
 0002:000c0c80       __VCrtDbgReportW           0053bc80 f   LIBCMTD:dbgrptt.obj
 0002:000c1800       __swprintf                 0053c800 f   LIBCMTD:swprintf.obj
 0002:000c1a50       ___swprintf_l              0053ca50 f   LIBCMTD:swprintf.obj
 0002:000c1a80       _swprintf_s                0053ca80 f   LIBCMTD:swprintf.obj
 0002:000c1ac0       __snwprintf_s              0053cac0 f   LIBCMTD:swprintf.obj
 0002:000c1b00       __swprintf_p               0053cb00 f   LIBCMTD:swprintf.obj
 0002:000c1b40       __swprintf_s_l             0053cb40 f   LIBCMTD:swprintf.obj
 0002:000c1b80       __snwprintf_s_l            0053cb80 f   LIBCMTD:swprintf.obj
 0002:000c1bc0       __swprintf_p_l             0053cbc0 f   LIBCMTD:swprintf.obj
 0002:000c1c00       __scwprintf                0053cc00 f   LIBCMTD:swprintf.obj
 0002:000c1c30       __scwprintf_p              0053cc30 f   LIBCMTD:swprintf.obj
 0002:000c1c60       __scwprintf_l              0053cc60 f   LIBCMTD:swprintf.obj
 0002:000c1c90       __scwprintf_p_l            0053cc90 f   LIBCMTD:swprintf.obj
 0002:000c1cc0       __validate_param_reuseA    0053ccc0 f   LIBCMTD:outputp.obj
 0002:000c1fd0       __output_p_l               0053cfd0 f   LIBCMTD:outputp.obj
 0002:000c6ad0       _get_crtdouble_arg         00541ad0 f i LIBCMTD:outputp.obj
 0002:000c6b00       __output_s_l               00541b00 f   LIBCMTD:outputs.obj
 0002:000c8640       __get_sse2_info            00543640 f   LIBCMTD:cpu_disp.obj
 0002:000c87b0       ___sse2_available_init     005437b0 f   LIBCMTD:cpu_disp.obj
 0002:000c87d0       __open                     005437d0 f   LIBCMTD:open.obj
 0002:000c89b0       __sopen_helper             005439b0 f   LIBCMTD:open.obj
 0002:000ca0f0       __sopen                    005450f0 f   LIBCMTD:open.obj
 0002:000ca180       __sopen_s                  00545180 f   LIBCMTD:open.obj
 0002:000ca1b0       __mbsicmp_l                005451b0 f   LIBCMTD:mbsicmp.obj
 0002:000ca690       __mbsicmp                  00545690 f   LIBCMTD:mbsicmp.obj
 0002:000ca6b0       __mbsnbcmp_l               005456b0 f   LIBCMTD:mbsnbcmp.obj
 0002:000caa40       __mbsnbcmp                 00545a40 f   LIBCMTD:mbsnbcmp.obj
 0002:000caa70       __alloc_osfhnd             00545a70 f   LIBCMTD:osfinfo.obj
 0002:000cadd0       __set_osfhnd               00545dd0 f   LIBCMTD:osfinfo.obj
 0002:000caed0       __free_osfhnd              00545ed0 f   LIBCMTD:osfinfo.obj
 0002:000caff0       __get_osfhandle            00545ff0 f   LIBCMTD:osfinfo.obj
 0002:000cb1b0       __open_osfhandle           005461b0 f   LIBCMTD:osfinfo.obj
 0002:000cb460       ___lock_fhandle            00546460 f   LIBCMTD:osfinfo.obj
 0002:000cb5a0       __unlock_fhandle           005465a0 f   LIBCMTD:osfinfo.obj
 0002:000cb5d0       __putwch                   005465d0 f   LIBCMTD:putwch.obj
 0002:000cb680       __putwch_nolock            00546680 f   LIBCMTD:putwch.obj
 0002:000cb7c0       __cputws                   005467c0 f   LIBCMTD:putwch.obj
 0002:000cb950       __mbtowc_l                 00546950 f   LIBCMTD:mbtowc.obj
 0002:000cbbf0       _mbtowc                    00546bf0 f   LIBCMTD:mbtowc.obj
 0002:000cbc20       ?_JumpToContinuation@@YGXPAXPAUEHRegistrationNode@@@Z 00546c20 f   LIBCMTD:trnsctrl.obj
 0002:000cbc60       ?_CallMemberFunction0@@YGXPAX0@Z 00546c60 f   LIBCMTD:trnsctrl.obj
 0002:000cbc70       ?_CallMemberFunction1@@YGXPAX00@Z 00546c70 f   LIBCMTD:trnsctrl.obj
 0002:000cbc80       ?_CallMemberFunction2@@YGXPAX00H@Z 00546c80 f   LIBCMTD:trnsctrl.obj
 0002:000cbc90       ?_UnwindNestedFrames@@YGXPAUEHRegistrationNode@@PAUEHExceptionRecord@@@Z 00546c90 f   LIBCMTD:trnsctrl.obj
 0002:000cbd00       ___CxxFrameHandler         00546d00 f   LIBCMTD:trnsctrl.obj
 0002:000cbd50       ___CxxFrameHandler3        00546d50 f   LIBCMTD:trnsctrl.obj
 0002:000cbda0       ___CxxFrameHandler2        00546da0 f   LIBCMTD:trnsctrl.obj
 0002:000cbdf0       ___CxxLongjmpUnwind@4      00546df0 f   LIBCMTD:trnsctrl.obj
 0002:000cbe20       ?_CallCatchBlock2@@YAPAXPAUEHRegistrationNode@@PBU_s_FuncInfo@@PAXHK@Z 00546e20 f   LIBCMTD:trnsctrl.obj
 0002:000cbf10       ?_CallSETranslator@@YAHPAUEHExceptionRecord@@PAUEHRegistrationNode@@PAX2PBU_s_FuncInfo@@H1@Z 00546f10 f   LIBCMTD:trnsctrl.obj
 0002:000cc120       ?_GetRangeOfTrysToCheck@@YAPBU_s_TryBlockMapEntry@@PBU_s_FuncInfo@@HHPAI1@Z 00547120 f   LIBCMTD:trnsctrl.obj
 0002:000cc1d0       __CreateFrameInfo          005471d0 f   LIBCMTD:trnsctrl.obj
 0002:000cc210       __IsExceptionObjectToBeDestroyed 00547210 f   LIBCMTD:trnsctrl.obj
 0002:000cc250       __FindAndUnlinkFrame       00547250 f   LIBCMTD:trnsctrl.obj
 0002:000cc2c0       __controlfp_s              005472c0 f   LIBCMTD:contrlfp.obj
 0002:000cc3e0       __atodbl_l                 005473e0 f   LIBCMTD:atodbl.obj
 0002:000cc520       __atodbl                   00547520 f   LIBCMTD:atodbl.obj
 0002:000cc540       __atoldbl_l                00547540 f   LIBCMTD:atodbl.obj
 0002:000cc680       __atoldbl                  00547680 f   LIBCMTD:atodbl.obj
 0002:000cc6a0       __atoflt_l                 005476a0 f   LIBCMTD:atodbl.obj
 0002:000cc7e0       __atoflt                   005477e0 f   LIBCMTD:atodbl.obj
 0002:000cc800       __fptostr                  00547800 f   LIBCMTD:_fptostr.obj
 0002:000ccb50       __fltout2                  00547b50 f   LIBCMTD:cfout.obj
 0002:000ccc30       ___dtold                   00547c30 f   LIBCMTD:cfout.obj
 0002:000ccde0       __set_output_format        00547de0 f   LIBCMTD:outputformat.obj
 0002:000cce80       __get_output_format        00547e80 f   LIBCMTD:outputformat.obj
 0002:000cce90       __allrem                   00547e90 f   LIBCMTD:llrem.obj
 0002:000ccf70       _strrchr                   00547f70 f   LIBCMTD:strrchr.obj
 0002:000ccfb0       __fptrap                   00547fb0 f   LIBCMTD:crt0fp.obj
 0002:000ccfd0       __read                     00547fd0 f   LIBCMTD:read.obj
 0002:000cd310       __read_nolock              00548310 f   LIBCMTD:read.obj
 0002:000ce620       __ismbbkalnum_l            00549620 f   LIBCMTD:ismbbyte.obj
 0002:000ce640       __ismbbkalnum              00549640 f   LIBCMTD:ismbbyte.obj
 0002:000ce660       __ismbbkprint_l            00549660 f   LIBCMTD:ismbbyte.obj
 0002:000ce680       __ismbbkprint              00549680 f   LIBCMTD:ismbbyte.obj
 0002:000ce6a0       __ismbbkpunct_l            005496a0 f   LIBCMTD:ismbbyte.obj
 0002:000ce6c0       __ismbbkpunct              005496c0 f   LIBCMTD:ismbbyte.obj
 0002:000ce6e0       __ismbbalnum_l             005496e0 f   LIBCMTD:ismbbyte.obj
 0002:000ce710       __ismbbalnum               00549710 f   LIBCMTD:ismbbyte.obj
 0002:000ce730       __ismbbalpha_l             00549730 f   LIBCMTD:ismbbyte.obj
 0002:000ce760       __ismbbalpha               00549760 f   LIBCMTD:ismbbyte.obj
 0002:000ce780       __ismbbgraph_l             00549780 f   LIBCMTD:ismbbyte.obj
 0002:000ce7b0       __ismbbgraph               005497b0 f   LIBCMTD:ismbbyte.obj
 0002:000ce7d0       __ismbbprint_l             005497d0 f   LIBCMTD:ismbbyte.obj
 0002:000ce800       __ismbbprint               00549800 f   LIBCMTD:ismbbyte.obj
 0002:000ce820       __ismbbpunct_l             00549820 f   LIBCMTD:ismbbyte.obj
 0002:000ce840       __ismbbpunct               00549840 f   LIBCMTD:ismbbyte.obj
 0002:000ce860       __ismbblead_l              00549860 f   LIBCMTD:ismbbyte.obj
 0002:000ce880       __ismbblead                00549880 f   LIBCMTD:ismbbyte.obj
 0002:000ce8a0       __ismbbtrail_l             005498a0 f   LIBCMTD:ismbbyte.obj
 0002:000ce8c0       __ismbbtrail               005498c0 f   LIBCMTD:ismbbyte.obj
 0002:000ce8e0       __ismbbkana_l              005498e0 f   LIBCMTD:ismbbyte.obj
 0002:000ce970       __ismbbkana                00549970 f   LIBCMTD:ismbbyte.obj
 0002:000cea80       _strncpy_s                 00549a80 f   LIBCMTD:strncpy_s.obj
 0002:000cef70       ___crtGetStringTypeA       00549f70 f   LIBCMTD:a_str.obj
 0002:000cf2a0       ___pwctype_func            0054a2a0 f   LIBCMTD:ctype.obj
 0002:000cf2b0       ___pctype_func             0054a2b0 f   LIBCMTD:ctype.obj
 0002:000cf310       ___init_time               0054a310 f   LIBCMTD:inittime.obj
 0002:000cfbf0       ___free_lc_time            0054abf0 f   LIBCMTD:inittime.obj
 0002:000cffc0       ___init_numeric            0054afc0 f   LIBCMTD:initnum.obj
 0002:000d03f0       ___free_lconv_num          0054b3f0 f   LIBCMTD:initnum.obj
 0002:000d0480       ___init_monetary           0054b480 f   LIBCMTD:initmon.obj
 0002:000d0ac0       ___free_lconv_mon          0054bac0 f   LIBCMTD:initmon.obj
 0002:000d0bf0       ___init_ctype              0054bbf0 f   LIBCMTD:initctyp.obj
 0002:000d1300       ____mb_cur_max_func        0054c300 f   LIBCMTD:initctyp.obj
 0002:000d1360       ____mb_cur_max_l_func      0054c360 f   LIBCMTD:initctyp.obj
 0002:000d13a0       ____lc_codepage_func       0054c3a0 f   LIBCMTD:initctyp.obj
 0002:000d1400       ____lc_collate_cp_func     0054c400 f   LIBCMTD:initctyp.obj
 0002:000d1460       ____lc_handle_func         0054c460 f   LIBCMTD:initctyp.obj
 0002:000d14c0       ___init_collate            0054c4c0 f   LIBCMTD:initcoll.obj
 0002:000d14d0       __Getdays_l                0054c4d0 f   LIBCMTD:strftime.obj
 0002:000d1700       __Getdays                  0054c700 f   LIBCMTD:strftime.obj
 0002:000d1720       __Getmonths_l              0054c720 f   LIBCMTD:strftime.obj
 0002:000d1950       __Getmonths                0054c950 f   LIBCMTD:strftime.obj
 0002:000d1970       __Gettnames_l              0054c970 f   LIBCMTD:strftime.obj
 0002:000d2030       __Gettnames                0054d030 f   LIBCMTD:strftime.obj
 0002:000d2050       __strftime_l               0054d050 f   LIBCMTD:strftime.obj
 0002:000d2080       _strftime                  0054d080 f   LIBCMTD:strftime.obj
 0002:000d20b0       __Strftime                 0054d0b0 f   LIBCMTD:strftime.obj
 0002:000d20e0       __Strftime_l               0054d0e0 f   LIBCMTD:strftime.obj
 0002:000d4620       _localeconv                0054f620 f   LIBCMTD:lconv.obj
 0002:000d4680       _strcspn                   0054f680 f   LIBCMTD:strcspn.obj
 0002:000d46e0       _strpbrk                   0054f6e0 f   LIBCMTD:strpbrk.obj
 0002:000d4730       ___get_qualified_locale    0054f730 f   LIBCMTD:getqloc.obj
 0002:000d5920       ___ansicp                  00550920 f   LIBCMTD:convrtcp.obj
 0002:000d5990       ___convertcp               00550990 f   LIBCMTD:convrtcp.obj
 0002:000d5c60       __iswctype_l               00550c60 f   LIBCMTD:iswctype.obj
 0002:000d5d30       _iswctype                  00550d30 f   LIBCMTD:iswctype.obj
 0002:000d5de0       _is_wctype                 00550de0 f   LIBCMTD:iswctype.obj
 0002:000d5e00       __87except                 00550e00 f   LIBCMTD:87except.obj
 0002:000d6020       ___crtGetLocaleInfoW       00551020 f   LIBCMTD:w_loc.obj
 0002:000d6260       ___crtGetLocaleInfoA       00551260 f   LIBCMTD:a_loc.obj
 0002:000d64b0       _fputwc                    005514b0 f   LIBCMTD:fputwc.obj
 0002:000d65e0       __fputwc_nolock            005515e0 f   LIBCMTD:fputwc.obj
 0002:000d6ab0       _putwc                     00551ab0 f   LIBCMTD:fputwc.obj
 0002:000d6ad0       __mbsnbcat_s_l             00551ad0 f   LIBCMTD:mbsnbcat_s_l.obj
 0002:000d74b0       __mbsnbcpy_s_l             005524b0 f   LIBCMTD:mbsnbcpy_s_l.obj
 0002:000d7cc0       _vfprintf_helper           00552cc0 f   LIBCMTD:vfprintf.obj
 0002:000d8060       __vfprintf_l               00553060 f   LIBCMTD:vfprintf.obj
 0002:000d8090       __vfprintf_s_l             00553090 f   LIBCMTD:vfprintf.obj
 0002:000d80c0       __vfprintf_p_l             005530c0 f   LIBCMTD:vfprintf.obj
 0002:000d80f0       _vfprintf                  005530f0 f   LIBCMTD:vfprintf.obj
 0002:000d8120       _vfprintf_s                00553120 f   LIBCMTD:vfprintf.obj
 0002:000d8150       __vfprintf_p               00553150 f   LIBCMTD:vfprintf.obj
 0002:000d8180       _wcstol                    00553180 f   LIBCMTD:wcstol.obj
 0002:000d8720       __wcstol_l                 00553720 f   LIBCMTD:wcstol.obj
 0002:000d8750       _wcstoul                   00553750 f   LIBCMTD:wcstol.obj
 0002:000d87b0       __wcstoul_l                005537b0 f   LIBCMTD:wcstol.obj
 0002:000d87e0       _DebuggerKnownHandle       005537e0 f   LIBCMTD:error.obj
 0002:000d88b0       ?_RTC_Failure@@YAXPAXH@Z   005538b0 f   LIBCMTD:error.obj
 0002:000d8cb0       ?_RTC_StackFailure@@YAXPAXPBD@Z 00553cb0 f   LIBCMTD:error.obj
 0002:000d8e20       ?_RTC_AllocaFailure@@YAXPAXPAU_RTC_ALLOCA_NODE@@H@Z 00553e20 f   LIBCMTD:error.obj
 0002:000d9030       __RTC_UninitUse            00554030 f   LIBCMTD:error.obj
 0002:000d9180       __mbstowcs_l_helper        00554180 f   LIBCMTD:mbstowcs.obj
 0002:000d9620       __mbstowcs_l               00554620 f   LIBCMTD:mbstowcs.obj
 0002:000d9650       _mbstowcs                  00554650 f   LIBCMTD:mbstowcs.obj
 0002:000d96b0       __mbstowcs_s_l             005546b0 f   LIBCMTD:mbstowcs.obj
 0002:000d9a70       _mbstowcs_s                00554a70 f   LIBCMTD:mbstowcs.obj
 0002:000d9aa0       __vswprintf_l              00554aa0 f   LIBCMTD:vswprint.obj
 0002:000d9ce0       __vswprintf                00554ce0 f   LIBCMTD:vswprint.obj
 0002:000d9d10       ___vswprintf_l             00554d10 f   LIBCMTD:vswprint.obj
 0002:000d9d40       __vscwprintf_helper        00554d40 f   LIBCMTD:vswprint.obj
 0002:000d9e30       __vscwprintf               00554e30 f   LIBCMTD:vswprint.obj
 0002:000d9e60       __vscwprintf_l             00554e60 f   LIBCMTD:vswprint.obj
 0002:000d9e90       __vscwprintf_p             00554e90 f   LIBCMTD:vswprint.obj
 0002:000d9ec0       __vscwprintf_p_l           00554ec0 f   LIBCMTD:vswprint.obj
 0002:000d9ef0       __chsize_s                 00554ef0 f   LIBCMTD:chsize.obj
 0002:000da230       __chsize_nolock            00555230 f   LIBCMTD:chsize.obj
 0002:000da560       __chsize                   00555560 f   LIBCMTD:chsize.obj
 0002:000da590       __lseek                    00555590 f   LIBCMTD:lseek.obj
 0002:000da840       __lseek_nolock             00555840 f   LIBCMTD:lseek.obj
 0002:000da950       __setmode                  00555950 f   LIBCMTD:setmode.obj
 0002:000dac80       __setmode_nolock           00555c80 f   LIBCMTD:setmode.obj
 0002:000daf80       __set_fmode                00555f80 f   LIBCMTD:setmode.obj
 0002:000db060       __get_fmode                00556060 f   LIBCMTD:setmode.obj
 0002:000db100       ___initconin               00556100 f   LIBCMTD:initcon.obj
 0002:000db130       ___initconout              00556130 f   LIBCMTD:initcon.obj
 0002:000db160       ___termcon                 00556160 f   LIBCMTD:initcon.obj
 0002:000db1c0       ___InternalCxxFrameHandler 005561c0 f   LIBCMTD:frame.obj
 0002:000db930       ??0bad_exception@std@@QAE@PBD@Z 00556930 f i LIBCMTD:frame.obj
 0002:000db960       ??1bad_exception@std@@UAE@XZ 00556960 f i LIBCMTD:frame.obj
 0002:000db990       ??_Ebad_exception@std@@UAEPAXI@Z 00556990 f i LIBCMTD:frame.obj
 0002:000db990       ??_Gbad_exception@std@@UAEPAXI@Z 00556990 f i LIBCMTD:frame.obj
 0002:000db9d0       ??0bad_exception@std@@QAE@ABV01@@Z 005569d0 f i LIBCMTD:frame.obj
 0002:000dbbe0       ___TypeMatch               00556be0 f   LIBCMTD:frame.obj
 0002:000dbcc0       ___FrameUnwindFilter       00556cc0 f   LIBCMTD:frame.obj
 0002:000dbd50       ___FrameUnwindToState      00556d50 f   LIBCMTD:frame.obj
 0002:000dc3e0       ___BuildCatchObjectHelper  005573e0 f   LIBCMTD:frame.obj
 0002:000dc6f0       ___BuildCatchObject        005576f0 f   LIBCMTD:frame.obj
 0002:000dc840       ___DestructExceptionObject 00557840 f   LIBCMTD:frame.obj
 0002:000dc920       ___AdjustPointer           00557920 f   LIBCMTD:frame.obj
 0002:000dc980       ?__uncaught_exception@@YA_NXZ 00557980 f   LIBCMTD:frame.obj
 0002:000dc9a0       ___CxxExceptionFilter      005579a0 f   LIBCMTD:frame.obj
 0002:000dcc00       ___CxxRegisterExceptionObject 00557c00 f   LIBCMTD:frame.obj
 0002:000dcd80       ___CxxDetectRethrow        00557d80 f   LIBCMTD:frame.obj
 0002:000dce20       ___CxxUnregisterExceptionObject 00557e20 f   LIBCMTD:frame.obj
 0002:000dd000       ___CxxQueryExceptionSize   00558000 f   LIBCMTD:frame.obj
 0002:000dd010       ___CxxCallUnwindDtor       00558010 f   LIBCMTD:frame.obj
 0002:000dd0a0       ___CxxCallUnwindDelDtor    005580a0 f   LIBCMTD:frame.obj
 0002:000dd140       ___CxxCallUnwindStdDelDtor 00558140 f   LIBCMTD:frame.obj
 0002:000dd1d0       ___CxxCallUnwindVecDtor    005581d0 f   LIBCMTD:frame.obj
 0002:000dd470       ?_is_exception_typeof@@YAHABVtype_info@@PAU_EXCEPTION_POINTERS@@@Z 00558470 f   LIBCMTD:frame.obj
 0002:000dd580       __CallSettingFrame@12      00558580 f   LIBCMTD:lowhelpr.obj
 0002:000dd5a7       __NLG_Return               005585a7     LIBCMTD:lowhelpr.obj
 0002:000dd5e0       __statusfp2                005585e0 f   LIBCMTD:ieee87.obj
 0002:000dd630       __statusfp                 00558630 f   LIBCMTD:ieee87.obj
 0002:000dd680       __clearfp                  00558680 f   LIBCMTD:ieee87.obj
 0002:000dd6d0       ___control87_2             005586d0 f   LIBCMTD:ieee87.obj
 0002:000dd7a0       __controlfp                005587a0 f   LIBCMTD:ieee87.obj
 0002:000dd7c0       __control87                005587c0 f i LIBCMTD:ieee87.obj
 0002:000dd8a0       __set_controlfp            005588a0 f   LIBCMTD:ieee87.obj
 0002:000dd950       __fpreset                  00558950 f   LIBCMTD:ieee87.obj
 0002:000de2d0       __ld12tod                  005592d0 f   LIBCMTD:intrncvt.obj
 0002:000de2f0       __ld12cvt                  005592f0 f i LIBCMTD:intrncvt.obj
 0002:000de5d0       __RoundMan                 005595d0 f i LIBCMTD:intrncvt.obj
 0002:000de6e0       __ZeroTail                 005596e0 f i LIBCMTD:intrncvt.obj
 0002:000de790       __IncMan                   00559790 f i LIBCMTD:intrncvt.obj
 0002:000de870       ___addl                    00559870 f i LIBCMTD:intrncvt.obj
 0002:000de8c0       __CopyMan                  005598c0 f i LIBCMTD:intrncvt.obj
 0002:000de920       __FillZeroMan              00559920 f i LIBCMTD:intrncvt.obj
 0002:000de960       __IsZeroMan                00559960 f i LIBCMTD:intrncvt.obj
 0002:000de9b0       __ShrMan                   005599b0 f i LIBCMTD:intrncvt.obj
 0002:000deae0       __ld12tof                  00559ae0 f   LIBCMTD:intrncvt.obj
 0002:000deb00       __ld12told                 00559b00 f   LIBCMTD:intrncvt.obj
 0002:000debe0       ___strgtold12_l            00559be0 f   LIBCMTD:strgtold.obj
 0002:000df930       ___multtenpow12            0055a930 f i LIBCMTD:strgtold.obj
 0002:000dfa40       ___ld12mul                 0055aa40 f i LIBCMTD:strgtold.obj
 0002:000dff30       ___shl_12                  0055af30 f i LIBCMTD:strgtold.obj
 0002:000dffb0       ___shr_12                  0055afb0 f i LIBCMTD:strgtold.obj
 0002:000e0030       ___STRINGTOLD_L            0055b030 f   LIBCMTD:strgtold.obj
 0002:000e00c0       _$I10_OUTPUT               0055b0c0 f   LIBCMTD:x10fout.obj
 0002:000e07c0       ___add_12                  0055b7c0 f i LIBCMTD:x10fout.obj
 0002:000e08a0       __get_daylight             0055b8a0 f   LIBCMTD:timeset.obj
 0002:000e0940       __get_dstbias              0055b940 f   LIBCMTD:timeset.obj
 0002:000e09e0       __get_timezone             0055b9e0 f   LIBCMTD:timeset.obj
 0002:000e0a80       __get_tzname               0055ba80 f   LIBCMTD:timeset.obj
 0002:000e0cd0       ___daylight                0055bcd0 f   LIBCMTD:timeset.obj
 0002:000e0ce0       ___dstbias                 0055bce0 f   LIBCMTD:timeset.obj
 0002:000e0cf0       ___timezone                0055bcf0 f   LIBCMTD:timeset.obj
 0002:000e0d00       ___tzname                  0055bd00 f   LIBCMTD:timeset.obj
 0002:000e0d10       ___tzset                   0055bd10 f   LIBCMTD:tzset.obj
 0002:000e0dd0       __tzset                    0055bdd0 f   LIBCMTD:tzset.obj
 0002:000e14e0       __set_daylight             0055c4e0 f i LIBCMTD:tzset.obj
 0002:000e1500       __set_dstbias              0055c500 f i LIBCMTD:tzset.obj
 0002:000e1520       __set_timezone             0055c520 f i LIBCMTD:tzset.obj
 0002:000e1540       __isindst                  0055c540 f   LIBCMTD:tzset.obj
 0002:000e1d30       ___crtGetStringTypeW       0055cd30 f   LIBCMTD:w_str.obj
 0002:000e20f0       __handle_qnan1             0055d0f0 f   LIBCMTD:fpexcept.obj
 0002:000e2170       __handle_qnan2             0055d170 f   LIBCMTD:fpexcept.obj
 0002:000e2200       __except1                  0055d200 f   LIBCMTD:fpexcept.obj
 0002:000e2340       __except2                  0055d340 f   LIBCMTD:fpexcept.obj
 0002:000e2490       __raise_exc_ex             0055d490 f   LIBCMTD:fpexcept.obj
 0002:000e2b10       __raise_exc                0055db10 f   LIBCMTD:fpexcept.obj
 0002:000e2b40       __raise_excf               0055db40 f   LIBCMTD:fpexcept.obj
 0002:000e2b70       __handle_exc               0055db70 f   LIBCMTD:fpexcept.obj
 0002:000e2f30       __umatherr                 0055df30 f   LIBCMTD:fpexcept.obj
 0002:000e3000       __set_errno_from_matherr   0055e000 f   LIBCMTD:fpexcept.obj
 0002:000e30a0       __errcode                  0055e0a0 f   LIBCMTD:fpexcept.obj
 0002:000e3120       __matherr                  0055e120 f   LIBCMTD:matherr.obj
 0002:000e3130       __statfp                   0055e130 f   LIBCMTD:fpctrl.obj
 0002:000e3150       __clrfp                    0055e150 f   LIBCMTD:fpctrl.obj
 0002:000e3170       __ctrlfp                   0055e170 f   LIBCMTD:fpctrl.obj
 0002:000e31b0       __set_statfp               0055e1b0 f   LIBCMTD:fpctrl.obj
 0002:000e3230       ___get_fpsr_sse2           0055e230 f   LIBCMTD:fpctrl.obj
 0002:000e3260       ___set_fpsr_sse2           0055e260 f   LIBCMTD:fpctrl.obj
 0002:000e3370       ___fclrf_sse2              0055e370 f   LIBCMTD:fpctrl.obj
 0002:000e33a0       ___statfp_sse2             0055e3a0 f   LIBCMTD:fpctrl.obj
 0002:000e33e0       ___clrfp_sse2              0055e3e0 f   LIBCMTD:fpctrl.obj
 0002:000e3420       ___ctrlfp_sse2             0055e420 f   LIBCMTD:fpctrl.obj
 0002:000e3490       ___set_statfp_sse2         0055e490 f   LIBCMTD:fpctrl.obj
 0002:000e34d0       __flswbuf                  0055e4d0 f   LIBCMTD:_flswbuf.obj
 0002:000e3860       _strncat_s                 0055e860 f   LIBCMTD:strncat_s.obj
 0002:000e3e20       __wchartodigit             0055ee20 f   LIBCMTD:wchtodig.obj
 0002:000e4210       ?_RTC_GetSrcLine@@YAHPAEPA_WKPAH1K@Z 0055f210 f   LIBCMTD:pdblkup.obj
 0002:000e47c0       __RTC_NumErrors            0055f7c0 f   LIBCMTD:userapi.obj
 0002:000e47d0       __RTC_GetErrDesc           0055f7d0 f   LIBCMTD:userapi.obj
 0002:000e47f0       __RTC_SetErrorType         0055f7f0 f   LIBCMTD:userapi.obj
 0002:000e4820       __RTC_SetErrorFunc         0055f820 f   LIBCMTD:userapi.obj
 0002:000e4850       __RTC_SetErrorFuncW        0055f850 f   LIBCMTD:userapi.obj
 0002:000e4880       ?_RTC_GetErrorFunc@@YAP6AHHPBDH00ZZPBX@Z 0055f880 f   LIBCMTD:userapi.obj
 0002:000e4890       ?_RTC_GetErrorFuncW@@YAP6AHHPB_WH00ZZPBX@Z 0055f890 f   LIBCMTD:userapi.obj
 0002:000e48a0       ?_ValidateRead@@YAHPBXI@Z  0055f8a0 f   LIBCMTD:validate.obj
 0002:000e48d0       ?_ValidateWrite@@YAHPAXI@Z 0055f8d0 f   LIBCMTD:validate.obj
 0002:000e4900       ?_ValidateExecute@@YAHP6GHXZ@Z 0055f900 f   LIBCMTD:validate.obj
 0002:000e4930       __CxxThrowException@8      0055f930 f   LIBCMTD:throw.obj
 0002:000e49a0       ?name@type_info@@QBEPBDPAU__type_info_node@@@Z 0055f9a0 f   LIBCMTD:typinfo.obj
 0002:000e49d0       ??1type_info@@UAE@XZ       0055f9d0 f   LIBCMTD:typinfo.obj
 0002:000e4a00       ??_Gtype_info@@UAEPAXI@Z   0055fa00 f i LIBCMTD:typinfo.obj
 0002:000e4a00       ??_Etype_info@@UAEPAXI@Z   0055fa00 f i LIBCMTD:typinfo.obj
 0002:000e4a40       ?_name_internal_method@type_info@@QBEPBDPAU__type_info_node@@@Z 0055fa40 f   LIBCMTD:typinfo.obj
 0002:000e4a70       ?_type_info_dtor_internal_method@type_info@@QAEXXZ 0055fa70 f   LIBCMTD:typinfo.obj
 0002:000e4a90       ??8type_info@@QBE_NABV0@@Z 0055fa90 f   LIBCMTD:typinfo.obj
 0002:000e4ad0       ??9type_info@@QBE_NABV0@@Z 0055fad0 f   LIBCMTD:typinfo.obj
 0002:000e4b10       ?before@type_info@@QBEHABV1@@Z 0055fb10 f   LIBCMTD:typinfo.obj
 0002:000e4b50       ?raw_name@type_info@@QBEPBDXZ 0055fb50 f   LIBCMTD:typinfo.obj
 0002:000e4b70       ??0type_info@@AAE@ABV0@@Z  0055fb70 f   LIBCMTD:typinfo.obj
 0002:000e4b90       ??4type_info@@AAEAAV0@ABV0@@Z 0055fb90 f   LIBCMTD:typinfo.obj
 0002:000e4bb0       ??0exception@std@@QAE@XZ   0055fbb0 f   LIBCMTD:stdexcpt.obj
 0002:000e4bf0       ??_Eexception@std@@UAEPAXI@Z 0055fbf0 f i LIBCMTD:stdexcpt.obj
 0002:000e4bf0       ??_Gexception@std@@UAEPAXI@Z 0055fbf0 f i LIBCMTD:stdexcpt.obj
 0002:000e4c30       ??0exception@std@@QAE@ABQBD@Z 0055fc30 f   LIBCMTD:stdexcpt.obj
 0002:000e4ce0       ??0exception@std@@QAE@ABQBDH@Z 0055fce0 f   LIBCMTD:stdexcpt.obj
 0002:000e4d20       ??0exception@std@@QAE@ABV01@@Z 0055fd20 f   LIBCMTD:stdexcpt.obj
 0002:000e4df0       ??4exception@std@@QAEAAV01@ABV01@@Z 0055fdf0 f   LIBCMTD:stdexcpt.obj
 0002:000e4ec0       ??1exception@std@@UAE@XZ   0055fec0 f   LIBCMTD:stdexcpt.obj
 0002:000e4f00       ?what@exception@std@@UBEPBDXZ 0055ff00 f   LIBCMTD:stdexcpt.obj
 0002:000e4f30       ??0bad_cast@std@@QAE@PBD@Z 0055ff30 f   LIBCMTD:stdexcpt.obj
 0002:000e4f60       ??_Ebad_cast@std@@UAEPAXI@Z 0055ff60 f i LIBCMTD:stdexcpt.obj
 0002:000e4f60       ??_Gbad_cast@std@@UAEPAXI@Z 0055ff60 f i LIBCMTD:stdexcpt.obj
 0002:000e4fa0       ??0bad_cast@std@@QAE@ABV01@@Z 0055ffa0 f   LIBCMTD:stdexcpt.obj
 0002:000e4fd0       ??1bad_cast@std@@UAE@XZ    0055ffd0 f   LIBCMTD:stdexcpt.obj
 0002:000e5000       ??0bad_typeid@std@@QAE@PBD@Z 00560000 f   LIBCMTD:stdexcpt.obj
 0002:000e5030       ??_Gbad_typeid@std@@UAEPAXI@Z 00560030 f i LIBCMTD:stdexcpt.obj
 0002:000e5030       ??_Ebad_typeid@std@@UAEPAXI@Z 00560030 f i LIBCMTD:stdexcpt.obj
 0002:000e5070       ??0bad_typeid@std@@QAE@ABV01@@Z 00560070 f   LIBCMTD:stdexcpt.obj
 0002:000e50a0       ??1bad_typeid@std@@UAE@XZ  005600a0 f   LIBCMTD:stdexcpt.obj
 0002:000e50d0       ??0__non_rtti_object@std@@QAE@PBD@Z 005600d0 f   LIBCMTD:stdexcpt.obj
 0002:000e5100       ??_E__non_rtti_object@std@@UAEPAXI@Z 00560100 f i LIBCMTD:stdexcpt.obj
 0002:000e5100       ??_G__non_rtti_object@std@@UAEPAXI@Z 00560100 f i LIBCMTD:stdexcpt.obj
 0002:000e5140       ??0__non_rtti_object@std@@QAE@ABV01@@Z 00560140 f   LIBCMTD:stdexcpt.obj
 0002:000e5170       ??1__non_rtti_object@std@@UAE@XZ 00560170 f   LIBCMTD:stdexcpt.obj
 0002:000e51a0       ??3@YAXPAX@Z               005601a0 f   LIBCMTD:dbgdel.obj
 0002:000e52c0       ___mtold12                 005602c0 f   LIBCMTD:mantold.obj
 0002:000e5460       _getenv                    00560460 f   LIBCMTD:getenv.obj
 0002:000e5610       __getenv_helper_nolock     00560610 f   LIBCMTD:getenv.obj
 0002:000e5770       _getenv_s                  00560770 f   LIBCMTD:getenv.obj
 0002:000e5a20       __dupenv_s                 00560a20 f   LIBCMTD:getenv.obj
 0002:000e5a50       __dupenv_s_dbg             00560a50 f   LIBCMTD:getenv.obj
 0002:000e5d30       __set_exp                  00560d30 f   LIBCMTD:util.obj
 0002:000e5d80       __get_exp                  00560d80 f   LIBCMTD:util.obj
 0002:000e5dc0       __add_exp                  00560dc0 f   LIBCMTD:util.obj
 0002:000e5e00       __set_bexp                 00560e00 f   LIBCMTD:util.obj
 0002:000e5e40       __sptype                   00560e40 f   LIBCMTD:util.obj
 0002:000e5ed0       __decomp                   00560ed0 f   LIBCMTD:util.obj
 0002:000e6040       ?_Type_info_dtor@type_info@@CAXPAV1@@Z 00561040 f   LIBCMTD:typname.obj
 0002:000e6190       ?_Name_base@type_info@@CAPBDPBV1@PAU__type_info_node@@@Z 00561190 f   LIBCMTD:typname.obj
 0002:000e63a0       ?_Type_info_dtor_internal@type_info@@CAXPAV1@@Z 005613a0 f   LIBCMTD:typname.obj
 0002:000e64f0       ___unDNameHelper           005614f0 f   LIBCMTD:typname.obj
 0002:000e6540       ?_Name_base_internal@type_info@@CAPBDPBV1@PAU__type_info_node@@@Z 00561540 f   LIBCMTD:typname.obj
 0002:000e6740       ___clean_type_info_names_internal 00561740 f   LIBCMTD:typname.obj
 0002:000e6820       _strnlen                   00561820 f   LIBCMTD:strlen_s.obj
 0002:000e6870       __mbsnbicoll_l             00561870 f   LIBCMTD:mbsnbico.obj
 0002:000e6b40       __mbsnbicoll               00561b40 f   LIBCMTD:mbsnbico.obj
 0002:000e6b70       ___wtomb_environ           00561b70 f   LIBCMTD:wtombenv.obj
 0002:000e6c90       ___unDName                 00561c90 f   LIBCMTD:undname.obj
 0002:000e6da0       ?Constructor@HeapManager@@QAEXP6APAXI@ZP6AXPAX@Z@Z 00561da0 f i LIBCMTD:undname.obj
 0002:000e6df0       ?Destructor@HeapManager@@QAEXXZ 00561df0 f i LIBCMTD:undname.obj
 0002:000e6e50       ___unDNameEx               00561e50 f   LIBCMTD:undname.obj
 0002:000e6f60       ??0UnDecorator@@QAE@PADPBDHP6APADJ@ZK@Z 00561f60 f i LIBCMTD:undname.obj
 0002:000e7020       ??BUnDecorator@@QAEPADXZ   00562020 f i LIBCMTD:undname.obj
 0002:000e72e0       ?dbGetString@DName@@QBEPADXZ 005622e0 f   LIBCMTD:undname.obj
 0002:000e7310       ?getDecoratedName@UnDecorator@@CA?AVDName@@XZ 00562310 f   LIBCMTD:undname.obj
 0002:000e76e0       ?getSymbolName@UnDecorator@@CA?AVDName@@XZ 005626e0 f i LIBCMTD:undname.obj
 0002:000e7770       ?getZName@UnDecorator@@CA?AVDName@@_N@Z 00562770 f   LIBCMTD:undname.obj
 0002:000e7a70       ?getOperatorName@UnDecorator@@CA?AVDName@@_NPA_N@Z 00562a70 f i LIBCMTD:undname.obj
 0002:000e85d0       ?getStringEncoding@UnDecorator@@CA?AVDName@@PADH@Z 005635d0 f   LIBCMTD:undname.obj
 0002:000e8710       ?getScope@UnDecorator@@CA?AVDName@@XZ 00563710 f   LIBCMTD:undname.obj
 0002:000e8be0       ?getSignedDimension@UnDecorator@@CA?AVDName@@XZ 00563be0 f   LIBCMTD:undname.obj
 0002:000e8c80       ?getDimension@UnDecorator@@CA?AVDName@@_N@Z 00563c80 f   LIBCMTD:undname.obj
 0002:000e8fe0       ?getNumberOfDimensions@UnDecorator@@CAHXZ 00563fe0 f   LIBCMTD:undname.obj
 0002:000e9120       ?getTemplateName@UnDecorator@@CA?AVDName@@_N@Z 00564120 f   LIBCMTD:undname.obj
 0002:000e9380       ?getTemplateArgumentList@UnDecorator@@CA?AVDName@@XZ 00564380 f   LIBCMTD:undname.obj
 0002:000e96a0       ?getTemplateConstant@UnDecorator@@CA?AVDName@@XZ 005646a0 f   LIBCMTD:undname.obj
 0002:000e9c50       ?composeDeclaration@UnDecorator@@CA?AVDName@@ABV2@@Z 00564c50 f i LIBCMTD:undname.obj
 0002:000eb7c0       ?getTypeEncoding@UnDecorator@@CAHXZ 005667c0 f i LIBCMTD:undname.obj
 0002:000ec3b0       ?getBasedType@UnDecorator@@CA?AVDName@@XZ 005673b0 f   LIBCMTD:undname.obj
 0002:000ec4a0       ?getScopedName@UnDecorator@@CA?AVDName@@XZ 005674a0 f   LIBCMTD:undname.obj
 0002:000ec600       ?getCallingConvention@UnDecorator@@CA?AVDName@@XZ 00567600 f   LIBCMTD:undname.obj
 0002:000ec7b0       ?getReturnType@UnDecorator@@CA?AVDName@@PAV2@@Z 005677b0 f   LIBCMTD:undname.obj
 0002:000ec810       ?getDataType@UnDecorator@@CA?AVDName@@PAV2@@Z 00567810 f   LIBCMTD:undname.obj
 0002:000ec960       ?getPrimaryDataType@UnDecorator@@CA?AVDName@@ABV2@@Z 00567960 f   LIBCMTD:undname.obj
 0002:000eccb0       ?getArgumentTypes@UnDecorator@@CA?AVDName@@XZ 00567cb0 f   LIBCMTD:undname.obj
 0002:000ece60       ?getArgumentList@UnDecorator@@CA?AVDName@@XZ 00567e60 f   LIBCMTD:undname.obj
 0002:000ecfe0       ?getThrowTypes@UnDecorator@@CA?AVDName@@XZ 00567fe0 f   LIBCMTD:undname.obj
 0002:000ed0b0       ?getBasicDataType@UnDecorator@@CA?AVDName@@ABV2@@Z 005680b0 f   LIBCMTD:undname.obj
 0002:000ed770       ?getECSUDataType@UnDecorator@@CA?AVDName@@XZ 00568770 f   LIBCMTD:undname.obj
 0002:000ed9b0       ?getECSUName@UnDecorator@@CA?AVDName@@XZ 005689b0 f i LIBCMTD:undname.obj
 0002:000ed9d0       ?getEnumType@UnDecorator@@CA?AVDName@@XZ 005689d0 f i LIBCMTD:undname.obj
 0002:000edb70       ?getFunctionIndirectType@UnDecorator@@CA?AVDName@@ABV2@@Z 00568b70 f   LIBCMTD:undname.obj
 0002:000ee0c0       ?getPtrRefType@UnDecorator@@CA?AVDName@@ABV2@0D@Z 005690c0 f   LIBCMTD:undname.obj
 0002:000ee270       ?getExtendedDataIndirectType@UnDecorator@@CA?AVDName@@AADAA_NH@Z 00569270 f   LIBCMTD:undname.obj
 0002:000ee470       ?getDataIndirectType@UnDecorator@@CA?AVDName@@ABV2@D0H@Z 00569470 f   LIBCMTD:undname.obj
 0002:000eed20       ?getPtrRefDataType@UnDecorator@@CA?AVDName@@ABV2@H@Z 00569d20 f i LIBCMTD:undname.obj
 0002:000eeeb0       ?getArrayType@UnDecorator@@CA?AVDName@@ABV2@@Z 00569eb0 f i LIBCMTD:undname.obj
 0002:000ef150       ?getLexicalFrame@UnDecorator@@CA?AVDName@@XZ 0056a150 f i LIBCMTD:undname.obj
 0002:000ef1a0       ?getThisType@UnDecorator@@CA?AVDName@@XZ 0056a1a0 f i LIBCMTD:undname.obj
 0002:000ef1e0       ?getPointerType@UnDecorator@@CA?AVDName@@ABV2@0@Z 0056a1e0 f i LIBCMTD:undname.obj
 0002:000ef210       ?getPointerTypeArray@UnDecorator@@CA?AVDName@@ABV2@0@Z 0056a210 f i LIBCMTD:undname.obj
 0002:000ef240       ?getReferenceType@UnDecorator@@CA?AVDName@@ABV2@0@Z 0056a240 f i LIBCMTD:undname.obj
 0002:000ef270       ?getDisplacement@UnDecorator@@CA?AVDName@@XZ 0056a270 f i LIBCMTD:undname.obj
 0002:000ef290       ?getCallIndex@UnDecorator@@CA?AVDName@@XZ 0056a290 f i LIBCMTD:undname.obj
 0002:000ef2b0       ?getGuardNumber@UnDecorator@@CA?AVDName@@XZ 0056a2b0 f i LIBCMTD:undname.obj
 0002:000ef2d0       ?getVbTableType@UnDecorator@@CA?AVDName@@ABV2@@Z 0056a2d0 f i LIBCMTD:undname.obj
 0002:000ef2f0       ?getVCallThunkType@UnDecorator@@CA?AVDName@@XZ 0056a2f0 f i LIBCMTD:undname.obj
 0002:000ef370       ?getVfTableType@UnDecorator@@CA?AVDName@@ABV2@@Z 0056a370 f i LIBCMTD:undname.obj
 0002:000ef5a0       ?getStorageConvention@UnDecorator@@CA?AVDName@@XZ 0056a5a0 f i LIBCMTD:undname.obj
 0002:000ef5c0       ?getDataIndirectType@UnDecorator@@CA?AVDName@@XZ 0056a5c0 f i LIBCMTD:undname.obj
 0002:000ef600       ?getVdispMapType@UnDecorator@@CA?AVDName@@ABV2@@Z 0056a600 f i LIBCMTD:undname.obj
 0002:000ef690       ?getExternalDataType@UnDecorator@@CA?AVDName@@ABV2@@Z 0056a690 f i LIBCMTD:undname.obj
 0002:000ef750       ?doMSKeywords@UnDecorator@@SAHXZ 0056a750 f i LIBCMTD:undname.obj
 0002:000ef770       ?doPtr64@UnDecorator@@SAHXZ 0056a770 f i LIBCMTD:undname.obj
 0002:000ef790       ?doFunctionReturns@UnDecorator@@SAHXZ 0056a790 f i LIBCMTD:undname.obj
 0002:000ef7b0       ?doAllocationModel@UnDecorator@@SAHXZ 0056a7b0 f i LIBCMTD:undname.obj
 0002:000ef7d0       ?doAllocationLanguage@UnDecorator@@SAHXZ 0056a7d0 f i LIBCMTD:undname.obj
 0002:000ef7f0       ?doThisTypes@UnDecorator@@SAHXZ 0056a7f0 f i LIBCMTD:undname.obj
 0002:000ef810       ?doAccessSpecifiers@UnDecorator@@SAHXZ 0056a810 f i LIBCMTD:undname.obj
 0002:000ef830       ?doThrowTypes@UnDecorator@@SAHXZ 0056a830 f i LIBCMTD:undname.obj
 0002:000ef850       ?doMemberTypes@UnDecorator@@SAHXZ 0056a850 f i LIBCMTD:undname.obj
 0002:000ef870       ?doNameOnly@UnDecorator@@SAHXZ 0056a870 f i LIBCMTD:undname.obj
 0002:000ef890       ?doTypeOnly@UnDecorator@@SAHXZ 0056a890 f i LIBCMTD:undname.obj
 0002:000ef8b0       ?haveTemplateParameters@UnDecorator@@SAHXZ 0056a8b0 f i LIBCMTD:undname.obj
 0002:000ef8d0       ?doEcsu@UnDecorator@@SAHXZ 0056a8d0 f i LIBCMTD:undname.obj
 0002:000ef8f0       ?doEllipsis@UnDecorator@@SAHXZ 0056a8f0 f i LIBCMTD:undname.obj
 0002:000ef910       ?UScore@UnDecorator@@SAPBDW4Tokens@@@Z 0056a910 f   LIBCMTD:undname.obj
 0002:000ef950       ?doUnderScore@UnDecorator@@SAHXZ 0056a950 f i LIBCMTD:undname.obj
 0002:000ef970       ??2@YAPAXIAAVHeapManager@@H@Z 0056a970 f i LIBCMTD:undname.obj
 0002:000ef990       ?getMemory@HeapManager@@QAEPAXIH@Z 0056a990 f   LIBCMTD:undname.obj
 0002:000efae0       ??0Block@HeapManager@@QAE@XZ 0056aae0 f i LIBCMTD:undname.obj
 0002:000efb00       ??H@YA?AVDName@@DABV0@@Z   0056ab00 f i LIBCMTD:undname.obj
 0002:000efb40       ??H@YA?AVDName@@W4DNameStatus@@ABV0@@Z 0056ab40 f i LIBCMTD:undname.obj
 0002:000efb80       ??H@YA?AVDName@@PBDABV0@@Z 0056ab80 f i LIBCMTD:undname.obj
 0002:000efbc0       ??0DName@@QAE@XZ           0056abc0 f i LIBCMTD:undname.obj
 0002:000efca0       ??0DName@@QAE@D@Z          0056aca0 f   LIBCMTD:undname.obj
 0002:000efda0       ??0DName@@QAE@ABV0@@Z      0056ada0 f i LIBCMTD:undname.obj
 0002:000eff60       ??0DName@@QAE@PAV0@@Z      0056af60 f   LIBCMTD:undname.obj
 0002:000f00c0       ??0DName@@QAE@PBD@Z        0056b0c0 f   LIBCMTD:undname.obj
 0002:000f01d0       ??0DName@@QAE@AAPBDD@Z     0056b1d0 f   LIBCMTD:undname.obj
 0002:000f0530       ?doNoIdentCharCheck@UnDecorator@@SAHXZ 0056b530 f i LIBCMTD:undname.obj
 0002:000f0550       ??0DName@@QAE@_K@Z         0056b550 f   LIBCMTD:undname.obj
 0002:000f06d0       ??0DName@@QAE@_J@Z         0056b6d0 f   LIBCMTD:undname.obj
 0002:000f08a0       ??0DName@@QAE@W4DNameStatus@@@Z 0056b8a0 f   LIBCMTD:undname.obj
 0002:000f0a00       ?isValid@DName@@QBEHXZ     0056ba00 f   LIBCMTD:undname.obj
 0002:000f0a50       ?isEmpty@DName@@QBEHXZ     0056ba50 f   LIBCMTD:undname.obj
 0002:000f0aa0       ?status@DName@@QBE?AW4DNameStatus@@XZ 0056baa0 f i LIBCMTD:undname.obj
 0002:000f0ac0       ?clearStatus@DName@@QAEXXZ 0056bac0 f i LIBCMTD:undname.obj
 0002:000f0ae0       ?setPtrRef@DName@@QAEAAV1@XZ 0056bae0 f i LIBCMTD:undname.obj
 0002:000f0b10       ?isPtrRef@DName@@QBEHXZ    0056bb10 f i LIBCMTD:undname.obj
 0002:000f0b30       ?isUDC@DName@@QBEHXZ       0056bb30 f i LIBCMTD:undname.obj
 0002:000f0b80       ?setIsUDC@DName@@QAEXXZ    0056bb80 f i LIBCMTD:undname.obj
 0002:000f0bb0       ?isUDTThunk@DName@@QBEHXZ  0056bbb0 f i LIBCMTD:undname.obj
 0002:000f0c00       ?setIsArray@DName@@QAEXXZ  0056bc00 f i LIBCMTD:undname.obj
 0002:000f0c30       ?isArray@DName@@QBEHXZ     0056bc30 f i LIBCMTD:undname.obj
 0002:000f0c50       ?isNoTE@DName@@QBEHXZ      0056bc50 f i LIBCMTD:undname.obj
 0002:000f0c70       ?setIsNoTE@DName@@QAEXXZ   0056bc70 f i LIBCMTD:undname.obj
 0002:000f0ca0       ?isPinPtr@DName@@QBEHXZ    0056bca0 f i LIBCMTD:undname.obj
 0002:000f0cc0       ?setIsPinPtr@DName@@QAEXXZ 0056bcc0 f i LIBCMTD:undname.obj
 0002:000f0cf0       ?isComArray@DName@@QBEHXZ  0056bcf0 f i LIBCMTD:undname.obj
 0002:000f0d10       ?setIsComArray@DName@@QAEXXZ 0056bd10 f i LIBCMTD:undname.obj
 0002:000f0d40       ?isVCallThunk@DName@@QBEHXZ 0056bd40 f i LIBCMTD:undname.obj
 0002:000f0d60       ?setIsVCallThunk@DName@@QAEXXZ 0056bd60 f i LIBCMTD:undname.obj
 0002:000f0d90       ?length@DName@@QBEHXZ      0056bd90 f   LIBCMTD:undname.obj
 0002:000f0e00       ?getLastChar@DName@@QBEDXZ 0056be00 f   LIBCMTD:undname.obj
 0002:000f0e90       ?getString@DName@@QBEPADPADH@Z 0056be90 f   LIBCMTD:undname.obj
 0002:000f0fd0       ??HDName@@QBE?AV0@D@Z      0056bfd0 f   LIBCMTD:undname.obj
 0002:000f1040       ??HDName@@QBE?AV0@PBD@Z    0056c040 f   LIBCMTD:undname.obj
 0002:000f10b0       ??HDName@@QBE?AV0@ABV0@@Z  0056c0b0 f   LIBCMTD:undname.obj
 0002:000f1140       ??HDName@@QBE?AV0@PAV0@@Z  0056c140 f   LIBCMTD:undname.obj
 0002:000f11b0       ??HDName@@QBE?AV0@W4DNameStatus@@@Z 0056c1b0 f   LIBCMTD:undname.obj
 0002:000f1220       ??YDName@@QAEAAV0@D@Z      0056c220 f   LIBCMTD:undname.obj
 0002:000f12f0       ??YDName@@QAEAAV0@PBD@Z    0056c2f0 f   LIBCMTD:undname.obj
 0002:000f13d0       ??YDName@@QAEAAV0@ABV0@@Z  0056c3d0 f   LIBCMTD:undname.obj
 0002:000f1480       ??YDName@@QAEAAV0@PAV0@@Z  0056c480 f   LIBCMTD:undname.obj
 0002:000f15b0       ??YDName@@QAEAAV0@W4DNameStatus@@@Z 0056c5b0 f   LIBCMTD:undname.obj
 0002:000f16b0       ??_5DName@@QAEAAV0@ABV0@@Z 0056c6b0 f   LIBCMTD:undname.obj
 0002:000f1710       ??4DName@@QAEAAV0@D@Z      0056c710 f   LIBCMTD:undname.obj
 0002:000f17a0       ??4DName@@QAEAAV0@PBD@Z    0056c7a0 f   LIBCMTD:undname.obj
 0002:000f1840       ??4DName@@QAEAAV0@ABV0@@Z  0056c840 f   LIBCMTD:undname.obj
 0002:000f1990       ??4DName@@QAEAAV0@PAV0@@Z  0056c990 f   LIBCMTD:undname.obj
 0002:000f1ac0       ??4DName@@QAEAAV0@W4DNameStatus@@@Z 0056cac0 f   LIBCMTD:undname.obj
 0002:000f1c20       ?doPchar@DName@@AAEXPBDH@Z 0056cc20 f   LIBCMTD:undname.obj
 0002:000f1dc0       ?isFull@Replicator@@QBEHXZ 0056cdc0 f i LIBCMTD:undname.obj
 0002:000f1de0       ??0Replicator@@QAE@XZ      0056cde0 f i LIBCMTD:undname.obj
 0002:000f1e20       ??YReplicator@@QAEAAV0@ABVDName@@@Z 0056ce20 f   LIBCMTD:undname.obj
 0002:000f1ed0       ??AReplicator@@QBEABVDName@@H@Z 0056ced0 f   LIBCMTD:undname.obj
 0002:000f1f30       ??0DNameNode@@IAE@XZ       0056cf30 f   LIBCMTD:undname.obj
 0002:000f1f60       ?nextNode@DNameNode@@QBEPAV1@XZ 0056cf60 f i LIBCMTD:undname.obj
 0002:000f1f80       ?clone@DNameNode@@QAEPAV1@XZ 0056cf80 f   LIBCMTD:undname.obj
 0002:000f2020       ??0DName@@QAE@PAVDNameNode@@@Z 0056d020 f i LIBCMTD:undname.obj
 0002:000f2100       ??YDNameNode@@QAEAAV0@PAV0@@Z 0056d100 f   LIBCMTD:undname.obj
 0002:000f2170       ??0charNode@@QAE@D@Z       0056d170 f   LIBCMTD:undname.obj
 0002:000f21b0       ?length@charNode@@UBEHXZ   0056d1b0 f i LIBCMTD:undname.obj
 0002:000f21d0       ?getLastChar@charNode@@UBEDXZ 0056d1d0 f i LIBCMTD:undname.obj
 0002:000f21f0       ?getString@charNode@@UBEPADPADH@Z 0056d1f0 f   LIBCMTD:undname.obj
 0002:000f2230       ??0pcharNode@@QAE@PBDH@Z   0056d230 f   LIBCMTD:undname.obj
 0002:000f2310       ?length@pcharNode@@UBEHXZ  0056d310 f i LIBCMTD:undname.obj
 0002:000f2330       ?getLastChar@pcharNode@@UBEDXZ 0056d330 f i LIBCMTD:undname.obj
 0002:000f2370       ?getString@pcharNode@@UBEPADPADH@Z 0056d370 f   LIBCMTD:undname.obj
 0002:000f23f0       ??0pDNameNode@@QAE@PAVDName@@@Z 0056d3f0 f   LIBCMTD:undname.obj
 0002:000f2470       ?length@pDNameNode@@UBEHXZ 0056d470 f i LIBCMTD:undname.obj
 0002:000f24b0       ?getLastChar@pDNameNode@@UBEDXZ 0056d4b0 f i LIBCMTD:undname.obj
 0002:000f24f0       ?getString@pDNameNode@@UBEPADPADH@Z 0056d4f0 f   LIBCMTD:undname.obj
 0002:000f2550       ??0DNameStatusNode@@QAE@W4DNameStatus@@@Z 0056d550 f   LIBCMTD:undname.obj
 0002:000f25b0       ?length@DNameStatusNode@@UBEHXZ 0056d5b0 f i LIBCMTD:undname.obj
 0002:000f25d0       ?getLastChar@DNameStatusNode@@UBEDXZ 0056d5d0 f i LIBCMTD:undname.obj
 0002:000f2600       ?getString@DNameStatusNode@@UBEPADPADH@Z 0056d600 f   LIBCMTD:undname.obj
 0002:000f2790       ___crtCompareStringA       0056d790 f   LIBCMTD:a_cmp.obj
 0002:000f2eb0       __strnicoll_l              0056deb0 f   LIBCMTD:strnicol.obj
 0002:000f3190       __strnicoll                0056e190 f   LIBCMTD:strnicol.obj
 0002:000f31e0       ___crtsetenv               0056e1e0 f   LIBCMTD:setenv.obj
 0002:000f3a00       __purecall                 0056ea00 f   LIBCMTD:purevirt.obj
 0002:000f3a50       __set_purecall_handler     0056ea50 f   LIBCMTD:purevirt.obj
 0002:000f3aa0       __get_purecall_handler     0056eaa0 f   LIBCMTD:purevirt.obj
 0002:000f3ac0       __mbschr_l                 0056eac0 f   LIBCMTD:mbschr.obj
 0002:000f3cb0       __mbschr                   0056ecb0 f   LIBCMTD:mbschr.obj
 0002:000f3ccc       _SetThreadPriority@8       0056eccc f   kernel32:KERNEL32.dll
 0002:000f3cd2       _GetCurrentThread@0        0056ecd2 f   kernel32:KERNEL32.dll
 0002:000f3cd8       _SetPriorityClass@8        0056ecd8 f   kernel32:KERNEL32.dll
 0002:000f3cde       _GetCurrentProcess@0       0056ecde f   kernel32:KERNEL32.dll
 0002:000f3ce4       _SystemTimeToFileTime@8    0056ece4 f   kernel32:KERNEL32.dll
 0002:000f3cea       _GetLocalTime@4            0056ecea f   kernel32:KERNEL32.dll
 0002:000f3cf0       _FileTimeToSystemTime@8    0056ecf0 f   kernel32:KERNEL32.dll
 0002:000f3cf6       _GetCurrentProcessId@0     0056ecf6 f   kernel32:KERNEL32.dll
 0002:000f3cfc       _GetThreadPriority@4       0056ecfc f   kernel32:KERNEL32.dll
 0002:000f3d02       _GetLastError@0            0056ed02 f   kernel32:KERNEL32.dll
 0002:000f3d08       _GetCurrentThreadId@0      0056ed08 f   kernel32:KERNEL32.dll
 0002:000f3d0e       _CreateThread@24           0056ed0e f   kernel32:KERNEL32.dll
 0002:000f3d14       _ResumeThread@4            0056ed14 f   kernel32:KERNEL32.dll
 0002:000f3d1a       _WaitForSingleObject@8     0056ed1a f   kernel32:KERNEL32.dll
 0002:000f3d20       _CloseHandle@4             0056ed20 f   kernel32:KERNEL32.dll
 0002:000f3d26       _Sleep@4                   0056ed26 f   kernel32:KERNEL32.dll
 0002:000f3d2c       _InterlockedExchange@8     0056ed2c f   kernel32:KERNEL32.dll
 0002:000f3d32       _InterlockedIncrement@4    0056ed32 f   kernel32:KERNEL32.dll
 0002:000f3d38       _InterlockedDecrement@4    0056ed38 f   kernel32:KERNEL32.dll
 0002:000f3d3e       _InterlockedExchangeAdd@8  0056ed3e f   kernel32:KERNEL32.dll
 0002:000f3d44       _TlsAlloc@0                0056ed44 f   kernel32:KERNEL32.dll
 0002:000f3d4a       _TlsFree@4                 0056ed4a f   kernel32:KERNEL32.dll
 0002:000f3d50       _TlsSetValue@8             0056ed50 f   kernel32:KERNEL32.dll
 0002:000f3d56       _TlsGetValue@4             0056ed56 f   kernel32:KERNEL32.dll
 0002:000f3d5c       _InitializeCriticalSection@4 0056ed5c f   kernel32:KERNEL32.dll
 0002:000f3d62       _EnterCriticalSection@4    0056ed62 f   kernel32:KERNEL32.dll
 0002:000f3d68       _LeaveCriticalSection@4    0056ed68 f   kernel32:KERNEL32.dll
 0002:000f3d6e       _TryEnterCriticalSection@4 0056ed6e f   kernel32:KERNEL32.dll
 0002:000f3d74       _DeleteCriticalSection@4   0056ed74 f   kernel32:KERNEL32.dll
 0002:000f3d7a       _CreateSemaphoreA@16       0056ed7a f   kernel32:KERNEL32.dll
 0002:000f3d80       _ReleaseSemaphore@12       0056ed80 f   kernel32:KERNEL32.dll
 0002:000f3d86       _CreateEventA@16           0056ed86 f   kernel32:KERNEL32.dll
 0002:000f3d8c       _SetEvent@4                0056ed8c f   kernel32:KERNEL32.dll
 0002:000f3d92       _PulseEvent@4              0056ed92 f   kernel32:KERNEL32.dll
 0002:000f3d98       _ResetEvent@4              0056ed98 f   kernel32:KERNEL32.dll
 0002:000f3d9e       _SetConsoleTextAttribute@8 0056ed9e f   kernel32:KERNEL32.dll
 0002:000f3da4       _GetStdHandle@4            0056eda4 f   kernel32:KERNEL32.dll
 0002:000f3daa       _GetConsoleScreenBufferInfo@8 0056edaa f   kernel32:KERNEL32.dll
 0002:000f3db0       _QueryPerformanceCounter@4 0056edb0 f   kernel32:KERNEL32.dll
 0002:000f3db6       _QueryPerformanceFrequency@4 0056edb6 f   kernel32:KERNEL32.dll
 0002:000f3dbc       _SetLastError@4            0056edbc f   kernel32:KERNEL32.dll
 0002:000f3dc2       _FormatMessageA@28         0056edc2 f   kernel32:KERNEL32.dll
 0002:000f3dc8       _GetProcAddress@8          0056edc8 f   kernel32:KERNEL32.dll
 0002:000f3dce       _LoadLibraryA@4            0056edce f   kernel32:KERNEL32.dll
 0002:000f3dd4       _FreeLibrary@4             0056edd4 f   kernel32:KERNEL32.dll
 0002:000f3dda       _GetModuleFileNameW@12     0056edda f   kernel32:KERNEL32.dll
 0002:000f3de0       _WriteConsoleW@20          0056ede0 f   kernel32:KERNEL32.dll
 0002:000f3de6       _GetFileType@4             0056ede6 f   kernel32:KERNEL32.dll
 0002:000f3dec       _GetCommandLineA@0         0056edec f   kernel32:KERNEL32.dll
 0002:000f3df2       _HeapFree@12               0056edf2 f   kernel32:KERNEL32.dll
 0002:000f3df8       _GetVersionExA@4           0056edf8 f   kernel32:KERNEL32.dll
 0002:000f3dfe       _HeapAlloc@12              0056edfe f   kernel32:KERNEL32.dll
 0002:000f3e04       _GetProcessHeap@0          0056ee04 f   kernel32:KERNEL32.dll
 0002:000f3e0a       _HeapValidate@12           0056ee0a f   kernel32:KERNEL32.dll
 0002:000f3e10       _IsBadReadPtr@8            0056ee10 f   kernel32:KERNEL32.dll
 0002:000f3e16       _RtlUnwind@16              0056ee16 f   kernel32:KERNEL32.dll
 0002:000f3e1c       _GetModuleHandleA@4        0056ee1c f   kernel32:KERNEL32.dll
 0002:000f3e22       _ExitProcess@4             0056ee22 f   kernel32:KERNEL32.dll
 0002:000f3e28       _GetSystemTimeAsFileTime@4 0056ee28 f   kernel32:KERNEL32.dll
 0002:000f3e2e       _SetConsoleCtrlHandler@8   0056ee2e f   kernel32:KERNEL32.dll
 0002:000f3e34       _LoadLibraryW@4            0056ee34 f   kernel32:KERNEL32.dll
 0002:000f3e3a       _UnhandledExceptionFilter@4 0056ee3a f   kernel32:KERNEL32.dll
 0002:000f3e40       _SetUnhandledExceptionFilter@4 0056ee40 f   kernel32:KERNEL32.dll
 0002:000f3e46       _GetModuleFileNameA@12     0056ee46 f   kernel32:KERNEL32.dll
 0002:000f3e4c       _WideCharToMultiByte@32    0056ee4c f   kernel32:KERNEL32.dll
 0002:000f3e52       _TerminateProcess@8        0056ee52 f   kernel32:KERNEL32.dll
 0002:000f3e58       _IsDebuggerPresent@0       0056ee58 f   kernel32:KERNEL32.dll
 0002:000f3e5e       _FlushFileBuffers@4        0056ee5e f   kernel32:KERNEL32.dll
 0002:000f3e64       _WriteFile@20              0056ee64 f   kernel32:KERNEL32.dll
 0002:000f3e6a       _GetConsoleCP@0            0056ee6a f   kernel32:KERNEL32.dll
 0002:000f3e70       _GetConsoleMode@8          0056ee70 f   kernel32:KERNEL32.dll
 0002:000f3e76       _FatalAppExitA@8           0056ee76 f   kernel32:KERNEL32.dll
 0002:000f3e7c       _SetHandleCount@4          0056ee7c f   kernel32:KERNEL32.dll
 0002:000f3e82       _GetStartupInfoA@4         0056ee82 f   kernel32:KERNEL32.dll
 0002:000f3e88       _GetTickCount@0            0056ee88 f   kernel32:KERNEL32.dll
 0002:000f3e8e       _FreeEnvironmentStringsA@4 0056ee8e f   kernel32:KERNEL32.dll
 0002:000f3e94       _GetEnvironmentStrings@0   0056ee94 f   kernel32:KERNEL32.dll
 0002:000f3e9a       _FreeEnvironmentStringsW@4 0056ee9a f   kernel32:KERNEL32.dll
 0002:000f3ea0       _GetEnvironmentStringsW@0  0056eea0 f   kernel32:KERNEL32.dll
 0002:000f3ea6       _HeapDestroy@4             0056eea6 f   kernel32:KERNEL32.dll
 0002:000f3eac       _HeapCreate@12             0056eeac f   kernel32:KERNEL32.dll
 0002:000f3eb2       _VirtualFree@12            0056eeb2 f   kernel32:KERNEL32.dll
 0002:000f3eb8       _GetACP@0                  0056eeb8 f   kernel32:KERNEL32.dll
 0002:000f3ebe       _GetOEMCP@0                0056eebe f   kernel32:KERNEL32.dll
 0002:000f3ec4       _GetCPInfo@8               0056eec4 f   kernel32:KERNEL32.dll
 0002:000f3eca       _IsValidCodePage@4         0056eeca f   kernel32:KERNEL32.dll
 0002:000f3ed0       _MultiByteToWideChar@24    0056eed0 f   kernel32:KERNEL32.dll
 0002:000f3ed6       _LCMapStringA@24           0056eed6 f   kernel32:KERNEL32.dll
 0002:000f3edc       _LCMapStringW@24           0056eedc f   kernel32:KERNEL32.dll
 0002:000f3ee2       _HeapReAlloc@16            0056eee2 f   kernel32:KERNEL32.dll
 0002:000f3ee8       _VirtualAlloc@16           0056eee8 f   kernel32:KERNEL32.dll
 0002:000f3eee       _SetFilePointer@16         0056eeee f   kernel32:KERNEL32.dll
 0002:000f3ef4       _DebugBreak@0              0056eef4 f   kernel32:KERNEL32.dll
 0002:000f3efa       _OutputDebugStringA@4      0056eefa f   kernel32:KERNEL32.dll
 0002:000f3f00       _OutputDebugStringW@4      0056ef00 f   kernel32:KERNEL32.dll
 0002:000f3f06       _CreateFileA@28            0056ef06 f   kernel32:KERNEL32.dll
 0002:000f3f0c       _SetStdHandle@8            0056ef0c f   kernel32:KERNEL32.dll
 0002:000f3f12       _WriteConsoleA@20          0056ef12 f   kernel32:KERNEL32.dll
 0002:000f3f18       _GetConsoleOutputCP@0      0056ef18 f   kernel32:KERNEL32.dll
 0002:000f3f1e       _ReadFile@20               0056ef1e f   kernel32:KERNEL32.dll
 0002:000f3f24       _GetStringTypeA@20         0056ef24 f   kernel32:KERNEL32.dll
 0002:000f3f2a       _GetStringTypeW@16         0056ef2a f   kernel32:KERNEL32.dll
 0002:000f3f30       _GetTimeFormatA@24         0056ef30 f   kernel32:KERNEL32.dll
 0002:000f3f36       _GetDateFormatA@24         0056ef36 f   kernel32:KERNEL32.dll
 0002:000f3f3c       _GetLocaleInfoA@16         0056ef3c f   kernel32:KERNEL32.dll
 0002:000f3f42       _IsValidLocale@8           0056ef42 f   kernel32:KERNEL32.dll
 0002:000f3f48       _EnumSystemLocalesA@8      0056ef48 f   kernel32:KERNEL32.dll
 0002:000f3f4e       _GetUserDefaultLCID@0      0056ef4e f   kernel32:KERNEL32.dll
 0002:000f3f54       _GetLocaleInfoW@16         0056ef54 f   kernel32:KERNEL32.dll
 0002:000f3f5a       _RaiseException@16         0056ef5a f   kernel32:KERNEL32.dll
 0002:000f3f60       _lstrlenA@4                0056ef60 f   kernel32:KERNEL32.dll
 0002:000f3f66       _SetEndOfFile@4            0056ef66 f   kernel32:KERNEL32.dll
 0002:000f3f6c       _GetTimeZoneInformation@4  0056ef6c f   kernel32:KERNEL32.dll
 0002:000f3f72       _VirtualQuery@12           0056ef72 f   kernel32:KERNEL32.dll
 0002:000f3f78       _CompareStringA@24         0056ef78 f   kernel32:KERNEL32.dll
 0002:000f3f7e       _CompareStringW@24         0056ef7e f   kernel32:KERNEL32.dll
 0002:000f3f84       _SetEnvironmentVariableA@8 0056ef84 f   kernel32:KERNEL32.dll
 0002:000f3f90       _pjmedia_aud_dev_cap_name  0056ef90 f   pjmedia-audiodev-i386-win32-vc8-debug:audiodev.obj
 0002:000f4030       _pjmedia_aud_param_set_cap 0056f030 f   pjmedia-audiodev-i386-win32-vc8-debug:audiodev.obj
 0002:000f43e0       _pjmedia_aud_param_get_cap 0056f3e0 f   pjmedia-audiodev-i386-win32-vc8-debug:audiodev.obj
 0002:000f44a0       _pjmedia_aud_subsys_init   0056f4a0 f   pjmedia-audiodev-i386-win32-vc8-debug:audiodev.obj
 0002:000f4970       _pjmedia_aud_register_factory 0056f970 f   pjmedia-audiodev-i386-win32-vc8-debug:audiodev.obj
 0002:000f4a00       _pjmedia_aud_unregister_factory 0056fa00 f   pjmedia-audiodev-i386-win32-vc8-debug:audiodev.obj
 0002:000f4af0       _pjmedia_aud_subsys_get_pool_factory 0056faf0 f   pjmedia-audiodev-i386-win32-vc8-debug:audiodev.obj
 0002:000f4b10       _pjmedia_aud_subsys_shutdown 0056fb10 f   pjmedia-audiodev-i386-win32-vc8-debug:audiodev.obj
 0002:000f4b90       _pjmedia_aud_dev_count     0056fb90 f   pjmedia-audiodev-i386-win32-vc8-debug:audiodev.obj
 0002:000f4bb0       _pjmedia_aud_dev_get_info  0056fbb0 f   pjmedia-audiodev-i386-win32-vc8-debug:audiodev.obj
 0002:000f4f80       _pjmedia_aud_dev_lookup    0056ff80 f   pjmedia-audiodev-i386-win32-vc8-debug:audiodev.obj
 0002:000f51b0       _pjmedia_aud_dev_default_param 005701b0 f   pjmedia-audiodev-i386-win32-vc8-debug:audiodev.obj
 0002:000f52f0       _pjmedia_aud_stream_create 005702f0 f   pjmedia-audiodev-i386-win32-vc8-debug:audiodev.obj
 0002:000f55f0       _pjmedia_aud_stream_get_param 005705f0 f   pjmedia-audiodev-i386-win32-vc8-debug:audiodev.obj
 0002:000f5700       _pjmedia_aud_stream_get_cap 00570700 f   pjmedia-audiodev-i386-win32-vc8-debug:audiodev.obj
 0002:000f5740       _pjmedia_aud_stream_set_cap 00570740 f   pjmedia-audiodev-i386-win32-vc8-debug:audiodev.obj
 0002:000f5780       _pjmedia_aud_stream_start  00570780 f   pjmedia-audiodev-i386-win32-vc8-debug:audiodev.obj
 0002:000f57b0       _pjmedia_aud_stream_stop   005707b0 f   pjmedia-audiodev-i386-win32-vc8-debug:audiodev.obj
 0002:000f57e0       _pjmedia_aud_stream_destroy 005707e0 f   pjmedia-audiodev-i386-win32-vc8-debug:audiodev.obj
 0002:000f5810       _pjmedia_wmme_factory      00570810 f   pjmedia-audiodev-i386-win32-vc8-debug:wmme_dev.obj
 0002:000f82e0       _pjmedia_audiodev_strerror 005732e0 f   pjmedia-audiodev-i386-win32-vc8-debug:errno.obj
 0002:000f854a       _WaitForMultipleObjects@16 0057354a f   kernel32:KERNEL32.dll
 0002:000f8550       _waveOutGetDevCapsA@12     00573550 f   winmm:WINMM.dll
 0002:000f8556       _waveInGetDevCapsA@12      00573556 f   winmm:WINMM.dll
 0002:000f855c       _waveOutGetNumDevs@0       0057355c f   winmm:WINMM.dll
 0002:000f8562       _waveInGetNumDevs@0        00573562 f   winmm:WINMM.dll
 0002:000f8568       _waveOutWrite@12           00573568 f   winmm:WINMM.dll
 0002:000f856e       _waveOutPrepareHeader@12   0057356e f   winmm:WINMM.dll
 0002:000f8574       _waveOutPause@4            00573574 f   winmm:WINMM.dll
 0002:000f857a       _waveOutOpen@24            0057357a f   winmm:WINMM.dll
 0002:000f8580       _waveInAddBuffer@12        00573580 f   winmm:WINMM.dll
 0002:000f8586       _waveInPrepareHeader@12    00573586 f   winmm:WINMM.dll
 0002:000f858c       _waveInOpen@24             0057358c f   winmm:WINMM.dll
 0002:000f8592       _waveOutGetVolume@8        00573592 f   winmm:WINMM.dll
 0002:000f8598       _waveOutSetVolume@8        00573598 f   winmm:WINMM.dll
 0002:000f859e       _waveInStart@4             0057359e f   winmm:WINMM.dll
 0002:000f85a4       _waveOutRestart@4          005735a4 f   winmm:WINMM.dll
 0002:000f85aa       _waveInStop@4              005735aa f   winmm:WINMM.dll
 0002:000f85b0       _waveInClose@4             005735b0 f   winmm:WINMM.dll
 0002:000f85b6       _waveInUnprepareHeader@12  005735b6 f   winmm:WINMM.dll
 0002:000f85bc       _waveInReset@4             005735bc f   winmm:WINMM.dll
 0002:000f85c2       _waveOutClose@4            005735c2 f   winmm:WINMM.dll
 0002:000f85c8       _waveOutUnprepareHeader@12 005735c8 f   winmm:WINMM.dll
 0002:000f85ce       _waveOutReset@4            005735ce f   winmm:WINMM.dll
 0002:000f85d4       _waveOutGetErrorTextA@12   005735d4 f   winmm:WINMM.dll
 0002:000f85da       _waveInGetErrorTextA@12    005735da f   winmm:WINMM.dll
 0003:00000000       ___xc_a                    00576000     LIBCMTD:crt0init.obj
 0003:00000104       ___xc_z                    00576104     LIBCMTD:crt0init.obj
 0003:00000208       ___xi_a                    00576208     LIBCMTD:crt0init.obj
 0003:0000052c       ___xi_z                    0057652c     LIBCMTD:crt0init.obj
 0003:00000630       ___xp_a                    00576630     LIBCMTD:crt0init.obj
 0003:00000944       ___xp_z                    00576944     LIBCMTD:crt0init.obj
 0003:00000a48       ___xt_a                    00576a48     LIBCMTD:crt0init.obj
 0003:00000b4c       ___xt_z                    00576b4c     LIBCMTD:crt0init.obj
 0003:00000c70       __real@4059000000000000    00576c70     siprtp.obj
 0003:00000c80       __real@408f400000000000    00576c80     siprtp.obj
 0003:00000c8c       ??_C@_03MHNADFJL@sdp?$AA@  00576c8c     pjsip-ua-i386-win32-vc8-debug:sip_inv.obj
 0003:00000c90       ??_C@_0M@MBDKLJIJ@application?$AA@ 00576c90     pjsip-ua-i386-win32-vc8-debug:sip_inv.obj
 0003:00000ca0       ??_C@_0L@BLDGPIGK@mod?9invite?$AA@ 00576ca0     pjsip-ua-i386-win32-vc8-debug:sip_inv.obj
 0003:00000cb0       ??_C@_06HHJABCJL@UPDATE?$AA@ 00576cb0     pjsip-ua-i386-win32-vc8-debug:sip_inv.obj
 0003:00000cb8       ??_C@_0L@ONMJOFAN@TERMINATED?$AA@ 00576cb8     pjsip-ua-i386-win32-vc8-debug:sip_inv.obj
 0003:00000cc8       ??_C@_0L@GKFIMDLD@DISCONNCTD?$AA@ 00576cc8     pjsip-ua-i386-win32-vc8-debug:sip_inv.obj
 0003:00000cd8       ??_C@_09JCKBPFKF@CONFIRMED?$AA@ 00576cd8     pjsip-ua-i386-win32-vc8-debug:sip_inv.obj
 0003:00000ce4       ??_C@_0L@OPGIEADC@CONNECTING?$AA@ 00576ce4     pjsip-ua-i386-win32-vc8-debug:sip_inv.obj
 0003:00000cf4       ??_C@_05HMGOBOK@EARLY?$AA@ 00576cf4     pjsip-ua-i386-win32-vc8-debug:sip_inv.obj
 0003:00000cfc       ??_C@_08FPHOKLMI@INCOMING?$AA@ 00576cfc     pjsip-ua-i386-win32-vc8-debug:sip_inv.obj
 0003:00000d08       ??_C@_07BJAKIKLF@CALLING?$AA@ 00576d08     pjsip-ua-i386-win32-vc8-debug:sip_inv.obj
 0003:00000d14       ??_C@_04HIBGFPH@NULL?$AA@  00576d14     pjsip-ua-i386-win32-vc8-debug:sip_inv.obj
 0003:00000d40       ??_C@_0BA@MJOOLNNM@application?1sdp?$AA@ 00576d40     pjsip-ua-i386-win32-vc8-debug:sip_inv.obj
 0003:00000d54       ??_C@_06JHILMIHF@CANCEL?$AA@ 00576d54     pjsip-ua-i386-win32-vc8-debug:sip_inv.obj
 0003:00000d5c       ??_C@_03BMFBOCK@BYE?$AA@   00576d5c     pjsip-ua-i386-win32-vc8-debug:sip_inv.obj
 0003:00000d60       ??_C@_03JMECLKOM@ACK?$AA@  00576d60     pjsip-ua-i386-win32-vc8-debug:sip_inv.obj
 0003:00000d64       ??_C@_06DBKGGLMH@INVITE?$AA@ 00576d64     pjsip-ua-i386-win32-vc8-debug:sip_inv.obj
 0003:00000d70       ??_C@_1HM@LDBPAIJA@?$AAi?$AAn?$AAv?$AA?9?$AA?$DO?$AAs?$AAt?$AAa?$AAt?$AAe?$AA?5?$AA?$CB?$AA?$DN?$AA?5?$AAP?$AAJ?$AAS?$AAI?$AAP?$AA_?$AAI?$AAN?$AAV?$AA_?$AAS?$AAT?$AAA?$AAT?$AAE?$AA_?$AAD?$AAI@ 00576d70     pjsip-ua-i386-win32-vc8-debug:sip_inv.obj
 0003:00000e08       ??_C@_1GI@DKEPEAOE@?$AAd?$AA?3?$AA?2?$AAm?$AAy?$AAg?$AAi?$AAt?$AA?2?$AAp?$AAj?$AAp?$AAr?$AAo?$AAj?$AAe?$AAc?$AAt?$AA?9?$AA1?$AA?4?$AA4?$AA?2?$AAp?$AAj?$AAs?$AAi?$AAp?$AA?2?$AAs?$AAr?$AAc@ 00576e08     pjsip-ua-i386-win32-vc8-debug:sip_inv.obj
 0003:00000e84       ??_C@_0DA@CNKPLCJK@SDP?5offer?1answer?5incomplete?0?5end@ 00576e84     pjsip-ua-i386-win32-vc8-debug:sip_inv.obj
 0003:00000ec0       ??_C@_0BF@HOOGIPCC@Normal?5call?5clearing?$AA@ 00576ec0     pjsip-ua-i386-win32-vc8-debug:sip_inv.obj
 0003:00000ee0       ??_C@_1EI@OMLIMKLN@?$AAi?$AAn?$AAv?$AA?9?$AA?$DO?$AAi?$AAn?$AAv?$AAi?$AAt?$AAe?$AA_?$AAt?$AAs?$AAx?$AA?9?$AA?$DO?$AAs?$AAt?$AAa?$AAt?$AAu?$AAs?$AA_?$AAc?$AAo?$AAd?$AAe?$AA?5?$AA?$DO?$AA?$DN?$AA?5@ 00576ee0     pjsip-ua-i386-win32-vc8-debug:sip_inv.obj
 0003:00000f38       ??_C@_1CO@NNAENIGI@?$AA?$CB?$AA?$CC?$AAU?$AAn?$AAa?$AAb?$AAl?$AAe?$AA?5?$AAt?$AAo?$AA?5?$AAs?$AAe?$AAn?$AAd?$AA?5?$AAA?$AAC?$AAK?$AA?$CB?$AA?$CC?$AA?$AA@ 00576f38     pjsip-ua-i386-win32-vc8-debug:sip_inv.obj
 0003:00000f70       ??_C@_0BE@HAFKOJBO@Unable?5to?5send?5ACK?$CB?$AA@ 00576f70     pjsip-ua-i386-win32-vc8-debug:sip_inv.obj
 0003:00000f88       ??_C@_0CM@GCDEGPO@Received?5?$CFs?0?5notifying?5applicati@ 00576f88     pjsip-ua-i386-win32-vc8-debug:sip_inv.obj
 0003:00000fbc       ??_C@_0BJ@DIELNPDA@Received?5?$CFs?0?5sending?5ACK?$AA@ 00576fbc     pjsip-ua-i386-win32-vc8-debug:sip_inv.obj
 0003:00000fdc       ??_C@_1DE@GPLMLJHA@?$AA?$CB?$AA?$CC?$AAU?$AAn?$AAs?$AAu?$AAp?$AAp?$AAo?$AAr?$AAt?$AAe?$AAd?$AA?5?$AAe?$AAv?$AAe?$AAn?$AAt?$AA?5?$AAt?$AAy?$AAp?$AAe?$AA?$CC?$AA?$AA@ 00576fdc     pjsip-ua-i386-win32-vc8-debug:sip_inv.obj
 0003:0000101c       ??_C@_0BH@GCMGFFAD@Unsupported?5event?5type?$AA@ 0057701c     pjsip-ua-i386-win32-vc8-debug:sip_inv.obj
 0003:00001038       ??_C@_1CK@EDLFOFHO@?$AAm?$AAo?$AAd?$AA_?$AAi?$AAn?$AAv?$AA?4?$AAm?$AAo?$AAd?$AA?4?$AAi?$AAd?$AA?5?$AA?$DN?$AA?$DN?$AA?5?$AA?9?$AA1?$AA?$AA@ 00577038     pjsip-ua-i386-win32-vc8-debug:sip_inv.obj
 0003:00001070       ??_C@_1FG@DBJLJEHP@?$AAc?$AAb?$AA?9?$AA?$DO?$AAo?$AAn?$AA_?$AAs?$AAt?$AAa?$AAt?$AAe?$AA_?$AAc?$AAh?$AAa?$AAn?$AAg?$AAe?$AAd?$AA?5?$AA?$CG?$AA?$CG?$AA?5?$AAc?$AAb?$AA?9?$AA?$DO?$AAo?$AAn?$AA_?$AAn@ 00577070     pjsip-ua-i386-win32-vc8-debug:sip_inv.obj
 0003:000010d8       ??_C@_1BI@NILACCAD@?$AAe?$AAn?$AAd?$AAp?$AAt?$AA?5?$AA?$CG?$AA?$CG?$AA?5?$AAc?$AAb?$AA?$AA@ 005770d8     pjsip-ua-i386-win32-vc8-debug:sip_inv.obj
 0003:000010f4       ??_C@_02HHFHKOHM@?$DP?$DP?$AA@ 005770f4     pjsip-ua-i386-win32-vc8-debug:sip_inv.obj
 0003:000010f8       ??_C@_1IO@NDKAAJLK@?$AAs?$AAt?$AAa?$AAt?$AAe?$AA?5?$AA?$DO?$AA?$DN?$AA?5?$AAP?$AAJ?$AAS?$AAI?$AAP?$AA_?$AAI?$AAN?$AAV?$AA_?$AAS?$AAT?$AAA?$AAT?$AAE?$AA_?$AAN?$AAU?$AAL?$AAL?$AA?5?$AA?$CG?$AA?$CG@ 005770f8     pjsip-ua-i386-win32-vc8-debug:sip_inv.obj
 0003:000011a4       ??_C@_0CJ@HLKGBANI@UAC?5invite?5session?5created?5for?5d@ 005771a4     pjsip-ua-i386-win32-vc8-debug:sip_inv.obj
 0003:000011d8       ??_C@_05BICJMLFP@inv?$CFp?$AA@ 005771d8     pjsip-ua-i386-win32-vc8-debug:sip_inv.obj
 0003:000011e0       ??_C@_1CG@OAAEADHC@?$AAi?$AAn?$AAv?$AA?5?$AA?$CB?$AA?$DN?$AA?5?$AA?$CI?$AA?$CI?$AAv?$AAo?$AAi?$AAd?$AA?5?$AA?$CK?$AA?$CJ?$AA0?$AA?$CJ?$AA?$AA@ 005771e0     pjsip-ua-i386-win32-vc8-debug:sip_inv.obj
 0003:00001210       ??_C@_1BK@GKNGGBNP@?$AAd?$AAl?$AAg?$AA?5?$AA?$CG?$AA?$CG?$AA?5?$AAp?$AA_?$AAi?$AAn?$AAv?$AA?$AA@ 00577210     pjsip-ua-i386-win32-vc8-debug:sip_inv.obj
 0003:00001230       ??_C@_1O@PKFABOIK@?$AAc?$AAl?$AAo?$AAn?$AAe?$AAd?$AA?$AA@ 00577230     pjsip-ua-i386-win32-vc8-debug:sip_inv.obj
 0003:00001240       ??_C@_1EG@ELJADGLH@?$AA?$CK?$AAo?$AAp?$AAt?$AAi?$AAo?$AAn?$AAs?$AA?5?$AA?$CG?$AA?5?$AAP?$AAJ?$AAS?$AAI?$AAP?$AA_?$AAI?$AAN?$AAV?$AA_?$AAS?$AAU?$AAP?$AAP?$AAO?$AAR?$AAT?$AA_?$AAT?$AAI?$AAM@ 00577240     pjsip-ua-i386-win32-vc8-debug:sip_inv.obj
 0003:00001298       ??_C@_1EI@GPHLFPOL@?$AA?$CK?$AAo?$AAp?$AAt?$AAi?$AAo?$AAn?$AAs?$AA?5?$AA?$CG?$AA?5?$AAP?$AAJ?$AAS?$AAI?$AAP?$AA_?$AAI?$AAN?$AAV?$AA_?$AAS?$AAU?$AAP?$AAP?$AAO?$AAR?$AAT?$AA_?$AA1?$AA0?$AA0@ 00577298     pjsip-ua-i386-win32-vc8-debug:sip_inv.obj
 0003:000012f0       ??_C@_1CO@NOMHHNNG@?$AAr?$AAe?$AAq?$AA_?$AAh?$AAd?$AAr?$AA?5?$AA?$CB?$AA?$DN?$AA?5?$AA?$CI?$AA?$CI?$AAv?$AAo?$AAi?$AAd?$AA?5?$AA?$CK?$AA?$CJ?$AA0?$AA?$CJ?$AA?$AA@ 005772f0     pjsip-ua-i386-win32-vc8-debug:sip_inv.obj
 0003:00001328       ??_C@_13CACJPPAP@?$AAh?$AA?$AA@ 00577328     pjsip-ua-i386-win32-vc8-debug:sip_inv.obj
 0003:0000132c       ??_C@_1DE@LHIBCBMO@?$AAu?$AAn?$AAs?$AAu?$AAp?$AAp?$AA_?$AAh?$AAd?$AAr?$AA?5?$AA?$CB?$AA?$DN?$AA?5?$AA?$CI?$AA?$CI?$AAv?$AAo?$AAi?$AAd?$AA?5?$AA?$CK?$AA?$CJ?$AA0?$AA?$CJ?$AA?$AA@ 0057732c     pjsip-ua-i386-win32-vc8-debug:sip_inv.obj
 0003:0000136c       ??_C@_08LDJJEDJ@replaces?$AA@ 0057736c     pjsip-ua-i386-win32-vc8-debug:sip_inv.obj
 0003:00001378       ??_C@_03MKIOHCPB@ice?$AA@  00577378     pjsip-ua-i386-win32-vc8-debug:sip_inv.obj
 0003:0000137c       ??_C@_05NAPFDJNG@timer?$AA@ 0057737c     pjsip-ua-i386-win32-vc8-debug:sip_inv.obj
 0003:00001384       ??_C@_06IPLOHEDL@100rel?$AA@ 00577384     pjsip-ua-i386-win32-vc8-debug:sip_inv.obj
 0003:0000138c       ??_C@_1BI@MDCHJGIP@?$AAs?$AAt?$AAa?$AAt?$AAu?$AAs?$AA?5?$AA?$DN?$AA?$DN?$AA?5?$AA0?$AA?$AA@ 0057738c     pjsip-ua-i386-win32-vc8-debug:sip_inv.obj
 0003:000013a8       ??_C@_1FA@NDEONMMC@?$AA?$CI?$AAs?$AAt?$AAa?$AAt?$AAu?$AAs?$AA?$DN?$AAp?$AAj?$AAm?$AAe?$AAd?$AAi?$AAa?$AA_?$AAs?$AAd?$AAp?$AA_?$AAv?$AAa?$AAl?$AAi?$AAd?$AAa?$AAt?$AAe?$AA?$CI?$AAl?$AA_?$AAs@ 005773a8     pjsip-ua-i386-win32-vc8-debug:sip_inv.obj
 0003:00001408       ??_C@_13CIFDLIMG@?$AAw?$AA?$AA@ 00577408     pjsip-ua-i386-win32-vc8-debug:sip_inv.obj
 0003:0000140c       ??_C@_17CBGPKFKK@?$AAa?$AAc?$AAc?$AA?$AA@ 0057740c     pjsip-ua-i386-win32-vc8-debug:sip_inv.obj
 0003:00001418       ??_C@_0BL@BJMNFGKN@Bad?1missing?5Contact?5header?$AA@ 00577418     pjsip-ua-i386-win32-vc8-debug:sip_inv.obj
 0003:00001438       ??_C@_1DK@FKEKHHHM@?$AA?$CI?$AA?$CB?$AAp?$AA_?$AAt?$AAd?$AAa?$AAt?$AAa?$AA?$CJ?$AA?5?$AA?$HM?$AA?$HM?$AA?5?$AA?$CI?$AAe?$AAn?$AAd?$AAp?$AAt?$AA?5?$AA?$HM?$AA?$HM?$AA?5?$AAd?$AAl?$AAg?$AA?$CJ?$AA?$AA@ 00577438     pjsip-ua-i386-win32-vc8-debug:sip_inv.obj
 0003:00001480       ??_C@_1KC@EDFPKMMF@?$AAm?$AAs?$AAg?$AA?9?$AA?$DO?$AAt?$AAy?$AAp?$AAe?$AA?5?$AA?$DN?$AA?$DN?$AA?5?$AAP?$AAJ?$AAS?$AAI?$AAP?$AA_?$AAR?$AAE?$AAQ?$AAU?$AAE?$AAS?$AAT?$AA_?$AAM?$AAS?$AAG?$AA?5?$AA?$CG@ 00577480     pjsip-ua-i386-win32-vc8-debug:sip_inv.obj
 0003:00001548       ??_C@_1FO@BJPGEDF@?$AAr?$AAd?$AAa?$AAt?$AAa?$AA?5?$AA?$CB?$AA?$DN?$AA?5?$AA?$CI?$AA?$CI?$AAv?$AAo?$AAi?$AAd?$AA?5?$AA?$CK?$AA?$CJ?$AA0?$AA?$CJ?$AA?5?$AA?$CG?$AA?$CG?$AA?5?$AAo?$AAp?$AAt?$AAi?$AAo?$AAn?$AAs?$AA?5@ 00577548     pjsip-ua-i386-win32-vc8-debug:sip_inv.obj
 0003:000015b8       ??_C@_0CJ@EIBALPMO@UAS?5invite?5session?5created?5for?5d@ 005775b8     pjsip-ua-i386-win32-vc8-debug:sip_inv.obj
 0003:000015f0       ??_C@_1FE@DGMFBOIA@?$AAp?$AAj?$AAs?$AAi?$AAp?$AA_?$AAr?$AAd?$AAa?$AAt?$AAa?$AA_?$AAg?$AAe?$AAt?$AA_?$AAt?$AAs?$AAx?$AA?$CI?$AAr?$AAd?$AAa?$AAt?$AAa?$AA?$CJ?$AA?5?$AA?$CB?$AA?$DN?$AA?5?$AA?$CI?$AA?$CI@ 005775f0     pjsip-ua-i386-win32-vc8-debug:sip_inv.obj
 0003:00001654       ??_C@_1CM@HCCAEDPH@?$AAd?$AAl?$AAg?$AA?5?$AA?$CG?$AA?$CG?$AA?5?$AAr?$AAd?$AAa?$AAt?$AAa?$AA?5?$AA?$CG?$AA?$CG?$AA?5?$AAp?$AA_?$AAi?$AAn?$AAv?$AA?$AA@ 00577654     pjsip-ua-i386-win32-vc8-debug:sip_inv.obj
 0003:00001688       ??_C@_17CJNDAKGM@?$AAi?$AAn?$AAv?$AA?$AA@ 00577688     pjsip-ua-i386-win32-vc8-debug:sip_inv.obj
 0003:00001694       ??_C@_1CI@FJCEKDIA@?$AAb?$AAo?$AAd?$AAy?$AA?5?$AA?$CB?$AA?$DN?$AA?5?$AA?$CI?$AA?$CI?$AAv?$AAo?$AAi?$AAd?$AA?5?$AA?$CK?$AA?$CJ?$AA0?$AA?$CJ?$AA?$AA@ 00577694     pjsip-ua-i386-win32-vc8-debug:sip_inv.obj
 0003:000016c8       ??_C@_1JM@PMKFIICP@?$AAi?$AAn?$AAv?$AA?9?$AA?$DO?$AAs?$AAt?$AAa?$AAt?$AAe?$AA?5?$AA?$DN?$AA?$DN?$AA?5?$AAP?$AAJ?$AAS?$AAI?$AAP?$AA_?$AAI?$AAN?$AAV?$AA_?$AAS?$AAT?$AAA?$AAT?$AAE?$AA_?$AAN?$AAU@ 005776c8     pjsip-ua-i386-win32-vc8-debug:sip_inv.obj
 0003:00001784       ??_C@_1BO@BGFEAPKD@?$AAi?$AAn?$AAv?$AA?5?$AA?$CG?$AA?$CG?$AA?5?$AAp?$AA_?$AAt?$AAd?$AAa?$AAt?$AAa?$AA?$AA@ 00577784     pjsip-ua-i386-win32-vc8-debug:sip_inv.obj
 0003:000017a8       ??_C@_0CK@CNMHAOHC@Ignored?5SDP?5in?5?$CFs?3?5negotiator?5st@ 005777a8     pjsip-ua-i386-win32-vc8-debug:sip_inv.obj
 0003:000017dc       ??_C@_0CG@GEGLOJMM@Error?5processing?5SDP?5answer?5in?5?$CF@ 005777dc     pjsip-ua-i386-win32-vc8-debug:sip_inv.obj
 0003:0000180c       ??_C@_0BF@NJIJAPGF@Got?5SDP?5answer?5in?5?$CFs?$AA@ 0057780c     pjsip-ua-i386-win32-vc8-debug:sip_inv.obj
 0003:00001828       ??_C@_0CF@HKAFNHHO@Error?5processing?5SDP?5offer?5in?5?$CFs@ 00577828     pjsip-ua-i386-win32-vc8-debug:sip_inv.obj
 0003:00001854       ??_C@_0BE@EPLINLEA@Got?5SDP?5offer?5in?5?$CFs?$AA@ 00577854     pjsip-ua-i386-win32-vc8-debug:sip_inv.obj
 0003:0000186c       ??_C@_09LDKIKNFD@sip_inv?4c?$AA@ 0057786c     pjsip-ua-i386-win32-vc8-debug:sip_inv.obj
 0003:00001878       ??_C@_0BM@PMOJFBBE@Error?5parsing?5SDP?5in?5?$CFs?3?5?$CFs?$AA@ 00577878     pjsip-ua-i386-win32-vc8-debug:sip_inv.obj
 0003:0000189c       ??_C@_0CO@JFCENHLK@SDP?5negotiation?5done?0?5message?5bo@ 0057789c     pjsip-ua-i386-win32-vc8-debug:sip_inv.obj
 0003:000018d4       ??_C@_0DM@GBEMEPEO@Error?5updating?5local?5offer?5for?5f@ 005778d4     pjsip-ua-i386-win32-vc8-debug:sip_inv.obj
 0003:00001920       ??_C@_0GH@DLFBHNJE@Received?5forked?5final?5response?5a@ 00577920     pjsip-ua-i386-win32-vc8-debug:sip_inv.obj
 0003:0000199c       ??_C@_0CA@LPJKLBPC@SDP?5negotiation?5done?0?5status?$DN?$CFd?$AA@ 0057799c     pjsip-ua-i386-win32-vc8-debug:sip_inv.obj
 0003:000019c8       ??_C@_1IO@HNLDFJEH@?$AAp?$AAj?$AAm?$AAe?$AAd?$AAi?$AAa?$AA_?$AAs?$AAd?$AAp?$AA_?$AAn?$AAe?$AAg?$AA_?$AAg?$AAe?$AAt?$AA_?$AAs?$AAt?$AAa?$AAt?$AAe?$AA?$CI?$AAi?$AAn?$AAv?$AA?9?$AA?$DO?$AAn@ 005779c8     pjsip-ua-i386-win32-vc8-debug:sip_inv.obj
 0003:00001a74       ??_C@_0BC@DKICHHDF@Initial?5answer?5?$CFs?$AA@ 00577a74     pjsip-ua-i386-win32-vc8-debug:sip_inv.obj
 0003:00001a8c       ??_C@_1CA@LLHICPOK@?$AAi?$AAn?$AAv?$AA?9?$AA?$DO?$AAi?$AAn?$AAv?$AAi?$AAt?$AAe?$AA_?$AAt?$AAs?$AAx?$AA?$AA@ 00577a8c     pjsip-ua-i386-win32-vc8-debug:sip_inv.obj
 0003:00001ab4       ??_C@_13COJANIEC@?$AA0?$AA?$AA@ 00577ab4     pjsip-ua-i386-win32-vc8-debug:sip_inv.obj
 0003:00001ab8       ??_C@_1CC@OFHPEPC@?$AAi?$AAn?$AAv?$AA?9?$AA?$DO?$AAl?$AAa?$AAs?$AAt?$AA_?$AAa?$AAn?$AAs?$AAw?$AAe?$AAr?$AA?$AA@ 00577ab8     pjsip-ua-i386-win32-vc8-debug:sip_inv.obj
 0003:00001ae0       ??_C@_1BG@KMJGABE@?$AAi?$AAn?$AAv?$AA?5?$AA?$CG?$AA?$CG?$AA?5?$AAs?$AAd?$AAp?$AA?$AA@ 00577ae0     pjsip-ua-i386-win32-vc8-debug:sip_inv.obj
 0003:00001afc       ??_C@_1CM@JOEBCBND@?$AA?$CC?$AA?$CB?$AAI?$AAn?$AAv?$AAa?$AAl?$AAi?$AAd?$AA?5?$AAo?$AAp?$AAe?$AAr?$AAa?$AAt?$AAi?$AAo?$AAn?$AA?$CB?$AA?$CC?$AA?$AA@ 00577afc     pjsip-ua-i386-win32-vc8-debug:sip_inv.obj
 0003:00001b30       ??_C@_0BE@MKJIKGG@?$CBInvalid?5operation?$CB?$AA@ 00577b30     pjsip-ua-i386-win32-vc8-debug:sip_inv.obj
 0003:00001b48       ??_C@_1CK@IGANNOPN@?$AAt?$AAd?$AAa?$AAt?$AAa?$AA?5?$AA?$CB?$AA?$DN?$AA?5?$AA?$CI?$AA?$CI?$AAv?$AAo?$AAi?$AAd?$AA?5?$AA?$CK?$AA?$CJ?$AA0?$AA?$CJ?$AA?$AA@ 00577b48     pjsip-ua-i386-win32-vc8-debug:sip_inv.obj
 0003:00001b7c       ??_C@_0DO@HEALFLEC@Delaying?5CANCEL?5since?5no?5provisi@ 00577b7c     pjsip-ua-i386-win32-vc8-debug:sip_inv.obj
 0003:00001bc8       ??_C@_1DO@EECGANDN@?$AAi?$AAn?$AAv?$AA?9?$AA?$DO?$AAi?$AAn?$AAv?$AAi?$AAt?$AAe?$AA_?$AAt?$AAs?$AAx?$AA?5?$AA?$CB?$AA?$DN?$AA?5?$AA?$CI?$AA?$CI?$AAv?$AAo?$AAi?$AAd?$AA?5?$AA?$CK?$AA?$CJ?$AA0?$AA?$CJ?$AA?$AA@ 00577bc8     pjsip-ua-i386-win32-vc8-debug:sip_inv.obj
 0003:00001c14       ??_C@_1CK@OMJLCHM@?$AA?$CB?$AA?$CC?$AAS?$AAh?$AAo?$AAu?$AAl?$AAd?$AA?5?$AAn?$AAo?$AAt?$AA?5?$AAh?$AAa?$AAp?$AAp?$AAe?$AAn?$AA?$CC?$AA?$AA@ 00577c14     pjsip-ua-i386-win32-vc8-debug:sip_inv.obj
 0003:00001c48       ??_C@_0BC@KLJDOBBG@Should?5not?5happen?$AA@ 00577c48     pjsip-ua-i386-win32-vc8-debug:sip_inv.obj
 0003:00001c60       ??_C@_1EI@LPOKHMME@?$AAi?$AAn?$AAv?$AA?5?$AA?$CG?$AA?$CG?$AA?5?$AAo?$AAp?$AA?5?$AA?$CB?$AA?$DN?$AA?5?$AAP?$AAJ?$AAS?$AAI?$AAP?$AA_?$AAR?$AAE?$AAD?$AAI?$AAR?$AAE?$AAC?$AAT?$AA_?$AAP?$AAE?$AAN?$AAD@ 00577c60     pjsip-ua-i386-win32-vc8-debug:sip_inv.obj
 0003:00001cb8       ??_C@_1DC@HODPDJOC@?$AA?$CB?$AA?$CC?$AAS?$AAh?$AAo?$AAu?$AAl?$AAd?$AA?5?$AAn?$AAo?$AAt?$AA?5?$AAr?$AAe?$AAa?$AAc?$AAh?$AA?5?$AAh?$AAe?$AAr?$AAe?$AA?$CC?$AA?$AA@ 00577cb8     pjsip-ua-i386-win32-vc8-debug:sip_inv.obj
 0003:00001cf4       ??_C@_0BG@HEMHFPBP@Should?5not?5reach?5here?$AA@ 00577cf4     pjsip-ua-i386-win32-vc8-debug:sip_inv.obj
 0003:00001d10       ??_C@_04JBGCGIBB@sips?$AA@ 00577d10     pjsip-ua-i386-win32-vc8-debug:sip_inv.obj
 0003:00001d18       ??_C@_03MPAIKGMI@sip?$AA@  00577d18     pjsip-ua-i386-win32-vc8-debug:sip_inv.obj
 0003:00001d20       ??_C@_0EB@ECNPIPJI@pjsip_inv_reinvite?3?5SDP?5in?5WAIT_@ 00577d20     pjsip-ua-i386-win32-vc8-debug:sip_inv.obj
 0003:00001d70       ??_C@_0EA@JEELPGOL@pjsip_inv_reinvite?3?5already?5have@ 00577d70     pjsip-ua-i386-win32-vc8-debug:sip_inv.obj
 0003:00001dc0       ??_C@_1EC@BLGMPBAH@?$AA?$CB?$AA?$CC?$AAU?$AAn?$AAe?$AAx?$AAp?$AAe?$AAc?$AAt?$AAe?$AAd?$AA?5?$AAS?$AAD?$AAP?$AA?5?$AAn?$AAe?$AAg?$AA?5?$AAs?$AAt?$AAa?$AAt?$AAe?$AA?5?$AAN?$AAU?$AAL?$AAL?$AA?$CC@ 00577dc0     pjsip-ua-i386-win32-vc8-debug:sip_inv.obj
 0003:00001e10       ??_C@_0BO@INEDICFJ@Unexpected?5SDP?5neg?5state?5NULL?$AA@ 00577e10     pjsip-ua-i386-win32-vc8-debug:sip_inv.obj
 0003:00001e34       ??_C@_07PMMFKIFM@Contact?$AA@ 00577e34     pjsip-ua-i386-win32-vc8-debug:sip_inv.obj
 0003:00001e40       ??_C@_0CK@INPGLEAA@Invalid?5SDP?5offer?1answer?5state?5f@ 00577e40     pjsip-ua-i386-win32-vc8-debug:sip_inv.obj
 0003:00001e78       ??_C@_1FE@KEFJDLFA@?$AAi?$AAn?$AAv?$AA?9?$AA?$DO?$AAs?$AAt?$AAa?$AAt?$AAe?$AA?5?$AA?$DM?$AA?5?$AAP?$AAJ?$AAS?$AAI?$AAP?$AA_?$AAI?$AAN?$AAV?$AA_?$AAS?$AAT?$AAA?$AAT?$AAE?$AA_?$AAD?$AAI?$AAS@ 00577e78     pjsip-ua-i386-win32-vc8-debug:sip_inv.obj
 0003:00001ee0       ??_C@_1GE@CJEEMPEH@?$AAi?$AAn?$AAv?$AA?9?$AA?$DO?$AAd?$AAl?$AAg?$AA?9?$AA?$DO?$AAs?$AAt?$AAa?$AAt?$AAe?$AA?5?$AA?$DN?$AA?$DN?$AA?5?$AAP?$AAJ?$AAS?$AAI?$AAP?$AA_?$AAD?$AAI?$AAA?$AAL?$AAO?$AAG?$AA_@ 00577ee0     pjsip-ua-i386-win32-vc8-debug:sip_inv.obj
 0003:00001f58       ??_C@_1BBA@FBGJFHAJ@?$AA?$CI?$AAc?$AAs?$AAe?$AAq?$AA?$DN?$AA?$CI?$AAp?$AAj?$AAs?$AAi?$AAp?$AA_?$AAc?$AAs?$AAe?$AAq?$AA_?$AAh?$AAd?$AAr?$AA?$CK?$AA?$CJ?$AAp?$AAj?$AAs?$AAi?$AAp?$AA_?$AAm?$AAs?$AAg@ 00577f58     pjsip-ua-i386-win32-vc8-debug:sip_inv.obj
 0003:000020a0       ??_C@_0L@BPIOADDE@Sending?5?$CFs?$AA@ 005780a0     pjsip-ua-i386-win32-vc8-debug:sip_inv.obj
 0003:000020b0       ??_C@_1BK@LKOBIJHK@?$AAi?$AAn?$AAv?$AA?5?$AA?$CG?$AA?$CG?$AA?5?$AAt?$AAd?$AAa?$AAt?$AAa?$AA?$AA@ 005780b0     pjsip-ua-i386-win32-vc8-debug:sip_inv.obj
 0003:000020d0       ??_C@_1DO@GGDHOIGC@?$AA?$CB?$AA?$CC?$AAU?$AAn?$AAe?$AAx?$AAp?$AAe?$AAc?$AAt?$AAe?$AAd?$AA?5?$AAt?$AAr?$AAa?$AAn?$AAs?$AAa?$AAc?$AAt?$AAi?$AAo?$AAn?$AA?5?$AAt?$AAy?$AAp?$AAe?$AA?$CC?$AA?$AA@ 005780d0     pjsip-ua-i386-win32-vc8-debug:sip_inv.obj
 0003:0000211c       ??_C@_0BM@DEIBJIKO@Unexpected?5transaction?5type?$AA@ 0057811c     pjsip-ua-i386-win32-vc8-debug:sip_inv.obj
 0003:00002140       ??_C@_1BG@EJKNJBON@?$AAt?$AAs?$AAx?$AA?5?$AA?$CG?$AA?$CG?$AA?5?$AAd?$AAl?$AAg?$AA?$AA@ 00578140     pjsip-ua-i386-win32-vc8-debug:sip_inv.obj
 0003:00002160       ??_C@_1FK@OLGMKDFB@?$AAe?$AA?9?$AA?$DO?$AAb?$AAo?$AAd?$AAy?$AA?4?$AAt?$AAs?$AAx?$AA_?$AAs?$AAt?$AAa?$AAt?$AAe?$AA?4?$AAt?$AAy?$AAp?$AAe?$AA?5?$AA?$DN?$AA?$DN?$AA?5?$AAP?$AAJ?$AAS?$AAI?$AAP?$AA_@ 00578160     pjsip-ua-i386-win32-vc8-debug:sip_inv.obj
 0003:000021cc       ??_C@_1DG@COAHJHHL@?$AA?$CB?$AA?$CC?$AAU?$AAn?$AAe?$AAx?$AAp?$AAe?$AAc?$AAt?$AAe?$AAd?$AA?5?$AAI?$AAN?$AAV?$AAI?$AAT?$AAE?$AA?5?$AAs?$AAt?$AAa?$AAt?$AAe?$AA?$CC?$AA?$AA@ 005781cc     pjsip-ua-i386-win32-vc8-debug:sip_inv.obj
 0003:0000220c       ??_C@_0BI@BMAGDFPC@Unexpected?5INVITE?5state?$AA@ 0057820c     pjsip-ua-i386-win32-vc8-debug:sip_inv.obj
 0003:00002228       ??_C@_1EG@JDJOKKMM@?$AAi?$AAn?$AAv?$AAi?$AAt?$AAe?$AA_?$AAt?$AAs?$AAx?$AA?9?$AA?$DO?$AAl?$AAa?$AAs?$AAt?$AA_?$AAt?$AAx?$AA?5?$AA?$CB?$AA?$DN?$AA?5?$AA?$CI?$AA?$CI?$AAv?$AAo?$AAi?$AAd?$AA?5?$AA?$CK?$AA?$CJ@ 00578228     pjsip-ua-i386-win32-vc8-debug:sip_inv.obj
 0003:0000227c       ??_C@_1DO@PPPPLNCC@?$AA?$CB?$AA?$CC?$AAU?$AAn?$AAe?$AAx?$AAp?$AAe?$AAc?$AAt?$AAe?$AAd?$AA?5?$AAI?$AAN?$AAV?$AAI?$AAT?$AAE?$AA?5?$AAt?$AAs?$AAx?$AA?5?$AAs?$AAt?$AAa?$AAt?$AAe?$AA?$CC?$AA?$AA@ 0057827c     pjsip-ua-i386-win32-vc8-debug:sip_inv.obj
 0003:000022c8       ??_C@_0BM@GPHCPLAL@Unexpected?5INVITE?5tsx?5state?$AA@ 005782c8     pjsip-ua-i386-win32-vc8-debug:sip_inv.obj
 0003:000022ec       ??_C@_1DI@FIJLFHDF@?$AAt?$AAs?$AAx?$AA?9?$AA?$DO?$AAr?$AAo?$AAl?$AAe?$AA?5?$AA?$DN?$AA?$DN?$AA?5?$AAP?$AAJ?$AAS?$AAI?$AAP?$AA_?$AAU?$AAA?$AAC?$AA_?$AAR?$AAO?$AAL?$AAE?$AA?$AA@ 005782ec     pjsip-ua-i386-win32-vc8-debug:sip_inv.obj
 0003:00002330       ??_C@_1CI@PIODLIDM@?$AA?$CB?$AA?$CC?$AAU?$AAn?$AAe?$AAx?$AAp?$AAe?$AAc?$AAt?$AAe?$AAd?$AA?5?$AAs?$AAt?$AAa?$AAt?$AAe?$AA?$CC?$AA?$AA@ 00578330     pjsip-ua-i386-win32-vc8-debug:sip_inv.obj
 0003:00002360       ??_C@_0BB@MBJACEGJ@Unexpected?5state?$AA@ 00578360     pjsip-ua-i386-win32-vc8-debug:sip_inv.obj
 0003:00002378       ??_C@_1GK@CLEDBDLA@?$AAi?$AAn?$AAv?$AA?9?$AA?$DO?$AAi?$AAn?$AAv?$AAi?$AAt?$AAe?$AA_?$AAt?$AAs?$AAx?$AA?$DN?$AA?$DN?$AA?$CI?$AA?$CI?$AAv?$AAo?$AAi?$AAd?$AA?5?$AA?$CK?$AA?$CJ?$AA0?$AA?$CJ?$AA?5?$AA?$HM?$AA?$HM?$AA?5@ 00578378     pjsip-ua-i386-win32-vc8-debug:sip_inv.obj
 0003:000023f8       ??_C@_0BH@GJLJMANH@SDP?5negotiation?5failed?$AA@ 005783f8     pjsip-ua-i386-win32-vc8-debug:sip_inv.obj
 0003:00002414       ??_C@_0CH@BBKLGGDE@Another?5INVITE?5transaction?5in?5pr@ 00578414     pjsip-ua-i386-win32-vc8-debug:sip_inv.obj
 0003:00002444       ??_C@_0L@KBAFDJEE@mod?9100rel?$AA@ 00578444     pjsip-ua-i386-win32-vc8-debug:sip_100rel.obj
 0003:00002454       ??_C@_04JEDOGMAE@RAck?$AA@ 00578454     pjsip-ua-i386-win32-vc8-debug:sip_100rel.obj
 0003:0000245c       ??_C@_04NKIOHFHJ@RSeq?$AA@ 0057845c     pjsip-ua-i386-win32-vc8-debug:sip_100rel.obj
 0003:00002464       ??_C@_05ECJJFAAP@PRACK?$AA@ 00578464     pjsip-ua-i386-win32-vc8-debug:sip_100rel.obj
 0003:0000246c       _pjsip_prack_method        0057846c     pjsip-ua-i386-win32-vc8-debug:sip_100rel.obj
 0003:00002478       _tag_100rel                00578478     pjsip-ua-i386-win32-vc8-debug:sip_100rel.obj
 0003:00002480       _RSEQ                      00578480     pjsip-ua-i386-win32-vc8-debug:sip_100rel.obj
 0003:00002488       _RACK                      00578488     pjsip-ua-i386-win32-vc8-debug:sip_100rel.obj
 0003:00002498       ??_C@_0BH@ONPFCEOK@100rel?5module?5attached?$AA@ 00578498     pjsip-ua-i386-win32-vc8-debug:sip_100rel.obj
 0003:000024b4       ??_C@_1CO@GFBPPKIH@?$AAm?$AAo?$AAd?$AA_?$AA1?$AA0?$AA0?$AAr?$AAe?$AAl?$AA?4?$AAm?$AAo?$AAd?$AA?4?$AAi?$AAd?$AA?5?$AA?$DO?$AA?$DN?$AA?5?$AA0?$AA?$AA@ 005784b4     pjsip-ua-i386-win32-vc8-debug:sip_100rel.obj
 0003:000024f0       ??_C@_1GO@EKGMMHJJ@?$AAd?$AA?3?$AA?2?$AAm?$AAy?$AAg?$AAi?$AAt?$AA?2?$AAp?$AAj?$AAp?$AAr?$AAo?$AAj?$AAe?$AAc?$AAt?$AA?9?$AA1?$AA?4?$AA4?$AA?2?$AAp?$AAj?$AAs?$AAi?$AAp?$AA?2?$AAs?$AAr?$AAc@ 005784f0     pjsip-ua-i386-win32-vc8-debug:sip_100rel.obj
 0003:00002578       ??_C@_1EA@HNPHDELL@?$AAm?$AAs?$AAg?$AA?9?$AA?$DO?$AAt?$AAy?$AAp?$AAe?$AA?5?$AA?$DN?$AA?$DN?$AA?5?$AAP?$AAJ?$AAS?$AAI?$AAP?$AA_?$AAR?$AAE?$AAS?$AAP?$AAO?$AAN?$AAS?$AAE?$AA_?$AAM?$AAS?$AAG?$AA?$AA@ 00578578     pjsip-ua-i386-win32-vc8-debug:sip_100rel.obj
 0003:000025c4       ??_C@_0L@IBEMKGAL@?$CFu?5?$CFu?5?$CF?4?$CKs?$AA@ 005785c4     pjsip-ua-i386-win32-vc8-debug:sip_100rel.obj
 0003:000025d8       ??_C@_0EH@OABOPOME@Ignoring?5provisional?5response?5be@ 005785d8     pjsip-ua-i386-win32-vc8-debug:sip_100rel.obj
 0003:00002630       ??_C@_0DC@LAOBNLHD@Ignoring?5provisional?5response?5wi@ 00578630     pjsip-ua-i386-win32-vc8-debug:sip_100rel.obj
 0003:00002670       ??_C@_1BAG@DPLLFNLE@?$AAt?$AAs?$AAx?$AA?9?$AA?$DO?$AAr?$AAo?$AAl?$AAe?$AA?5?$AA?$DN?$AA?$DN?$AA?5?$AAP?$AAJ?$AAS?$AAI?$AAP?$AA_?$AAR?$AAO?$AAL?$AAE?$AA_?$AAU?$AAA?$AAC?$AA?5?$AA?$CG?$AA?$CG?$AA?5?$AAt@ 00578670     pjsip-ua-i386-win32-vc8-debug:sip_100rel.obj
 0003:000027ac       ??_C@_1CE@MOGMKPAG@?$AAd?$AAd?$AA?5?$AA?$CB?$AA?$DN?$AA?5?$AA?$CI?$AA?$CI?$AAv?$AAo?$AAi?$AAd?$AA?5?$AA?$CK?$AA?$CJ?$AA0?$AA?$CJ?$AA?$AA@ 005787ac     pjsip-ua-i386-win32-vc8-debug:sip_100rel.obj
 0003:000027d8       ??_C@_1FI@OEODKMCI@?$AAp?$AAj?$AA_?$AAl?$AAi?$AAs?$AAt?$AA_?$AAe?$AAm?$AAp?$AAt?$AAy?$AA?$CI?$AA?$CG?$AAd?$AAd?$AA?9?$AA?$DO?$AAu?$AAa?$AAs?$AA_?$AAs?$AAt?$AAa?$AAt?$AAe?$AA?9?$AA?$DO?$AAt?$AAx@ 005787d8     pjsip-ua-i386-win32-vc8-debug:sip_100rel.obj
 0003:00002848       ??_C@_1EI@KJPPCBLJ@?$AA?$CB?$AAd?$AAd?$AA?9?$AA?$DO?$AAu?$AAa?$AAs?$AA_?$AAs?$AAt?$AAa?$AAt?$AAe?$AA?9?$AA?$DO?$AAr?$AAe?$AAt?$AAr?$AAa?$AAn?$AAs?$AAm?$AAi?$AAt?$AA_?$AAt?$AAi?$AAm?$AAe?$AAr@ 00578848     pjsip-ua-i386-win32-vc8-debug:sip_100rel.obj
 0003:000028a0       ??_C@_0CM@DOMMHELC@Rx?5PRACK?5with?5no?5matching?5reliab@ 005788a0     pjsip-ua-i386-win32-vc8-debug:sip_100rel.obj
 0003:000028d4       ??_C@_0P@BPOGJPKH@No?5RAck?5header?$AA@ 005788d4     pjsip-ua-i386-win32-vc8-debug:sip_100rel.obj
 0003:000028e8       ??_C@_0CE@PLNFEICH@PRACK?5ignored?5?9?5no?5pending?5respo@ 005788e8     pjsip-ua-i386-win32-vc8-debug:sip_100rel.obj
 0003:00002914       ??_C@_0BB@IEDINMFC@Unexpected?5PRACK?$AA@ 00578914     pjsip-ua-i386-win32-vc8-debug:sip_100rel.obj
 0003:00002928       ??_C@_1CG@CMEADMBF@?$AAt?$AAs?$AAx?$AA?5?$AA?$CB?$AA?$DN?$AA?5?$AA?$CI?$AA?$CI?$AAv?$AAo?$AAi?$AAd?$AA?5?$AA?$CK?$AA?$CJ?$AA0?$AA?$CJ?$AA?$AA@ 00578928     pjsip-ua-i386-win32-vc8-debug:sip_100rel.obj
 0003:00002958       ??_C@_1FK@JBJPEPJI@?$AA?$CB?$AAp?$AAj?$AA_?$AAl?$AAi?$AAs?$AAt?$AA_?$AAe?$AAm?$AAp?$AAt?$AAy?$AA?$CI?$AA?$CG?$AAd?$AAd?$AA?9?$AA?$DO?$AAu?$AAa?$AAs?$AA_?$AAs?$AAt?$AAa?$AAt?$AAe?$AA?9?$AA?$DO?$AAt@ 00578958     pjsip-ua-i386-win32-vc8-debug:sip_100rel.obj
 0003:000029c4       ??_C@_0BM@HPALGIGM@Reliable?5response?5timed?5out?$AA@ 005789c4     pjsip-ua-i386-win32-vc8-debug:sip_100rel.obj
 0003:000029e8       ??_C@_0CL@JLPOAJFO@Reliable?5?$CFd?5response?5enqueued?5?$CI?$CF@ 005789e8     pjsip-ua-i386-win32-vc8-debug:sip_100rel.obj
 0003:00002a1c       ??_C@_02GMHACPFF@?$CFu?$AA@ 00578a1c     pjsip-ua-i386-win32-vc8-debug:sip_100rel.obj
 0003:00002a20       ??_C@_1EM@CPJEFMIN@?$AAc?$AAs?$AAe?$AAq?$AA_?$AAh?$AAd?$AAr?$AA?9?$AA?$DO?$AAc?$AAs?$AAe?$AAq?$AA?5?$AA?$DN?$AA?$DN?$AA?5?$AAd?$AAd?$AA?9?$AA?$DO?$AAu?$AAa?$AAs?$AA_?$AAs?$AAt?$AAa?$AAt?$AAe?$AA?9@ 00578a20     pjsip-ua-i386-win32-vc8-debug:sip_100rel.obj
 0003:00002a7c       ??_C@_0CE@BEBCMEH@No?5SDP?5sent?5so?5far?0?5sending?52xx?5@ 00578a7c     pjsip-ua-i386-win32-vc8-debug:sip_100rel.obj
 0003:00002aa8       ??_C@_0CG@JIMKEDOL@2xx?5response?5will?5be?5sent?5after?5@ 00578aa8     pjsip-ua-i386-win32-vc8-debug:sip_100rel.obj
 0003:00002ad8       ??_C@_1FG@CPHIALLB@?$AAc?$AAs?$AAe?$AAq?$AA_?$AAh?$AAd?$AAr?$AA?9?$AA?$DO?$AAm?$AAe?$AAt?$AAh?$AAo?$AAd?$AA?4?$AAi?$AAd?$AA?5?$AA?$DN?$AA?$DN?$AA?5?$AAP?$AAJ?$AAS?$AAI?$AAP?$AA_?$AAI?$AAN?$AAV@ 00578ad8     pjsip-ua-i386-win32-vc8-debug:sip_100rel.obj
 0003:00002b40       ??_C@_1DA@KBFAOJJC@?$AAc?$AAs?$AAe?$AAq?$AA_?$AAh?$AAd?$AAr?$AA?5?$AA?$CB?$AA?$DN?$AA?5?$AA?$CI?$AA?$CI?$AAv?$AAo?$AAi?$AAd?$AA?5?$AA?$CK?$AA?$CJ?$AA0?$AA?$CJ?$AA?$AA@ 00578b40     pjsip-ua-i386-win32-vc8-debug:sip_100rel.obj
 0003:00002b80       ??_C@_1EO@KDLDBGFC@?$AAt?$AAd?$AAa?$AAt?$AAa?$AA?9?$AA?$DO?$AAm?$AAs?$AAg?$AA?9?$AA?$DO?$AAt?$AAy?$AAp?$AAe?$AA?5?$AA?$DN?$AA?$DN?$AA?5?$AAP?$AAJ?$AAS?$AAI?$AAP?$AA_?$AAR?$AAE?$AAS?$AAP?$AAO?$AAN@ 00578b80     pjsip-ua-i386-win32-vc8-debug:sip_100rel.obj
 0003:00002be0       ??_C@_0BN@GEBHFEMC@Reliable?5response?5?$CFs?5created?$AA@ 00578be0     pjsip-ua-i386-win32-vc8-debug:sip_100rel.obj
 0003:00002c04       ??_C@_03MPFNPLGP@uas?$AA@  00578c04     pjsip-ua-i386-win32-vc8-debug:sip_timer.obj
 0003:00002c08       ??_C@_03IFJPOJDO@uac?$AA@  00578c08     pjsip-ua-i386-win32-vc8-debug:sip_timer.obj
 0003:00002c0c       ??_C@_09NOICKHFM@refresher?$AA@ 00578c0c     pjsip-ua-i386-win32-vc8-debug:sip_timer.obj
 0003:00002c18       ??_C@_06PPBKPPMM@Min?9SE?$AA@ 00578c18     pjsip-ua-i386-win32-vc8-debug:sip_timer.obj
 0003:00002c20       ??_C@_01FJMABOPO@x?$AA@    00578c20     pjsip-ua-i386-win32-vc8-debug:sip_timer.obj
 0003:00002c24       ??_C@_0BA@HCNJNBAB@Session?9Expires?$AA@ 00578c24     pjsip-ua-i386-win32-vc8-debug:sip_timer.obj
 0003:00002c70       _pjsip_update_method       00578c70     pjsip-ua-i386-win32-vc8-debug:sip_timer.obj
 0003:00002c8c       ??_C@_0M@MJHMIAGK@sip_timer?4c?$AA@ 00578c8c     pjsip-ua-i386-win32-vc8-debug:sip_timer.obj
 0003:00002ca0       ??_C@_1FI@ILAKGBLO@?$AA?$CB?$AA?$CC?$AAF?$AAa?$AAi?$AAl?$AAe?$AAd?$AA?5?$AAt?$AAo?$AA?5?$AAr?$AAe?$AAg?$AAi?$AAs?$AAt?$AAe?$AAr?$AA?5?$AAS?$AAe?$AAs?$AAs?$AAi?$AAo?$AAn?$AA?5?$AAT?$AAi?$AAm@ 00578ca0     pjsip-ua-i386-win32-vc8-debug:sip_timer.obj
 0003:00002d0c       ??_C@_0CJ@JCEACFK@Failed?5to?5register?5Session?5Timer@ 00578d0c     pjsip-ua-i386-win32-vc8-debug:sip_timer.obj
 0003:00002d40       ??_C@_1M@EACLICAA@?$AAe?$AAn?$AAd?$AAp?$AAt?$AA?$AA@ 00578d40     pjsip-ua-i386-win32-vc8-debug:sip_timer.obj
 0003:00002d50       ??_C@_1GM@KNDOLPGL@?$AAd?$AA?3?$AA?2?$AAm?$AAy?$AAg?$AAi?$AAt?$AA?2?$AAp?$AAj?$AAp?$AAr?$AAo?$AAj?$AAe?$AAc?$AAt?$AA?9?$AA1?$AA?4?$AA4?$AA?2?$AAp?$AAj?$AAs?$AAi?$AAp?$AA?2?$AAs?$AAr?$AAc@ 00578d50     pjsip-ua-i386-win32-vc8-debug:sip_timer.obj
 0003:00002dd8       ??_C@_1FC@PFINMCFP@?$AAs?$AAe?$AAt?$AAt?$AAi?$AAn?$AAg?$AA?9?$AA?$DO?$AAs?$AAe?$AAs?$AAs?$AA_?$AAe?$AAx?$AAp?$AAi?$AAr?$AAe?$AAs?$AA?5?$AA?$DO?$AA?$DN?$AA?5?$AAs?$AAe?$AAt?$AAt?$AAi?$AAn?$AAg@ 00578dd8     pjsip-ua-i386-win32-vc8-debug:sip_timer.obj
 0003:00002e3c       ??_C@_1CM@NJFBGLBB@?$AAs?$AAe?$AAt?$AAt?$AAi?$AAn?$AAg?$AA?9?$AA?$DO?$AAm?$AAi?$AAn?$AA_?$AAs?$AAe?$AA?5?$AA?$DO?$AA?$DN?$AA?5?$AA9?$AA0?$AA?$AA@ 00578e3c     pjsip-ua-i386-win32-vc8-debug:sip_timer.obj
 0003:00002e70       ??_C@_1BO@JAEBLEHN@?$AAi?$AAs?$AA_?$AAi?$AAn?$AAi?$AAt?$AAi?$AAa?$AAl?$AAi?$AAz?$AAe?$AAd?$AA?$AA@ 00578e70     pjsip-ua-i386-win32-vc8-debug:sip_timer.obj
 0003:00002e98       ??_C@_0IG@FLJLCDDH@Peer?5responds?5with?5bad?5Session?9E@ 00578e98     pjsip-ua-i386-win32-vc8-debug:sip_timer.obj
 0003:00002f38       ??_C@_17FMIDHGHF@?$AAv?$AAi?$AAa?$AA?$AA@ 00578f38     pjsip-ua-i386-win32-vc8-debug:sip_timer.obj
 0003:00002f44       ??_C@_1BG@OMODNANJ@?$AAi?$AAn?$AAv?$AA?9?$AA?$DO?$AAt?$AAi?$AAm?$AAe?$AAr?$AA?$AA@ 00578f44     pjsip-ua-i386-win32-vc8-debug:sip_timer.obj
 0003:00002f60       ??_C@_1BK@FFNMCMJK@?$AAi?$AAn?$AAv?$AA?5?$AA?$CG?$AA?$CG?$AA?5?$AAr?$AAd?$AAa?$AAt?$AAa?$AA?$AA@ 00578f60     pjsip-ua-i386-win32-vc8-debug:sip_timer.obj
 0003:00002f80       ??_C@_0BK@JNGKHHHE@Error?5in?5?$CFs?5session?5timer?$AA@ 00578f80     pjsip-ua-i386-win32-vc8-debug:sip_timer.obj
 0003:00002fa0       ??_C@_0M@CIHJDPCM@terminating?$AA@ 00578fa0     pjsip-ua-i386-win32-vc8-debug:sip_timer.obj
 0003:00002fb0       ??_C@_0L@BHFFIHLE@refreshing?$AA@ 00578fb0     pjsip-ua-i386-win32-vc8-debug:sip_timer.obj
 0003:00002fc0       ??_C@_0FF@LIFHMPFB@No?5session?5refresh?5received?5afte@ 00578fc0     pjsip-ua-i386-win32-vc8-debug:sip_timer.obj
 0003:00003028       ??_C@_0DF@MFNPLMLE@Refreshing?5session?5after?5?$CFds?5?$CIex@ 00579028     pjsip-ua-i386-win32-vc8-debug:sip_timer.obj
 0003:00003068       ??_C@_1IE@OMKPDGNF@?$AAp?$AAj?$AAm?$AAe?$AAd?$AAi?$AAa?$AA_?$AAs?$AAd?$AAp?$AA_?$AAn?$AAe?$AAg?$AA_?$AAg?$AAe?$AAt?$AA_?$AAs?$AAt?$AAa?$AAt?$AAe?$AA?$CI?$AAi?$AAn?$AAv?$AA?9?$AA?$DO?$AAn@ 00579068     pjsip-ua-i386-win32-vc8-debug:sip_timer.obj
 0003:00003108       ??_C@_1DA@JOLPBOKB@?$AAi?$AAn?$AAv?$AA?9?$AA?$DO?$AAt?$AAi?$AAm?$AAe?$AAr?$AA?9?$AA?$DO?$AAa?$AAc?$AAt?$AAi?$AAv?$AAe?$AA?5?$AA?$DN?$AA?$DN?$AA?5?$AA1?$AA?$AA@ 00579108     pjsip-ua-i386-win32-vc8-debug:sip_timer.obj
 0003:00003144       ??_C@_1DO@INEDJOPJ@?$AAm?$AAs?$AAg?$AA?9?$AA?$DO?$AAt?$AAy?$AAp?$AAe?$AA?5?$AA?$DN?$AA?$DN?$AA?5?$AAP?$AAJ?$AAS?$AAI?$AAP?$AA_?$AAR?$AAE?$AAQ?$AAU?$AAE?$AAS?$AAT?$AA_?$AAM?$AAS?$AAG?$AA?$AA@ 00579144     pjsip-ua-i386-win32-vc8-debug:sip_timer.obj
 0003:00003190       ??_C@_05CGDPOPDB@plain?$AA@ 00579190     pjsip-core-i386-win32-vc8-debug:sip_util.obj
 0003:00003198       ??_C@_04CIMGMMMG@text?$AA@ 00579198     pjsip-core-i386-win32-vc8-debug:sip_util.obj
 0003:000031a0       ??_C@_04OOEKJIOI@USER?$AA@ 005791a0     pjsip-core-i386-win32-vc8-debug:sip_util.obj
 0003:000031a8       ??_C@_09DGJBKMAD@TSX_STATE?$AA@ 005791a8     pjsip-core-i386-win32-vc8-debug:sip_util.obj
 0003:000031b4       ??_C@_0BA@DJFINPGH@TRANSPORT_ERROR?$AA@ 005791b4     pjsip-core-i386-win32-vc8-debug:sip_util.obj
 0003:000031c8       ??_C@_06DEPLMDFE@RX_MSG?$AA@ 005791c8     pjsip-core-i386-win32-vc8-debug:sip_util.obj
 0003:000031d0       ??_C@_06FHCLPGGO@TX_MSG?$AA@ 005791d0     pjsip-core-i386-win32-vc8-debug:sip_util.obj
 0003:000031d8       ??_C@_05BLGDNOJI@TIMER?$AA@ 005791d8     pjsip-core-i386-win32-vc8-debug:sip_util.obj
 0003:000031e0       ??_C@_0N@IDBMKGKC@UNIDENTIFIED?$AA@ 005791e0     pjsip-core-i386-win32-vc8-debug:sip_util.obj
 0003:000031f0       ??_C@_1CI@HKFMDIPD@?$AAt?$AAs?$AAe?$AAt?$AA?5?$AA?$CG?$AA?$CG?$AA?5?$AAp?$AAo?$AAo?$AAl?$AA?5?$AA?$CG?$AA?$CG?$AA?5?$AAu?$AAr?$AAi?$AA?$AA@ 005791f0     pjsip-core-i386-win32-vc8-debug:sip_util.obj
 0003:00003220       ??_C@_1GE@KFKBOCBM@?$AAd?$AA?3?$AA?2?$AAm?$AAy?$AAg?$AAi?$AAt?$AA?2?$AAp?$AAj?$AAp?$AAr?$AAo?$AAj?$AAe?$AAc?$AAt?$AA?9?$AA1?$AA?4?$AA4?$AA?2?$AAp?$AAj?$AAs?$AAi?$AAp?$AA?2?$AAs?$AAr?$AAc@ 00579220     pjsip-core-i386-win32-vc8-debug:sip_util.obj
 0003:00003298       ??_C@_1CI@POIBLGPL@?$AAt?$AAs?$AAe?$AAt?$AA?5?$AA?$CG?$AA?$CG?$AA?5?$AAp?$AAo?$AAo?$AAl?$AA?5?$AA?$CG?$AA?$CG?$AA?5?$AAm?$AAs?$AAg?$AA?$AA@ 00579298     pjsip-core-i386-win32-vc8-debug:sip_util.obj
 0003:000032c8       ??_C@_1FO@EDPIABID@?$AAp?$AAj?$AA_?$AAl?$AAi?$AAs?$AAt?$AA_?$AAf?$AAi?$AAn?$AAd?$AA_?$AAn?$AAo?$AAd?$AAe?$AA?$CI?$AAt?$AAs?$AAe?$AAt?$AA?0?$AA?5?$AAt?$AAa?$AAr?$AAg?$AAe?$AAt?$AA?$CJ?$AA?5@ 005792c8     pjsip-core-i386-win32-vc8-debug:sip_util.obj
 0003:00003338       ??_C@_1BO@LKKKGIN@?$AAt?$AAs?$AAe?$AAt?$AA?5?$AA?$CG?$AA?$CG?$AA?5?$AAt?$AAa?$AAr?$AAg?$AAe?$AAt?$AA?$AA@ 00579338     pjsip-core-i386-win32-vc8-debug:sip_util.obj
 0003:00003360       ??_C@_1FA@NPKACEOK@?$AAt?$AAa?$AAr?$AAg?$AAe?$AAt?$AA?5?$AA?$CG?$AA?$CG?$AA?5?$AAp?$AAo?$AAo?$AAl?$AA?5?$AA?$CG?$AA?$CG?$AA?5?$AAs?$AAt?$AAa?$AAt?$AAu?$AAs?$AA_?$AAc?$AAo?$AAd?$AAe?$AA?5?$AA?$CG?$AA?$CG@ 00579360     pjsip-core-i386-win32-vc8-debug:sip_util.obj
 0003:000033c0       ??_C@_08OKOOPKMJ@endpoint?$AA@ 005793c0     pjsip-core-i386-win32-vc8-debug:sip_util.obj
 0003:000033cc       ??_C@_0M@PJOLBNIF@?$CFs?5created?4?$AA@ 005793cc     pjsip-core-i386-win32-vc8-debug:sip_util.obj
 0003:000033e0       ??_C@_1IK@ICLIJJGE@?$AAe?$AAn?$AAd?$AAp?$AAt?$AA?5?$AA?$CG?$AA?$CG?$AA?5?$AAm?$AAe?$AAt?$AAh?$AAo?$AAd?$AA?5?$AA?$CG?$AA?$CG?$AA?5?$AAp?$AAa?$AAr?$AAa?$AAm?$AA_?$AAt?$AAa?$AAr?$AAg?$AAe?$AAt?$AA?5@ 005793e0     pjsip-core-i386-win32-vc8-debug:sip_util.obj
 0003:00003488       ??_C@_0L@IOBEOHFD@?$CFs?5created?$AA@ 00579488     pjsip-core-i386-win32-vc8-debug:sip_util.obj
 0003:00003498       ??_C@_1GA@JMEMIMKF@?$AAr?$AAe?$AAq?$AA_?$AAm?$AAs?$AAg?$AA?9?$AA?$DO?$AAl?$AAi?$AAn?$AAe?$AA?4?$AAr?$AAe?$AAq?$AA?4?$AAm?$AAe?$AAt?$AAh?$AAo?$AAd?$AA?4?$AAi?$AAd?$AA?5?$AA?$CB?$AA?$DN?$AA?5?$AAP@ 00579498     pjsip-core-i386-win32-vc8-debug:sip_util.obj
 0003:00003510       ??_C@_1EG@OHLFPFNN@?$AAr?$AAe?$AAq?$AA_?$AAm?$AAs?$AAg?$AA?9?$AA?$DO?$AAt?$AAy?$AAp?$AAe?$AA?5?$AA?$DN?$AA?$DN?$AA?5?$AAP?$AAJ?$AAS?$AAI?$AAP?$AA_?$AAR?$AAE?$AAQ?$AAU?$AAE?$AAS?$AAT?$AA_?$AAM@ 00579510     pjsip-core-i386-win32-vc8-debug:sip_util.obj
 0003:00003568       ??_C@_1EC@MNMNJBHH@?$AAs?$AAt?$AA_?$AAc?$AAo?$AAd?$AAe?$AA?5?$AA?$DO?$AA?$DN?$AA?5?$AA1?$AA0?$AA0?$AA?5?$AA?$CG?$AA?$CG?$AA?5?$AAs?$AAt?$AA_?$AAc?$AAo?$AAd?$AAe?$AA?5?$AA?$DM?$AA?$DN?$AA?5?$AA6?$AA9?$AA9@ 00579568     pjsip-core-i386-win32-vc8-debug:sip_util.obj
 0003:000035b8       ??_C@_1DE@IINODGEM@?$AAe?$AAn?$AAd?$AAp?$AAt?$AA?5?$AA?$CG?$AA?$CG?$AA?5?$AAr?$AAd?$AAa?$AAt?$AAa?$AA?5?$AA?$CG?$AA?$CG?$AA?5?$AAp?$AA_?$AAt?$AAd?$AAa?$AAt?$AAa?$AA?$AA@ 005795b8     pjsip-core-i386-win32-vc8-debug:sip_util.obj
 0003:000035f8       ??_C@_1CM@GOJPLHLH@?$AAt?$AAo?$AA_?$AAh?$AAd?$AAr?$AA?5?$AA?$CB?$AA?$DN?$AA?5?$AA?$CI?$AA?$CI?$AAv?$AAo?$AAi?$AAd?$AA?5?$AA?$CK?$AA?$CJ?$AA0?$AA?$CJ?$AA?$AA@ 005795f8     pjsip-core-i386-win32-vc8-debug:sip_util.obj
 0003:0000362c       ??_C@_1DA@DIFHNMJK@?$AAf?$AAr?$AAo?$AAm?$AA_?$AAh?$AAd?$AAr?$AA?5?$AA?$CB?$AA?$DN?$AA?5?$AA?$CI?$AA?$CI?$AAv?$AAo?$AAi?$AAd?$AA?5?$AA?$CK?$AA?$CJ?$AA0?$AA?$CJ?$AA?$AA@ 0057962c     pjsip-core-i386-win32-vc8-debug:sip_util.obj
 0003:00003668       ??_C@_1LM@BLCEOEIP@?$AAr?$AAd?$AAa?$AAt?$AAa?$AA?9?$AA?$DO?$AAm?$AAs?$AAg?$AA_?$AAi?$AAn?$AAf?$AAo?$AA?4?$AAm?$AAs?$AAg?$AA?9?$AA?$DO?$AAt?$AAy?$AAp?$AAe?$AA?$DN?$AA?$DN?$AAP?$AAJ?$AAS?$AAI?$AAP@ 00579668     pjsip-core-i386-win32-vc8-debug:sip_util.obj
 0003:00003750       ??_C@_1MO@LJCCFAB@?$AAr?$AAe?$AAq?$AA_?$AAt?$AAd?$AAa?$AAt?$AAa?$AA?9?$AA?$DO?$AAm?$AAs?$AAg?$AA?9?$AA?$DO?$AAt?$AAy?$AAp?$AAe?$AA?5?$AA?$DN?$AA?$DN?$AA?5?$AAP?$AAJ?$AAS?$AAI?$AAP?$AA_?$AAR?$AAE@ 00579750     pjsip-core-i386-win32-vc8-debug:sip_util.obj
 0003:00003848       ??_C@_1DC@HHMAIHFO@?$AAd?$AAe?$AAs?$AAt?$AA_?$AAi?$AAn?$AAf?$AAo?$AA?5?$AA?$CB?$AA?$DN?$AA?5?$AA?$CI?$AA?$CI?$AAv?$AAo?$AAi?$AAd?$AA?5?$AA?$CK?$AA?$CJ?$AA0?$AA?$CJ?$AA?$AA@ 00579848     pjsip-core-i386-win32-vc8-debug:sip_util.obj
 0003:00003888       ??_C@_1EM@DOAFADCA@?$AAt?$AAd?$AAa?$AAt?$AAa?$AA?9?$AA?$DO?$AAm?$AAs?$AAg?$AA?9?$AA?$DO?$AAt?$AAy?$AAp?$AAe?$AA?5?$AA?$DN?$AA?$DN?$AA?5?$AAP?$AAJ?$AAS?$AAI?$AAP?$AA_?$AAR?$AAE?$AAQ?$AAU?$AAE?$AAS@ 00579888     pjsip-core-i386-win32-vc8-debug:sip_util.obj
 0003:000038e4       ??_C@_1DG@JDJKAACP@?$AA?$CB?$AA?$CC?$AAU?$AAn?$AAs?$AAu?$AAp?$AAp?$AAo?$AAr?$AAt?$AAe?$AAd?$AA?5?$AAU?$AAR?$AAI?$AA?5?$AAs?$AAc?$AAh?$AAe?$AAm?$AAe?$AA?$CB?$AA?$CC?$AA?$AA@ 005798e4     pjsip-core-i386-win32-vc8-debug:sip_util.obj
 0003:00003924       ??_C@_0BI@HIPICCEK@Unsupported?5URI?5scheme?$CB?$AA@ 00579924     pjsip-core-i386-win32-vc8-debug:sip_util.obj
 0003:00003940       ??_C@_1EO@HBGKJAKM@?$AAt?$AAd?$AAa?$AAt?$AAa?$AA?9?$AA?$DO?$AAs?$AAa?$AAv?$AAe?$AAd?$AA_?$AAs?$AAt?$AAr?$AAi?$AAc?$AAt?$AA_?$AAr?$AAo?$AAu?$AAt?$AAe?$AA?$DN?$AA?$DN?$AA?$CI?$AA?$CI?$AAv?$AAo?$AAi@ 00579940     pjsip-core-i386-win32-vc8-debug:sip_util.obj
 0003:000039a0       ??_C@_1DO@CDPMFNOH@?$AA?$CB?$AA?$CC?$AAM?$AAe?$AAs?$AAs?$AAa?$AAg?$AAe?$AA?5?$AAr?$AAo?$AAu?$AAt?$AAe?$AA?5?$AAw?$AAa?$AAs?$AA?5?$AAm?$AAo?$AAd?$AAi?$AAf?$AAi?$AAe?$AAd?$AA?$DP?$AA?$CC?$AA?$AA@ 005799a0     pjsip-core-i386-win32-vc8-debug:sip_util.obj
 0003:000039ec       ??_C@_0BM@CDDIENAL@Message?5route?5was?5modified?$DP?$AA@ 005799ec     pjsip-core-i386-win32-vc8-debug:sip_util.obj
 0003:00003a10       ??_C@_0DO@JCGKHENM@?$CFs?3?5skipping?5target?5resolution?5b@ 00579a10     pjsip-core-i386-win32-vc8-debug:sip_util.obj
 0003:00003a5c       ??_C@_1BO@NJILCPHI@?$AAe?$AAn?$AAd?$AAp?$AAt?$AA?5?$AA?$CG?$AA?$CG?$AA?5?$AAt?$AAd?$AAa?$AAt?$AAa?$AA?$AA@ 00579a5c     pjsip-core-i386-win32-vc8-debug:sip_util.obj
 0003:00003a80       ??_C@_0DF@HEHPNNHP@?$CFs?5exceeds?5UDP?5size?5threshold?5?$CI?$CF@ 00579a80     pjsip-core-i386-win32-vc8-debug:sip_util.obj
 0003:00003ac0       ??_C@_1EC@PLNFGKCO@?$AAt?$AAd?$AAa?$AAt?$AAa?$AA?9?$AA?$DO?$AAd?$AAe?$AAs?$AAt?$AA_?$AAi?$AAn?$AAf?$AAo?$AA?4?$AAa?$AAd?$AAd?$AAr?$AA?4?$AAc?$AAo?$AAu?$AAn?$AAt?$AA?5?$AA?$CB?$AA?$DN?$AA?5?$AA0@ 00579ac0     pjsip-core-i386-win32-vc8-debug:sip_util.obj
 0003:00003b10       ??_C@_07LDFFKCFH@z9hG4bK?$AA@ 00579b10     pjsip-core-i386-win32-vc8-debug:sip_util.obj
 0003:00003b1c       ??_C@_1DC@MBKIMGNC@?$AA?$CB?$AA?$CC?$AAV?$AAi?$AAa?$AA?5?$AAh?$AAe?$AAa?$AAd?$AAe?$AAr?$AA?5?$AAn?$AAo?$AAt?$AA?5?$AAf?$AAo?$AAu?$AAn?$AAd?$AA?$CB?$AA?$CC?$AA?$AA@ 00579b1c     pjsip-core-i386-win32-vc8-debug:sip_util.obj
 0003:00003b58       ??_C@_0BG@FPBMHPCA@Via?5header?5not?5found?$CB?$AA@ 00579b58     pjsip-core-i386-win32-vc8-debug:sip_util.obj
 0003:00003b74       ??_C@_1DO@JEKLALDB@?$AAt?$AAd?$AAa?$AAt?$AAa?$AA?5?$AA?$DN?$AA?$DN?$AA?5?$AAs?$AAt?$AAa?$AAt?$AAe?$AAl?$AAe?$AAs?$AAs?$AA_?$AAd?$AAa?$AAt?$AAa?$AA?9?$AA?$DO?$AAt?$AAd?$AAa?$AAt?$AAa?$AA?$AA@ 00579b74     pjsip-core-i386-win32-vc8-debug:sip_util.obj
 0003:00003bc0       ??_C@_1CC@HIDCECHH@?$AAa?$AAd?$AAd?$AAr?$AA?9?$AA?$DO?$AAc?$AAo?$AAu?$AAn?$AAt?$AA?5?$AA?$CB?$AA?$DN?$AA?5?$AA0?$AA?$AA@ 00579bc0     pjsip-core-i386-win32-vc8-debug:sip_util.obj
 0003:00003be8       ??_C@_1FG@CEKNLJLE@?$AAr?$AAd?$AAa?$AAt?$AAa?$AA?9?$AA?$DO?$AAm?$AAs?$AAg?$AA_?$AAi?$AAn?$AAf?$AAo?$AA?4?$AAv?$AAi?$AAa?$AA?9?$AA?$DO?$AAr?$AAe?$AAc?$AAv?$AAd?$AA_?$AAp?$AAa?$AAr?$AAa?$AAm@ 00579be8     pjsip-core-i386-win32-vc8-debug:sip_util.obj
 0003:00003c50       ??_C@_1FO@LCFELEGO@?$AAr?$AAd?$AAa?$AAt?$AAa?$AA?9?$AA?$DO?$AAm?$AAs?$AAg?$AA_?$AAi?$AAn?$AAf?$AAo?$AA?4?$AAm?$AAs?$AAg?$AA?9?$AA?$DO?$AAt?$AAy?$AAp?$AAe?$AA?5?$AA?$DN?$AA?$DN?$AA?5?$AAP?$AAJ?$AAS@ 00579c50     pjsip-core-i386-win32-vc8-debug:sip_util.obj
 0003:00003cc0       ??_C@_1DE@DPBHNDLB@?$AAp?$AAo?$AAo?$AAl?$AA?5?$AA?$CG?$AA?$CG?$AA?5?$AAr?$AAd?$AAa?$AAt?$AAa?$AA?5?$AA?$CG?$AA?$CG?$AA?5?$AAr?$AAe?$AAs?$AA_?$AAa?$AAd?$AAd?$AAr?$AA?$AA@ 00579cc0     pjsip-core-i386-win32-vc8-debug:sip_util.obj
 0003:00003d00       ??_C@_1FA@JGJIBFBC@?$AAp?$AAj?$AAs?$AAi?$AAp?$AA_?$AAr?$AAd?$AAa?$AAt?$AAa?$AA_?$AAg?$AAe?$AAt?$AA_?$AAt?$AAs?$AAx?$AA?$CI?$AAr?$AAd?$AAa?$AAt?$AAa?$AA?$CJ?$AA?$DN?$AA?$DN?$AA?$CI?$AA?$CI?$AAv?$AAo@ 00579d00     pjsip-core-i386-win32-vc8-debug:sip_util.obj
 0003:00003d60       ??_C@_1BO@DGLGIKJI@?$AAe?$AAn?$AAd?$AAp?$AAt?$AA?5?$AA?$CG?$AA?$CG?$AA?5?$AAr?$AAd?$AAa?$AAt?$AAa?$AA?$AA@ 00579d60     pjsip-core-i386-win32-vc8-debug:sip_util.obj
 0003:00003d90       ??_C@_06LMEIPPMP@NOTIFY?$AA@ 00579d90     pjsip-core-i386-win32-vc8-debug:sip_dialog.obj
 0003:00003d98       ??_C@_05NPMLFHIF@REFER?$AA@ 00579d98     pjsip-core-i386-win32-vc8-debug:sip_dialog.obj
 0003:00003da0       ??_C@_09NMAFIJHB@SUBSCRIBE?$AA@ 00579da0     pjsip-core-i386-win32-vc8-debug:sip_dialog.obj
 0003:00003dac       ??_C@_0BD@BNDBFEIG@UAC?5dialog?5created?$AA@ 00579dac     pjsip-core-i386-win32-vc8-debug:sip_dialog.obj
 0003:00003dc8       ??_C@_1EO@CANGPLGB@?$AAu?$AAa?$AA?5?$AA?$CG?$AA?$CG?$AA?5?$AAl?$AAo?$AAc?$AAa?$AAl?$AA_?$AAu?$AAr?$AAi?$AA?5?$AA?$CG?$AA?$CG?$AA?5?$AAr?$AAe?$AAm?$AAo?$AAt?$AAe?$AA_?$AAu?$AAr?$AAi?$AA?5?$AA?$CG?$AA?$CG@ 00579dc8     pjsip-core-i386-win32-vc8-debug:sip_dialog.obj
 0003:00003e28       ??_C@_1GI@FNMLOAOB@?$AAd?$AA?3?$AA?2?$AAm?$AAy?$AAg?$AAi?$AAt?$AA?2?$AAp?$AAj?$AAp?$AAr?$AAo?$AAj?$AAe?$AAc?$AAt?$AA?9?$AA1?$AA?4?$AA4?$AA?2?$AAp?$AAj?$AAs?$AAi?$AAp?$AA?2?$AAs?$AAr?$AAc@ 00579e28     pjsip-core-i386-win32-vc8-debug:sip_dialog.obj
 0003:00003ea4       ??_C@_1CG@HBPJBOLD@?$AAd?$AAl?$AAg?$AA?5?$AA?$CB?$AA?$DN?$AA?5?$AA?$CI?$AA?$CI?$AAv?$AAo?$AAi?$AAd?$AA?5?$AA?$CK?$AA?$CJ?$AA0?$AA?$CJ?$AA?$AA@ 00579ea4     pjsip-core-i386-win32-vc8-debug:sip_dialog.obj
 0003:00003ed4       ??_C@_05DGNCLLBL@dlg?$CFp?$AA@ 00579ed4     pjsip-core-i386-win32-vc8-debug:sip_dialog.obj
 0003:00003edc       ??_C@_1CC@GAHEMDPG@?$AAd?$AAl?$AAg?$AA?9?$AA?$DO?$AAt?$AAs?$AAx?$AA_?$AAc?$AAo?$AAu?$AAn?$AAt?$AA?$DO?$AA0?$AA?$AA@ 00579edc     pjsip-core-i386-win32-vc8-debug:sip_dialog.obj
 0003:00003f04       ??_C@_0BD@KGAMNPL@UAS?5dialog?5created?$AA@ 00579f04     pjsip-core-i386-win32-vc8-debug:sip_dialog.obj
 0003:00003f1c       ??_C@_0BI@DIMJOHLK@?$DM?9error?3?5uri?5too?5long?9?$DO?$AA@ 00579f1c     pjsip-core-i386-win32-vc8-debug:sip_dialog.obj
 0003:00003f38       ??_C@_1IG@PGEMGEIC@?$AAp?$AAj?$AAs?$AAi?$AAp?$AA_?$AAm?$AAe?$AAt?$AAh?$AAo?$AAd?$AA_?$AAc?$AAr?$AAe?$AAa?$AAt?$AAe?$AAs?$AA_?$AAd?$AAi?$AAa?$AAl?$AAo?$AAg?$AA?$CI?$AA?$CG?$AAr?$AAd?$AAa@ 00579f38     pjsip-core-i386-win32-vc8-debug:sip_dialog.obj
 0003:00003fd8       ??_C@_1EE@NBLFJLNB@?$AAr?$AAd?$AAa?$AAt?$AAa?$AA?9?$AA?$DO?$AAm?$AAs?$AAg?$AA_?$AAi?$AAn?$AAf?$AAo?$AA?4?$AAt?$AAo?$AA?9?$AA?$DO?$AAt?$AAa?$AAg?$AA?4?$AAs?$AAl?$AAe?$AAn?$AA?5?$AA?$DN?$AA?$DN?$AA?5@ 00579fd8     pjsip-core-i386-win32-vc8-debug:sip_dialog.obj
 0003:0000402c       ??_C@_1CK@KCLOPABG@?$AAu?$AAa?$AA?5?$AA?$CG?$AA?$CG?$AA?5?$AAr?$AAd?$AAa?$AAt?$AAa?$AA?5?$AA?$CG?$AA?$CG?$AA?5?$AAp?$AA_?$AAd?$AAl?$AAg?$AA?$AA@ 0057a02c     pjsip-core-i386-win32-vc8-debug:sip_dialog.obj
 0003:00004060       ??_C@_1BG@CCKPBGCD@?$AAd?$AAl?$AAg?$AA?5?$AA?$CG?$AA?$CG?$AA?5?$AAs?$AAe?$AAl?$AA?$AA@ 0057a060     pjsip-core-i386-win32-vc8-debug:sip_dialog.obj
 0003:0000407c       ??_C@_0BG@EPLOFPC@Forked?5dialog?5created?$AA@ 0057a07c     pjsip-core-i386-win32-vc8-debug:sip_dialog.obj
 0003:00004098       ??_C@_1CO@NIPLEAMN@?$AA?$CB?$AA?$CC?$AAI?$AAn?$AAv?$AAa?$AAl?$AAi?$AAd?$AA?5?$AAs?$AAt?$AAa?$AAt?$AAu?$AAs?$AA?5?$AAc?$AAo?$AAd?$AAe?$AA?$CC?$AA?$AA@ 0057a098     pjsip-core-i386-win32-vc8-debug:sip_dialog.obj
 0003:000040d0       ??_C@_0BE@CHLCJPPO@Invalid?5status?5code?$AA@ 0057a0d0     pjsip-core-i386-win32-vc8-debug:sip_dialog.obj
 0003:000040e8       ??_C@_1EE@OMCHPKLH@?$AAr?$AAd?$AAa?$AAt?$AAa?$AA?9?$AA?$DO?$AAm?$AAs?$AAg?$AA_?$AAi?$AAn?$AAf?$AAo?$AA?4?$AAt?$AAo?$AA?9?$AA?$DO?$AAt?$AAa?$AAg?$AA?4?$AAs?$AAl?$AAe?$AAn?$AA?5?$AA?$CB?$AA?$DN?$AA?5@ 0057a0e8     pjsip-core-i386-win32-vc8-debug:sip_dialog.obj
 0003:00004140       ??_C@_1GE@LICDLKFE@?$AA?$CI?$AAs?$AAt?$AAa?$AAt?$AAu?$AAs?$AA?1?$AA1?$AA0?$AA0?$AA?$DN?$AA?$DN?$AA1?$AA?5?$AA?$CG?$AA?$CG?$AA?5?$AAs?$AAt?$AAa?$AAt?$AAu?$AAs?$AA?$CB?$AA?$DN?$AA1?$AA0?$AA0?$AA?$CJ?$AA?5?$AA?$HM@ 0057a140     pjsip-core-i386-win32-vc8-debug:sip_dialog.obj
 0003:000041b8       ??_C@_1DM@DOGMJPC@?$AAf?$AAi?$AAr?$AAs?$AAt?$AA_?$AAd?$AAl?$AAg?$AA?5?$AA?$CG?$AA?$CG?$AA?5?$AAr?$AAd?$AAa?$AAt?$AAa?$AA?5?$AA?$CG?$AA?$CG?$AA?5?$AAn?$AAe?$AAw?$AA_?$AAd?$AAl?$AAg?$AA?$AA@ 0057a1b8     pjsip-core-i386-win32-vc8-debug:sip_dialog.obj
 0003:00004200       ??_C@_1CE@ICLBFJNJ@?$AAd?$AAl?$AAg?$AA?9?$AA?$DO?$AAt?$AAs?$AAx?$AA_?$AAc?$AAo?$AAu?$AAn?$AAt?$AA?$DN?$AA?$DN?$AA0?$AA?$AA@ 0057a200     pjsip-core-i386-win32-vc8-debug:sip_dialog.obj
 0003:0000422c       ??_C@_1CG@PCHICMAM@?$AAd?$AAl?$AAg?$AA?9?$AA?$DO?$AAs?$AAe?$AAs?$AAs?$AA_?$AAc?$AAo?$AAu?$AAn?$AAt?$AA?$DN?$AA?$DN?$AA0?$AA?$AA@ 0057a22c     pjsip-core-i386-win32-vc8-debug:sip_dialog.obj
 0003:0000425c       ??_C@_0BB@KCGOEMJG@Dialog?5destroyed?$AA@ 0057a25c     pjsip-core-i386-win32-vc8-debug:sip_dialog.obj
 0003:00004270       ??_C@_1EK@PDDKPAGH@?$AA?$CB?$AA?$CC?$AAU?$AAn?$AAe?$AAx?$AAp?$AAe?$AAc?$AAt?$AAe?$AAd?$AA?5?$AAf?$AAa?$AAi?$AAl?$AAe?$AAd?$AA?5?$AAu?$AAn?$AAr?$AAe?$AAg?$AAi?$AAs?$AAt?$AAr?$AAa?$AAt?$AAi@ 0057a270     pjsip-core-i386-win32-vc8-debug:sip_dialog.obj
 0003:000042c8       ??_C@_0CC@NJAKGIPA@Unexpected?5failed?5unregistration@ 0057a2c8     pjsip-core-i386-win32-vc8-debug:sip_dialog.obj
 0003:000042f0       ??_C@_17BHLLIOEM@?$AAd?$AAl?$AAg?$AA?$AA@ 0057a2f0     pjsip-core-i386-win32-vc8-debug:sip_dialog.obj
 0003:000042fc       ??_C@_0CA@PEKDEADC@Session?5count?5inc?5to?5?$CFd?5by?5?$CF?4?$CKs?$AA@ 0057a2fc     pjsip-core-i386-win32-vc8-debug:sip_dialog.obj
 0003:00004324       ??_C@_1BG@CPLBDOLD@?$AAd?$AAl?$AAg?$AA?5?$AA?$CG?$AA?$CG?$AA?5?$AAm?$AAo?$AAd?$AA?$AA@ 0057a324     pjsip-core-i386-win32-vc8-debug:sip_dialog.obj
 0003:00004340       ??_C@_1CI@DBEPCGBG@?$AAd?$AAl?$AAg?$AA?9?$AA?$DO?$AAs?$AAe?$AAs?$AAs?$AA_?$AAc?$AAo?$AAu?$AAn?$AAt?$AA?5?$AA?$DO?$AA?5?$AA0?$AA?$AA@ 0057a340     pjsip-core-i386-win32-vc8-debug:sip_dialog.obj
 0003:00004370       ??_C@_1CC@KDECMMAH@?$AAd?$AAl?$AAg?$AA?$CB?$AA?$DN?$AA?$CI?$AA?$CI?$AAv?$AAo?$AAi?$AAd?$AA?5?$AA?$CK?$AA?$CJ?$AA0?$AA?$CJ?$AA?$AA@ 0057a370     pjsip-core-i386-win32-vc8-debug:sip_dialog.obj
 0003:00004398       ??_C@_0CA@LCICJLMD@Session?5count?5dec?5to?5?$CFd?5by?5?$CF?4?$CKs?$AA@ 0057a398     pjsip-core-i386-win32-vc8-debug:sip_dialog.obj
 0003:000043c0       ??_C@_0EF@MJEHGCLG@Module?5?$CF?4?$CKs?5already?5registered?5a@ 0057a3c0     pjsip-core-i386-win32-vc8-debug:sip_dialog.obj
 0003:00004414       ??_C@_0CL@CCAGPMOP@Module?5?$CF?4?$CKs?5added?5as?5dialog?5usag@ 0057a414     pjsip-core-i386-win32-vc8-debug:sip_dialog.obj
 0003:00004448       ??_C@_1CI@MAPJKCGG@?$AAd?$AAl?$AAg?$AA?9?$AA?$DO?$AAu?$AAs?$AAa?$AAg?$AAe?$AA_?$AAc?$AAn?$AAt?$AA?5?$AA?$DM?$AA?5?$AA3?$AA2?$AA?$AA@ 0057a448     pjsip-core-i386-win32-vc8-debug:sip_dialog.obj
 0003:00004478       ??_C@_1DK@IDPADBHL@?$AAm?$AAo?$AAd?$AA?9?$AA?$DO?$AAi?$AAd?$AA?5?$AA?$DO?$AA?$DN?$AA?5?$AA0?$AA?5?$AA?$CG?$AA?$CG?$AA?5?$AAm?$AAo?$AAd?$AA?9?$AA?$DO?$AAi?$AAd?$AA?5?$AA?$DM?$AA?5?$AA3?$AA2?$AA?$AA@ 0057a478     pjsip-core-i386-win32-vc8-debug:sip_dialog.obj
 0003:000044c0       ??_C@_1DG@LGOONBPA@?$AAm?$AAo?$AAd?$AA_?$AAi?$AAd?$AA?5?$AA?$DO?$AA?$DN?$AA?5?$AA0?$AA?5?$AA?$CG?$AA?$CG?$AA?5?$AAm?$AAo?$AAd?$AA_?$AAi?$AAd?$AA?5?$AA?$DM?$AA?5?$AA3?$AA2?$AA?$AA@ 0057a4c0     pjsip-core-i386-win32-vc8-debug:sip_dialog.obj
 0003:00004500       ??_C@_1DC@GLPAKKGA@?$AAd?$AAl?$AAg?$AA?5?$AA?$CG?$AA?$CG?$AA?5?$AAm?$AAe?$AAt?$AAh?$AAo?$AAd?$AA?5?$AA?$CG?$AA?$CG?$AA?5?$AAp?$AA_?$AAt?$AAd?$AAa?$AAt?$AAa?$AA?$AA@ 0057a500     pjsip-core-i386-win32-vc8-debug:sip_dialog.obj
 0003:0000453c       ??_C@_1CA@GCFBHFGK@?$AAc?$AAh?$AA?$CB?$AA?$DN?$AA?$CI?$AA?$CI?$AAv?$AAo?$AAi?$AAd?$AA?5?$AA?$CK?$AA?$CJ?$AA0?$AA?$CJ?$AA?$AA@ 0057a53c     pjsip-core-i386-win32-vc8-debug:sip_dialog.obj
 0003:00004564       ??_C@_1DG@MACJEIAA@?$AAd?$AAl?$AAg?$AA?5?$AA?$CG?$AA?$CG?$AA?5?$AAt?$AAd?$AAa?$AAt?$AAa?$AA?5?$AA?$CG?$AA?$CG?$AA?5?$AAt?$AAd?$AAa?$AAt?$AAa?$AA?9?$AA?$DO?$AAm?$AAs?$AAg?$AA?$AA@ 0057a564     pjsip-core-i386-win32-vc8-debug:sip_dialog.obj
 0003:000045a4       ??_C@_1CE@LNMILBPB@?$AAt?$AAo?$AA?5?$AA?$CB?$AA?$DN?$AA?5?$AA?$CI?$AA?$CI?$AAv?$AAo?$AAi?$AAd?$AA?5?$AA?$CK?$AA?$CJ?$AA0?$AA?$CJ?$AA?$AA@ 0057a5a4     pjsip-core-i386-win32-vc8-debug:sip_dialog.obj
 0003:000045d0       ??_C@_1CI@MFBAJOBD@?$AAc?$AAs?$AAe?$AAq?$AA?5?$AA?$CB?$AA?$DN?$AA?5?$AA?$CI?$AA?$CI?$AAv?$AAo?$AAi?$AAd?$AA?5?$AA?$CK?$AA?$CJ?$AA0?$AA?$CJ?$AA?$AA@ 0057a5d0     pjsip-core-i386-win32-vc8-debug:sip_dialog.obj
 0003:00004600       ??_C@_1BLI@OLIMOOK@?$AA?$CI?$AA?$CI?$AAp?$AAj?$AAs?$AAi?$AAp?$AA_?$AAc?$AAs?$AAe?$AAq?$AA_?$AAh?$AAd?$AAr?$AA?$CK?$AA?$CJ?$AAp?$AAj?$AAs?$AAi?$AAp?$AA_?$AAm?$AAs?$AAg?$AA_?$AAf?$AAi?$AAn?$AAd@ 0057a600     pjsip-core-i386-win32-vc8-debug:sip_dialog.obj
 0003:00004810       ??_C@_1EE@HKOKILGI@?$AAt?$AAs?$AAx?$AA?9?$AA?$DO?$AAm?$AAo?$AAd?$AA_?$AAd?$AAa?$AAt?$AAa?$AA?$FL?$AAd?$AAl?$AAg?$AA?9?$AA?$DO?$AAu?$AAa?$AA?9?$AA?$DO?$AAi?$AAd?$AA?$FN?$AA?5?$AA?$DN?$AA?$DN?$AA?5?$AAd?$AAl@ 0057a810     pjsip-core-i386-win32-vc8-debug:sip_dialog.obj
 0003:00004868       ??_C@_1EE@NNPOOCME@?$AAd?$AAl?$AAg?$AA?5?$AA?$CG?$AA?$CG?$AA?5?$AAt?$AAs?$AAx?$AA?5?$AA?$CG?$AA?$CG?$AA?5?$AAt?$AAd?$AAa?$AAt?$AAa?$AA?5?$AA?$CG?$AA?$CG?$AA?5?$AAt?$AAd?$AAa?$AAt?$AAa?$AA?9?$AA?$DO?$AAm?$AAs@ 0057a868     pjsip-core-i386-win32-vc8-debug:sip_dialog.obj
 0003:000048c0       ??_C@_1KO@PKHMCJGC@?$AAp?$AAj?$AAs?$AAi?$AAp?$AA_?$AAr?$AAd?$AAa?$AAt?$AAa?$AA_?$AAg?$AAe?$AAt?$AA_?$AAt?$AAs?$AAx?$AA?$CI?$AAr?$AAd?$AAa?$AAt?$AAa?$AA?$CJ?$AA?5?$AA?$CG?$AA?$CG?$AA?5?$AAp?$AAj@ 0057a8c0     pjsip-core-i386-win32-vc8-debug:sip_dialog.obj
 0003:00004990       ??_C@_1EI@HFLKEDIN@?$AAd?$AAl?$AAg?$AA?5?$AA?$CG?$AA?$CG?$AA?5?$AAr?$AAd?$AAa?$AAt?$AAa?$AA?5?$AA?$CG?$AA?$CG?$AA?5?$AAr?$AAd?$AAa?$AAt?$AAa?$AA?9?$AA?$DO?$AAm?$AAs?$AAg?$AA_?$AAi?$AAn?$AAf?$AAo?$AA?4@ 0057a990     pjsip-core-i386-win32-vc8-debug:sip_dialog.obj
 0003:000049e8       ??_C@_0DI@GPBFFFGN@?$CFs?5was?5unhandled?5by?5dialog?5usage@ 0057a9e8     pjsip-core-i386-win32-vc8-debug:sip_dialog.obj
 0003:00004a2c       ??_C@_0BL@HAJOOCAF@Unhandled?5by?5dialog?5usages?$AA@ 0057aa2c     pjsip-core-i386-win32-vc8-debug:sip_dialog.obj
 0003:00004a4c       ??_C@_0N@JADHANJP@Invalid?5CSeq?$AA@ 0057aa4c     pjsip-core-i386-win32-vc8-debug:sip_dialog.obj
 0003:00004a60       ??_C@_1FE@IPNMLAKD@?$AAp?$AAj?$AAs?$AAi?$AAp?$AA_?$AAr?$AAd?$AAa?$AAt?$AAa?$AA_?$AAg?$AAe?$AAt?$AA_?$AAt?$AAs?$AAx?$AA?$CI?$AAr?$AAd?$AAa?$AAt?$AAa?$AA?$CJ?$AA?5?$AA?$DN?$AA?$DN?$AA?5?$AA?$CI?$AA?$CI@ 0057aa60     pjsip-core-i386-win32-vc8-debug:sip_dialog.obj
 0003:00004ac4       ??_C@_0M@LHPMKMAE@Received?5?$CFs?$AA@ 0057aac4     pjsip-core-i386-win32-vc8-debug:sip_dialog.obj
 0003:00004ad8       ??_C@_1EE@HICKJNML@?$AAp?$AAj?$AAs?$AAi?$AAp?$AA_?$AAr?$AAd?$AAa?$AAt?$AAa?$AA_?$AAg?$AAe?$AAt?$AA_?$AAd?$AAl?$AAg?$AA?$CI?$AAr?$AAd?$AAa?$AAt?$AAa?$AA?$CJ?$AA?5?$AA?$DN?$AA?$DN?$AA?5?$AAd?$AAl@ 0057aad8     pjsip-core-i386-win32-vc8-debug:sip_dialog.obj
 0003:00004b2c       ??_C@_0BB@EMPDFCEJ@Route?9set?5frozen?$AA@ 0057ab2c     pjsip-core-i386-win32-vc8-debug:sip_dialog.obj
 0003:00004b40       ??_C@_0BC@PCHBAKGP@Route?9set?5updated?$AA@ 0057ab40     pjsip-core-i386-win32-vc8-debug:sip_dialog.obj
 0003:00004b58       ??_C@_0CD@PIHECLAB@Transaction?5?$CFs?5state?5changed?5to?5@ 0057ab58     pjsip-core-i386-win32-vc8-debug:sip_dialog.obj
 0003:00004b84       ??_C@_1BK@LMGMFAFG@?$AAd?$AAl?$AAg?$AA?5?$AA?$CG?$AA?$CG?$AA?5?$AAt?$AAo?$AAk?$AAe?$AAn?$AA?$AA@ 0057ab84     pjsip-core-i386-win32-vc8-debug:sip_dialog.obj
 0003:00004ba4       ??_C@_1BG@EJBAFDLN@?$AAd?$AAl?$AAg?$AA?5?$AA?$CG?$AA?$CG?$AA?5?$AAm?$AAs?$AAg?$AA?$AA@ 0057aba4     pjsip-core-i386-win32-vc8-debug:sip_dialog.obj
 0003:00004bc0       ??_C@_1GG@GFIMIGJL@?$AA?$CI?$AAh?$AAt?$AAy?$AAp?$AAe?$AA?5?$AA?$CB?$AA?$DN?$AA?5?$AAP?$AAJ?$AAS?$AAI?$AAP?$AA_?$AAH?$AA_?$AAO?$AAT?$AAH?$AAE?$AAR?$AA?$CJ?$AA?5?$AA?$HM?$AA?$HM?$AA?5?$AA?$CI?$AAh?$AAn?$AAa@ 0057abc0     pjsip-core-i386-win32-vc8-debug:sip_dialog.obj
 0003:00004c3c       ??_C@_1BO@MPGHEBHG@?$AAd?$AAl?$AAg?$AA?5?$AA?$CG?$AA?$CG?$AA?5?$AAc?$AAa?$AAp?$AA_?$AAh?$AAd?$AAr?$AA?$AA@ 0057ac3c     pjsip-core-i386-win32-vc8-debug:sip_dialog.obj
 0003:00004c60       ??_C@_03MCKGDGBD@UAS?$AA@  0057ac60     pjsip-core-i386-win32-vc8-debug:sip_transaction.obj
 0003:00004c64       ??_C@_03IIGECEEC@UAC?$AA@  0057ac64     pjsip-core-i386-win32-vc8-debug:sip_transaction.obj
 0003:00004c68       ??_C@_09KDBKJCNL@Destroyed?$AA@ 0057ac68     pjsip-core-i386-win32-vc8-debug:sip_transaction.obj
 0003:00004c74       ??_C@_0L@NNDINIPK@Terminated?$AA@ 0057ac74     pjsip-core-i386-win32-vc8-debug:sip_transaction.obj
 0003:00004c84       ??_C@_09ONANMLIC@Confirmed?$AA@ 0057ac84     pjsip-core-i386-win32-vc8-debug:sip_transaction.obj
 0003:00004c90       ??_C@_09MIJAKHKB@Completed?$AA@ 0057ac90     pjsip-core-i386-win32-vc8-debug:sip_transaction.obj
 0003:00004c9c       ??_C@_0L@BKKAFK@Proceeding?$AA@ 0057ac9c     pjsip-core-i386-win32-vc8-debug:sip_transaction.obj
 0003:00004cac       ??_C@_06CJPKGAJC@Trying?$AA@ 0057acac     pjsip-core-i386-win32-vc8-debug:sip_transaction.obj
 0003:00004cb4       ??_C@_07BNCBFEGH@Calling?$AA@ 0057acb4     pjsip-core-i386-win32-vc8-debug:sip_transaction.obj
 0003:00004cc0       ??_C@_04KHKKIIL@Null?$AA@  0057acc0     pjsip-core-i386-win32-vc8-debug:sip_transaction.obj
 0003:00004cc8       ??_C@_0O@CDKJIHHI@mod?9tsx?9layer?$AA@ 0057acc8     pjsip-core-i386-win32-vc8-debug:sip_transaction.obj
 0003:00004cd8       ??_C@_1CK@PHMDIEGE@?$AAr?$AAd?$AAa?$AAt?$AAa?$AA?9?$AA?$DO?$AAm?$AAs?$AAg?$AA_?$AAi?$AAn?$AAf?$AAo?$AA?4?$AAf?$AAr?$AAo?$AAm?$AA?$AA@ 0057acd8     pjsip-core-i386-win32-vc8-debug:sip_transaction.obj
 0003:00004d0c       ??_C@_1CK@GGBEIEPP@?$AAr?$AAd?$AAa?$AAt?$AAa?$AA?9?$AA?$DO?$AAm?$AAs?$AAg?$AA_?$AAi?$AAn?$AAf?$AAo?$AA?4?$AAc?$AAs?$AAe?$AAq?$AA?$AA@ 0057ad0c     pjsip-core-i386-win32-vc8-debug:sip_transaction.obj
 0003:00004d40       ??_C@_1CI@CHIMELAL@?$AAr?$AAd?$AAa?$AAt?$AAa?$AA?9?$AA?$DO?$AAm?$AAs?$AAg?$AA_?$AAi?$AAn?$AAf?$AAo?$AA?4?$AAv?$AAi?$AAa?$AA?$AA@ 0057ad40     pjsip-core-i386-win32-vc8-debug:sip_transaction.obj
 0003:00004d70       ??_C@_1CI@IBHLBIFH@?$AAr?$AAd?$AAa?$AAt?$AAa?$AA?9?$AA?$DO?$AAm?$AAs?$AAg?$AA_?$AAi?$AAn?$AAf?$AAo?$AA?4?$AAm?$AAs?$AAg?$AA?$AA@ 0057ad70     pjsip-core-i386-win32-vc8-debug:sip_transaction.obj
 0003:00004da0       ??_C@_1DO@OMOBPGDD@?$AAp?$AAo?$AAo?$AAl?$AA?5?$AA?$CG?$AA?$CG?$AA?5?$AAs?$AAt?$AAr?$AA?5?$AA?$CG?$AA?$CG?$AA?5?$AAm?$AAe?$AAt?$AAh?$AAo?$AAd?$AA?5?$AA?$CG?$AA?$CG?$AA?5?$AAr?$AAd?$AAa?$AAt?$AAa?$AA?$AA@ 0057ada0     pjsip-core-i386-win32-vc8-debug:sip_transaction.obj
 0003:00004df0       ??_C@_1HC@OCHPDINM@?$AAd?$AA?3?$AA?2?$AAm?$AAy?$AAg?$AAi?$AAt?$AA?2?$AAp?$AAj?$AAp?$AAr?$AAo?$AAj?$AAe?$AAc?$AAt?$AA?9?$AA1?$AA?4?$AA4?$AA?2?$AAp?$AAj?$AAs?$AAi?$AAp?$AA?2?$AAs?$AAr?$AAc@ 0057adf0     pjsip-core-i386-win32-vc8-debug:sip_transaction.obj
 0003:00004e78       ??_C@_1EA@DKNNOODP@?$AAp?$AAo?$AAo?$AAl?$AA?5?$AA?$CG?$AA?$CG?$AA?5?$AAk?$AAe?$AAy?$AA?5?$AA?$CG?$AA?$CG?$AA?5?$AAm?$AAe?$AAt?$AAh?$AAo?$AAd?$AA?5?$AA?$CG?$AA?$CG?$AA?5?$AAb?$AAr?$AAa?$AAn?$AAc?$AAh?$AA?$AA@ 0057ae78     pjsip-core-i386-win32-vc8-debug:sip_transaction.obj
 0003:00004ec4       ??_C@_08NHKHBNMC@tsxlayer?$AA@ 0057aec4     pjsip-core-i386-win32-vc8-debug:sip_transaction.obj
 0003:00004ed0       ??_C@_1EC@OCCPJFL@?$AAm?$AAo?$AAd?$AA_?$AAt?$AAs?$AAx?$AA_?$AAl?$AAa?$AAy?$AAe?$AAr?$AA?4?$AAe?$AAn?$AAd?$AAp?$AAt?$AA?$DN?$AA?$DN?$AA?$CI?$AA?$CI?$AAv?$AAo?$AAi?$AAd?$AA?5?$AA?$CK?$AA?$CJ?$AA0?$AA?$CJ@ 0057aed0     pjsip-core-i386-win32-vc8-debug:sip_transaction.obj
 0003:00004f20       ??_C@_1EC@BOAFDEBH@?$AAm?$AAo?$AAd?$AA_?$AAt?$AAs?$AAx?$AA_?$AAl?$AAa?$AAy?$AAe?$AAr?$AA?4?$AAe?$AAn?$AAd?$AAp?$AAt?$AA?$CB?$AA?$DN?$AA?$CI?$AA?$CI?$AAv?$AAo?$AAi?$AAd?$AA?5?$AA?$CK?$AA?$CJ?$AA0?$AA?$CJ@ 0057af20     pjsip-core-i386-win32-vc8-debug:sip_transaction.obj
 0003:00004f70       ??_C@_0BC@LHFGMDJJ@sip_transaction?4c?$AA@ 0057af70     pjsip-core-i386-win32-vc8-debug:sip_transaction.obj
 0003:00004f88       ??_C@_0CC@CEIKILH@Stopping?5transaction?5layer?5modul@ 0057af88     pjsip-core-i386-win32-vc8-debug:sip_transaction.obj
 0003:00004fb0       ??_C@_1DO@OMIGMOJO@?$AAt?$AAs?$AAx?$AA?9?$AA?$DO?$AAt?$AAr?$AAa?$AAn?$AAs?$AAa?$AAc?$AAt?$AAi?$AAo?$AAn?$AA_?$AAk?$AAe?$AAy?$AA?4?$AAs?$AAl?$AAe?$AAn?$AA?5?$AA?$CB?$AA?$DN?$AA?5?$AA0?$AA?$AA@ 0057afb0     pjsip-core-i386-win32-vc8-debug:sip_transaction.obj
 0003:00004ffc       ??_C@_0CD@MKMHPCL@Transaction?5layer?5module?5destroy@ 0057affc     pjsip-core-i386-win32-vc8-debug:sip_transaction.obj
 0003:00005028       ??_C@_0N@KCFHGJA@?5?$CFs?5?$CFs?$HM?$CFd?$HM?$CFs?$AA@ 0057b028     pjsip-core-i386-win32-vc8-debug:sip_transaction.obj
 0003:00005038       ??_C@_04CGFJFPFD@none?$AA@ 0057b038     pjsip-core-i386-win32-vc8-debug:sip_transaction.obj
 0003:00005040       ??_C@_0L@PECGINLK@?5?9?5none?5?9?5?$AA@ 0057b040     pjsip-core-i386-win32-vc8-debug:sip_transaction.obj
 0003:00005050       ??_C@_0BH@LNPIBBJK@?5Total?5?$CFd?5transactions?$AA@ 0057b050     pjsip-core-i386-win32-vc8-debug:sip_transaction.obj
 0003:0000506c       ??_C@_0BL@LHNOMDKC@Dumping?5transaction?5table?3?$AA@ 0057b06c     pjsip-core-i386-win32-vc8-debug:sip_transaction.obj
 0003:0000508c       ??_C@_0BH@PDBDIMMK@Transaction?5destroyed?$CB?$AA@ 0057b08c     pjsip-core-i386-win32-vc8-debug:sip_transaction.obj
 0003:000050a8       ??_C@_0DE@PFNICBJL@Will?5destroy?5later?5because?5trans@ 0057b0a8     pjsip-core-i386-win32-vc8-debug:sip_transaction.obj
 0003:000050e8       ??_C@_0BL@NELPIPFA@Transaction?5created?5for?5?$CFs?$AA@ 0057b0e8     pjsip-core-i386-win32-vc8-debug:sip_transaction.obj
 0003:00005108       ??_C@_1GA@MNIHDFCK@?$AA?$CB?$AA?$CC?$AAC?$AAS?$AAe?$AAq?$AA?5?$AAh?$AAe?$AAa?$AAd?$AAe?$AAr?$AA?5?$AAn?$AAo?$AAt?$AA?5?$AAp?$AAr?$AAe?$AAs?$AAe?$AAn?$AAt?$AA?5?$AAi?$AAn?$AA?5?$AAo?$AAu?$AAt@ 0057b108     pjsip-core-i386-win32-vc8-debug:sip_transaction.obj
 0003:0000517c       ??_C@_0CN@EDKCNDHP@CSeq?5header?5not?5present?5in?5outgo@ 0057b17c     pjsip-core-i386-win32-vc8-debug:sip_transaction.obj
 0003:000051b8       ??_C@_1GG@HKHDAKCA@?$AAt?$AAd?$AAa?$AAt?$AAa?$AA?9?$AA?$DO?$AAm?$AAs?$AAg?$AA?9?$AA?$DO?$AAl?$AAi?$AAn?$AAe?$AA?4?$AAr?$AAe?$AAq?$AA?4?$AAm?$AAe?$AAt?$AAh?$AAo?$AAd?$AA?4?$AAi?$AAd?$AA?5?$AA?$CB@ 0057b1b8     pjsip-core-i386-win32-vc8-debug:sip_transaction.obj
 0003:00005234       ??_C@_1DK@IJFPIJJ@?$AAt?$AAd?$AAa?$AAt?$AAa?$AA?5?$AA?$CG?$AA?$CG?$AA?5?$AAt?$AAd?$AAa?$AAt?$AAa?$AA?9?$AA?$DO?$AAm?$AAs?$AAg?$AA?5?$AA?$CG?$AA?$CG?$AA?5?$AAp?$AA_?$AAt?$AAs?$AAx?$AA?$AA@ 0057b234     pjsip-core-i386-win32-vc8-debug:sip_transaction.obj
 0003:0000527c       ??_C@_0DB@ELBLLJGF@Unable?5to?5register?5?$CF?4?$CKs?5transact@ 0057b27c     pjsip-core-i386-win32-vc8-debug:sip_transaction.obj
 0003:000052b8       ??_C@_1CA@OKHHFHOA@?$AAl?$AAc?$AAk?$AA?9?$AA?$DO?$AAt?$AAs?$AAx?$AA?5?$AA?$DN?$AA?$DN?$AA?5?$AAt?$AAs?$AAx?$AA?$AA@ 0057b2b8     pjsip-core-i386-win32-vc8-debug:sip_transaction.obj
 0003:000052e0       ??_C@_1HC@BBJKFONF@?$AA?$CI?$AAv?$AAo?$AAi?$AAd?$AA?$CK?$AA?$CJ?$AAp?$AAj?$AA_?$AAt?$AAh?$AAr?$AAe?$AAa?$AAd?$AA_?$AAl?$AAo?$AAc?$AAa?$AAl?$AA_?$AAg?$AAe?$AAt?$AA?$CI?$AAp?$AAj?$AAs?$AAi?$AAp@ 0057b2e0     pjsip-core-i386-win32-vc8-debug:sip_transaction.obj
 0003:00005368       ??_C@_05NPMOPOBK@tsx?$CFp?$AA@ 0057b368     pjsip-core-i386-win32-vc8-debug:sip_transaction.obj
 0003:00005370       ??_C@_03ILLHDCNP@tsx?$AA@  0057b370     pjsip-core-i386-win32-vc8-debug:sip_transaction.obj
 0003:00005374       ??_C@_0P@ICKHIBGF@?$CFs?5timer?5event?$AA@ 0057b374     pjsip-core-i386-win32-vc8-debug:sip_transaction.obj
 0003:00005388       ??_C@_07MKALMBDJ@Timeout?$AA@ 0057b388     pjsip-core-i386-win32-vc8-debug:sip_transaction.obj
 0003:00005394       ??_C@_0L@KEAKDBBB@Retransmit?$AA@ 0057b394     pjsip-core-i386-win32-vc8-debug:sip_transaction.obj
 0003:000053a8       ??_C@_0ED@IJNOFMME@Error?3?5CSeq?5header?5contains?5diff@ 0057b3a8     pjsip-core-i386-win32-vc8-debug:sip_transaction.obj
 0003:000053f8       ??_C@_1FI@JLANADKE@?$AAm?$AAs?$AAg?$AA?9?$AA?$DO?$AAl?$AAi?$AAn?$AAe?$AA?4?$AAr?$AAe?$AAq?$AA?4?$AAm?$AAe?$AAt?$AAh?$AAo?$AAd?$AA?4?$AAi?$AAd?$AA?5?$AA?$CB?$AA?$DN?$AA?5?$AAP?$AAJ?$AAS?$AAI?$AAP@ 0057b3f8     pjsip-core-i386-win32-vc8-debug:sip_transaction.obj
 0003:00005468       ??_C@_1EM@JKCBONDD@?$AAr?$AAd?$AAa?$AAt?$AAa?$AA?5?$AA?$CG?$AA?$CG?$AA?5?$AAr?$AAd?$AAa?$AAt?$AAa?$AA?9?$AA?$DO?$AAm?$AAs?$AAg?$AA_?$AAi?$AAn?$AAf?$AAo?$AA?4?$AAm?$AAs?$AAg?$AA?5?$AA?$CG?$AA?$CG?$AA?5@ 0057b468     pjsip-core-i386-win32-vc8-debug:sip_transaction.obj
 0003:000054c4       ??_C@_1BG@MPNNHPBG@?$AAt?$AAs?$AAx?$AA?5?$AA?$CG?$AA?$CG?$AA?5?$AAs?$AAe?$AAl?$AA?$AA@ 0057b4c4     pjsip-core-i386-win32-vc8-debug:sip_transaction.obj
 0003:000054e0       ??_C@_1BI@KBKJHGPA@?$AAc?$AAo?$AAd?$AAe?$AA?5?$AA?$DO?$AA?$DN?$AA?5?$AA2?$AA0?$AA0?$AA?$AA@ 0057b4e0     pjsip-core-i386-win32-vc8-debug:sip_transaction.obj
 0003:000054fc       ??_C@_0CB@LPCILHMH@Request?5to?5terminate?5transaction@ 0057b4fc     pjsip-core-i386-win32-vc8-debug:sip_transaction.obj
 0003:00005524       ??_C@_1CK@PGHKMIBL@?$AAr?$AAd?$AAa?$AAt?$AAa?$AA?5?$AA?$CB?$AA?$DN?$AA?5?$AA?$CI?$AA?$CI?$AAv?$AAo?$AAi?$AAd?$AA?5?$AA?$CK?$AA?$CJ?$AA0?$AA?$CJ?$AA?$AA@ 0057b524     pjsip-core-i386-win32-vc8-debug:sip_transaction.obj
 0003:00005558       ??_C@_0CG@BHDJKKPD@State?5changed?5from?5?$CFs?5to?5?$CFs?0?5eve@ 0057b558     pjsip-core-i386-win32-vc8-debug:sip_transaction.obj
 0003:00005588       ??_C@_1CI@LMGEKOLO@?$AAs?$AAt?$AAa?$AAt?$AAe?$AA?5?$AA?$DO?$AA?$DN?$AA?5?$AAt?$AAs?$AAx?$AA?9?$AA?$DO?$AAs?$AAt?$AAa?$AAt?$AAe?$AA?$AA@ 0057b588     pjsip-core-i386-win32-vc8-debug:sip_transaction.obj
 0003:000055b8       ??_C@_0BP@IPFJMBJM@Request?5to?5stop?5retransmission?$AA@ 0057b5b8     pjsip-core-i386-win32-vc8-debug:sip_transaction.obj
 0003:000055e0       ??_C@_1IK@JAGJODNG@?$AAt?$AAs?$AAx?$AA?9?$AA?$DO?$AAr?$AAo?$AAl?$AAe?$AA?5?$AA?$DN?$AA?$DN?$AA?5?$AAP?$AAJ?$AAS?$AAI?$AAP?$AA_?$AAR?$AAO?$AAL?$AAE?$AA_?$AAU?$AAA?$AAC?$AA?5?$AA?$CG?$AA?$CG?$AA?5?$AAt@ 0057b5e0     pjsip-core-i386-win32-vc8-debug:sip_transaction.obj
 0003:00005688       ??_C@_1CO@ECEBCFIN@?$AAt?$AAs?$AAx?$AA?9?$AA?$DO?$AAs?$AAt?$AAa?$AAt?$AAu?$AAs?$AA_?$AAc?$AAo?$AAd?$AAe?$AA?5?$AA?$DM?$AA?5?$AA2?$AA0?$AA0?$AA?$AA@ 0057b688     pjsip-core-i386-win32-vc8-debug:sip_transaction.obj
 0003:000056c0       ??_C@_0BH@NJDAONCL@Sending?5?$CFs?5in?5state?5?$CFs?$AA@ 0057b6c0     pjsip-core-i386-win32-vc8-debug:sip_transaction.obj
 0003:000056dc       ??_C@_0BI@PADDBGDM@Incoming?5?$CFs?5in?5state?5?$CFs?$AA@ 0057b6dc     pjsip-core-i386-win32-vc8-debug:sip_transaction.obj
 0003:000056f8       ??_C@_0DG@EDJHIGCF@Transport?5error?0?5terminating?5tra@ 0057b6f8     pjsip-core-i386-win32-vc8-debug:sip_transaction.obj
 0003:00005738       ??_C@_1CM@MPGMPBCG@?$AA?$CB?$AA?$CC?$AAU?$AAn?$AAe?$AAx?$AAp?$AAe?$AAc?$AAt?$AAe?$AAd?$AA?5?$AAs?$AAt?$AAa?$AAt?$AAu?$AAs?$AA?$CB?$AA?$CC?$AA?$AA@ 0057b738     pjsip-core-i386-win32-vc8-debug:sip_transaction.obj
 0003:0000576c       ??_C@_0BD@CANGBNK@Unexpected?5status?$CB?$AA@ 0057b76c     pjsip-core-i386-win32-vc8-debug:sip_transaction.obj
 0003:00005788       ??_C@_1FK@EJJBIKI@?$AAs?$AAt?$AAa?$AAt?$AAu?$AAs?$AA?5?$AA?$CB?$AA?$DN?$AA?5?$AA0?$AA?5?$AA?$HM?$AA?$HM?$AA?5?$AAt?$AAs?$AAx?$AA?9?$AA?$DO?$AAt?$AAr?$AAa?$AAn?$AAs?$AAp?$AAo?$AAr?$AAt?$AA?5?$AA?$DN?$AA?$DN@ 0057b788     pjsip-core-i386-win32-vc8-debug:sip_transaction.obj
 0003:000057f4       ??_C@_0BO@HGKHMLPL@Error?5sending?5?$CFs?3?5Err?$DN?$CFd?5?$CI?$CFs?$CJ?$AA@ 0057b7f4     pjsip-core-i386-win32-vc8-debug:sip_transaction.obj
 0003:00005818       ??_C@_1BK@GOEALIM@?$AAt?$AAs?$AAx?$AA?5?$AA?$CG?$AA?$CG?$AA?5?$AAt?$AAd?$AAa?$AAt?$AAa?$AA?$AA@ 0057b818     pjsip-core-i386-win32-vc8-debug:sip_transaction.obj
 0003:00005838       ??_C@_0ED@JJOLNLMN@Temporary?5failure?5in?5sending?5?$CFs?0@ 0057b838     pjsip-core-i386-win32-vc8-debug:sip_transaction.obj
 0003:00005888       ??_C@_0BP@MFDMMFDJ@Failed?5to?5send?5?$CFs?$CB?5err?$DN?$CFd?5?$CI?$CFs?$CJ?$AA@ 0057b888     pjsip-core-i386-win32-vc8-debug:sip_transaction.obj
 0003:000058b0       ??_C@_1BE@CIJBJEGI@?$AAs?$AAe?$AAn?$AAt?$AA?5?$AA?$CB?$AA?$DN?$AA?5?$AA0?$AA?$AA@ 0057b8b0     pjsip-core-i386-win32-vc8-debug:sip_transaction.obj
 0003:000058c8       ??_C@_1FC@LEHDEODE@?$AAs?$AAe?$AAn?$AAd?$AA_?$AAs?$AAt?$AAa?$AAt?$AAe?$AA?9?$AA?$DO?$AAc?$AAu?$AAr?$AA_?$AAt?$AAr?$AAa?$AAn?$AAs?$AAp?$AAo?$AAr?$AAt?$AA?5?$AA?$CB?$AA?$DN?$AA?5?$AA?$CI?$AA?$CI?$AAv@ 0057b8c8     pjsip-core-i386-win32-vc8-debug:sip_transaction.obj
 0003:0000592c       ??_C@_0CJ@CBOMABNM@Transport?5failed?5to?5send?5?$CFs?$CB?5Err@ 0057b92c     pjsip-core-i386-win32-vc8-debug:sip_transaction.obj
 0003:00005960       ??_C@_1DA@CHKFPGLG@?$AAt?$AAs?$AAx?$AA?9?$AA?$DO?$AAs?$AAt?$AAa?$AAt?$AAu?$AAs?$AA_?$AAc?$AAo?$AAd?$AAe?$AA?5?$AA?$DO?$AA?$DN?$AA?5?$AA2?$AA0?$AA0?$AA?$AA@ 0057b960     pjsip-core-i386-win32-vc8-debug:sip_transaction.obj
 0003:000059a0       ??_C@_1GO@EFGEOEAI@?$AA?$CI?$AAt?$AAs?$AAx?$AA?9?$AA?$DO?$AAt?$AAr?$AAa?$AAn?$AAs?$AAp?$AAo?$AAr?$AAt?$AA_?$AAf?$AAl?$AAa?$AAg?$AA?5?$AA?$CG?$AA?5?$AAT?$AAS?$AAX?$AA_?$AAH?$AAA?$AAS?$AA_?$AAP@ 0057b9a0     pjsip-core-i386-win32-vc8-debug:sip_transaction.obj
 0003:00005a24       ??_C@_17JBPKEIOA@?$AAt?$AAs?$AAx?$AA?$AA@ 0057ba24     pjsip-core-i386-win32-vc8-debug:sip_transaction.obj
 0003:00005a30       ??_C@_1DM@GCKKNIDH@?$AAt?$AAp?$AA?5?$AA?$CG?$AA?$CG?$AA?5?$AAi?$AAn?$AAf?$AAo?$AA?5?$AA?$CG?$AA?$CG?$AA?5?$AAi?$AAn?$AAf?$AAo?$AA?9?$AA?$DO?$AAu?$AAs?$AAe?$AAr?$AA_?$AAd?$AAa?$AAt?$AAa?$AA?$AA@ 0057ba30     pjsip-core-i386-win32-vc8-debug:sip_transaction.obj
 0003:00005a78       ??_C@_1EE@EDJGJAAL@?$AAe?$AAv?$AAe?$AAn?$AAt?$AA?9?$AA?$DO?$AAt?$AAy?$AAp?$AAe?$AA?5?$AA?$DN?$AA?$DN?$AA?5?$AAP?$AAJ?$AAS?$AAI?$AAP?$AA_?$AAE?$AAV?$AAE?$AAN?$AAT?$AA_?$AAT?$AAX?$AA_?$AAM?$AAS@ 0057ba78     pjsip-core-i386-win32-vc8-debug:sip_transaction.obj
 0003:00005ad0       ??_C@_1MO@LFBGMEHK@?$AAe?$AAv?$AAe?$AAn?$AAt?$AA?9?$AA?$DO?$AAt?$AAy?$AAp?$AAe?$AA?5?$AA?$DN?$AA?$DN?$AA?5?$AAP?$AAJ?$AAS?$AAI?$AAP?$AA_?$AAE?$AAV?$AAE?$AAN?$AAT?$AA_?$AAR?$AAX?$AA_?$AAM?$AAS@ 0057bad0     pjsip-core-i386-win32-vc8-debug:sip_transaction.obj
 0003:00005bc8       ??_C@_1EG@DAEMFGKA@?$AAt?$AAs?$AAx?$AA?9?$AA?$DO?$AAs?$AAt?$AAa?$AAt?$AAe?$AA?5?$AA?$DN?$AA?$DN?$AA?5?$AAP?$AAJ?$AAS?$AAI?$AAP?$AA_?$AAT?$AAS?$AAX?$AA_?$AAS?$AAT?$AAA?$AAT?$AAE?$AA_?$AAN?$AAU@ 0057bbc8     pjsip-core-i386-win32-vc8-debug:sip_transaction.obj
 0003:00005c1c       ??_C@_1CI@KGLCANNO@?$AA?$CB?$AA?$CC?$AAU?$AAn?$AAe?$AAx?$AAp?$AAe?$AAc?$AAt?$AAe?$AAd?$AA?5?$AAe?$AAv?$AAe?$AAn?$AAt?$AA?$CC?$AA?$AA@ 0057bc1c     pjsip-core-i386-win32-vc8-debug:sip_transaction.obj
 0003:00005c4c       ??_C@_0BB@KDNFAEGO@Unexpected?5event?$AA@ 0057bc4c     pjsip-core-i386-win32-vc8-debug:sip_transaction.obj
 0003:00005c60       ??_C@_1DI@KIPMPAMA@?$AAt?$AAs?$AAx?$AA?9?$AA?$DO?$AAr?$AAo?$AAl?$AAe?$AA?5?$AA?$DN?$AA?$DN?$AA?5?$AAP?$AAJ?$AAS?$AAI?$AAP?$AA_?$AAR?$AAO?$AAL?$AAE?$AA_?$AAU?$AAA?$AAC?$AA?$AA@ 0057bc60     pjsip-core-i386-win32-vc8-debug:sip_transaction.obj
 0003:00005ca8       ??_C@_1EM@CIPBAKOA@?$AAt?$AAs?$AAx?$AA?9?$AA?$DO?$AAs?$AAt?$AAa?$AAt?$AAe?$AA?5?$AA?$DN?$AA?$DN?$AA?5?$AAP?$AAJ?$AAS?$AAI?$AAP?$AA_?$AAT?$AAS?$AAX?$AA_?$AAS?$AAT?$AAA?$AAT?$AAE?$AA_?$AAC?$AAA@ 0057bca8     pjsip-core-i386-win32-vc8-debug:sip_transaction.obj
 0003:00005d08       ??_C@_1FA@PEGBNKGC@?$AAt?$AAs?$AAx?$AA?9?$AA?$DO?$AAs?$AAt?$AAa?$AAt?$AAe?$AA?5?$AA?$CB?$AA?$DN?$AA?5?$AAP?$AAJ?$AAS?$AAI?$AAP?$AA_?$AAT?$AAS?$AAX?$AA_?$AAS?$AAT?$AAA?$AAT?$AAE?$AA_?$AAC?$AAO@ 0057bd08     pjsip-core-i386-win32-vc8-debug:sip_transaction.obj
 0003:00005d68       ??_C@_0CI@CEFAFFOL@Retransmiting?5?$CFs?0?5count?$DN?$CFd?0?5rest@ 0057bd68     pjsip-core-i386-win32-vc8-debug:sip_transaction.obj
 0003:00005d98       ??_C@_1DE@GPNPBCPO@?$AAt?$AAs?$AAx?$AA?9?$AA?$DO?$AAl?$AAa?$AAs?$AAt?$AA_?$AAt?$AAx?$AA?$CB?$AA?$DN?$AA?$CI?$AA?$CI?$AAv?$AAo?$AAi?$AAd?$AA?5?$AA?$CK?$AA?$CJ?$AA0?$AA?$CJ?$AA?$AA@ 0057bd98     pjsip-core-i386-win32-vc8-debug:sip_transaction.obj
 0003:00005dd8       ??_C@_1DI@PIOFKHFP@?$AAt?$AAs?$AAx?$AA?9?$AA?$DO?$AAr?$AAo?$AAl?$AAe?$AA?5?$AA?$DN?$AA?$DN?$AA?5?$AAP?$AAJ?$AAS?$AAI?$AAP?$AA_?$AAR?$AAO?$AAL?$AAE?$AA_?$AAU?$AAA?$AAS?$AA?$AA@ 0057bdd8     pjsip-core-i386-win32-vc8-debug:sip_transaction.obj
 0003:00005e20       ??_C@_1EK@CFKEDLIK@?$AAt?$AAs?$AAx?$AA?9?$AA?$DO?$AAs?$AAt?$AAa?$AAt?$AAe?$AA?5?$AA?$DN?$AA?$DN?$AA?5?$AAP?$AAJ?$AAS?$AAI?$AAP?$AA_?$AAT?$AAS?$AAX?$AA_?$AAS?$AAT?$AAA?$AAT?$AAE?$AA_?$AAT?$AAR@ 0057be20     pjsip-core-i386-win32-vc8-debug:sip_transaction.obj
 0003:00005e78       ??_C@_1DA@HGGLPIBL@?$AA?$CB?$AA?$CC?$AAS?$AAh?$AAo?$AAu?$AAl?$AAd?$AA?5?$AAn?$AAo?$AAt?$AA?5?$AAh?$AAa?$AAp?$AAp?$AAe?$AAn?$AA?$CI?$AA?$DP?$AA?$CJ?$AA?$CC?$AA?$AA@ 0057be78     pjsip-core-i386-win32-vc8-debug:sip_transaction.obj
 0003:00005eb4       ??_C@_0BF@DIDPGFKN@Should?5not?5happen?$CI?$DP?$CJ?$AA@ 0057beb4     pjsip-core-i386-win32-vc8-debug:sip_transaction.obj
 0003:00005ed0       ??_C@_1DM@COGGBFLK@?$AAm?$AAs?$AAg?$AA?9?$AA?$DO?$AAt?$AAy?$AAp?$AAe?$AA?$DN?$AA?$DN?$AAP?$AAJ?$AAS?$AAI?$AAP?$AA_?$AAR?$AAE?$AAS?$AAP?$AAO?$AAN?$AAS?$AAE?$AA_?$AAM?$AAS?$AAG?$AA?$AA@ 0057bed0     pjsip-core-i386-win32-vc8-debug:sip_transaction.obj
 0003:00005f18       ??_C@_1DI@FLLNCFGI@?$AAt?$AAs?$AAx?$AA?9?$AA?$DO?$AAl?$AAa?$AAs?$AAt?$AA_?$AAt?$AAx?$AA?5?$AA?$CB?$AA?$DN?$AA?5?$AA?$CI?$AA?$CI?$AAv?$AAo?$AAi?$AAd?$AA?5?$AA?$CK?$AA?$CJ?$AA0?$AA?$CJ?$AA?$AA@ 0057bf18     pjsip-core-i386-win32-vc8-debug:sip_transaction.obj
 0003:00005f60       ??_C@_1KC@KPPIAMJA@?$AAt?$AAs?$AAx?$AA?9?$AA?$DO?$AAs?$AAt?$AAa?$AAt?$AAe?$AA?5?$AA?$DN?$AA?$DN?$AA?5?$AAP?$AAJ?$AAS?$AAI?$AAP?$AA_?$AAT?$AAS?$AAX?$AA_?$AAS?$AAT?$AAA?$AAT?$AAE?$AA_?$AAP?$AAR@ 0057bf60     pjsip-core-i386-win32-vc8-debug:sip_transaction.obj
 0003:00006024       ??_C@_1DO@KNIABGJD@?$AA?$CB?$AA?$CC?$AAE?$AAx?$AAp?$AAe?$AAc?$AAt?$AAi?$AAn?$AAg?$AA?5?$AAr?$AAe?$AAs?$AAp?$AAo?$AAn?$AAs?$AAe?$AA?5?$AAm?$AAe?$AAs?$AAs?$AAa?$AAg?$AAe?$AA?$CB?$AA?$CC?$AA?$AA@ 0057c024     pjsip-core-i386-win32-vc8-debug:sip_transaction.obj
 0003:00006070       ??_C@_0BM@BMKJADDJ@Expecting?5response?5message?$CB?$AA@ 0057c070     pjsip-core-i386-win32-vc8-debug:sip_transaction.obj
 0003:00006098       ??_C@_1EE@LLFENLLN@?$AAe?$AAv?$AAe?$AAn?$AAt?$AA?9?$AA?$DO?$AAt?$AAy?$AAp?$AAe?$AA?5?$AA?$DN?$AA?$DN?$AA?5?$AAP?$AAJ?$AAS?$AAI?$AAP?$AA_?$AAE?$AAV?$AAE?$AAN?$AAT?$AA_?$AAR?$AAX?$AA_?$AAM?$AAS@ 0057c098     pjsip-core-i386-win32-vc8-debug:sip_transaction.obj
 0003:000060f0       ??_C@_1KE@CAGBNPGI@?$AAt?$AAs?$AAx?$AA?9?$AA?$DO?$AAs?$AAt?$AAa?$AAt?$AAe?$AA?5?$AA?$DN?$AA?$DN?$AA?5?$AAP?$AAJ?$AAS?$AAI?$AAP?$AA_?$AAT?$AAS?$AAX?$AA_?$AAS?$AAT?$AAA?$AAT?$AAE?$AA_?$AAP?$AAR@ 0057c0f0     pjsip-core-i386-win32-vc8-debug:sip_transaction.obj
 0003:000061b8       ??_C@_1JM@PIDLPNDF@?$AAe?$AAv?$AAe?$AAn?$AAt?$AA?9?$AA?$DO?$AAt?$AAy?$AAp?$AAe?$AA?5?$AA?$DN?$AA?$DN?$AA?5?$AAP?$AAJ?$AAS?$AAI?$AAP?$AA_?$AAE?$AAV?$AAE?$AAN?$AAT?$AA_?$AAT?$AAX?$AA_?$AAM?$AAS@ 0057c1b8     pjsip-core-i386-win32-vc8-debug:sip_transaction.obj
 0003:00006274       ??_C@_0CK@BFJIAGKI@Received?5illegal?5ACK?5for?5?$CF?4?$CKs?5tr@ 0057c274     pjsip-core-i386-win32-vc8-debug:sip_transaction.obj
 0003:000062a8       ??_C@_1FA@MBGMHMCL@?$AAt?$AAs?$AAx?$AA?9?$AA?$DO?$AAs?$AAt?$AAa?$AAt?$AAe?$AA?5?$AA?$DN?$AA?$DN?$AA?5?$AAP?$AAJ?$AAS?$AAI?$AAP?$AA_?$AAT?$AAS?$AAX?$AA_?$AAS?$AAT?$AAA?$AAT?$AAE?$AA_?$AAC?$AAO@ 0057c2a8     pjsip-core-i386-win32-vc8-debug:sip_transaction.obj
 0003:00006308       ??_C@_1FO@HIEMJBOI@?$AAe?$AAv?$AAe?$AAn?$AAt?$AA?9?$AA?$DO?$AAb?$AAo?$AAd?$AAy?$AA?4?$AAt?$AAi?$AAm?$AAe?$AAr?$AA?4?$AAe?$AAn?$AAt?$AAr?$AAy?$AA?5?$AA?$DN?$AA?$DN?$AA?5?$AA?$CG?$AAt?$AAs?$AAx?$AA?9@ 0057c308     pjsip-core-i386-win32-vc8-debug:sip_transaction.obj
 0003:00006378       ??_C@_1LM@GLKCGDEI@?$AAm?$AAs?$AAg?$AA?9?$AA?$DO?$AAl?$AAi?$AAn?$AAe?$AA?4?$AAr?$AAe?$AAq?$AA?4?$AAm?$AAe?$AAt?$AAh?$AAo?$AAd?$AA?4?$AAi?$AAd?$AA?5?$AA?$DN?$AA?$DN?$AA?5?$AAP?$AAJ?$AAS?$AAI?$AAP@ 0057c378     pjsip-core-i386-win32-vc8-debug:sip_transaction.obj
 0003:00006460       ??_C@_1EM@JCLOFBFI@?$AAt?$AAs?$AAx?$AA?9?$AA?$DO?$AAm?$AAe?$AAt?$AAh?$AAo?$AAd?$AA?4?$AAi?$AAd?$AA?5?$AA?$DN?$AA?$DN?$AA?5?$AAP?$AAJ?$AAS?$AAI?$AAP?$AA_?$AAI?$AAN?$AAV?$AAI?$AAT?$AAE?$AA_?$AAM@ 0057c460     pjsip-core-i386-win32-vc8-debug:sip_transaction.obj
 0003:000064c0       ??_C@_1FA@EIPBHIIC@?$AAt?$AAs?$AAx?$AA?9?$AA?$DO?$AAs?$AAt?$AAa?$AAt?$AAe?$AA?5?$AA?$DN?$AA?$DN?$AA?5?$AAP?$AAJ?$AAS?$AAI?$AAP?$AA_?$AAT?$AAS?$AAX?$AA_?$AAS?$AAT?$AAA?$AAT?$AAE?$AA_?$AAC?$AAO@ 0057c4c0     pjsip-core-i386-win32-vc8-debug:sip_transaction.obj
 0003:00006520       ??_C@_1EC@GLCOPIJD@?$AAe?$AAv?$AAe?$AAn?$AAt?$AA?9?$AA?$DO?$AAt?$AAy?$AAp?$AAe?$AA?5?$AA?$DN?$AA?$DN?$AA?5?$AAP?$AAJ?$AAS?$AAI?$AAP?$AA_?$AAE?$AAV?$AAE?$AAN?$AAT?$AA_?$AAT?$AAI?$AAM?$AAE?$AAR@ 0057c520     pjsip-core-i386-win32-vc8-debug:sip_transaction.obj
 0003:00006570       ??_C@_1FC@NIMEPMCP@?$AAt?$AAs?$AAx?$AA?9?$AA?$DO?$AAs?$AAt?$AAa?$AAt?$AAe?$AA?5?$AA?$DN?$AA?$DN?$AA?5?$AAP?$AAJ?$AAS?$AAI?$AAP?$AA_?$AAT?$AAS?$AAX?$AA_?$AAS?$AAT?$AAA?$AAT?$AAE?$AA_?$AAT?$AAE@ 0057c570     pjsip-core-i386-win32-vc8-debug:sip_transaction.obj
 0003:000065d4       ??_C@_1DM@JBDMLEGM@?$AA?$CB?$AA?$CC?$AAN?$AAo?$AAt?$AA?5?$AAe?$AAx?$AAp?$AAe?$AAc?$AAt?$AAi?$AAn?$AAg?$AA?5?$AAa?$AAn?$AAy?$AA?5?$AAe?$AAv?$AAe?$AAn?$AAt?$AAs?$AA?$CB?$AA?$CB?$AA?$CC?$AA?$AA@ 0057c5d4     pjsip-core-i386-win32-vc8-debug:sip_transaction.obj
 0003:0000661c       ??_C@_0BL@NBNHKEAI@Not?5expecting?5any?5events?$CB?$CB?$AA@ 0057c61c     pjsip-core-i386-win32-vc8-debug:sip_transaction.obj
 0003:0000663c       ??_C@_06GBGGOGBI@mod?9ua?$AA@ 0057c63c     pjsip-core-i386-win32-vc8-debug:sip_ua_layer.obj
 0003:00006644       ??_C@_05OKIAFJEO@?5ua?$CFp?$AA@ 0057c644     pjsip-core-i386-win32-vc8-debug:sip_ua_layer.obj
 0003:0000664c       ??_C@_04JKMMAKMG@ua?$CFp?$AA@ 0057c64c     pjsip-core-i386-win32-vc8-debug:sip_ua_layer.obj
 0003:00006654       ??_C@_1CI@LBJMJHFA@?$AAm?$AAo?$AAd?$AA_?$AAu?$AAa?$AA?4?$AAm?$AAo?$AAd?$AA?4?$AAi?$AAd?$AA?5?$AA?$DN?$AA?$DN?$AA?5?$AA?9?$AA1?$AA?$AA@ 0057c654     pjsip-core-i386-win32-vc8-debug:sip_ua_layer.obj
 0003:00006688       ??_C@_1GM@FPPFEBII@?$AAd?$AA?3?$AA?2?$AAm?$AAy?$AAg?$AAi?$AAt?$AA?2?$AAp?$AAj?$AAp?$AAr?$AAo?$AAj?$AAe?$AAc?$AAt?$AA?9?$AA1?$AA?4?$AA4?$AA?2?$AAp?$AAj?$AAs?$AAi?$AAp?$AA?2?$AAs?$AAr?$AAc@ 0057c688     pjsip-core-i386-win32-vc8-debug:sip_ua_layer.obj
 0003:0000670c       ??_C@_1CE@HBPNHBHJ@?$AAu?$AAa?$AA?5?$AA?$DN?$AA?$DN?$AA?5?$AA?$CG?$AAm?$AAo?$AAd?$AA_?$AAu?$AAa?$AA?4?$AAm?$AAo?$AAd?$AA?$AA@ 0057c70c     pjsip-core-i386-win32-vc8-debug:sip_ua_layer.obj
 0003:00006738       ??_C@_1CI@LIIODHCN@?$AAm?$AAo?$AAd?$AA_?$AAu?$AAa?$AA?4?$AAm?$AAo?$AAd?$AA?4?$AAi?$AAd?$AA?5?$AA?$CB?$AA?$DN?$AA?5?$AA?9?$AA1?$AA?$AA@ 0057c738     pjsip-core-i386-win32-vc8-debug:sip_ua_layer.obj
 0003:00006768       ??_C@_1GI@NIHHKAMB@?$AAd?$AAl?$AAg?$AA_?$AAs?$AAe?$AAt?$AA?9?$AA?$DO?$AAd?$AAl?$AAg?$AA_?$AAl?$AAi?$AAs?$AAt?$AA?4?$AAn?$AAe?$AAx?$AAt?$AA?5?$AA?$CB?$AA?$DN?$AA?5?$AA?$CI?$AAv?$AAo?$AAi?$AAd?$AA?$CK@ 0057c768     pjsip-core-i386-win32-vc8-debug:sip_ua_layer.obj
 0003:000067e8       ??_C@_1JC@GJMIEGFD@?$AAd?$AAl?$AAg?$AA?9?$AA?$DO?$AAl?$AAo?$AAc?$AAa?$AAl?$AA?4?$AAi?$AAn?$AAf?$AAo?$AA?5?$AA?$CG?$AA?$CG?$AA?5?$AAd?$AAl?$AAg?$AA?9?$AA?$DO?$AAl?$AAo?$AAc?$AAa?$AAl?$AA?4?$AAi?$AAn@ 0057c7e8     pjsip-core-i386-win32-vc8-debug:sip_ua_layer.obj
 0003:00006898       ??_C@_1BE@LFFAKOF@?$AAu?$AAa?$AA?5?$AA?$CG?$AA?$CG?$AA?5?$AAd?$AAl?$AAg?$AA?$AA@ 0057c898     pjsip-core-i386-win32-vc8-debug:sip_ua_layer.obj
 0003:000068b0       ??_C@_1DK@GBALBBB@?$AA?$CB?$AA?$CC?$AAD?$AAi?$AAa?$AAl?$AAo?$AAg?$AA?5?$AAi?$AAs?$AA?5?$AAn?$AAo?$AAt?$AA?5?$AAr?$AAe?$AAg?$AAi?$AAs?$AAt?$AAe?$AAr?$AAe?$AAd?$AA?$CB?$AA?$CC?$AA?$AA@ 0057c8b0     pjsip-core-i386-win32-vc8-debug:sip_ua_layer.obj
 0003:000068f8       ??_C@_0BK@BPGLCCGL@Dialog?5is?5not?5registered?$CB?$AA@ 0057c8f8     pjsip-core-i386-win32-vc8-debug:sip_ua_layer.obj
 0003:00006918       ??_C@_1BK@HCNCDBPL@?$AAd?$AAl?$AAg?$AA?9?$AA?$DO?$AAd?$AAl?$AAg?$AA_?$AAs?$AAe?$AAt?$AA?$AA@ 0057c918     pjsip-core-i386-win32-vc8-debug:sip_ua_layer.obj
 0003:00006938       ??_C@_1BK@HHDHKCML@?$AAm?$AAo?$AAd?$AA_?$AAu?$AAa?$AA?4?$AAe?$AAn?$AAd?$AAp?$AAt?$AA?$AA@ 0057c938     pjsip-core-i386-win32-vc8-debug:sip_ua_layer.obj
 0003:00006958       ??_C@_1FC@MMFPBIIC@?$AAp?$AAj?$AA_?$AAs?$AAt?$AAr?$AAc?$AAm?$AAp?$AA?$CI?$AA?$CG?$AAd?$AAl?$AAg?$AA?9?$AA?$DO?$AAc?$AAa?$AAl?$AAl?$AA_?$AAi?$AAd?$AA?9?$AA?$DO?$AAi?$AAd?$AA?0?$AA?5?$AAc?$AAa?$AAl@ 0057c958     pjsip-core-i386-win32-vc8-debug:sip_ua_layer.obj
 0003:000069c0       ??_C@_1EG@ONDDBEA@?$AAc?$AAa?$AAl?$AAl?$AA_?$AAi?$AAd?$AA?5?$AA?$CG?$AA?$CG?$AA?5?$AAl?$AAo?$AAc?$AAa?$AAl?$AA_?$AAt?$AAa?$AAg?$AA?5?$AA?$CG?$AA?$CG?$AA?5?$AAr?$AAe?$AAm?$AAo?$AAt?$AAe?$AA_?$AAt@ 0057c9c0     pjsip-core-i386-win32-vc8-debug:sip_ua_layer.obj
 0003:00006a14       ??_C@_0BN@IDPPCIAF@Unable?5to?5find?5dialog?5for?5?$CFs?$AA@ 0057ca14     pjsip-core-i386-win32-vc8-debug:sip_ua_layer.obj
 0003:00006a38       ??_C@_0DB@GAIHGHNL@Unable?5to?5find?5dialog?5for?5?$CFs?0?5an@ 0057ca38     pjsip-core-i386-win32-vc8-debug:sip_ua_layer.obj
 0003:00006a74       ??_C@_0P@JPGJPHAN@sip_ua_layer?4c?$AA@ 0057ca74     pjsip-core-i386-win32-vc8-debug:sip_ua_layer.obj
 0003:00006a88       ??_C@_0DE@OALAGOOG@Unable?5to?5find?5dialogset?5for?5?$CFs?0@ 0057ca88     pjsip-core-i386-win32-vc8-debug:sip_ua_layer.obj
 0003:00006ac8       ??_C@_0FB@ELNGKJEC@Unhandled?5forked?5?$CFs?5from?5?$CFs?3?$CFd?0?5@ 0057cac8     pjsip-core-i386-win32-vc8-debug:sip_ua_layer.obj
 0003:00006b2c       ??_C@_0CK@KFGINAJM@Received?5forked?5?$CFs?5for?5existing?5@ 0057cb2c     pjsip-core-i386-win32-vc8-debug:sip_ua_layer.obj
 0003:00006b60       ??_C@_1FM@MIPCEEKM@?$AAd?$AAl?$AAg?$AA_?$AAs?$AAe?$AAt?$AA?5?$AA?$CG?$AA?$CG?$AA?5?$AA?$CB?$AAp?$AAj?$AA_?$AAl?$AAi?$AAs?$AAt?$AA_?$AAe?$AAm?$AAp?$AAt?$AAy?$AA?$CI?$AA?$CG?$AAd?$AAl?$AAg?$AA_?$AAs@ 0057cb60     pjsip-core-i386-win32-vc8-debug:sip_ua_layer.obj
 0003:00006bd0       ??_C@_0EC@DDCMMPIA@Received?5strayed?52xx?5response?5?$CIn@ 0057cbd0     pjsip-core-i386-win32-vc8-debug:sip_ua_layer.obj
 0003:00006c20       ??_C@_0O@KEAHOJAP@?5?5?5?5?$FLforked?$FN?5?$AA@ 0057cc20     pjsip-core-i386-win32-vc8-debug:sip_ua_layer.obj
 0003:00006c30       ??_C@_02DKCKIIND@?$CFs?$AA@ 0057cc30     pjsip-core-i386-win32-vc8-debug:sip_ua_layer.obj
 0003:00006c34       ??_C@_08NOPEJEGK@?5?5?$FLin?$FN?5?5?$AA@ 0057cc34     pjsip-core-i386-win32-vc8-debug:sip_ua_layer.obj
 0003:00006c40       ??_C@_08JOIOMKFD@?5?5?$FLout?$FN?5?$AA@ 0057cc40     pjsip-core-i386-win32-vc8-debug:sip_ua_layer.obj
 0003:00006c4c       ??_C@_0BF@MKPBNBHJ@Dumping?5dialog?5sets?3?$AA@ 0057cc4c     pjsip-core-i386-win32-vc8-debug:sip_ua_layer.obj
 0003:00006c68       ??_C@_0BK@BICBONOC@Number?5of?5dialog?5sets?3?5?$CFu?$AA@ 0057cc68     pjsip-core-i386-win32-vc8-debug:sip_ua_layer.obj
 0003:00006c88       ??_C@_0L@JKLBPBP@?$CFs?$FL?$CFs?$FN?5?5?$CFs?$AA@ 0057cc88     pjsip-core-i386-win32-vc8-debug:sip_ua_layer.obj
 0003:00006c98       ??_C@_03MPKHENCJ@est?$AA@  0057cc98     pjsip-core-i386-win32-vc8-debug:sip_ua_layer.obj
 0003:00006c9c       ??_C@_03NLJIHOMM@?5?9?5?$AA@ 0057cc9c     pjsip-core-i386-win32-vc8-debug:sip_ua_layer.obj
 0003:00006ca0       ??_C@_0BD@HODLEDPN@?$DM?9?9uri?5too?5long?9?9?$DO?$AA@ 0057cca0     pjsip-core-i386-win32-vc8-debug:sip_ua_layer.obj
 0003:00006cb8       ??_C@_0BD@IONFPPFG@TCP?5IPv6?5transport?$AA@ 0057ccb8     pjsip-core-i386-win32-vc8-debug:sip_transport.obj
 0003:00006cd0       ??_C@_0BD@LIBJHFGK@UDP?5IPv6?5transport?$AA@ 0057ccd0     pjsip-core-i386-win32-vc8-debug:sip_transport.obj
 0003:00006ce8       ??_C@_0BM@JFHDLEFO@Loopback?5datagram?5transport?$AA@ 0057cce8     pjsip-core-i386-win32-vc8-debug:sip_transport.obj
 0003:00006d0c       ??_C@_0L@PGGNCDOP@LOOP?9DGRAM?$AA@ 0057cd0c     pjsip-core-i386-win32-vc8-debug:sip_transport.obj
 0003:00006d1c       ??_C@_0BD@IJLEDLFM@Loopback?5transport?$AA@ 0057cd1c     pjsip-core-i386-win32-vc8-debug:sip_transport.obj
 0003:00006d34       ??_C@_04KGNEGCGI@LOOP?$AA@ 0057cd34     pjsip-core-i386-win32-vc8-debug:sip_transport.obj
 0003:00006d3c       ??_C@_0P@BEPMAJFA@SCTP?5transport?$AA@ 0057cd3c     pjsip-core-i386-win32-vc8-debug:sip_transport.obj
 0003:00006d50       ??_C@_04BOMBJBBC@SCTP?$AA@ 0057cd50     pjsip-core-i386-win32-vc8-debug:sip_transport.obj
 0003:00006d58       ??_C@_0O@BHJFMMNA@TLS?5transport?$AA@ 0057cd58     pjsip-core-i386-win32-vc8-debug:sip_transport.obj
 0003:00006d68       ??_C@_03HCMCMCCF@TLS?$AA@  0057cd68     pjsip-core-i386-win32-vc8-debug:sip_transport.obj
 0003:00006d6c       ??_C@_0O@EHHLMLBF@TCP?5transport?$AA@ 0057cd6c     pjsip-core-i386-win32-vc8-debug:sip_transport.obj
 0003:00006d7c       ??_C@_03FCLDNGNL@TCP?$AA@  0057cd7c     pjsip-core-i386-win32-vc8-debug:sip_transport.obj
 0003:00006d80       ??_C@_0O@KHAHCMDL@UDP?5transport?$AA@ 0057cd80     pjsip-core-i386-win32-vc8-debug:sip_transport.obj
 0003:00006d90       ??_C@_03OPEAKHDL@UDP?$AA@  0057cd90     pjsip-core-i386-win32-vc8-debug:sip_transport.obj
 0003:00006d94       ??_C@_0M@NNPCGPMF@Unspecified?$AA@ 0057cd94     pjsip-core-i386-win32-vc8-debug:sip_transport.obj
 0003:00006da4       ??_C@_0O@EMLDOJH@mod?9msg?9print?$AA@ 0057cda4     pjsip-core-i386-win32-vc8-debug:sip_transport.obj
 0003:00006db4       ??_C@_1DG@DHAGKGN@?$AA?$CB?$AA?$CC?$AAI?$AAn?$AAv?$AAa?$AAl?$AAi?$AAd?$AA?5?$AAt?$AAr?$AAa?$AAn?$AAs?$AAp?$AAo?$AAr?$AAt?$AA?5?$AAt?$AAy?$AAp?$AAe?$AA?$CB?$AA?$CC?$AA?$AA@ 0057cdb4     pjsip-core-i386-win32-vc8-debug:sip_transport.obj
 0003:00006df8       ??_C@_1GO@HOGIMHNB@?$AAd?$AA?3?$AA?2?$AAm?$AAy?$AAg?$AAi?$AAt?$AA?2?$AAp?$AAj?$AAp?$AAr?$AAo?$AAj?$AAe?$AAc?$AAt?$AA?9?$AA1?$AA?4?$AA4?$AA?2?$AAp?$AAj?$AAs?$AAi?$AAp?$AA?2?$AAs?$AAr?$AAc@ 0057cdf8     pjsip-core-i386-win32-vc8-debug:sip_transport.obj
 0003:00006e7c       ??_C@_0BI@BEOAFBKO@Invalid?5transport?5type?$CB?$AA@ 0057ce7c     pjsip-core-i386-win32-vc8-debug:sip_transport.obj
 0003:00006e98       ??_C@_1LO@NBPJFAFK@?$AAs?$AAt?$AAr?$AAl?$AAe?$AAn?$AA?$CI?$AAt?$AAp?$AA_?$AAn?$AAa?$AAm?$AAe?$AA?$CJ?$AA?5?$AA?$DM?$AA?5?$AA?$CI?$AAs?$AAi?$AAz?$AAe?$AAo?$AAf?$AA?$CI?$AAt?$AAr?$AAa?$AAn?$AAs?$AAp@ 0057ce98     pjsip-core-i386-win32-vc8-debug:sip_transport.obj
 0003:00006f7c       ??_C@_1DO@EBDIFFC@?$AAt?$AAp?$AA_?$AAf?$AAl?$AAa?$AAg?$AA?5?$AA?$CG?$AA?$CG?$AA?5?$AAt?$AAp?$AA_?$AAn?$AAa?$AAm?$AAe?$AA?5?$AA?$CG?$AA?$CG?$AA?5?$AAd?$AAe?$AAf?$AA_?$AAp?$AAo?$AAr?$AAt?$AA?$AA@ 0057cf7c     pjsip-core-i386-win32-vc8-debug:sip_transport.obj
 0003:00006fc8       ??_C@_1DE@EFHDJIP@?$AA?$CB?$AA?$CC?$AAI?$AAn?$AAv?$AAa?$AAl?$AAi?$AAd?$AA?5?$AAt?$AAr?$AAa?$AAn?$AAs?$AAp?$AAo?$AAr?$AAt?$AA?5?$AAn?$AAa?$AAm?$AAe?$AA?$CC?$AA?$AA@ 0057cfc8     pjsip-core-i386-win32-vc8-debug:sip_transport.obj
 0003:00007008       ??_C@_0BH@GGHDBDC@Invalid?5transport?5name?$AA@ 0057d008     pjsip-core-i386-win32-vc8-debug:sip_transport.obj
 0003:00007024       ??_C@_1DE@DBLPNJPE@?$AA?$CB?$AA?$CC?$AAI?$AAn?$AAv?$AAa?$AAl?$AAi?$AAd?$AA?5?$AAt?$AAr?$AAa?$AAn?$AAs?$AAp?$AAo?$AAr?$AAt?$AA?5?$AAt?$AAy?$AAp?$AAe?$AA?$CC?$AA?$AA@ 0057d024     pjsip-core-i386-win32-vc8-debug:sip_transport.obj
 0003:00007064       ??_C@_0BH@KNGEPBEC@Invalid?5transport?5type?$AA@ 0057d064     pjsip-core-i386-win32-vc8-debug:sip_transport.obj
 0003:00007080       ??_C@_06HHKALCGB@tdta?$CFp?$AA@ 0057d080     pjsip-core-i386-win32-vc8-debug:sip_transport.obj
 0003:00007088       ??_C@_1BO@MBFJAAKI@?$AAm?$AAg?$AAr?$AA?5?$AA?$CG?$AA?$CG?$AA?5?$AAp?$AA_?$AAt?$AAd?$AAa?$AAt?$AAa?$AA?$AA@ 0057d088     pjsip-core-i386-win32-vc8-debug:sip_transport.obj
 0003:000070ac       ??_C@_0BF@FNAOFPOF@Destroying?5txdata?5?$CFs?$AA@ 0057d0ac     pjsip-core-i386-win32-vc8-debug:sip_transport.obj
 0003:000070c8       ??_C@_1EE@POPHHCJO@?$AAp?$AAj?$AA_?$AAa?$AAt?$AAo?$AAm?$AAi?$AAc?$AA_?$AAg?$AAe?$AAt?$AA?$CI?$AAt?$AAd?$AAa?$AAt?$AAa?$AA?9?$AA?$DO?$AAr?$AAe?$AAf?$AA_?$AAc?$AAn?$AAt?$AA?$CJ?$AA?5?$AA?$DO?$AA?5@ 0057d0c8     pjsip-core-i386-win32-vc8-debug:sip_transport.obj
 0003:0000711c       ??_C@_1BE@PNMDECGB@?$AAs?$AAi?$AAz?$AAe?$AA?5?$AA?$CB?$AA?$DN?$AA?5?$AA0?$AA?$AA@ 0057d11c     pjsip-core-i386-win32-vc8-debug:sip_transport.obj
 0003:00007134       ??_C@_0CC@DIPPPFIF@Response?5msg?5?$CFd?1?$CF?4?$CKs?1cseq?$DN?$CFd?5?$CI?$CFs@ 0057d134     pjsip-core-i386-win32-vc8-debug:sip_transport.obj
 0003:0000715c       ??_C@_0BO@FBJFIDDA@Request?5msg?5?$CF?4?$CKs?1cseq?$DN?$CFd?5?$CI?$CFs?$CJ?$AA@ 0057d15c     pjsip-core-i386-win32-vc8-debug:sip_transport.obj
 0003:00007180       ??_C@_0M@JCCICOOO@INVALID?5MSG?$AA@ 0057d180     pjsip-core-i386-win32-vc8-debug:sip_transport.obj
 0003:00007190       ??_C@_1BK@GHEHKPIH@?$AAt?$AAd?$AAa?$AAt?$AAa?$AA?5?$AA?$CG?$AA?$CG?$AA?5?$AAs?$AAe?$AAl?$AA?$AA@ 0057d190     pjsip-core-i386-win32-vc8-debug:sip_transport.obj
 0003:000071b0       ??_C@_02BBAHNLBA@?$CFp?$AA@ 0057d1b0     pjsip-core-i386-win32-vc8-debug:sip_transport.obj
 0003:000071b4       ??_C@_05MIOBCJBH@rdata?$AA@ 0057d1b4     pjsip-core-i386-win32-vc8-debug:sip_transport.obj
 0003:000071bc       ??_C@_0BA@BCOMPIDA@sip_transport?4c?$AA@ 0057d1bc     pjsip-core-i386-win32-vc8-debug:sip_transport.obj
 0003:000071d0       ??_C@_0CG@GHPNJCCG@Unable?5to?5send?5?$CFs?3?5message?5is?5pe@ 0057d1d0     pjsip-core-i386-win32-vc8-debug:sip_transport.obj
 0003:00007200       ??_C@_1DG@KNKCHNAG@?$AA?$CB?$AA?$CC?$AAI?$AAn?$AAv?$AAa?$AAl?$AAi?$AAd?$AA?5?$AAo?$AAp?$AAe?$AAr?$AAa?$AAt?$AAi?$AAo?$AAn?$AA?5?$AAs?$AAt?$AAe?$AAp?$AA?$CB?$AA?$CC?$AA?$AA@ 0057d200     pjsip-core-i386-win32-vc8-debug:sip_transport.obj
 0003:00007240       ??_C@_0BI@ECCEKPHK@Invalid?5operation?5step?$CB?$AA@ 0057d240     pjsip-core-i386-win32-vc8-debug:sip_transport.obj
 0003:0000725c       ??_C@_1CI@IPCNOINL@?$AAt?$AAr?$AA?5?$AA?$CG?$AA?$CG?$AA?5?$AAt?$AAd?$AAa?$AAt?$AAa?$AA?5?$AA?$CG?$AA?$CG?$AA?5?$AAa?$AAd?$AAd?$AAr?$AA?$AA@ 0057d25c     pjsip-core-i386-win32-vc8-debug:sip_transport.obj
 0003:0000728c       ??_C@_03DGOGAGNC@raw?$AA@  0057d28c     pjsip-core-i386-win32-vc8-debug:sip_transport.obj
 0003:00007290       ??_C@_1CE@JIJCJACB@?$AAt?$AAp?$AA?5?$AA?$CB?$AA?$DN?$AA?5?$AA?$CI?$AA?$CI?$AAv?$AAo?$AAi?$AAd?$AA?5?$AA?$CK?$AA?$CJ?$AA0?$AA?$CJ?$AA?$AA@ 0057d290     pjsip-core-i386-win32-vc8-debug:sip_transport.obj
 0003:000072bc       ??_C@_1CO@KHDNBGFB@?$AAt?$AAp?$AA?9?$AA?$DO?$AAi?$AAd?$AAl?$AAe?$AA_?$AAt?$AAi?$AAm?$AAe?$AAr?$AA?4?$AAi?$AAd?$AA?5?$AA?$DN?$AA?$DN?$AA?5?$AA0?$AA?$AA@ 0057d2bc     pjsip-core-i386-win32-vc8-debug:sip_transport.obj
 0003:000072f4       ??_C@_1DO@GDEEOGNP@?$AAp?$AAj?$AA_?$AAa?$AAt?$AAo?$AAm?$AAi?$AAc?$AA_?$AAg?$AAe?$AAt?$AA?$CI?$AAt?$AAp?$AA?9?$AA?$DO?$AAr?$AAe?$AAf?$AA_?$AAc?$AAn?$AAt?$AA?$CJ?$AA?5?$AA?$DO?$AA?5?$AA0?$AA?$AA@ 0057d2f4     pjsip-core-i386-win32-vc8-debug:sip_transport.obj
 0003:00007340       ??_C@_1EA@LALNJIBK@?$AAp?$AAj?$AA_?$AAa?$AAt?$AAo?$AAm?$AAi?$AAc?$AA_?$AAg?$AAe?$AAt?$AA?$CI?$AAt?$AAp?$AA?9?$AA?$DO?$AAr?$AAe?$AAf?$AA_?$AAc?$AAn?$AAt?$AA?$CJ?$AA?5?$AA?$DN?$AA?$DN?$AA?5?$AA0?$AA?$AA@ 0057d340     pjsip-core-i386-win32-vc8-debug:sip_transport.obj
 0003:00007390       ??_C@_1GE@ODJKLGAI@?$AAp?$AAj?$AA_?$AAl?$AAi?$AAs?$AAt?$AA_?$AAf?$AAi?$AAn?$AAd?$AA_?$AAn?$AAo?$AAd?$AAe?$AA?$CI?$AA?$CG?$AAm?$AAg?$AAr?$AA?9?$AA?$DO?$AAf?$AAa?$AAc?$AAt?$AAo?$AAr?$AAy?$AA_@ 0057d390     pjsip-core-i386-win32-vc8-debug:sip_transport.obj
 0003:00007408       ??_C@_0BL@FCLJOKON@Transport?5manager?5created?4?$AA@ 0057d408     pjsip-core-i386-win32-vc8-debug:sip_transport.obj
 0003:00007428       ??_C@_06DFEDPGIK@tmgr?$CFp?$AA@ 0057d428     pjsip-core-i386-win32-vc8-debug:sip_transport.obj
 0003:00007430       ??_C@_1EA@MDAPBLGD@?$AAp?$AAo?$AAo?$AAl?$AA?5?$AA?$CG?$AA?$CG?$AA?5?$AAe?$AAn?$AAd?$AAp?$AAt?$AA?5?$AA?$CG?$AA?$CG?$AA?5?$AAr?$AAx?$AA_?$AAc?$AAb?$AA?5?$AA?$CG?$AA?$CG?$AA?5?$AAp?$AA_?$AAm?$AAg?$AAr?$AA?$AA@ 0057d430     pjsip-core-i386-win32-vc8-debug:sip_transport.obj
 0003:00007480       ??_C@_1EC@IKHIAHAD@?$AAt?$AAp?$AAm?$AAg?$AAr?$AA?5?$AA?$CG?$AA?$CG?$AA?5?$AAp?$AAo?$AAo?$AAl?$AA?5?$AA?$CG?$AA?$CG?$AA?5?$AAi?$AAp?$AA_?$AAa?$AAd?$AAd?$AAr?$AA?5?$AA?$CG?$AA?$CG?$AA?5?$AAp?$AAo?$AAr?$AAt@ 0057d480     pjsip-core-i386-win32-vc8-debug:sip_transport.obj
 0003:000074d0       ??_C@_0CK@FGDGGPEI@Warning?3?5?$CFd?5transmit?5buffer?$CIs?$CJ?5n@ 0057d4d0     pjsip-core-i386-win32-vc8-debug:sip_transport.obj
 0003:00007504       ??_C@_0BN@ICLNKKAJ@Destroying?5transport?5manager?$AA@ 0057d504     pjsip-core-i386-win32-vc8-debug:sip_transport.obj
 0003:00007528       ??_C@_0EM@JMILNFHN@Error?5processing?5?$CFd?5bytes?5packet@ 0057d528     pjsip-core-i386-win32-vc8-debug:sip_transport.obj
 0003:00007584       ??_C@_0DM@LJBJFPEI@?3?5?$CFs?5exception?5when?5parsing?5?8?$CF?4?$CK@ 0057d584     pjsip-core-i386-win32-vc8-debug:sip_transport.obj
 0003:000075cc       ??_C@_1DA@MFMDOPJP@?$AAr?$AAd?$AAa?$AAt?$AAa?$AA?9?$AA?$DO?$AAp?$AAk?$AAt?$AA_?$AAi?$AAn?$AAf?$AAo?$AA?4?$AAl?$AAe?$AAn?$AA?5?$AA?$DO?$AA?5?$AA0?$AA?$AA@ 0057d5cc     pjsip-core-i386-win32-vc8-debug:sip_transport.obj
 0003:00007608       ??_C@_08MFHJIEKN@contact?3?$AA@ 0057d608     pjsip-core-i386-win32-vc8-debug:sip_transport.obj
 0003:00007614       ??_C@_03HPLEMDKK@200?$AA@  0057d614     pjsip-core-i386-win32-vc8-debug:sip_transport.obj
 0003:00007618       ??_C@_04KEBMPFGO@Via?3?$AA@ 0057d618     pjsip-core-i386-win32-vc8-debug:sip_transport.obj
 0003:00007620       ??_C@_1CA@IPAHCLBF@?$AAt?$AAp?$AA?$CB?$AA?$DN?$AA?$CI?$AA?$CI?$AAv?$AAo?$AAi?$AAd?$AA?5?$AA?$CK?$AA?$CJ?$AA0?$AA?$CJ?$AA?$AA@ 0057d620     pjsip-core-i386-win32-vc8-debug:sip_transport.obj
 0003:00007648       ??_C@_0BG@IGFLAEKF@?5?5?$CFs?5?$CFs?5?$CIrefcnt?$DN?$CFd?$CFs?$CJ?$AA@ 0057d648     pjsip-core-i386-win32-vc8-debug:sip_transport.obj
 0003:00007662       ??_C@_00CNPNBAHC@?$AA@     0057d662     pjsip-core-i386-win32-vc8-debug:sip_transport.obj
 0003:00007664       ??_C@_07DBMJBCPL@?5?$FLidle?$FN?$AA@ 0057d664     pjsip-core-i386-win32-vc8-debug:sip_transport.obj
 0003:00007670       ??_C@_0BF@HNGNBCHG@?5Dumping?5transports?3?$AA@ 0057d670     pjsip-core-i386-win32-vc8-debug:sip_transport.obj
 0003:0000768c       ??_C@_0BA@BNAMNLNN@?5?5?$CFs?5?$CFs?3?$CF?4?$CKs?3?$CFd?$AA@ 0057d68c     pjsip-core-i386-win32-vc8-debug:sip_transport.obj
 0003:000076a0       ??_C@_0BE@FLCADGMP@?5Dumping?5listeners?3?$AA@ 0057d6a0     pjsip-core-i386-win32-vc8-debug:sip_transport.obj
 0003:000076b8       ??_C@_0CC@ENNFECFA@?5Outstanding?5transmit?5buffers?3?5?$CF@ 0057d6b8     pjsip-core-i386-win32-vc8-debug:sip_transport.obj
 0003:000076e0       ??_C@_17FPEMCAJ@?$AAm?$AAg?$AAr?$AA?$AA@ 0057d6e0     pjsip-core-i386-win32-vc8-debug:sip_transport.obj
 0003:000076ec       ??_C@_1CA@DHDBBMCM@?$AAt?$AAp?$AA?5?$AA?$CG?$AA?$CG?$AA?5?$AAc?$AAb?$AA?5?$AA?$CG?$AA?$CG?$AA?5?$AAk?$AAe?$AAy?$AA?$AA@ 0057d6ec     pjsip-core-i386-win32-vc8-debug:sip_transport.obj
 0003:00007714       ??_C@_1CA@DOBLFHPM@?$AAt?$AAp?$AA?5?$AA?$CG?$AA?$CG?$AA?5?$AA?$CB?$AAt?$AAp?$AA?9?$AA?$DO?$AAd?$AAa?$AAt?$AAa?$AA?$AA@ 0057d714     pjsip-core-i386-win32-vc8-debug:sip_transport.obj
 0003:00007740       ??_C@_1FA@PLCLAKCJ@?$AA?$CB?$AA?$CC?$AAI?$AAn?$AAv?$AAa?$AAl?$AAi?$AAd?$AA?5?$AAt?$AAr?$AAa?$AAn?$AAs?$AAp?$AAo?$AAr?$AAt?$AA?5?$AAs?$AAt?$AAa?$AAt?$AAe?$AA?5?$AAl?$AAi?$AAs?$AAt?$AAe?$AAn@ 0057d740     pjsip-core-i386-win32-vc8-debug:sip_transport.obj
 0003:000077a0       ??_C@_0CF@MDLECAOH@Invalid?5transport?5state?5listener@ 0057d7a0     pjsip-core-i386-win32-vc8-debug:sip_transport.obj
 0003:000077cc       ??_C@_1BE@OBCKLIJC@?$AAt?$AAp?$AA?5?$AA?$CG?$AA?$CG?$AA?5?$AAk?$AAe?$AAy?$AA?$AA@ 0057d7cc     pjsip-core-i386-win32-vc8-debug:sip_transport.obj
 0003:000077e4       ??_C@_0P@EGLGAFCL@sip_endpoint?4c?$AA@ 0057d7e4     pjsip-core-i386-win32-vc8-debug:sip_endpoint.obj
 0003:000077f8       ??_C@_0BJ@MGECBGBK@Module?5?$CC?$CF?4?$CKs?$CC?5registered?$AA@ 0057d7f8     pjsip-core-i386-win32-vc8-debug:sip_endpoint.obj
 0003:00007818       ??_C@_1EA@BBMDBCME@?$AA?$CB?$AA?$CC?$AAT?$AAo?$AAo?$AA?5?$AAm?$AAa?$AAn?$AAy?$AA?5?$AAm?$AAo?$AAd?$AAu?$AAl?$AAe?$AAs?$AA?5?$AAr?$AAe?$AAg?$AAi?$AAs?$AAt?$AAe?$AAr?$AAe?$AAd?$AA?$CB?$AA?$CC?$AA?$AA@ 0057d818     pjsip-core-i386-win32-vc8-debug:sip_endpoint.obj
 0003:00007864       ??_C@_0BN@JLCMAAMG@Too?5many?5modules?5registered?$CB?$AA@ 0057d864     pjsip-core-i386-win32-vc8-debug:sip_endpoint.obj
 0003:00007888       ??_C@_1JI@DOGDNJFM@?$AAp?$AAj?$AA_?$AAl?$AAi?$AAs?$AAt?$AA_?$AAs?$AAe?$AAa?$AAr?$AAc?$AAh?$AA?$CI?$AA?$CG?$AAe?$AAn?$AAd?$AAp?$AAt?$AA?9?$AA?$DO?$AAm?$AAo?$AAd?$AAu?$AAl?$AAe?$AA_?$AAl?$AAi@ 0057d888     pjsip-core-i386-win32-vc8-debug:sip_endpoint.obj
 0003:00007940       ??_C@_1HG@GNGHDJKP@?$AAp?$AAj?$AA_?$AAl?$AAi?$AAs?$AAt?$AA_?$AAf?$AAi?$AAn?$AAd?$AA_?$AAn?$AAo?$AAd?$AAe?$AA?$CI?$AA?$CG?$AAe?$AAn?$AAd?$AAp?$AAt?$AA?9?$AA?$DO?$AAm?$AAo?$AAd?$AAu?$AAl?$AAe@ 0057d940     pjsip-core-i386-win32-vc8-debug:sip_endpoint.obj
 0003:000079d0       ??_C@_1GM@LMKGELPE@?$AAd?$AA?3?$AA?2?$AAm?$AAy?$AAg?$AAi?$AAt?$AA?2?$AAp?$AAj?$AAp?$AAr?$AAo?$AAj?$AAe?$AAc?$AAt?$AA?9?$AA1?$AA?4?$AA4?$AA?2?$AAp?$AAj?$AAs?$AAi?$AAp?$AA?2?$AAs?$AAr?$AAc@ 0057d9d0     pjsip-core-i386-win32-vc8-debug:sip_endpoint.obj
 0003:00007a54       ??_C@_0CK@DNCAODEI@Module?5?$CC?$CF?4?$CKs?$CC?5can?5not?5be?5unregis@ 0057da54     pjsip-core-i386-win32-vc8-debug:sip_endpoint.obj
 0003:00007a88       ??_C@_1OA@ELJJGPEE@?$AAm?$AAo?$AAd?$AA?9?$AA?$DO?$AAi?$AAd?$AA?$DO?$AA?$DN?$AA0?$AA?5?$AA?$CG?$AA?$CG?$AA?5?$AAm?$AAo?$AAd?$AA?9?$AA?$DO?$AAi?$AAd?$AA?$DM?$AA?$CI?$AAi?$AAn?$AAt?$AA?$CJ?$AA?$CI?$AAs?$AAi?$AAz?$AAe@ 0057da88     pjsip-core-i386-win32-vc8-debug:sip_endpoint.obj
 0003:00007b98       ??_C@_1GG@LPLFIINA@?$AAp?$AAj?$AA_?$AAl?$AAi?$AAs?$AAt?$AA_?$AAf?$AAi?$AAn?$AAd?$AA_?$AAn?$AAo?$AAd?$AAe?$AA?$CI?$AA?$CG?$AAe?$AAn?$AAd?$AAp?$AAt?$AA?9?$AA?$DO?$AAm?$AAo?$AAd?$AAu?$AAl?$AAe@ 0057db98     pjsip-core-i386-win32-vc8-debug:sip_endpoint.obj
 0003:00007c14       ??_C@_0BL@HDLPHBNM@Module?5?$CC?$CF?4?$CKs?$CC?5unregistered?$AA@ 0057dc14     pjsip-core-i386-win32-vc8-debug:sip_endpoint.obj
 0003:00007c34       ??_C@_1BK@JGLJFHIM@?$AAm?$AAo?$AAd?$AA?9?$AA?$DO?$AAi?$AAd?$AA?5?$AA?$DO?$AA?$DN?$AA?5?$AA0?$AA?$AA@ 0057dc34     pjsip-core-i386-win32-vc8-debug:sip_endpoint.obj
 0003:00007c58       ??_C@_1EA@JHJJOPDK@?$AAh?$AAt?$AAy?$AAp?$AAe?$AA?5?$AA?$CB?$AA?$DN?$AA?5?$AAP?$AAJ?$AAS?$AAI?$AAP?$AA_?$AAH?$AA_?$AAO?$AAT?$AAH?$AAE?$AAR?$AA?5?$AA?$HM?$AA?$HM?$AA?5?$AAh?$AAn?$AAa?$AAm?$AAe?$AA?$AA@ 0057dc58     pjsip-core-i386-win32-vc8-debug:sip_endpoint.obj
 0003:00007ca4       ??_C@_1CK@LGNMMEDO@?$AAe?$AAn?$AAd?$AAp?$AAt?$AA?5?$AA?$CB?$AA?$DN?$AA?5?$AA?$CI?$AA?$CI?$AAv?$AAo?$AAi?$AAd?$AA?5?$AA?$CK?$AA?$CJ?$AA0?$AA?$CJ?$AA?$AA@ 0057dca4     pjsip-core-i386-win32-vc8-debug:sip_endpoint.obj
 0003:00007cd8       ??_C@_1CK@NFBOGGCD@?$AAt?$AAo?$AAk?$AAe?$AAn?$AA?5?$AA?$CB?$AA?$DN?$AA?5?$AA?$CI?$AA?$CI?$AAv?$AAo?$AAi?$AAd?$AA?5?$AA?$CK?$AA?$CJ?$AA0?$AA?$CJ?$AA?$AA@ 0057dcd8     pjsip-core-i386-win32-vc8-debug:sip_endpoint.obj
 0003:00007d10       ??_C@_1JE@INLJHCK@?$AAh?$AAt?$AAy?$AAp?$AAe?$AA?$DN?$AA?$DN?$AAP?$AAJ?$AAS?$AAI?$AAP?$AA_?$AAH?$AA_?$AAA?$AAC?$AAC?$AAE?$AAP?$AAT?$AA?5?$AA?$HM?$AA?$HM?$AA?5?$AAh?$AAt?$AAy?$AAp?$AAe?$AA?$DN?$AA?$DN@ 0057dd10     pjsip-core-i386-win32-vc8-debug:sip_endpoint.obj
 0003:00007dc8       ??_C@_1EM@KKEECKPB@?$AAe?$AAn?$AAd?$AAp?$AAt?$AA?$CB?$AA?$DN?$AA?$CI?$AA?$CI?$AAv?$AAo?$AAi?$AAd?$AA?5?$AA?$CK?$AA?$CJ?$AA0?$AA?$CJ?$AA?5?$AA?$CG?$AA?$CG?$AA?5?$AAc?$AAo?$AAu?$AAn?$AAt?$AA?$DO?$AA0?$AA?5?$AA?$CG?$AA?$CG@ 0057ddc8     pjsip-core-i386-win32-vc8-debug:sip_endpoint.obj
 0003:00007e24       ??_C@_0BI@MLLMLNGM@Error?5creating?5endpoint?$AA@ 0057de24     pjsip-core-i386-win32-vc8-debug:sip_endpoint.obj
 0003:00007e40       ??_C@_0CB@HGCDKNNC@Error?5creating?5resolver?5instance@ 0057de40     pjsip-core-i386-win32-vc8-debug:sip_endpoint.obj
 0003:00007e68       ??_C@_06CEEOCEHG@edpt?$CFp?$AA@ 0057de68     pjsip-core-i386-win32-vc8-debug:sip_endpoint.obj
 0003:00007e70       ??_C@_05BKDCOKEM@ept?$CFp?$AA@ 0057de70     pjsip-core-i386-win32-vc8-debug:sip_endpoint.obj
 0003:00007e78       ??_C@_06NKPEEELK@pept?$CFp?$AA@ 0057de78     pjsip-core-i386-win32-vc8-debug:sip_endpoint.obj
 0003:00007e80       ??_C@_0BO@COOMMINE@Creating?5endpoint?5instance?4?4?4?$AA@ 0057de80     pjsip-core-i386-win32-vc8-debug:sip_endpoint.obj
 0003:00007ea4       ??_C@_0BG@NIAFLHGE@Endpoint?5?$CFp?5destroyed?$AA@ 0057dea4     pjsip-core-i386-win32-vc8-debug:sip_endpoint.obj
 0003:00007ec0       ??_C@_0BP@COABEKEP@Destroying?5endpoing?5instance?4?4?$AA@ 0057dec0     pjsip-core-i386-win32-vc8-debug:sip_endpoint.obj
 0003:00007ee8       ??_C@_0BK@KKFMILKM@Unable?5to?5create?5pool?5?$CFs?$CB?$AA@ 0057dee8     pjsip-core-i386-win32-vc8-debug:sip_endpoint.obj
 0003:00007f08       ??_C@_1EM@EIDGDNFK@?$AAt?$AAi?$AAm?$AAe?$AAo?$AAu?$AAt?$AA?4?$AAs?$AAe?$AAc?$AA?5?$AA?$DO?$AA?$DN?$AA?5?$AA0?$AA?5?$AA?$CG?$AA?$CG?$AA?5?$AAt?$AAi?$AAm?$AAe?$AAo?$AAu?$AAt?$AA?4?$AAm?$AAs?$AAe?$AAc@ 0057df08     pjsip-core-i386-win32-vc8-debug:sip_endpoint.obj
 0003:00007f64       ??_C@_0DL@CIBEEJEO@Message?5?$CFs?5from?5?$CFs?3?$CFd?5was?5droppe@ 0057df64     pjsip-core-i386-win32-vc8-debug:sip_endpoint.obj
 0003:00007fac       ??_C@_0DM@IAALBIFO@Dropping?5response?5?$CFs?5from?5?$CFs?3?$CFd?5@ 0057dfac     pjsip-core-i386-win32-vc8-debug:sip_endpoint.obj
 0003:00007ff8       ??_C@_0FD@OICBNACN@Message?5?$CFs?5from?5?$CFs?5has?5mismatch?5@ 0057dff8     pjsip-core-i386-win32-vc8-debug:sip_endpoint.obj
 0003:0000805c       ??_C@_0CA@HOLDFAO@Processing?5incoming?5message?3?5?$CFs?$AA@ 0057e05c     pjsip-core-i386-win32-vc8-debug:sip_endpoint.obj
 0003:00008088       ??_C@_0EM@MDGMOKGH@Error?5processing?5packet?5from?5?$CFs?3@ 0057e088     pjsip-core-i386-win32-vc8-debug:sip_endpoint.obj
 0003:000080e4       ??_C@_05PHECJIMD@?5CSeq?$AA@ 0057e0e4     pjsip-core-i386-win32-vc8-debug:sip_endpoint.obj
 0003:000080ec       ??_C@_04CNJKNNNB@?5Via?$AA@ 0057e0ec     pjsip-core-i386-win32-vc8-debug:sip_endpoint.obj
 0003:000080f4       ??_C@_03PHFJHONJ@?5To?$AA@ 0057e0f4     pjsip-core-i386-win32-vc8-debug:sip_endpoint.obj
 0003:000080f8       ??_C@_05MMMMAHGD@?5From?$AA@ 0057e0f8     pjsip-core-i386-win32-vc8-debug:sip_endpoint.obj
 0003:00008100       ??_C@_07IKPMLMAJ@Call?9ID?$AA@ 0057e100     pjsip-core-i386-win32-vc8-debug:sip_endpoint.obj
 0003:0000810c       ??_C@_1CA@EMOCFNLD@?$AAe?$AAn?$AAd?$AAp?$AAt?$AA?5?$AA?$CG?$AA?$CG?$AA?5?$AAp?$AA_?$AAr?$AAe?$AAs?$AAv?$AA?$AA@ 0057e10c     pjsip-core-i386-win32-vc8-debug:sip_endpoint.obj
 0003:00008134       ??_C@_0M@HFADNKMO@?3?5?$FLerr?5?$CFd?$FN?5?$AA@ 0057e134     pjsip-core-i386-win32-vc8-debug:sip_endpoint.obj
 0003:00008144       ??_C@_0BL@JFJBMKJJ@?5Timer?5heap?5has?5?$CFu?5entries?$AA@ 0057e144     pjsip-core-i386-win32-vc8-debug:sip_endpoint.obj
 0003:00008164       ??_C@_0CJ@IKGHIDDJ@?5Endpoint?5pool?5capacity?$DN?$CFu?0?5used@ 0057e164     pjsip-core-i386-win32-vc8-debug:sip_endpoint.obj
 0003:00008198       ??_C@_0BF@NCGFABFO@Dumping?5endpoint?5?$CFp?3?$AA@ 0057e198     pjsip-core-i386-win32-vc8-debug:sip_endpoint.obj
 0003:000081b4       ??_C@_0BD@LFIBIDIN@pjsip_endpt_dump?$CI?$CJ?$AA@ 0057e1b4     pjsip-core-i386-win32-vc8-debug:sip_endpoint.obj
 0003:000081cc       ??_C@_0DB@MDELAJDF@SIP?5?$CFs?5started?0?5published?5addres@ 0057e1cc     pjsip-core-i386-win32-vc8-debug:sip_transport_udp.obj
 0003:00008208       ??_C@_05KBHICJDA@rtd?$CFp?$AA@ 0057e208     pjsip-core-i386-win32-vc8-debug:sip_transport_udp.obj
 0003:00008210       ??_C@_03LHJHGOJD@?3?30?$AA@ 0057e210     pjsip-core-i386-win32-vc8-debug:sip_transport_udp.obj
 0003:00008214       ??_C@_07OHKHACFK@0?40?40?40?$AA@ 0057e214     pjsip-core-i386-win32-vc8-debug:sip_transport_udp.obj
 0003:00008220       ??_C@_05DOGEOMC@udp?$CFp?$AA@ 0057e220     pjsip-core-i386-win32-vc8-debug:sip_transport_udp.obj
 0003:00008228       ??_C@_01LBDDMOBJ@?$FN?$AA@ 0057e228     pjsip-core-i386-win32-vc8-debug:sip_transport_udp.obj
 0003:0000822c       ??_C@_01OHGJGJJP@?$FL?$AA@ 0057e22c     pjsip-core-i386-win32-vc8-debug:sip_transport_udp.obj
 0003:00008230       ??_C@_07LINNJFLK@udpv6?$CFp?$AA@ 0057e230     pjsip-core-i386-win32-vc8-debug:sip_transport_udp.obj
 0003:00008240       ??_C@_1FK@GHPFMLFH@?$AAe?$AAn?$AAd?$AAp?$AAt?$AA?5?$AA?$CG?$AA?$CG?$AA?5?$AAs?$AAo?$AAc?$AAk?$AA?$CB?$AA?$DN?$AA?$CI?$AA?9?$AA1?$AA?$CJ?$AA?5?$AA?$CG?$AA?$CG?$AA?5?$AAa?$AA_?$AAn?$AAa?$AAm?$AAe?$AA?5?$AA?$CG?$AA?$CG@ 0057e240     pjsip-core-i386-win32-vc8-debug:sip_transport_udp.obj
 0003:000082b0       ??_C@_1HG@JFGEBHAA@?$AAd?$AA?3?$AA?2?$AAm?$AAy?$AAg?$AAi?$AAt?$AA?2?$AAp?$AAj?$AAp?$AAr?$AAo?$AAj?$AAe?$AAc?$AAt?$AA?9?$AA1?$AA?4?$AA4?$AA?2?$AAp?$AAj?$AAs?$AAi?$AAp?$AA?2?$AAs?$AAr?$AAc@ 0057e2b0     pjsip-core-i386-win32-vc8-debug:sip_transport_udp.obj
 0003:00008340       ??_C@_1EG@GPLFHMJI@?$AAt?$AAd?$AAa?$AAt?$AAa?$AA?9?$AA?$DO?$AAo?$AAp?$AA_?$AAk?$AAe?$AAy?$AA?4?$AAt?$AAd?$AAa?$AAt?$AAa?$AA?5?$AA?$DN?$AA?$DN?$AA?5?$AA?$CI?$AA?$CI?$AAv?$AAo?$AAi?$AAd?$AA?5?$AA?$CK?$AA?$CJ@ 0057e340     pjsip-core-i386-win32-vc8-debug:sip_transport_udp.obj
 0003:00008394       ??_C@_1CG@BGOACFGG@?$AAt?$AAr?$AAa?$AAn?$AAs?$AAp?$AAo?$AAr?$AAt?$AA?5?$AA?$CG?$AA?$CG?$AA?5?$AAt?$AAd?$AAa?$AAt?$AAa?$AA?$AA@ 0057e394     pjsip-core-i386-win32-vc8-debug:sip_transport_udp.obj
 0003:000083c4       ??_C@_0BM@EECGNFMH@udp?5?$CFs?5?$FLpublished?5as?5?$CFs?3?$CFd?$FN?$AA@ 0057e3c4     pjsip-core-i386-win32-vc8-debug:sip_transport_udp.obj
 0003:000083e8       ??_C@_1CO@BFILFBP@?$AAa?$AA_?$AAn?$AAa?$AAm?$AAe?$AA?9?$AA?$DO?$AAh?$AAo?$AAs?$AAt?$AA?4?$AAs?$AAl?$AAe?$AAn?$AA?5?$AA?$CB?$AA?$DN?$AA?5?$AA0?$AA?$AA@ 0057e3e8     pjsip-core-i386-win32-vc8-debug:sip_transport_udp.obj
 0003:00008420       ??_C@_0EC@ICGMJAB@FATAL?3?5pj_ioqueue_recvfrom?$CI?$CJ?5err@ 0057e420     pjsip-core-i386-win32-vc8-debug:sip_transport_udp.obj
 0003:00008470       ??_C@_0BN@BEFELMIM@Warning?3?5pj_ioqueue_recvfrom?$AA@ 0057e470     pjsip-core-i386-win32-vc8-debug:sip_transport_udp.obj
 0003:00008494       ??_C@_1DC@OPBFPDDM@?$AAi?$AA?5?$AA?$DM?$AA?5?$AAM?$AAA?$AAX?$AA_?$AAI?$AAM?$AAM?$AAE?$AAD?$AAI?$AAA?$AAT?$AAE?$AA_?$AAP?$AAA?$AAC?$AAK?$AAE?$AAT?$AA?$AA@ 0057e494     pjsip-core-i386-win32-vc8-debug:sip_transport_udp.obj
 0003:000084d0       ??_C@_0CO@OCMFJIFA@Warning?3?5pj_ioqueue_recvfrom?$CI?$CJ?5c@ 0057e4d0     pjsip-core-i386-win32-vc8-debug:sip_transport_udp.obj
 0003:00008508       ??_C@_1DA@HAPHJBON@?$AA?$CB?$AA?$CC?$AAI?$AAt?$AA?5?$AAs?$AAh?$AAo?$AAu?$AAl?$AAd?$AAn?$AA?8?$AAt?$AA?5?$AAh?$AAa?$AAp?$AAp?$AAe?$AAn?$AA?$CB?$AA?$CC?$AA?$AA@ 0057e508     pjsip-core-i386-win32-vc8-debug:sip_transport_udp.obj
 0003:00008544       ??_C@_0BF@GBGCNFO@It?5shouldn?8t?5happen?$CB?$AA@ 0057e544     pjsip-core-i386-win32-vc8-debug:sip_transport_udp.obj
 0003:00008560       ??_C@_1GK@HIOEKOAM@?$AA?$CB?$AA?$CC?$AAS?$AAh?$AAo?$AAu?$AAl?$AAd?$AAn?$AA?8?$AAt?$AA?5?$AAh?$AAa?$AAp?$AAp?$AAe?$AAn?$AA?5?$AAb?$AAe?$AAc?$AAa?$AAu?$AAs?$AAe?$AA?5?$AAP?$AAJ?$AA_?$AAI?$AAO@ 0057e560     pjsip-core-i386-win32-vc8-debug:sip_transport_udp.obj
 0003:000085e0       ??_C@_0DC@GICKAICP@Shouldn?8t?5happen?5because?5PJ_IOQU@ 0057e5e0     pjsip-core-i386-win32-vc8-debug:sip_transport_udp.obj
 0003:0000861c       ??_C@_1CG@LPEBONOA@?$AAe?$AAn?$AAd?$AAp?$AAt?$AA?5?$AA?$CG?$AA?$CG?$AA?5?$AAa?$AAs?$AAy?$AAn?$AAc?$AA_?$AAc?$AAn?$AAt?$AA?$AA@ 0057e61c     pjsip-core-i386-win32-vc8-debug:sip_transport_udp.obj
 0003:0000864c       ??_C@_1DC@PPCDJBEG@?$AAt?$AAr?$AAa?$AAn?$AAs?$AAp?$AAo?$AAr?$AAt?$AA?5?$AA?$CB?$AA?$DN?$AA?5?$AA?$CI?$AA?$CI?$AAv?$AAo?$AAi?$AAd?$AA?5?$AA?$CK?$AA?$CJ?$AA0?$AA?$CJ?$AA?$AA@ 0057e64c     pjsip-core-i386-win32-vc8-debug:sip_transport_udp.obj
 0003:00008688       ??_C@_0BJ@OONKAPDN@SIP?5UDP?5transport?5paused?$AA@ 0057e688     pjsip-core-i386-win32-vc8-debug:sip_transport_udp.obj
 0003:000086a8       ??_C@_1CC@MEECDJNB@?$AAt?$AAp?$AA?9?$AA?$DO?$AAi?$AAs?$AA_?$AAp?$AAa?$AAu?$AAs?$AAe?$AAd?$AA?$DN?$AA?$DN?$AA0?$AA?$AA@ 0057e6a8     pjsip-core-i386-win32-vc8-debug:sip_transport_udp.obj
 0003:000086d0       ??_C@_1CK@GGMIAGNJ@?$AA?$CI?$AAo?$AAp?$AAt?$AAi?$AAo?$AAn?$AA?5?$AA?$CG?$AA?5?$AA0?$AAx?$AA0?$AA3?$AA?$CJ?$AA?5?$AA?$CB?$AA?$DN?$AA?5?$AA0?$AA?$AA@ 0057e6d0     pjsip-core-i386-win32-vc8-debug:sip_transport_udp.obj
 0003:00008704       ??_C@_0DK@BDLNOKD@SIP?5UDP?5transport?5restarted?0?5pub@ 0057e704     pjsip-core-i386-win32-vc8-debug:sip_transport_udp.obj
 0003:0000874c       ??_C@_1BM@MDAHBGKL@?$AAt?$AAp?$AA?9?$AA?$DO?$AAi?$AAs?$AA_?$AAp?$AAa?$AAu?$AAs?$AAe?$AAd?$AA?$AA@ 0057e74c     pjsip-core-i386-win32-vc8-debug:sip_transport_udp.obj
 0003:00008770       ??_C@_0BA@MKEDBJEA@_Unknown?9Header?$AA@ 0057e770     pjsip-core-i386-win32-vc8-debug:sip_msg.obj
 0003:00008784       ??_C@_0BB@KEDJJIFI@WWW?9Authenticate?$AA@ 0057e784     pjsip-core-i386-win32-vc8-debug:sip_msg.obj
 0003:00008798       ??_C@_07KGMMFLDN@Warning?$AA@ 0057e798     pjsip-core-i386-win32-vc8-debug:sip_msg.obj
 0003:000087a4       ??_C@_01MHEDDDHA@v?$AA@    0057e7a4     pjsip-core-i386-win32-vc8-debug:sip_msg.obj
 0003:000087a8       ??_C@_03LDNNKNE@Via?$AA@   0057e7a8     pjsip-core-i386-win32-vc8-debug:sip_msg.obj
 0003:000087ac       ??_C@_0L@DMPACEMJ@User?9Agent?$AA@ 0057e7ac     pjsip-core-i386-win32-vc8-debug:sip_msg.obj
 0003:000087bc       ??_C@_0M@BEECMOIL@Unsupported?$AA@ 0057e7bc     pjsip-core-i386-win32-vc8-debug:sip_msg.obj
 0003:000087cc       ??_C@_01PFHFFBPC@t?$AA@    0057e7cc     pjsip-core-i386-win32-vc8-debug:sip_msg.obj
 0003:000087d0       ??_C@_02IJGONHOJ@To?$AA@   0057e7d0     pjsip-core-i386-win32-vc8-debug:sip_msg.obj
 0003:000087d4       ??_C@_09KDGENIOP@Timestamp?$AA@ 0057e7d4     pjsip-core-i386-win32-vc8-debug:sip_msg.obj
 0003:000087e0       ??_C@_01DICPFPGM@k?$AA@    0057e7e0     pjsip-core-i386-win32-vc8-debug:sip_msg.obj
 0003:000087e4       ??_C@_09GFDKPDGA@Supported?$AA@ 0057e7e4     pjsip-core-i386-win32-vc8-debug:sip_msg.obj
 0003:000087f0       ??_C@_01LKDEMHDF@s?$AA@    0057e7f0     pjsip-core-i386-win32-vc8-debug:sip_msg.obj
 0003:000087f4       ??_C@_07GEKACEDI@Subject?$AA@ 0057e7f4     pjsip-core-i386-win32-vc8-debug:sip_msg.obj
 0003:00008800       ??_C@_06LGMEBDBC@Server?$AA@ 0057e800     pjsip-core-i386-win32-vc8-debug:sip_msg.obj
 0003:00008808       ??_C@_05DIKBIPM@Route?$AA@ 0057e808     pjsip-core-i386-win32-vc8-debug:sip_msg.obj
 0003:00008810       ??_C@_0M@CMFFKFHP@Retry?9After?$AA@ 0057e810     pjsip-core-i386-win32-vc8-debug:sip_msg.obj
 0003:00008820       ??_C@_07KMMNJNOB@Require?$AA@ 0057e820     pjsip-core-i386-win32-vc8-debug:sip_msg.obj
 0003:0000882c       ??_C@_08GBENDHCN@Reply?9To?$AA@ 0057e82c     pjsip-core-i386-win32-vc8-debug:sip_msg.obj
 0003:00008838       ??_C@_0N@KJFPNEHF@Record?9Route?$AA@ 0057e838     pjsip-core-i386-win32-vc8-debug:sip_msg.obj
 0003:00008848       ??_C@_0O@ICDCLCHE@Proxy?9Require?$AA@ 0057e848     pjsip-core-i386-win32-vc8-debug:sip_msg.obj
 0003:00008858       ??_C@_0BE@DCLKKIPG@Proxy?9Authorization?$AA@ 0057e858     pjsip-core-i386-win32-vc8-debug:sip_msg.obj
 0003:00008870       ??_C@_0BD@GKJFGNG@Proxy?9Authenticate?$AA@ 0057e870     pjsip-core-i386-win32-vc8-debug:sip_msg.obj
 0003:00008888       ??_C@_08KGEIBGG@Priority?$AA@ 0057e888     pjsip-core-i386-win32-vc8-debug:sip_msg.obj
 0003:00008894       ??_C@_0N@MHPBIIPD@Organization?$AA@ 0057e894     pjsip-core-i386-win32-vc8-debug:sip_msg.obj
 0003:000088a4       ??_C@_0M@BHCNHHNF@Min?9Expires?$AA@ 0057e8a4     pjsip-core-i386-win32-vc8-debug:sip_msg.obj
 0003:000088b4       ??_C@_0N@PNJFOFFK@MIME?9Version?$AA@ 0057e8b4     pjsip-core-i386-win32-vc8-debug:sip_msg.obj
 0003:000088c4       ??_C@_0N@KAKEBINL@Max?9Forwards?$AA@ 0057e8c4     pjsip-core-i386-win32-vc8-debug:sip_msg.obj
 0003:000088d4       ??_C@_0M@OJFKFNND@In?9Reply?9To?$AA@ 0057e8d4     pjsip-core-i386-win32-vc8-debug:sip_msg.obj
 0003:000088e4       ??_C@_01INIBCBCB@f?$AA@    0057e8e4     pjsip-core-i386-win32-vc8-debug:sip_msg.obj
 0003:000088e8       ??_C@_04LMIAFEOL@From?$AA@ 0057e8e8     pjsip-core-i386-win32-vc8-debug:sip_msg.obj
 0003:000088f0       ??_C@_07DABPCBEH@Expires?$AA@ 0057e8f0     pjsip-core-i386-win32-vc8-debug:sip_msg.obj
 0003:000088fc       ??_C@_0L@PGKFFKEH@Error?9Info?$AA@ 0057e8fc     pjsip-core-i386-win32-vc8-debug:sip_msg.obj
 0003:0000890c       ??_C@_04FMEGDJGD@Date?$AA@ 0057e90c     pjsip-core-i386-win32-vc8-debug:sip_msg.obj
 0003:00008914       ??_C@_04IHAOMLEL@CSeq?$AA@ 0057e914     pjsip-core-i386-win32-vc8-debug:sip_msg.obj
 0003:0000891c       ??_C@_01PAPGNFGE@c?$AA@    0057e91c     pjsip-core-i386-win32-vc8-debug:sip_msg.obj
 0003:00008920       ??_C@_0N@LAFFMKKA@Content?9Type?$AA@ 0057e920     pjsip-core-i386-win32-vc8-debug:sip_msg.obj
 0003:00008930       ??_C@_01HHGOMJKL@l?$AA@    0057e930     pjsip-core-i386-win32-vc8-debug:sip_msg.obj
 0003:00008934       ??_C@_0P@HOJGPHBA@Content?9Length?$AA@ 0057e934     pjsip-core-i386-win32-vc8-debug:sip_msg.obj
 0003:00008948       ??_C@_0BB@PICLCBPP@Content?9Language?$AA@ 0057e948     pjsip-core-i386-win32-vc8-debug:sip_msg.obj
 0003:0000895c       ??_C@_01KGKMHCOC@e?$AA@    0057e95c     pjsip-core-i386-win32-vc8-debug:sip_msg.obj
 0003:00008960       ??_C@_0BB@KFPPKJHF@Content?9Encoding?$AA@ 0057e960     pjsip-core-i386-win32-vc8-debug:sip_msg.obj
 0003:00008974       ??_C@_0BE@LMOOGHBG@Content?9Disposition?$AA@ 0057e974     pjsip-core-i386-win32-vc8-debug:sip_msg.obj
 0003:0000898c       ??_C@_01GOHFPIOK@m?$AA@    0057e98c     pjsip-core-i386-win32-vc8-debug:sip_msg.obj
 0003:00008990       ??_C@_09HCKFEBLC@Call?9Info?$AA@ 0057e990     pjsip-core-i386-win32-vc8-debug:sip_msg.obj
 0003:0000899c       ??_C@_01KBJDNOO@i?$AA@     0057e99c     pjsip-core-i386-win32-vc8-debug:sip_msg.obj
 0003:000089a0       ??_C@_0O@NAFGPKMI@Authorization?$AA@ 0057e9a0     pjsip-core-i386-win32-vc8-debug:sip_msg.obj
 0003:000089b0       ??_C@_0BE@KPJFGFDH@Authentication?9Info?$AA@ 0057e9b0     pjsip-core-i386-win32-vc8-debug:sip_msg.obj
 0003:000089c8       ??_C@_05IEPODGEO@Allow?$AA@ 0057e9c8     pjsip-core-i386-win32-vc8-debug:sip_msg.obj
 0003:000089d0       ??_C@_0L@DDNEKGOG@Alert?9Info?$AA@ 0057e9d0     pjsip-core-i386-win32-vc8-debug:sip_msg.obj
 0003:000089e0       ??_C@_0BA@POEGPCPD@Accept?9Language?$AA@ 0057e9e0     pjsip-core-i386-win32-vc8-debug:sip_msg.obj
 0003:000089f4       ??_C@_0BA@KDJCHKHJ@Accept?9Encoding?$AA@ 0057e9f4     pjsip-core-i386-win32-vc8-debug:sip_msg.obj
 0003:00008a08       ??_C@_06MDEHPNLG@Accept?$AA@ 0057ea08     pjsip-core-i386-win32-vc8-debug:sip_msg.obj
 0003:00008a10       ??_C@_07KDKMIPIP@OPTIONS?$AA@ 0057ea10     pjsip-core-i386-win32-vc8-debug:sip_msg.obj
 0003:00008a1c       ??_C@_08EINEADGI@REGISTER?$AA@ 0057ea1c     pjsip-core-i386-win32-vc8-debug:sip_msg.obj
 0003:00008a28       _pjsip_invite_method       0057ea28     pjsip-core-i386-win32-vc8-debug:sip_msg.obj
 0003:00008a34       _pjsip_cancel_method       0057ea34     pjsip-core-i386-win32-vc8-debug:sip_msg.obj
 0003:00008a40       _pjsip_ack_method          0057ea40     pjsip-core-i386-win32-vc8-debug:sip_msg.obj
 0003:00008a4c       _pjsip_bye_method          0057ea4c     pjsip-core-i386-win32-vc8-debug:sip_msg.obj
 0003:00008a58       _pjsip_register_method     0057ea58     pjsip-core-i386-win32-vc8-debug:sip_msg.obj
 0003:00008a64       _pjsip_options_method      0057ea64     pjsip-core-i386-win32-vc8-debug:sip_msg.obj
 0003:00008a70       _pjsip_hdr_names           0057ea70     pjsip-core-i386-win32-vc8-debug:sip_msg.obj
 0003:00008d08       ??_C@_1DA@EAHANDFO@?$AAm?$AAe?$AA?5?$AA?$DM?$AA?5?$AAP?$AAJ?$AAS?$AAI?$AAP?$AA_?$AAO?$AAT?$AAH?$AAE?$AAR?$AA_?$AAM?$AAE?$AAT?$AAH?$AAO?$AAD?$AA?$AA@ 0057ed08     pjsip-core-i386-win32-vc8-debug:sip_msg.obj
 0003:00008d48       ??_C@_1GC@BODGPPIF@?$AAd?$AA?3?$AA?2?$AAm?$AAy?$AAg?$AAi?$AAt?$AA?2?$AAp?$AAj?$AAp?$AAr?$AAo?$AAj?$AAe?$AAc?$AAt?$AA?9?$AA1?$AA?4?$AA4?$AA?2?$AAp?$AAj?$AAs?$AAi?$AAp?$AA?2?$AAs?$AAr?$AAc@ 0057ed48     pjsip-core-i386-win32-vc8-debug:sip_msg.obj
 0003:00008dc0       ??_C@_03ELFADMOK@c?3?5?$AA@ 0057edc0     pjsip-core-i386-win32-vc8-debug:sip_msg.obj
 0003:00008dc4       ??_C@_0P@GJMOGDPG@Content?9Type?3?5?$AA@ 0057edc4     pjsip-core-i386-win32-vc8-debug:sip_msg.obj
 0003:00008dd8       ??_C@_08JLDHODKJ@SIP?12?40?5?$AA@ 0057edd8     pjsip-core-i386-win32-vc8-debug:sip_msg.obj
 0003:00008de4       ??_C@_0L@GLHKEHNL@?5SIP?12?40?$AN?6?$AA@ 0057ede4     pjsip-core-i386-win32-vc8-debug:sip_msg.obj
 0003:00008df4       ??_C@_03BDDDCMLM@l?3?5?$AA@ 0057edf4     pjsip-core-i386-win32-vc8-debug:sip_msg.obj
 0003:00008df8       ??_C@_0BB@NFGDEPJM@Content?9Length?3?5?$AA@ 0057edf8     pjsip-core-i386-win32-vc8-debug:sip_msg.obj
 0003:00008e0c       ??_C@_0CM@KOHFAKJI@Error?5sending?5message?5to?5destina@ 0057ee0c     pjsip-core-i386-win32-vc8-debug:sip_msg.obj
 0003:00008e40       ??_C@_0CF@KIECMFPG@Unable?5to?5resolve?5destination?5se@ 0057ee40     pjsip-core-i386-win32-vc8-debug:sip_msg.obj
 0003:00008e6c       ??_C@_0CE@LJDLADFN@No?5response?5from?5destination?5ser@ 0057ee6c     pjsip-core-i386-win32-vc8-debug:sip_msg.obj
 0003:00008e98       ??_C@_0BI@JILKKJAA@Does?5Not?5Exist?5Anywhere?$AA@ 0057ee98     pjsip-core-i386-win32-vc8-debug:sip_msg.obj
 0003:00008eb4       ??_C@_07CAMLKJDK@Decline?$AA@ 0057eeb4     pjsip-core-i386-win32-vc8-debug:sip_msg.obj
 0003:00008ec0       ??_C@_0BA@BNEEJKIK@Busy?5Everywhere?$AA@ 0057eec0     pjsip-core-i386-win32-vc8-debug:sip_msg.obj
 0003:00008ed4       ??_C@_0BF@PJIFKKPF@Precondition?5Failure?$AA@ 0057eed4     pjsip-core-i386-win32-vc8-debug:sip_msg.obj
 0003:00008ef0       ??_C@_0BC@FOIGPIGF@Message?5Too?5Large?$AA@ 0057eef0     pjsip-core-i386-win32-vc8-debug:sip_msg.obj
 0003:00008f08       ??_C@_0BG@DGJHJFEF@Version?5Not?5Supported?$AA@ 0057ef08     pjsip-core-i386-win32-vc8-debug:sip_msg.obj
 0003:00008f24       ??_C@_0P@KPHBHCBP@Server?5Timeout?$AA@ 0057ef24     pjsip-core-i386-win32-vc8-debug:sip_msg.obj
 0003:00008f38       ??_C@_0BE@NGHLFKBN@Service?5Unavailable?$AA@ 0057ef38     pjsip-core-i386-win32-vc8-debug:sip_msg.obj
 0003:00008f50       ??_C@_0M@BNCNLPGM@Bad?5Gateway?$AA@ 0057ef50     pjsip-core-i386-win32-vc8-debug:sip_msg.obj
 0003:00008f60       ??_C@_0BA@JGKGKAME@Not?5Implemented?$AA@ 0057ef60     pjsip-core-i386-win32-vc8-debug:sip_msg.obj
 0003:00008f74       ??_C@_0BG@NJGANGCC@Internal?5Server?5Error?$AA@ 0057ef74     pjsip-core-i386-win32-vc8-debug:sip_msg.obj
 0003:00008f90       ??_C@_0P@EIPIHDNL@Undecipherable?$AA@ 0057ef90     pjsip-core-i386-win32-vc8-debug:sip_msg.obj
 0003:00008fa4       ??_C@_0BA@KLOCDLCK@Request?5Pending?$AA@ 0057efa4     pjsip-core-i386-win32-vc8-debug:sip_msg.obj
 0003:00008fb8       ??_C@_0BA@DKJEBJFB@Request?5Updated?$AA@ 0057efb8     pjsip-core-i386-win32-vc8-debug:sip_msg.obj
 0003:00008fcc       ??_C@_09HKNLJBHH@Bad?5Event?$AA@ 0057efcc     pjsip-core-i386-win32-vc8-debug:sip_msg.obj
 0003:00008fd8       ??_C@_0BE@HMIMPLAH@Not?5Acceptable?5Here?$AA@ 0057efd8     pjsip-core-i386-win32-vc8-debug:sip_msg.obj
 0003:00008ff0       ??_C@_0BD@IGJOBDDO@Request?5Terminated?$AA@ 0057eff0     pjsip-core-i386-win32-vc8-debug:sip_msg.obj
 0003:00009008       ??_C@_09ELAJPHFG@Busy?5Here?$AA@ 0057f008     pjsip-core-i386-win32-vc8-debug:sip_msg.obj
 0003:00009014       ??_C@_09FNGPAEJC@Ambiguous?$AA@ 0057f014     pjsip-core-i386-win32-vc8-debug:sip_msg.obj
 0003:00009020       ??_C@_0BE@DLCDBHJG@Address?5Incompleted?$AA@ 0057f020     pjsip-core-i386-win32-vc8-debug:sip_msg.obj
 0003:00009038       ??_C@_0O@CFHODMHD@Too?5Many?5Hops?$AA@ 0057f038     pjsip-core-i386-win32-vc8-debug:sip_msg.obj
 0003:00009048       ??_C@_0O@KJBLEGOO@Loop?5Detected?$AA@ 0057f048     pjsip-core-i386-win32-vc8-debug:sip_msg.obj
 0003:00009058       ??_C@_0CA@DPKMEAMP@Call?1Transaction?5Does?5Not?5Exist?$AA@ 0057f058     pjsip-core-i386-win32-vc8-debug:sip_msg.obj
 0003:00009080       ??_C@_0BI@JBJKOKGE@Temporarily?5Unavailable?$AA@ 0057f080     pjsip-core-i386-win32-vc8-debug:sip_msg.obj
 0003:0000909c       ??_C@_0BD@NHGMJMLN@Interval?5Too?5Brief?$AA@ 0057f09c     pjsip-core-i386-win32-vc8-debug:sip_msg.obj
 0003:000090b4       ??_C@_0BI@DEDCGMIH@Session?5Timer?5Too?5Small?$AA@ 0057f0b4     pjsip-core-i386-win32-vc8-debug:sip_msg.obj
 0003:000090d0       ??_C@_0BD@LEDCNIMD@Extension?5Required?$AA@ 0057f0d0     pjsip-core-i386-win32-vc8-debug:sip_msg.obj
 0003:000090e8       ??_C@_0O@EABFLJJG@Bad?5Extension?$AA@ 0057f0e8     pjsip-core-i386-win32-vc8-debug:sip_msg.obj
 0003:000090f8       ??_C@_0BH@HMDPMBIK@Unsupported?5URI?5Scheme?$AA@ 0057f0f8     pjsip-core-i386-win32-vc8-debug:sip_msg.obj
 0003:00009114       ??_C@_0BH@HLJJIAEN@Unsupported?5Media?5Type?$AA@ 0057f114     pjsip-core-i386-win32-vc8-debug:sip_msg.obj
 0003:00009130       ??_C@_0BF@LPICFNOC@Request?5URI?5Too?5Long?$AA@ 0057f130     pjsip-core-i386-win32-vc8-debug:sip_msg.obj
 0003:0000914c       ??_C@_0BJ@MMEIEOIG@Request?5Entity?5Too?5Large?$AA@ 0057f14c     pjsip-core-i386-win32-vc8-debug:sip_msg.obj
 0003:0000916c       ??_C@_04OKIIBCCG@Gone?$AA@ 0057f16c     pjsip-core-i386-win32-vc8-debug:sip_msg.obj
 0003:00009174       ??_C@_0BA@HALFGGF@Request?5Timeout?$AA@ 0057f174     pjsip-core-i386-win32-vc8-debug:sip_msg.obj
 0003:00009188       ??_C@_0BO@ONPAAOGI@Proxy?5Authentication?5Required?$AA@ 0057f188     pjsip-core-i386-win32-vc8-debug:sip_msg.obj
 0003:000091ac       ??_C@_0P@HHIDFAOI@Not?5Acceptable?$AA@ 0057f1ac     pjsip-core-i386-win32-vc8-debug:sip_msg.obj
 0003:000091c0       ??_C@_0BD@CCIPIALO@Method?5Not?5Allowed?$AA@ 0057f1c0     pjsip-core-i386-win32-vc8-debug:sip_msg.obj
 0003:000091d8       ??_C@_09CFCBFJND@Not?5Found?$AA@ 0057f1d8     pjsip-core-i386-win32-vc8-debug:sip_msg.obj
 0003:000091e4       ??_C@_09LMDIMFJD@Forbidden?$AA@ 0057f1e4     pjsip-core-i386-win32-vc8-debug:sip_msg.obj
 0003:000091f0       ??_C@_0BB@LMPIHCBH@Payment?5Required?$AA@ 0057f1f0     pjsip-core-i386-win32-vc8-debug:sip_msg.obj
 0003:00009204       ??_C@_0N@OOAPMOJA@Unauthorized?$AA@ 0057f204     pjsip-core-i386-win32-vc8-debug:sip_msg.obj
 0003:00009214       ??_C@_0M@LNAIDEEG@Bad?5Request?$AA@ 0057f214     pjsip-core-i386-win32-vc8-debug:sip_msg.obj
 0003:00009224       ??_C@_0BE@MCFGMBHK@Alternative?5Service?$AA@ 0057f224     pjsip-core-i386-win32-vc8-debug:sip_msg.obj
 0003:0000923c       ??_C@_09JFBGBFIM@Use?5Proxy?$AA@ 0057f23c     pjsip-core-i386-win32-vc8-debug:sip_msg.obj
 0003:00009248       ??_C@_0BC@LODIMCJL@Moved?5Temporarily?$AA@ 0057f248     pjsip-core-i386-win32-vc8-debug:sip_msg.obj
 0003:00009260       ??_C@_0BC@BPBCNFPI@Moved?5Permanently?$AA@ 0057f260     pjsip-core-i386-win32-vc8-debug:sip_msg.obj
 0003:00009278       ??_C@_0BB@HLFEHKPE@Multiple?5Choices?$AA@ 0057f278     pjsip-core-i386-win32-vc8-debug:sip_msg.obj
 0003:0000928c       ??_C@_08DOBOODLA@Accepted?$AA@ 0057f28c     pjsip-core-i386-win32-vc8-debug:sip_msg.obj
 0003:00009298       ??_C@_02GIPFHKNO@OK?$AA@   0057f298     pjsip-core-i386-win32-vc8-debug:sip_msg.obj
 0003:0000929c       ??_C@_0BB@FKJCNOGD@Session?5Progress?$AA@ 0057f29c     pjsip-core-i386-win32-vc8-debug:sip_msg.obj
 0003:000092b0       ??_C@_06POGAFBAL@Queued?$AA@ 0057f2b0     pjsip-core-i386-win32-vc8-debug:sip_msg.obj
 0003:000092b8       ??_C@_0BI@HBFDMPGA@Call?5Is?5Being?5Forwarded?$AA@ 0057f2b8     pjsip-core-i386-win32-vc8-debug:sip_msg.obj
 0003:000092d4       ??_C@_07KEMHLLKP@Ringing?$AA@ 0057f2d4     pjsip-core-i386-win32-vc8-debug:sip_msg.obj
 0003:000092e0       ??_C@_0BH@JEAOBKFE@Default?5status?5message?$AA@ 0057f2e0     pjsip-core-i386-win32-vc8-debug:sip_msg.obj
 0003:000092fc       ??_C@_1CG@CIFOCGJH@?$AAp?$AAo?$AAo?$AAl?$AA?5?$AA?$CG?$AA?$CG?$AA?5?$AAd?$AAs?$AAt?$AA?5?$AA?$CG?$AA?$CG?$AA?5?$AAs?$AAr?$AAc?$AA?$AA@ 0057f2fc     pjsip-core-i386-win32-vc8-debug:sip_msg.obj
 0003:0000932c       ??_C@_02KEGNLNML@?0?5?$AA@ 0057f32c     pjsip-core-i386-win32-vc8-debug:sip_msg.obj
 0003:00009330       ??_C@_09JFABAEBI@?$DLexpires?$DN?$AA@ 0057f330     pjsip-core-i386-win32-vc8-debug:sip_msg.obj
 0003:0000933c       ??_C@_03MGEKBFJK@?$DLq?$DN?$AA@ 0057f33c     pjsip-core-i386-win32-vc8-debug:sip_msg.obj
 0003:00009340       ??_C@_05IIDIOKEA@?$DLtag?$DN?$AA@ 0057f340     pjsip-core-i386-win32-vc8-debug:sip_msg.obj
 0003:00009348       ??_C@_1CO@JIKPCADP@?$AAs?$AAi?$AAp?$AA_?$AAu?$AAr?$AAi?$AA?9?$AA?$DO?$AAl?$AAr?$AA_?$AAp?$AAa?$AAr?$AAa?$AAm?$AA?5?$AA?$CB?$AA?$DN?$AA?5?$AA0?$AA?$AA@ 0057f348     pjsip-core-i386-win32-vc8-debug:sip_msg.obj
 0003:00009380       ??_C@_04IBOFHAPJ@hide?$AA@ 0057f380     pjsip-core-i386-win32-vc8-debug:sip_msg.obj
 0003:00009388       ??_C@_08LMLOEMIC@?$DLbranch?$DN?$AA@ 0057f388     pjsip-core-i386-win32-vc8-debug:sip_msg.obj
 0003:00009394       ??_C@_0L@IMDGLAJB@?$DLreceived?$DN?$AA@ 0057f394     pjsip-core-i386-win32-vc8-debug:sip_msg.obj
 0003:000093a4       ??_C@_07IONINLDO@?$DLmaddr?$DN?$AA@ 0057f3a4     pjsip-core-i386-win32-vc8-debug:sip_msg.obj
 0003:000093b0       ??_C@_06IKMHKLF@?$DLrport?$AA@ 0057f3b0     pjsip-core-i386-win32-vc8-debug:sip_msg.obj
 0003:000093b8       ??_C@_05ODKKKCAM@?$DLttl?$DN?$AA@ 0057f3b8     pjsip-core-i386-win32-vc8-debug:sip_msg.obj
 0003:000093c0       ??_C@_08BMKPPPGG@SIP?12?40?1?$AA@ 0057f3c0     pjsip-core-i386-win32-vc8-debug:sip_msg.obj
 0003:000093cc       ??_C@_0P@DNLLBOJA@?$CFu?5?$CF?4?$CKs?5?$CC?$CF?4?$CKs?$CC?$AA@ 0057f3cc     pjsip-core-i386-win32-vc8-debug:sip_msg.obj
 0003:000093e0       ??_C@_1EE@EHJGOGAJ@?$AAs?$AAr?$AAc?$AA_?$AAb?$AAo?$AAd?$AAy?$AA?9?$AA?$DO?$AAc?$AAl?$AAo?$AAn?$AAe?$AA_?$AAd?$AAa?$AAt?$AAa?$AA?$CB?$AA?$DN?$AA?$CI?$AA?$CI?$AAv?$AAo?$AAi?$AAd?$AA?5?$AA?$CK?$AA?$CJ?$AA0@ 0057f3e0     pjsip-core-i386-win32-vc8-debug:sip_msg.obj
 0003:00009434       ??_C@_1BC@LNNMKCAC@?$AAn?$AAe?$AAw?$AA_?$AAb?$AAo?$AAd?$AAy?$AA?$AA@ 0057f434     pjsip-core-i386-win32-vc8-debug:sip_msg.obj
 0003:00009450       ??_C@_1EA@CGNCHEIG@?$AAp?$AAo?$AAo?$AAl?$AA?5?$AA?$CG?$AA?$CG?$AA?5?$AAt?$AAy?$AAp?$AAe?$AA?5?$AA?$CG?$AA?$CG?$AA?5?$AAs?$AAu?$AAb?$AAt?$AAy?$AAp?$AAe?$AA?5?$AA?$CG?$AA?$CG?$AA?5?$AAt?$AAe?$AAx?$AAt?$AA?$AA@ 0057f450     pjsip-core-i386-win32-vc8-debug:sip_msg.obj
 0003:0000949c       ??_C@_05IOGGPFMA@rport?$AA@ 0057f49c     pjsip-core-i386-win32-vc8-debug:sip_parser.obj
 0003:000094a4       ??_C@_03FJEPELFP@tag?$AA@  0057f4a4     pjsip-core-i386-win32-vc8-debug:sip_parser.obj
 0003:000094a8       ??_C@_07MJGJEDBB@expires?$AA@ 0057f4a8     pjsip-core-i386-win32-vc8-debug:sip_parser.obj
 0003:000094b4       ??_C@_01IIACKFLH@q?$AA@    0057f4b4     pjsip-core-i386-win32-vc8-debug:sip_parser.obj
 0003:000094b8       ??_C@_08CIDECLFI@received?$AA@ 0057f4b8     pjsip-core-i386-win32-vc8-debug:sip_parser.obj
 0003:000094c4       ??_C@_03KAFGPDAP@ttl?$AA@  0057f4c4     pjsip-core-i386-win32-vc8-debug:sip_parser.obj
 0003:000094c8       ??_C@_06KAEOJLJM@branch?$AA@ 0057f4c8     pjsip-core-i386-win32-vc8-debug:sip_parser.obj
 0003:000094d0       ??_C@_03LNLCDKEI@tel?$AA@  0057f4d0     pjsip-core-i386-win32-vc8-debug:sip_parser.obj
 0003:000094d4       ??_C@_02FMHKAPNN@lr?$AA@   0057f4d4     pjsip-core-i386-win32-vc8-debug:sip_parser.obj
 0003:000094d8       ??_C@_05LIJGAEPJ@maddr?$AA@ 0057f4d8     pjsip-core-i386-win32-vc8-debug:sip_parser.obj
 0003:000094e0       ??_C@_09PBENLGJM@transport?$AA@ 0057f4e0     pjsip-core-i386-win32-vc8-debug:sip_parser.obj
 0003:000094ec       ??_C@_06GABBCIBA@method?$AA@ 0057f4ec     pjsip-core-i386-win32-vc8-debug:sip_parser.obj
 0003:000094f4       ??_C@_04CCHAHKJA@user?$AA@ 0057f4f4     pjsip-core-i386-win32-vc8-debug:sip_parser.obj
 0003:000094fc       ??_C@_0BH@KMKLEGFJ@?$CD?$DP?$DL?3?$EA?$CG?$DN?$CL?9_?4?$CB?$HO?$CK?8?$CI?$CJ?$CF$?0?1?$CF?$AA@ 0057f4fc     pjsip-core-i386-win32-vc8-debug:sip_parser.obj
 0003:00009518       ??_C@_04FOECIMDB@?3?$AN?6?$DM?$AA@ 0057f518     pjsip-core-i386-win32-vc8-debug:sip_parser.obj
 0003:00009520       ??_C@_04INEOGBDO@?$EA?5?6?$DO?$AA@ 0057f520     pjsip-core-i386-win32-vc8-debug:sip_parser.obj
 0003:00009528       ??_C@_0BA@GJPAFF@?9_?4?$CB?$HO?$CK?8?$CI?$CJ?$CF?$CG?$DN?$CL$?0?$AA@ 0057f528     pjsip-core-i386-win32-vc8-debug:sip_parser.obj
 0003:0000953c       ??_C@_01IPJKGB@?$CD?$AA@   0057f53c     pjsip-core-i386-win32-vc8-debug:sip_parser.obj
 0003:00009540       ??_C@_0BD@FAKEDBHK@?9_?4?$CB?$HO?$CK?8?$CI?$CJ?$CF?$CG?$DN?$CL$?0?$DL?$DP?1?$AA@ 0057f540     pjsip-core-i386-win32-vc8-debug:sip_parser.obj
 0003:00009558       ??_C@_0BC@DHLPLEEN@?$FL?$FN?1?$DP?3?$CL$?9_?4?$CB?$HO?$CK?8?$CI?$CJ?$CF?$AA@ 0057f558     pjsip-core-i386-win32-vc8-debug:sip_parser.obj
 0003:00009570       ??_C@_0BC@EIHPKHIH@?$FL?$FN?1?3?$CG?$CL$?9_?4?$CB?$HO?$CK?8?$CI?$CJ?$CF?$AA@ 0057f570     pjsip-core-i386-win32-vc8-debug:sip_parser.obj
 0003:00009588       ??_C@_0N@INHGOOCE@abcdefABCDEF?$AA@ 0057f588     pjsip-core-i386-win32-vc8-debug:sip_parser.obj
 0003:00009598       ??_C@_03HGEHODII@_?9?4?$AA@ 0057f598     pjsip-core-i386-win32-vc8-debug:sip_parser.obj
 0003:0000959c       ??_C@_01JLIPDDHJ@?3?$AA@   0057f59c     pjsip-core-i386-win32-vc8-debug:sip_parser.obj
 0003:000095a0       ??_C@_01FGNFDNOH@?$CF?$AA@ 0057f5a0     pjsip-core-i386-win32-vc8-debug:sip_parser.obj
 0003:000095a4       ??_C@_0L@LGCFMBHL@?9?4?$CB?$CF?$CK_?$GA?8?$HO?$CL?$AA@ 0057f5a4     pjsip-core-i386-win32-vc8-debug:sip_parser.obj
 0003:000095b4       ??_C@_03MGGIELLM@?0?$AN?6?$AA@ 0057f5b4     pjsip-core-i386-win32-vc8-debug:sip_parser.obj
 0003:000095b8       ??_C@_02PCIJFNDE@?$AN?6?$AA@ 0057f5b8     pjsip-core-i386-win32-vc8-debug:sip_parser.obj
 0003:000095bc       ??_C@_0BD@IGJCFAAL@PJSIP?5syntax?5error?$AA@ 0057f5bc     pjsip-core-i386-win32-vc8-debug:sip_parser.obj
 0003:000095d4       ??_C@_1DM@KEIOLPDE@?$AAP?$AAJ?$AAS?$AAI?$AAP?$AA_?$AAS?$AAY?$AAN?$AA_?$AAE?$AAR?$AAR?$AA_?$AAE?$AAX?$AAC?$AAE?$AAP?$AAT?$AAI?$AAO?$AAN?$AA?5?$AA?$DN?$AA?$DN?$AA?5?$AA?9?$AA1?$AA?$AA@ 0057f5d4     pjsip-core-i386-win32-vc8-debug:sip_parser.obj
 0003:00009620       ??_C@_1GI@EMPFDAAM@?$AAd?$AA?3?$AA?2?$AAm?$AAy?$AAg?$AAi?$AAt?$AA?2?$AAp?$AAj?$AAp?$AAr?$AAo?$AAj?$AAe?$AAc?$AAt?$AA?9?$AA1?$AA?4?$AA4?$AA?2?$AAp?$AAj?$AAs?$AAi?$AAp?$AA?2?$AAs?$AAr?$AAc@ 0057f620     pjsip-core-i386-win32-vc8-debug:sip_parser.obj
 0003:0000969c       ??_C@_1DI@PLCFOBDA@?$AA?$CB?$AA?$CC?$AAH?$AAe?$AAa?$AAd?$AAe?$AAr?$AA?5?$AAn?$AAa?$AAm?$AAe?$AA?5?$AAi?$AAs?$AA?5?$AAt?$AAo?$AAo?$AA?5?$AAl?$AAo?$AAn?$AAg?$AA?$CB?$AA?$CC?$AA?$AA@ 0057f69c     pjsip-core-i386-win32-vc8-debug:sip_parser.obj
 0003:000096e0       ??_C@_0BJ@OAGIOOBF@Header?5name?5is?5too?5long?$CB?$AA@ 0057f6e0     pjsip-core-i386-win32-vc8-debug:sip_parser.obj
 0003:00009700       ??_C@_1CM@LPFIANDA@?$AA?$CB?$AA?$CC?$AAT?$AAo?$AAo?$AA?5?$AAm?$AAa?$AAn?$AAy?$AA?5?$AAh?$AAa?$AAn?$AAd?$AAl?$AAe?$AAr?$AAs?$AA?$CB?$AA?$CC?$AA?$AA@ 0057f700     pjsip-core-i386-win32-vc8-debug:sip_parser.obj
 0003:00009734       ??_C@_0BD@EDPLLDNP@Too?5many?5handlers?$CB?$AA@ 0057f734     pjsip-core-i386-win32-vc8-debug:sip_parser.obj
 0003:0000974c       ??_C@_03EDDBLLFO@?6?$AN?6?$AA@ 0057f74c     pjsip-core-i386-win32-vc8-debug:sip_parser.obj
 0003:00009750       ??_C@_0M@KNCMEJPH@Status?5Line?$AA@ 0057f750     pjsip-core-i386-win32-vc8-debug:sip_parser.obj
 0003:00009760       ??_C@_0N@KMCODECP@Request?5Line?$AA@ 0057f760     pjsip-core-i386-win32-vc8-debug:sip_parser.obj
 0003:00009770       ??_C@_03MCPDGLLE@SIP?$AA@  0057f770     pjsip-core-i386-win32-vc8-debug:sip_parser.obj
 0003:00009774       ??_C@_03GJAMENNA@2?40?$AA@ 0057f774     pjsip-core-i386-win32-vc8-debug:sip_parser.obj
 0003:00009778       ??_C@_01CLKCMJKC@?5?$AA@   0057f778     pjsip-core-i386-win32-vc8-debug:sip_parser.obj
 0003:0000977c       ??_C@_1CK@PPBJENKJ@?$AA?$CB?$AA?$CC?$AAI?$AAn?$AAv?$AAa?$AAl?$AAi?$AAd?$AA?5?$AAd?$AAa?$AAt?$AAa?$AA_?$AAt?$AAy?$AAp?$AAe?$AA?$CC?$AA?$AA@ 0057f77c     pjsip-core-i386-win32-vc8-debug:sip_auth_client.obj
 0003:000097b0       ??_C@_0BC@CABGKIBM@Invalid?5data_type?$AA@ 0057f7b0     pjsip-core-i386-win32-vc8-debug:sip_auth_client.obj
 0003:000097c8       ??_C@_1DG@IAFCGOHD@?$AAc?$AAr?$AAe?$AAd?$AA_?$AAi?$AAn?$AAf?$AAo?$AA?9?$AA?$DO?$AAd?$AAa?$AAt?$AAa?$AA?4?$AAs?$AAl?$AAe?$AAn?$AA?5?$AA?$DN?$AA?$DN?$AA?5?$AA3?$AA2?$AA?$AA@ 0057f7c8     pjsip-core-i386-win32-vc8-debug:sip_auth_client.obj
 0003:00009808       ??_C@_1CG@ODPPELPF@?$AAr?$AAe?$AAs?$AAu?$AAl?$AAt?$AA?9?$AA?$DO?$AAs?$AAl?$AAe?$AAn?$AA?5?$AA?$DO?$AA?$DN?$AA?5?$AA3?$AA2?$AA?$AA@ 0057f808     pjsip-core-i386-win32-vc8-debug:sip_auth_client.obj
 0003:00009838       ??_C@_1HC@FHDHGDLE@?$AAd?$AA?3?$AA?2?$AAm?$AAy?$AAg?$AAi?$AAt?$AA?2?$AAp?$AAj?$AAp?$AAr?$AAo?$AAj?$AAe?$AAc?$AAt?$AA?9?$AA1?$AA?4?$AA4?$AA?2?$AAp?$AAj?$AAs?$AAi?$AAp?$AA?2?$AAs?$AAr?$AAc@ 0057f838     pjsip-core-i386-win32-vc8-debug:sip_auth_client.obj
 0003:000098c0       ??_C@_0BB@JCEFLFJE@0123456789abcdef?$AA@ 0057f8c0     pjsip-core-i386-win32-vc8-debug:sip_auth_client.obj
 0003:000098d8       ??_C@_1EM@JJPKMEAJ@?$AAs?$AAe?$AAs?$AAs?$AA?5?$AA?$CG?$AA?$CG?$AA?5?$AAe?$AAn?$AAd?$AAp?$AAt?$AA?5?$AA?$CG?$AA?$CG?$AA?5?$AAp?$AAo?$AAo?$AAl?$AA?5?$AA?$CG?$AA?$CG?$AA?5?$AA?$CI?$AAo?$AAp?$AAt?$AAi?$AAo?$AAn@ 0057f8d8     pjsip-core-i386-win32-vc8-debug:sip_auth_client.obj
 0003:00009934       ??_C@_1CI@BLFGLAIC@?$AAp?$AAo?$AAo?$AAl?$AA?5?$AA?$CG?$AA?$CG?$AA?5?$AAs?$AAe?$AAs?$AAs?$AA?5?$AA?$CG?$AA?$CG?$AA?5?$AAr?$AAh?$AAs?$AA?$AA@ 0057f934     pjsip-core-i386-win32-vc8-debug:sip_auth_client.obj
 0003:00009964       ??_C@_1DG@IAMHNCEO@?$AAc?$AA?$FL?$AAi?$AA?$FN?$AA?4?$AAe?$AAx?$AAt?$AA?4?$AAa?$AAk?$AAa?$AA?4?$AAa?$AAm?$AAf?$AA?4?$AAs?$AAl?$AAe?$AAn?$AA?5?$AA?$DM?$AA?$DN?$AA?5?$AA2?$AA?$AA@ 0057f964     pjsip-core-i386-win32-vc8-debug:sip_auth_client.obj
 0003:000099a4       ??_C@_1DG@CNKBOPNN@?$AAc?$AA?$FL?$AAi?$AA?$FN?$AA?4?$AAe?$AAx?$AAt?$AA?4?$AAa?$AAk?$AAa?$AA?4?$AAo?$AAp?$AA?4?$AAs?$AAl?$AAe?$AAn?$AA?5?$AA?$DM?$AA?$DN?$AA?5?$AA1?$AA6?$AA?$AA@ 0057f9a4     pjsip-core-i386-win32-vc8-debug:sip_auth_client.obj
 0003:000099e4       ??_C@_1DE@FFLMJDPC@?$AAc?$AA?$FL?$AAi?$AA?$FN?$AA?4?$AAe?$AAx?$AAt?$AA?4?$AAa?$AAk?$AAa?$AA?4?$AAk?$AA?4?$AAs?$AAl?$AAe?$AAn?$AA?5?$AA?$DM?$AA?$DN?$AA?5?$AA1?$AA6?$AA?$AA@ 0057f9e4     pjsip-core-i386-win32-vc8-debug:sip_auth_client.obj
 0003:00009a24       ??_C@_1DO@GLOJAMOP@?$AAc?$AA?$FL?$AAi?$AA?$FN?$AA?4?$AAe?$AAx?$AAt?$AA?4?$AAa?$AAk?$AAa?$AA?4?$AAc?$AAb?$AA?5?$AA?$CB?$AA?$DN?$AA?5?$AA?$CI?$AA?$CI?$AAv?$AAo?$AAi?$AAd?$AA?5?$AA?$CK?$AA?$CJ?$AA0?$AA?$CJ?$AA?$AA@ 0057fa24     pjsip-core-i386-win32-vc8-debug:sip_auth_client.obj
 0003:00009a70       ??_C@_1FI@MOOKMECN@?$AA?$CB?$AA?$CC?$AAP?$AAJ?$AAS?$AAI?$AAP?$AA_?$AAH?$AAA?$AAS?$AA_?$AAD?$AAI?$AAG?$AAE?$AAS?$AAT?$AA_?$AAA?$AAK?$AAA?$AA_?$AAA?$AAU?$AAT?$AAH?$AA?5?$AAi?$AAs?$AA?5?$AAn@ 0057fa70     pjsip-core-i386-win32-vc8-debug:sip_auth_client.obj
 0003:00009adc       ??_C@_0CJ@HLCPJHMN@PJSIP_HAS_DIGEST_AKA_AUTH?5is?5not@ 0057fadc     pjsip-core-i386-win32-vc8-debug:sip_auth_client.obj
 0003:00009b10       ??_C@_1BE@LIIENECH@?$AAs?$AAe?$AAs?$AAs?$AA?5?$AA?$CG?$AA?$CG?$AA?5?$AAc?$AA?$AA@ 0057fb10     pjsip-core-i386-win32-vc8-debug:sip_auth_client.obj
 0003:00009b28       ??_C@_1BE@PKCICMFG@?$AAs?$AAe?$AAs?$AAs?$AA?5?$AA?$CG?$AA?$CG?$AA?5?$AAp?$AA?$AA@ 0057fb28     pjsip-core-i386-win32-vc8-debug:sip_auth_client.obj
 0003:00009b40       ??_C@_1EI@EGKNKFME@?$AAt?$AAd?$AAa?$AAt?$AAa?$AA?9?$AA?$DO?$AAm?$AAs?$AAg?$AA?9?$AA?$DO?$AAt?$AAy?$AAp?$AAe?$AA?$DN?$AA?$DN?$AAP?$AAJ?$AAS?$AAI?$AAP?$AA_?$AAR?$AAE?$AAQ?$AAU?$AAE?$AAS?$AAT?$AA_@ 0057fb40     pjsip-core-i386-win32-vc8-debug:sip_auth_client.obj
 0003:00009b98       ??_C@_1BG@KEBAFJPL@?$AAs?$AAe?$AAs?$AAs?$AA?9?$AA?$DO?$AAp?$AAo?$AAo?$AAl?$AA?$AA@ 0057fb98     pjsip-core-i386-win32-vc8-debug:sip_auth_client.obj
 0003:00009bb4       ??_C@_1BM@KGENIGOP@?$AAs?$AAe?$AAs?$AAs?$AA?5?$AA?$CG?$AA?$CG?$AA?5?$AAt?$AAd?$AAa?$AAt?$AAa?$AA?$AA@ 0057fbb4     pjsip-core-i386-win32-vc8-debug:sip_auth_client.obj
 0003:00009bd8       ??_C@_1LK@NFNMJODL@?$AAr?$AAd?$AAa?$AAt?$AAa?$AA?9?$AA?$DO?$AAm?$AAs?$AAg?$AA_?$AAi?$AAn?$AAf?$AAo?$AA?4?$AAm?$AAs?$AAg?$AA?9?$AA?$DO?$AAl?$AAi?$AAn?$AAe?$AA?4?$AAs?$AAt?$AAa?$AAt?$AAu?$AAs@ 0057fbd8     pjsip-core-i386-win32-vc8-debug:sip_auth_client.obj
 0003:00009cb8       ??_C@_1FI@DAMPIJII@?$AAo?$AAl?$AAd?$AA_?$AAr?$AAe?$AAq?$AAu?$AAe?$AAs?$AAt?$AA?9?$AA?$DO?$AAm?$AAs?$AAg?$AA?9?$AA?$DO?$AAt?$AAy?$AAp?$AAe?$AA?5?$AA?$DN?$AA?$DN?$AA?5?$AAP?$AAJ?$AAS?$AAI?$AAP?$AA_@ 0057fcb8     pjsip-core-i386-win32-vc8-debug:sip_auth_client.obj
 0003:00009d28       ??_C@_1GA@JIEMNOKH@?$AAr?$AAd?$AAa?$AAt?$AAa?$AA?9?$AA?$DO?$AAm?$AAs?$AAg?$AA_?$AAi?$AAn?$AAf?$AAo?$AA?4?$AAm?$AAs?$AAg?$AA?9?$AA?$DO?$AAt?$AAy?$AAp?$AAe?$AA?5?$AA?$DN?$AA?$DN?$AA?5?$AAP?$AAJ?$AAS@ 0057fd28     pjsip-core-i386-win32-vc8-debug:sip_auth_client.obj
 0003:00009da0       ??_C@_1FI@NPPOBLBH@?$AAs?$AAe?$AAs?$AAs?$AA?5?$AA?$CG?$AA?$CG?$AA?5?$AAr?$AAd?$AAa?$AAt?$AAa?$AA?5?$AA?$CG?$AA?$CG?$AA?5?$AAo?$AAl?$AAd?$AA_?$AAr?$AAe?$AAq?$AAu?$AAe?$AAs?$AAt?$AA?5?$AA?$CG?$AA?$CG?$AA?5@ 0057fda0     pjsip-core-i386-win32-vc8-debug:sip_auth_client.obj
 0003:00009e10       ??_C@_0EB@PMHMAEL@Unable?5to?5set?5auth?5for?5?$CFs?3?5can?5n@ 0057fe10     pjsip-core-i386-win32-vc8-debug:sip_auth_client.obj
 0003:00009e60       ??_C@_0EN@FFFABAE@Authorization?5failed?5for?5?$CF?4?$CKs?$EA?$CF?4@ 0057fe60     pjsip-core-i386-win32-vc8-debug:sip_auth_client.obj
 0003:00009ebc       ??_C@_0BC@IFICLNCF@sip_auth_client?4c?$AA@ 0057febc     pjsip-core-i386-win32-vc8-debug:sip_auth_client.obj
 0003:00009ed8       ??_C@_0EF@GMAJJJPM@Authorization?5failed?5for?5?$CF?4?$CKs?$EA?$CF?4@ 0057fed8     pjsip-core-i386-win32-vc8-debug:sip_auth_client.obj
 0003:00009f2c       ??_C@_1DI@CBPGIHME@?$AA?$CB?$AA?$CC?$AAI?$AAn?$AAv?$AAa?$AAl?$AAi?$AAd?$AA?5?$AAr?$AAe?$AAs?$AAp?$AAo?$AAn?$AAs?$AAe?$AA?5?$AAh?$AAe?$AAa?$AAd?$AAe?$AAr?$AA?$CB?$AA?$CC?$AA?$AA@ 0057ff2c     pjsip-core-i386-win32-vc8-debug:sip_auth_client.obj
 0003:00009f70       ??_C@_0BJ@OKLINPNH@Invalid?5response?5header?$CB?$AA@ 0057ff70     pjsip-core-i386-win32-vc8-debug:sip_auth_client.obj
 0003:00009f90       ??_C@_1CI@POHEHOA@?$AA?$CB?$AA?$CC?$AAU?$AAR?$AAL?$AA?5?$AAi?$AAs?$AA?5?$AAt?$AAo?$AAo?$AA?5?$AAl?$AAo?$AAn?$AAg?$AA?$CB?$AA?$CC?$AA?$AA@ 0057ff90     pjsip-core-i386-win32-vc8-debug:sip_auth_client.obj
 0003:00009fc0       ??_C@_0BB@BNLANCLD@URL?5is?5too?5long?$CB?$AA@ 0057ffc0     pjsip-core-i386-win32-vc8-debug:sip_auth_client.obj
 0003:00009fd8       ??_C@_1KM@IEMIHLKG@?$AAr?$AAe?$AAq?$AA_?$AAp?$AAo?$AAo?$AAl?$AA?5?$AA?$CG?$AA?$CG?$AA?5?$AAh?$AAd?$AAr?$AA?5?$AA?$CG?$AA?$CG?$AA?5?$AAu?$AAr?$AAi?$AA?5?$AA?$CG?$AA?$CG?$AA?5?$AAc?$AAr?$AAe?$AAd?$AA_?$AAi@ 0057ffd8     pjsip-core-i386-win32-vc8-debug:sip_auth_client.obj
 0003:0000a0a8       ??_C@_0BL@DHABBKFJ@Unsupported?5qop?5offer?5?$CF?4?$CKs?$AA@ 005800a8     pjsip-core-i386-win32-vc8-debug:sip_auth_client.obj
 0003:0000a0c8       ??_C@_06DKDPJBDF@b39971?$AA@ 005800c8     pjsip-core-i386-win32-vc8-debug:sip_auth_client.obj
 0003:0000a0d0       ??_C@_04LIOHGJKM@?$CF08u?$AA@ 005800d0     pjsip-core-i386-win32-vc8-debug:sip_auth_client.obj
 0003:0000a0d8       ??_C@_0CE@PAGGDDKM@Unsupported?5digest?5algorithm?5?$CC?$CF?4@ 005800d8     pjsip-core-i386-win32-vc8-debug:sip_auth_client.obj
 0003:0000a104       ??_C@_09BBOOBJFI@AKAv1?9MD5?$AA@ 00580104     pjsip-core-i386-win32-vc8-debug:sip_auth_client.obj
 0003:0000a110       ??_C@_03KFFFHGHD@?$DLlr?$AA@ 00580110     pjsip-core-i386-win32-vc8-debug:sip_uri.obj
 0003:0000a114       ??_C@_0M@OGEJDPOO@?$DLtransport?$DN?$AA@ 00580114     pjsip-core-i386-win32-vc8-debug:sip_uri.obj
 0003:0000a124       ??_C@_08FIHANMDK@?$DLmethod?$DN?$AA@ 00580124     pjsip-core-i386-win32-vc8-debug:sip_uri.obj
 0003:0000a130       ??_C@_06BMAPCEPF@?$DLuser?$DN?$AA@ 00580130     pjsip-core-i386-win32-vc8-debug:sip_uri.obj
 0003:0000a138       ??_C@_1CI@JKBBIMAG@?$AAu?$AAr?$AAl?$AA?9?$AA?$DO?$AAh?$AAo?$AAs?$AAt?$AA?4?$AAs?$AAl?$AAe?$AAn?$AA?5?$AA?$CB?$AA?$DN?$AA?5?$AA0?$AA?$AA@ 00580138     pjsip-core-i386-win32-vc8-debug:sip_uri.obj
 0003:0000a168       ??_C@_1GC@OOGKBNIL@?$AAd?$AA?3?$AA?2?$AAm?$AAy?$AAg?$AAi?$AAt?$AA?2?$AAp?$AAj?$AAp?$AAr?$AAo?$AAj?$AAe?$AAc?$AAt?$AA?9?$AA1?$AA?4?$AA4?$AA?2?$AAp?$AAj?$AAs?$AAi?$AAp?$AA?2?$AAs?$AAr?$AAc@ 00580168     pjsip-core-i386-win32-vc8-debug:sip_uri.obj
 0003:0000a1e0       ??_C@_1DC@IJLHHHKA@?$AAn?$AAa?$AAm?$AAe?$AA?9?$AA?$DO?$AAu?$AAr?$AAi?$AA?5?$AA?$CB?$AA?$DN?$AA?5?$AA?$CI?$AA?$CI?$AAv?$AAo?$AAi?$AAd?$AA?5?$AA?$CK?$AA?$CJ?$AA0?$AA?$CJ?$AA?$AA@ 005801e0     pjsip-core-i386-win32-vc8-debug:sip_uri.obj
 0003:0000a21c       ??_C@_1CG@DFIMFNPH@?$AAu?$AAr?$AAi?$AA?5?$AA?$CB?$AA?$DN?$AA?5?$AA?$CI?$AA?$CI?$AAv?$AAo?$AAi?$AAd?$AA?5?$AA?$CK?$AA?$CJ?$AA0?$AA?$CJ?$AA?$AA@ 0058021c     pjsip-core-i386-win32-vc8-debug:sip_uri.obj
 0003:0000a24c       ??_C@_1DG@GODDKGCA@?$AAn?$AAa?$AAd?$AAd?$AAr?$AA2?$AA?9?$AA?$DO?$AAu?$AAr?$AAi?$AA?5?$AA?$CB?$AA?$DN?$AA?5?$AA?$CI?$AA?$CI?$AAv?$AAo?$AAi?$AAd?$AA?5?$AA?$CK?$AA?$CJ?$AA0?$AA?$CJ?$AA?$AA@ 0058024c     pjsip-core-i386-win32-vc8-debug:sip_uri.obj
 0003:0000a28c       ??_C@_1DG@BAELOOIG@?$AAn?$AAa?$AAd?$AAd?$AAr?$AA1?$AA?9?$AA?$DO?$AAu?$AAr?$AAi?$AA?5?$AA?$CB?$AA?$DN?$AA?5?$AA?$CI?$AA?$CI?$AAv?$AAo?$AAi?$AAd?$AA?5?$AA?$CK?$AA?$CJ?$AA0?$AA?$CJ?$AA?$AA@ 0058028c     pjsip-core-i386-win32-vc8-debug:sip_uri.obj
 0003:0000a2cc       ??_C@_0BC@OBBFELDN@mod?9stateful?9util?$AA@ 005802cc     pjsip-core-i386-win32-vc8-debug:sip_util_statefull.obj
 0003:0000a2e4       ??_C@_1DG@FANFAPDE@?$AAm?$AAo?$AAd?$AA_?$AAs?$AAt?$AAa?$AAt?$AAe?$AAf?$AAu?$AAl?$AA_?$AAu?$AAt?$AAi?$AAl?$AA?4?$AAi?$AAd?$AA?5?$AA?$CB?$AA?$DN?$AA?5?$AA?9?$AA1?$AA?$AA@ 005802e4     pjsip-core-i386-win32-vc8-debug:sip_util_statefull.obj
 0003:0000a328       ??_C@_1FK@KDJACFDP@?$AAe?$AAn?$AAd?$AAp?$AAt?$AA?5?$AA?$CG?$AA?$CG?$AA?5?$AAt?$AAd?$AAa?$AAt?$AAa?$AA?5?$AA?$CG?$AA?$CG?$AA?5?$AA?$CI?$AAt?$AAi?$AAm?$AAe?$AAo?$AAu?$AAt?$AA?$DN?$AA?$DN?$AA?9?$AA1?$AA?5?$AA?$HM@ 00580328     pjsip-core-i386-win32-vc8-debug:sip_util_statefull.obj
 0003:0000a398       ??_C@_1HI@FPGMJFMG@?$AAd?$AA?3?$AA?2?$AAm?$AAy?$AAg?$AAi?$AAt?$AA?2?$AAp?$AAj?$AAp?$AAr?$AAo?$AAj?$AAe?$AAc?$AAt?$AA?9?$AA1?$AA?4?$AA4?$AA?2?$AAp?$AAj?$AAs?$AAi?$AAp?$AA?2?$AAs?$AAr?$AAc@ 00580398     pjsip-core-i386-win32-vc8-debug:sip_util_statefull.obj
 0003:0000a428       ??_C@_1BM@GEGFCJE@?$AAp?$AAo?$AAo?$AAl?$AA?5?$AA?$CG?$AA?$CG?$AA?5?$AAp?$AA_?$AAr?$AAe?$AAs?$AA?$AA@ 00580428     pjsip-core-i386-win32-vc8-debug:sip_resolve.obj
 0003:0000a450       ??_C@_1GK@NDMFKLAA@?$AAd?$AA?3?$AA?2?$AAm?$AAy?$AAg?$AAi?$AAt?$AA?2?$AAp?$AAj?$AAp?$AAr?$AAo?$AAj?$AAe?$AAc?$AAt?$AA?9?$AA1?$AA?4?$AA4?$AA?2?$AAp?$AAj?$AAs?$AAi?$AAp?$AA?2?$AAs?$AAr?$AAc@ 00580450     pjsip-core-i386-win32-vc8-debug:sip_resolve.obj
 0003:0000a4d0       ??_C@_0CG@CBPKEJKE@Failed?5to?5resolve?5?8?$CF?4?$CKs?8?4?5Err?$DN?$CFd@ 005804d0     pjsip-core-i386-win32-vc8-debug:sip_resolve.obj
 0003:0000a500       ??_C@_1BM@EGHJMJCG@?$AA?$CB?$AA?$CC?$AAU?$AAn?$AAe?$AAx?$AAp?$AAe?$AAc?$AAt?$AAe?$AAd?$AA?$CC?$AA?$AA@ 00580500     pjsip-core-i386-win32-vc8-debug:sip_resolve.obj
 0003:0000a524       ??_C@_0L@PKONJGIE@Unexpected?$AA@ 00580524     pjsip-core-i386-win32-vc8-debug:sip_resolve.obj
 0003:0000a538       ??_C@_0EE@KKBDDFND@Starting?5async?5DNS?5?$CFs?5query?3?5tar@ 00580538     pjsip-core-i386-win32-vc8-debug:sip_resolve.obj
 0003:0000a58c       ??_C@_1DE@LBIIFKHI@?$AA?$CB?$AA?$CC?$AAU?$AAn?$AAk?$AAn?$AAo?$AAw?$AAn?$AA?5?$AAt?$AAr?$AAa?$AAn?$AAs?$AAp?$AAo?$AAr?$AAt?$AA?5?$AAt?$AAy?$AAp?$AAe?$AA?$CC?$AA?$AA@ 0058058c     pjsip-core-i386-win32-vc8-debug:sip_resolve.obj
 0003:0000a5cc       ??_C@_0BH@JFKNGOEE@Unknown?5transport?5type?$AA@ 005805cc     pjsip-core-i386-win32-vc8-debug:sip_resolve.obj
 0003:0000a5e8       ??_C@_0L@IGAKGJHB@_sip?4_udp?4?$AA@ 005805e8     pjsip-core-i386-win32-vc8-debug:sip_resolve.obj
 0003:0000a5f8       ??_C@_0L@CGLNHIHI@_sip?4_tcp?4?$AA@ 005805f8     pjsip-core-i386-win32-vc8-debug:sip_resolve.obj
 0003:0000a608       ??_C@_0M@EKOGDFHO@_sips?4_tcp?4?$AA@ 00580608     pjsip-core-i386-win32-vc8-debug:sip_resolve.obj
 0003:0000a618       ??_C@_0DH@DPGIKKNN@Target?5?8?$CF?4?$CKs?3?$CFd?8?5type?$DN?$CFs?5resolve@ 00580618     pjsip-core-i386-win32-vc8-debug:sip_resolve.obj
 0003:0000a65c       ??_C@_0O@DMBGNNMG@sip_resolve?4c?$AA@ 0058065c     pjsip-core-i386-win32-vc8-debug:sip_resolve.obj
 0003:0000a670       ??_C@_0FJ@MFGCGKIL@DNS?5resolver?5not?5available?0?5targ@ 00580670     pjsip-core-i386-win32-vc8-debug:sip_resolve.obj
 0003:0000a6dc       ??_C@_0CD@MNOGDEHE@DNS?5A?5record?5resolution?5failed?3?5@ 005806dc     pjsip-core-i386-win32-vc8-debug:sip_resolve.obj
 0003:0000a708       ??_C@_0O@IMLAOJJD@phone?9context?$AA@ 00580708     pjsip-core-i386-win32-vc8-debug:sip_tel_uri.obj
 0003:0000a718       ??_C@_03MDPCKCMI@ext?$AA@  00580718     pjsip-core-i386-win32-vc8-debug:sip_tel_uri.obj
 0003:0000a71c       ??_C@_04NBIELBDC@isub?$AA@ 0058071c     pjsip-core-i386-win32-vc8-debug:sip_tel_uri.obj
 0003:0000a724       ??_C@_01NEMOKFLO@?$DN?$AA@ 00580724     pjsip-core-i386-win32-vc8-debug:sip_tel_uri.obj
 0003:0000a728       ??_C@_0BM@IILGPONN@?$FL?$FN?1?3?$CG?$CL$0123456789?9_?4?$CB?$HO?$CK?8?$CI?$CJ?$CF?$AA@ 00580728     pjsip-core-i386-win32-vc8-debug:sip_tel_uri.obj
 0003:0000a74c       ??_C@_01JOAMLHOP@?9?$AA@   0058074c     pjsip-core-i386-win32-vc8-debug:sip_tel_uri.obj
 0003:0000a750       ??_C@_0BP@LJHGJILO@?1?3?$EA?$CG$?0?$CL0123456789?9_?4?$CB?$HO?$CK?8?$CI?$CJ?$CF?$FL?$FN?$CL?$AA@ 00580750     pjsip-core-i386-win32-vc8-debug:sip_tel_uri.obj
 0003:0000a778       ??_C@_0BA@NHFLMIGM@?$CL0123456789?9?4?$CI?$CJ?$AA@ 00580778     pjsip-core-i386-win32-vc8-debug:sip_tel_uri.obj
 0003:0000a78c       ??_C@_04DCHJLDOJ@?9?4?$CI?$CJ?$AA@ 0058078c     pjsip-core-i386-win32-vc8-debug:sip_tel_uri.obj
 0003:0000a794       ??_C@_0CM@MMELMJHM@0123456789aAbBcCdDeEfF?$CK?$CD?9?4?$CI?$CJ?$CL012@ 00580794     pjsip-core-i386-win32-vc8-debug:sip_tel_uri.obj
 0003:0000a7c8       ??_C@_0P@KBNHNABO@0123456789?9?4?$CI?$CJ?$AA@ 005807c8     pjsip-core-i386-win32-vc8-debug:sip_tel_uri.obj
 0003:0000a7dc       ??_C@_1BE@MBPLHDIH@?$AAs?$AAt?$AAa?$AAt?$AAu?$AAs?$AA?$DN?$AA?$DN?$AA0?$AA?$AA@ 005807dc     pjsip-core-i386-win32-vc8-debug:sip_tel_uri.obj
 0003:0000a7f8       ??_C@_1GK@FLAIEJJN@?$AAd?$AA?3?$AA?2?$AAm?$AAy?$AAg?$AAi?$AAt?$AA?2?$AAp?$AAj?$AAp?$AAr?$AAo?$AAj?$AAe?$AAc?$AAt?$AA?9?$AA1?$AA?4?$AA4?$AA?2?$AAp?$AAj?$AAs?$AAi?$AAp?$AA?2?$AAs?$AAr?$AAc@ 005807f8     pjsip-core-i386-win32-vc8-debug:sip_tel_uri.obj
 0003:0000a878       ??_C@_0BA@JDMJBMEF@?$DLphone?9context?$DN?$AA@ 00580878     pjsip-core-i386-win32-vc8-debug:sip_tel_uri.obj
 0003:0000a88c       ??_C@_06CECEBCPK@?$DLisub?$DN?$AA@ 0058088c     pjsip-core-i386-win32-vc8-debug:sip_tel_uri.obj
 0003:0000a894       ??_C@_05OGMJFBEO@?$DLext?$DN?$AA@ 00580894     pjsip-core-i386-win32-vc8-debug:sip_tel_uri.obj
 0003:0000a89c       ??_C@_0DK@PDMPPIHB@SSL?5certificate?5verification?5err@ 0058089c     pjsip-core-i386-win32-vc8-debug:sip_errno.obj
 0003:0000a8e4       ??_C@_0DE@NMMHGAJD@SSL?5negotiation?5has?5timed?5out?5?$CIP@ 005808e4     pjsip-core-i386-win32-vc8-debug:sip_errno.obj
 0003:0000a924       ??_C@_0DG@GNCBAFL@Unknown?5error?5when?5reading?5SSL?5d@ 00580924     pjsip-core-i386-win32-vc8-debug:sip_errno.obj
 0003:0000a964       ??_C@_0DG@LGELLHGA@Unknown?5error?5when?5sending?5SSL?5d@ 00580964     pjsip-core-i386-win32-vc8-debug:sip_errno.obj
 0003:0000a9a4       ??_C@_0DP@CGFDGHCM@Unknown?5error?5when?5performing?5SS@ 005809a4     pjsip-core-i386-win32-vc8-debug:sip_errno.obj
 0003:0000a9f0       ??_C@_0EB@LOJLDGBN@Unknown?5error?5when?5performing?5SS@ 005809f0     pjsip-core-i386-win32-vc8-debug:sip_errno.obj
 0003:0000aa40       ??_C@_0DK@GBGOJKMK@Error?5creating?5SSL?5connection?5ob@ 00580a40     pjsip-core-i386-win32-vc8-debug:sip_errno.obj
 0003:0000aa88       ??_C@_0CM@KJHKFFIL@Error?5creating?5SSL?5context?5?$CIPJSI@ 00580a88     pjsip-core-i386-win32-vc8-debug:sip_errno.obj
 0003:0000aabc       ??_C@_0DC@HMDIEPNK@Error?5setting?5SSL?5cipher?5list?5?$CIP@ 00580abc     pjsip-core-i386-win32-vc8-debug:sip_errno.obj
 0003:0000aaf8       ??_C@_0EI@PNDINLEB@Error?5adding?5private?5key?5from?5SS@ 00580af8     pjsip-core-i386-win32-vc8-debug:sip_errno.obj
 0003:0000ab50       ??_C@_0DP@NPMNFNID@Error?5loading?5SSL?5certificate?5ch@ 00580b50     pjsip-core-i386-win32-vc8-debug:sip_errno.obj
 0003:0000ab9c       ??_C@_0DN@LHDHPIOK@Error?5loading?1verifying?5SSL?5CA?5l@ 00580b9c     pjsip-core-i386-win32-vc8-debug:sip_errno.obj
 0003:0000abe8       ??_C@_0DD@NFLPGFPJ@Invalid?5SSL?5protocol?5method?5?$CIPJS@ 00580be8     pjsip-core-i386-win32-vc8-debug:sip_errno.obj
 0003:0000ac28       ??_C@_0CH@HBADBAEP@Unknown?5TLS?5error?5?$CIPJSIP_TLS_EUN@ 00580c28     pjsip-core-i386-win32-vc8-debug:sip_errno.obj
 0003:0000ac58       ??_C@_0DK@CJAGEDOD@Require?5secure?5session?1transport@ 00580c58     pjsip-core-i386-win32-vc8-debug:sip_errno.obj
 0003:0000aca0       ??_C@_0DD@DMBFAKPC@Invalid?5INVITE?5session?5state?5?$CIPJ@ 00580ca0     pjsip-core-i386-win32-vc8-debug:sip_errno.obj
 0003:0000ace0       ??_C@_0DN@EOKOKJCK@INVITE?5session?5already?5terminate@ 00580ce0     pjsip-core-i386-win32-vc8-debug:sip_errno.obj
 0003:0000ad2c       ??_C@_0DP@GMKFENNH@Not?5associated?5with?5REFER?5subscr@ 00580d2c     pjsip-core-i386-win32-vc8-debug:sip_errno.obj
 0003:0000ad78       ??_C@_0CK@NLEHMEII@Expecting?5REFER?5request?5?$CIPJSIP_E@ 00580d78     pjsip-core-i386-win32-vc8-debug:sip_errno.obj
 0003:0000adac       ??_C@_0DC@HLPJEBKI@Missing?5From?1To?5tag?5parameter?5?$CIP@ 00580dac     pjsip-core-i386-win32-vc8-debug:sip_errno.obj
 0003:0000ade8       ??_C@_0CK@IIJPHHCN@No?5challenge?5is?5found?5?$CIPJSIP_EAU@ 00580de8     pjsip-core-i386-win32-vc8-debug:sip_errno.obj
 0003:0000ae1c       ??_C@_0CO@PNJFNJKN@Invalid?5AKA?5credential?5?$CIPJSIP_EA@ 00580e1c     pjsip-core-i386-win32-vc8-debug:sip_errno.obj
 0003:0000ae58       ??_C@_0EF@LIONEPAL@Invalid?5nonce?5value?5in?5authentic@ 00580e58     pjsip-core-i386-win32-vc8-debug:sip_errno.obj
 0003:0000aeb0       ??_C@_0EB@JCHOOAEG@Maximum?5number?5of?5stale?5retries?5@ 00580eb0     pjsip-core-i386-win32-vc8-debug:sip_errno.obj
 0003:0000af00       ??_C@_0DI@MHHCMF@Invalid?5authorization?5digest?5?$CIPJ@ 00580f00     pjsip-core-i386-win32-vc8-debug:sip_errno.obj
 0003:0000af44       ??_C@_0DG@HIIKPIBJ@Invalid?5authorization?5realm?5?$CIPJS@ 00580f44     pjsip-core-i386-win32-vc8-debug:sip_errno.obj
 0003:0000af84       ??_C@_0DL@CMLHLLPG@Account?5or?5credential?5is?5disable@ 00580f84     pjsip-core-i386-win32-vc8-debug:sip_errno.obj
 0003:0000afcc       ??_C@_0DJ@LPEDCKOO@Account?5or?5credential?5not?5found?5@ 00580fcc     pjsip-core-i386-win32-vc8-debug:sip_errno.obj
 0003:0000b010       ??_C@_0DF@DNNICPPN@No?5suitable?5authorization?5header@ 00581010     pjsip-core-i386-win32-vc8-debug:sip_errno.obj
 0003:0000b050       ??_C@_0CO@BMGFFPME@No?5previous?5challenge?5?$CIPJSIP_EAU@ 00581050     pjsip-core-i386-win32-vc8-debug:sip_errno.obj
 0003:0000b088       ??_C@_0DN@GPEKONDD@Unsupported?5authentication?5schem@ 00581088     pjsip-core-i386-win32-vc8-debug:sip_errno.obj
 0003:0000b0d4       ??_C@_0DD@GJOGBLMF@Invalid?1unsupported?5digest?5qop?5?$CI@ 005810d4     pjsip-core-i386-win32-vc8-debug:sip_errno.obj
 0003:0000b114       ??_C@_0DP@NGPGIDFF@Invalid?1unsupported?5digest?5algor@ 00581114     pjsip-core-i386-win32-vc8-debug:sip_errno.obj
 0003:0000b160       ??_C@_0CN@IIEEILJJ@No?5suitable?5credential?5?$CIPJSIP_EN@ 00581160     pjsip-core-i386-win32-vc8-debug:sip_errno.obj
 0003:0000b198       ??_C@_0DM@LOOBEDNN@Credential?5failed?5to?5authenticat@ 00581198     pjsip-core-i386-win32-vc8-debug:sip_errno.obj
 0003:0000b1e0       ??_C@_0DG@CFNMFPOM@URI?5header?5parameter?5mismatch?5?$CIP@ 005811e0     pjsip-core-i386-win32-vc8-debug:sip_errno.obj
 0003:0000b220       ??_C@_0DA@DADPPELC@URI?5other?5param?5mismatch?5?$CIPJSIP_@ 00581220     pjsip-core-i386-win32-vc8-debug:sip_errno.obj
 0003:0000b25c       ??_C@_0DA@HIHPGKKA@URI?5maddr?5param?5mismatch?5?$CIPJSIP_@ 0058125c     pjsip-core-i386-win32-vc8-debug:sip_errno.obj
 0003:0000b298       ??_C@_0DC@BPANLPFC@URI?5method?5param?5mismatch?5?$CIPJSIP@ 00581298     pjsip-core-i386-win32-vc8-debug:sip_errno.obj
 0003:0000b2d4       ??_C@_0CO@PNILAMMK@URI?5user?5param?5mismatch?5?$CIPJSIP_E@ 005812d4     pjsip-core-i386-win32-vc8-debug:sip_errno.obj
 0003:0000b30c       ??_C@_0CM@PONOAHFI@URI?5ttl?5param?5mismatch?5?$CIPJSIP_EC@ 0058130c     pjsip-core-i386-win32-vc8-debug:sip_errno.obj
 0003:0000b340       ??_C@_0DG@KAIIGJOM@URI?5transport?5param?5mismatch?5?$CIPJ@ 00581340     pjsip-core-i386-win32-vc8-debug:sip_errno.obj
 0003:0000b380       ??_C@_0CD@LGFLCNGN@URI?5port?5mismatch?5?$CIPJSIP_ECMPPOR@ 00581380     pjsip-core-i386-win32-vc8-debug:sip_errno.obj
 0003:0000b3ac       ??_C@_0CI@CAAENIBN@URI?5host?5part?5mismatch?5?$CIPJSIP_EC@ 005813ac     pjsip-core-i386-win32-vc8-debug:sip_errno.obj
 0003:0000b3dc       ??_C@_0CO@NLCBDNGP@URI?5password?5part?5mismatch?5?$CIPJSI@ 005813dc     pjsip-core-i386-win32-vc8-debug:sip_errno.obj
 0003:0000b414       ??_C@_0CI@DCNDLDIL@URI?5user?5part?5mismatch?5?$CIPJSIP_EC@ 00581414     pjsip-core-i386-win32-vc8-debug:sip_errno.obj
 0003:0000b444       ??_C@_0CH@EBPFAGMB@URI?5scheme?5mismatch?5?$CIPJSIP_ECMPS@ 00581444     pjsip-core-i386-win32-vc8-debug:sip_errno.obj
 0003:0000b478       ??_C@_0FM@JGDLJGMK@No?5transaction?5is?5associated?5wit@ 00581478     pjsip-core-i386-win32-vc8-debug:sip_errno.obj
 0003:0000b4e8       ??_C@_0DF@DPMOHHML@Transaction?5has?5been?5destroyed?5?$CI@ 005814e8     pjsip-core-i386-win32-vc8-debug:sip_errno.obj
 0003:0000b528       ??_C@_0DE@NJLNEKOM@Transport?5not?5available?5for?5use?5@ 00581528     pjsip-core-i386-win32-vc8-debug:sip_errno.obj
 0003:0000b568       ??_C@_0DF@PBAMDOH@Unsuitable?5transport?5selected?5?$CIP@ 00581568     pjsip-core-i386-win32-vc8-debug:sip_errno.obj
 0003:0000b5a8       ??_C@_0CH@IPJBAOPN@Buffer?5destroyed?5?$CIPJSIP_EBUFDEST@ 005815a8     pjsip-core-i386-win32-vc8-debug:sip_errno.obj
 0003:0000b5d8       ??_C@_0CH@FGKEPDFL@Rx?5buffer?5overflow?5?$CIPJSIP_ERXOVE@ 005815d8     pjsip-core-i386-win32-vc8-debug:sip_errno.obj
 0003:0000b608       ??_C@_0DD@FMJGJHHJ@Transmit?5buffer?5already?5pending?5@ 00581608     pjsip-core-i386-win32-vc8-debug:sip_errno.obj
 0003:0000b648       ??_C@_0CO@MKNJKJDL@Unsupported?5transport?5?$CIPJSIP_EUN@ 00581648     pjsip-core-i386-win32-vc8-debug:sip_errno.obj
 0003:0000b680       ??_C@_0DB@NINEONMP@Invalid?1unexpected?5method?5?$CIPJSIP@ 00581680     pjsip-core-i386-win32-vc8-debug:sip_errno.obj
 0003:0000b6bc       ??_C@_0CK@LJCOFGPN@Missing?5message?5body?5?$CIPJSIP_EMIS@ 005816bc     pjsip-core-i386-win32-vc8-debug:sip_errno.obj
 0003:0000b6f0       ??_C@_0DG@HLMABLPG@Multiple?5Via?5headers?5in?5response@ 005816f0     pjsip-core-i386-win32-vc8-debug:sip_errno.obj
 0003:0000b730       ??_C@_0CH@NDGOCBBP@Invalid?5Via?5header?5?$CIPJSIP_EINVAL@ 00581730     pjsip-core-i386-win32-vc8-debug:sip_errno.obj
 0003:0000b760       ??_C@_0CJ@GFIBJIAO@Invalid?5header?5field?5?$CIPJSIP_EINV@ 00581760     pjsip-core-i386-win32-vc8-debug:sip_errno.obj
 0003:0000b794       ??_C@_0CP@PNHNBIME@Missing?5required?5header?$CIs?$CJ?5?$CIPJSI@ 00581794     pjsip-core-i386-win32-vc8-debug:sip_errno.obj
 0003:0000b7cc       ??_C@_0CE@NBJPLEOO@URI?5is?5too?5long?5?$CIPJSIP_EURITOOLO@ 005817cc     pjsip-core-i386-win32-vc8-debug:sip_errno.obj
 0003:0000b7f8       ??_C@_0CL@JOKFDOLI@Invalid?5Request?5URI?5?$CIPJSIP_EINVA@ 005817f8     pjsip-core-i386-win32-vc8-debug:sip_errno.obj
 0003:0000b82c       ??_C@_0CL@FGPCAKCH@Missing?5Request?9URI?5?$CIPJSIP_EMISS@ 0058182c     pjsip-core-i386-win32-vc8-debug:sip_errno.obj
 0003:0000b860       ??_C@_0CK@PDIHHAGH@Invalid?5URI?5scheme?5?$CIPJSIP_EINVAL@ 00581860     pjsip-core-i386-win32-vc8-debug:sip_errno.obj
 0003:0000b894       ??_C@_0CA@ICJGNPBL@Invalid?5URI?5?$CIPJSIP_EINVALIDURI?$CJ?$AA@ 00581894     pjsip-core-i386-win32-vc8-debug:sip_errno.obj
 0003:0000b8bc       ??_C@_0DK@HMGLEHFD@Invalid?1unexpected?5SIP?5status?5co@ 005818bc     pjsip-core-i386-win32-vc8-debug:sip_errno.obj
 0003:0000b904       ??_C@_0CE@FONCLLMK@Partial?5message?5?$CIPJSIP_EPARTIALM@ 00581904     pjsip-core-i386-win32-vc8-debug:sip_errno.obj
 0003:0000b930       ??_C@_0CF@NOACODOC@Message?5too?5long?5?$CIPJSIP_EMSGTOOL@ 00581930     pjsip-core-i386-win32-vc8-debug:sip_errno.obj
 0003:0000b95c       ??_C@_0DD@MODFKCPK@Expecting?5response?5message?5?$CIPJSI@ 0058195c     pjsip-core-i386-win32-vc8-debug:sip_errno.obj
 0003:0000b99c       ??_C@_0DB@NNKMNMEK@Expecting?5request?5message?5?$CIPJSIP@ 0058199c     pjsip-core-i386-win32-vc8-debug:sip_errno.obj
 0003:0000b9d8       ??_C@_0DB@LNGCHBD@Invalid?5message?1syntax?5error?5?$CIPJ@ 005819d8     pjsip-core-i386-win32-vc8-debug:sip_errno.obj
 0003:0000ba14       ??_C@_0DH@GEJHNFDM@SIP?5object?5is?5not?5initialized?4?5?$CI@ 00581a14     pjsip-core-i386-win32-vc8-debug:sip_errno.obj
 0003:0000ba58       ??_C@_0CK@JJDNDGNE@SIP?5stack?5shutting?5down?5?$CIPJSIP_E@ 00581a58     pjsip-core-i386-win32-vc8-debug:sip_errno.obj
 0003:0000ba8c       ??_C@_0DF@LHIGDAHP@Object?5with?5the?5same?5type?5exists@ 00581a8c     pjsip-core-i386-win32-vc8-debug:sip_errno.obj
 0003:0000bacc       ??_C@_0BN@NDHPCAAG@Object?5is?5busy?5?$CIPJSIP_EBUSY?$CJ?$AA@ 00581acc     pjsip-core-i386-win32-vc8-debug:sip_errno.obj
 0003:0000bdcc       ??_C@_0BH@IINGFMKF@Unknown?5pjsip?5error?5?$CFd?$AA@ 00581dcc     pjsip-core-i386-win32-vc8-debug:sip_errno.obj
 0003:0000bde8       ??_C@_06MNAAFAAH@?$CCauth?$CC?$AA@ 00581de8     pjsip-core-i386-win32-vc8-debug:sip_auth_parser.obj
 0003:0000bdf0       ??_C@_04DPLCCHJC@auth?$AA@ 00581df0     pjsip-core-i386-win32-vc8-debug:sip_auth_parser.obj
 0003:0000bdf8       ??_C@_05FEKNEIJC@?$CCmd5?$CC?$AA@ 00581df8     pjsip-core-i386-win32-vc8-debug:sip_auth_parser.obj
 0003:0000be00       ??_C@_03PKBIKOHH@md5?$AA@  00581e00     pjsip-core-i386-win32-vc8-debug:sip_auth_parser.obj
 0003:0000be04       ??_C@_05PBIHDNLO@?$CCPGP?$CC?$AA@ 00581e04     pjsip-core-i386-win32-vc8-debug:sip_auth_parser.obj
 0003:0000be0c       ??_C@_03NKNIOJFA@PGP?$AA@  00581e0c     pjsip-core-i386-win32-vc8-debug:sip_auth_parser.obj
 0003:0000be10       ??_C@_08MPOLMKFE@?$CCDigest?$CC?$AA@ 00581e10     pjsip-core-i386-win32-vc8-debug:sip_auth_parser.obj
 0003:0000be1c       ??_C@_06MHCCOJOO@Digest?$AA@ 00581e1c     pjsip-core-i386-win32-vc8-debug:sip_auth_parser.obj
 0003:0000be24       ??_C@_07MGKGDKEI@?$CCfalse?$CC?$AA@ 00581e24     pjsip-core-i386-win32-vc8-debug:sip_auth_parser.obj
 0003:0000be30       ??_C@_05LAPONLG@false?$AA@ 00581e30     pjsip-core-i386-win32-vc8-debug:sip_auth_parser.obj
 0003:0000be38       ??_C@_06JMFPOLAJ@?$CCtrue?$CC?$AA@ 00581e38     pjsip-core-i386-win32-vc8-debug:sip_auth_parser.obj
 0003:0000be40       ??_C@_04LOAJBDKD@true?$AA@ 00581e40     pjsip-core-i386-win32-vc8-debug:sip_auth_parser.obj
 0003:0000be48       ??_C@_02MCHPIKD@nc?$AA@    00581e48     pjsip-core-i386-win32-vc8-debug:sip_auth_parser.obj
 0003:0000be4c       ??_C@_06CJCOLNBB@opaque?$AA@ 00581e4c     pjsip-core-i386-win32-vc8-debug:sip_auth_parser.obj
 0003:0000be54       ??_C@_06HILDJCOE@cnonce?$AA@ 00581e54     pjsip-core-i386-win32-vc8-debug:sip_auth_parser.obj
 0003:0000be5c       ??_C@_03GBIMBCPB@qop?$AA@  00581e5c     pjsip-core-i386-win32-vc8-debug:sip_auth_parser.obj
 0003:0000be60       ??_C@_05BFAEFKPM@stale?$AA@ 00581e60     pjsip-core-i386-win32-vc8-debug:sip_auth_parser.obj
 0003:0000be68       ??_C@_06LKIIGAOE@domain?$AA@ 00581e68     pjsip-core-i386-win32-vc8-debug:sip_auth_parser.obj
 0003:0000be70       ??_C@_09JPNFBOJG@algorithm?$AA@ 00581e70     pjsip-core-i386-win32-vc8-debug:sip_auth_parser.obj
 0003:0000be7c       ??_C@_08HKMEAON@response?$AA@ 00581e7c     pjsip-core-i386-win32-vc8-debug:sip_auth_parser.obj
 0003:0000be88       ??_C@_03GBBABMJN@uri?$AA@  00581e88     pjsip-core-i386-win32-vc8-debug:sip_auth_parser.obj
 0003:0000be8c       ??_C@_05OOEDLKEB@nonce?$AA@ 00581e8c     pjsip-core-i386-win32-vc8-debug:sip_auth_parser.obj
 0003:0000be94       ??_C@_05ELABLNGD@realm?$AA@ 00581e94     pjsip-core-i386-win32-vc8-debug:sip_auth_parser.obj
 0003:0000be9c       ??_C@_08ODGEKKOL@username?$AA@ 00581e9c     pjsip-core-i386-win32-vc8-debug:sip_auth_parser.obj
 0003:0000bea8       _pjsip_USERNAME_STR        00581ea8     pjsip-core-i386-win32-vc8-debug:sip_auth_parser.obj
 0003:0000beb0       _pjsip_REALM_STR           00581eb0     pjsip-core-i386-win32-vc8-debug:sip_auth_parser.obj
 0003:0000beb8       _pjsip_NONCE_STR           00581eb8     pjsip-core-i386-win32-vc8-debug:sip_auth_parser.obj
 0003:0000bec0       _pjsip_URI_STR             00581ec0     pjsip-core-i386-win32-vc8-debug:sip_auth_parser.obj
 0003:0000bec8       _pjsip_RESPONSE_STR        00581ec8     pjsip-core-i386-win32-vc8-debug:sip_auth_parser.obj
 0003:0000bed0       _pjsip_ALGORITHM_STR       00581ed0     pjsip-core-i386-win32-vc8-debug:sip_auth_parser.obj
 0003:0000bed8       _pjsip_DOMAIN_STR          00581ed8     pjsip-core-i386-win32-vc8-debug:sip_auth_parser.obj
 0003:0000bee0       _pjsip_STALE_STR           00581ee0     pjsip-core-i386-win32-vc8-debug:sip_auth_parser.obj
 0003:0000bee8       _pjsip_QOP_STR             00581ee8     pjsip-core-i386-win32-vc8-debug:sip_auth_parser.obj
 0003:0000bef0       _pjsip_CNONCE_STR          00581ef0     pjsip-core-i386-win32-vc8-debug:sip_auth_parser.obj
 0003:0000bef8       _pjsip_OPAQUE_STR          00581ef8     pjsip-core-i386-win32-vc8-debug:sip_auth_parser.obj
 0003:0000bf00       _pjsip_NC_STR              00581f00     pjsip-core-i386-win32-vc8-debug:sip_auth_parser.obj
 0003:0000bf08       _pjsip_TRUE_STR            00581f08     pjsip-core-i386-win32-vc8-debug:sip_auth_parser.obj
 0003:0000bf10       _pjsip_QUOTED_TRUE_STR     00581f10     pjsip-core-i386-win32-vc8-debug:sip_auth_parser.obj
 0003:0000bf18       _pjsip_FALSE_STR           00581f18     pjsip-core-i386-win32-vc8-debug:sip_auth_parser.obj
 0003:0000bf20       _pjsip_QUOTED_FALSE_STR    00581f20     pjsip-core-i386-win32-vc8-debug:sip_auth_parser.obj
 0003:0000bf28       _pjsip_DIGEST_STR          00581f28     pjsip-core-i386-win32-vc8-debug:sip_auth_parser.obj
 0003:0000bf30       _pjsip_QUOTED_DIGEST_STR   00581f30     pjsip-core-i386-win32-vc8-debug:sip_auth_parser.obj
 0003:0000bf38       _pjsip_PGP_STR             00581f38     pjsip-core-i386-win32-vc8-debug:sip_auth_parser.obj
 0003:0000bf40       _pjsip_QUOTED_PGP_STR      00581f40     pjsip-core-i386-win32-vc8-debug:sip_auth_parser.obj
 0003:0000bf48       _pjsip_MD5_STR             00581f48     pjsip-core-i386-win32-vc8-debug:sip_auth_parser.obj
 0003:0000bf50       _pjsip_QUOTED_MD5_STR      00581f50     pjsip-core-i386-win32-vc8-debug:sip_auth_parser.obj
 0003:0000bf58       _pjsip_AUTH_STR            00581f58     pjsip-core-i386-win32-vc8-debug:sip_auth_parser.obj
 0003:0000bf60       _pjsip_QUOTED_AUTH_STR     00581f60     pjsip-core-i386-win32-vc8-debug:sip_auth_parser.obj
 0003:0000bf90       ??_C@_1HC@GOHIBNHK@?$AAd?$AA?3?$AA?2?$AAm?$AAy?$AAg?$AAi?$AAt?$AA?2?$AAp?$AAj?$AAp?$AAr?$AAo?$AAj?$AAe?$AAc?$AAt?$AA?9?$AA1?$AA?4?$AA4?$AA?2?$AAp?$AAj?$AAs?$AAi?$AAp?$AA?2?$AAs?$AAr?$AAc@ 00581f90     pjsip-core-i386-win32-vc8-debug:sip_auth_parser.obj
 0003:0000c018       ??_C@_1GM@BJAFGDL@?$AAd?$AA?3?$AA?2?$AAm?$AAy?$AAg?$AAi?$AAt?$AA?2?$AAp?$AAj?$AAp?$AAr?$AAo?$AAj?$AAe?$AAc?$AAt?$AA?9?$AA1?$AA?4?$AA4?$AA?2?$AAp?$AAj?$AAs?$AAi?$AAp?$AA?2?$AAs?$AAr?$AAc@ 00582018     pjsip-core-i386-win32-vc8-debug:sip_auth_msg.obj
 0003:0000c09c       ??_C@_05EBCAJOC@?0?5nc?$DN?$AA@ 0058209c     pjsip-core-i386-win32-vc8-debug:sip_auth_msg.obj
 0003:0000c0a4       ??_C@_06PEMMHIJL@?0?5qop?$DN?$AA@ 005820a4     pjsip-core-i386-win32-vc8-debug:sip_auth_msg.obj
 0003:0000c0ac       ??_C@_09FBEJJABD@?0?5opaque?$DN?$AA@ 005820ac     pjsip-core-i386-win32-vc8-debug:sip_auth_msg.obj
 0003:0000c0b8       ??_C@_09JMMPALKP@?0?5cnonce?$DN?$AA@ 005820b8     pjsip-core-i386-win32-vc8-debug:sip_auth_msg.obj
 0003:0000c0c4       ??_C@_0N@CGBNHFEJ@?0?5algorithm?$DN?$AA@ 005820c4     pjsip-core-i386-win32-vc8-debug:sip_auth_msg.obj
 0003:0000c0d4       ??_C@_0M@LHKMMNIM@?0?5response?$DN?$AA@ 005820d4     pjsip-core-i386-win32-vc8-debug:sip_auth_msg.obj
 0003:0000c0e4       ??_C@_06LAMIMJOG@?0?5uri?$DN?$AA@ 005820e4     pjsip-core-i386-win32-vc8-debug:sip_auth_msg.obj
 0003:0000c0ec       ??_C@_08INALKCDD@?0?5nonce?$DN?$AA@ 005820ec     pjsip-core-i386-win32-vc8-debug:sip_auth_msg.obj
 0003:0000c0f8       ??_C@_08FIMOKBNA@?0?5realm?$DN?$AA@ 005820f8     pjsip-core-i386-win32-vc8-debug:sip_auth_msg.obj
 0003:0000c104       ??_C@_09FNNDBHOE@username?$DN?$AA@ 00582104     pjsip-core-i386-win32-vc8-debug:sip_auth_msg.obj
 0003:0000c110       ??_C@_03NHCDCECM@pgp?$AA@  00582110     pjsip-core-i386-win32-vc8-debug:sip_auth_msg.obj
 0003:0000c114       ??_C@_06IJPNAHC@digest?$AA@ 00582114     pjsip-core-i386-win32-vc8-debug:sip_auth_msg.obj
 0003:0000c11c       ??_C@_05KHLNJFNF@?0qop?$DN?$AA@ 0058211c     pjsip-core-i386-win32-vc8-debug:sip_auth_msg.obj
 0003:0000c124       ??_C@_0M@HOHCEKCL@?0algorithm?$DN?$AA@ 00582124     pjsip-core-i386-win32-vc8-debug:sip_auth_msg.obj
 0003:0000c134       ??_C@_07IIGBIFNN@?0stale?$DN?$AA@ 00582134     pjsip-core-i386-win32-vc8-debug:sip_auth_msg.obj
 0003:0000c140       ??_C@_08OHJPPMIB@?0opaque?$DN?$AA@ 00582140     pjsip-core-i386-win32-vc8-debug:sip_auth_msg.obj
 0003:0000c14c       ??_C@_07DNEKANAM@?0nonce?$DN?$AA@ 0058214c     pjsip-core-i386-win32-vc8-debug:sip_auth_msg.obj
 0003:0000c158       ??_C@_08CKNLFMMP@?0domain?$DN?$AA@ 00582158     pjsip-core-i386-win32-vc8-debug:sip_auth_msg.obj
 0003:0000c164       ??_C@_07LPCABLKA@?5realm?$DN?$AA@ 00582164     pjsip-core-i386-win32-vc8-debug:sip_auth_msg.obj
 0003:0000c170       ??_C@_08MPIAKENM@RTP?1SAVP?$AA@ 00582170     pjmedia-i386-win32-vc8-debug:sdp.obj
 0003:0000c17c       ??_C@_07OEHJJJKF@RTP?1AVP?$AA@ 0058217c     pjmedia-i386-win32-vc8-debug:sdp.obj
 0003:0000c19c       ??_C@_1BK@LHKKGLPP@?$AAp?$AAo?$AAo?$AAl?$AA?5?$AA?$CG?$AA?$CG?$AA?5?$AAn?$AAa?$AAm?$AAe?$AA?$AA@ 0058219c     pjmedia-i386-win32-vc8-debug:sdp.obj
 0003:0000c1c0       ??_C@_1GC@EIEAHPHN@?$AAd?$AA?3?$AA?2?$AAm?$AAy?$AAg?$AAi?$AAt?$AA?2?$AAp?$AAj?$AAp?$AAr?$AAo?$AAj?$AAe?$AAc?$AAt?$AA?9?$AA1?$AA?4?$AA4?$AA?2?$AAp?$AAj?$AAm?$AAe?$AAd?$AAi?$AAa?$AA?2?$AAs@ 005821c0     pjmedia-i386-win32-vc8-debug:sdp.obj
 0003:0000c238       ??_C@_1BI@CECNPHHM@?$AAp?$AAo?$AAo?$AAl?$AA?5?$AA?$CG?$AA?$CG?$AA?5?$AAr?$AAh?$AAs?$AA?$AA@ 00582238     pjmedia-i386-win32-vc8-debug:sdp.obj
 0003:0000c254       ??_C@_1CI@HFMGJFMC@?$AA?$CK?$AAc?$AAo?$AAu?$AAn?$AAt?$AA?5?$AA?$DM?$AA?5?$AA?$CI?$AA3?$AA2?$AA?$CK?$AA2?$AA?5?$AA?$CL?$AA?5?$AA4?$AA?$CJ?$AA?$AA@ 00582254     pjmedia-i386-win32-vc8-debug:sdp.obj
 0003:0000c284       ??_C@_1DI@HJCFDDCH@?$AAc?$AAo?$AAu?$AAn?$AAt?$AA?5?$AA?$CG?$AA?$CG?$AA?5?$AAa?$AAt?$AAt?$AAr?$AA_?$AAa?$AAr?$AAr?$AAa?$AAy?$AA?5?$AA?$CG?$AA?$CG?$AA?5?$AAa?$AAt?$AAt?$AAr?$AA?$AA@ 00582284     pjmedia-i386-win32-vc8-debug:sdp.obj
 0003:0000c2c8       ??_C@_1DI@FFGCGLJA@?$AAc?$AAo?$AAu?$AAn?$AAt?$AA?5?$AA?$CG?$AA?$CG?$AA?5?$AAa?$AAt?$AAt?$AAr?$AA_?$AAa?$AAr?$AAr?$AAa?$AAy?$AA?5?$AA?$CG?$AA?$CG?$AA?5?$AAn?$AAa?$AAm?$AAe?$AA?$AA@ 005822c8     pjmedia-i386-win32-vc8-debug:sdp.obj
 0003:0000c30c       ??_C@_1CI@KMDGDPGJ@?$AA?$CB?$AA?$CC?$AAS?$AAh?$AAo?$AAu?$AAl?$AAd?$AAn?$AA?8?$AAt?$AA?5?$AAh?$AAa?$AAp?$AAp?$AAe?$AAn?$AA?$CC?$AA?$AA@ 0058230c     pjmedia-i386-win32-vc8-debug:sdp.obj
 0003:0000c33c       ??_C@_0BB@FMMFANH@Shouldn?8t?5happen?$AA@ 0058233c     pjmedia-i386-win32-vc8-debug:sdp.obj
 0003:0000c350       ??_C@_1CM@JFDNFDJN@?$AAa?$AAt?$AAt?$AAr?$AA?9?$AA?$DO?$AAv?$AAa?$AAl?$AAu?$AAe?$AA?4?$AAs?$AAl?$AAe?$AAn?$AA?5?$AA?$CB?$AA?$DN?$AA?5?$AA0?$AA?$AA@ 00582350     pjmedia-i386-win32-vc8-debug:sdp.obj
 0003:0000c388       ??_C@_1EK@FJKEMOIA@?$AAp?$AAj?$AA_?$AAs?$AAt?$AAr?$AAc?$AAm?$AAp?$AA2?$AA?$CI?$AA?$CG?$AAa?$AAt?$AAt?$AAr?$AA?9?$AA?$DO?$AAn?$AAa?$AAm?$AAe?$AA?0?$AA?5?$AA?$CC?$AAr?$AAt?$AAp?$AAm?$AAa?$AAp?$AA?$CC@ 00582388     pjmedia-i386-win32-vc8-debug:sdp.obj
 0003:0000c3e0       ??_C@_06NPGDLJKE@rtpmap?$AA@ 005823e0     pjmedia-i386-win32-vc8-debug:sdp.obj
 0003:0000c3e8       ??_C@_0BC@KMLOGCBL@?$CB?$CD$?$CF?$CG?8?$CK?$CL?9?4?$FO_?$GA?$HL?$HM?$HN?$HO?$AA@ 005823e8     pjmedia-i386-win32-vc8-debug:sdp.obj
 0003:0000c400       ??_C@_1EG@MKFCNOBN@?$AAp?$AAj?$AA_?$AAs?$AAt?$AAr?$AAc?$AAm?$AAp?$AA2?$AA?$CI?$AA?$CG?$AAa?$AAt?$AAt?$AAr?$AA?9?$AA?$DO?$AAn?$AAa?$AAm?$AAe?$AA?0?$AA?5?$AA?$CC?$AAf?$AAm?$AAt?$AAp?$AA?$CC?$AA?$CJ?$AA?$DN@ 00582400     pjmedia-i386-win32-vc8-debug:sdp.obj
 0003:0000c454       ??_C@_04JKCEBMKL@fmtp?$AA@ 00582454     pjmedia-i386-win32-vc8-debug:sdp.obj
 0003:0000c460       ??_C@_1EG@KJAHBMHP@?$AAp?$AAj?$AA_?$AAs?$AAt?$AAr?$AAc?$AAm?$AAp?$AA2?$AA?$CI?$AA?$CG?$AAa?$AAt?$AAt?$AAr?$AA?9?$AA?$DO?$AAn?$AAa?$AAm?$AAe?$AA?0?$AA?5?$AA?$CC?$AAr?$AAt?$AAc?$AAp?$AA?$CC?$AA?$CJ?$AA?$DN@ 00582460     pjmedia-i386-win32-vc8-debug:sdp.obj
 0003:0000c4b4       ??_C@_04DLDMIAAJ@rtcp?$AA@ 005824b4     pjmedia-i386-win32-vc8-debug:sdp.obj
 0003:0000c4bc       ??_C@_1DM@IJIBEIIG@?$AA?$CB?$AA?$CC?$AAU?$AAn?$AAs?$AAu?$AAp?$AAp?$AAo?$AAr?$AAt?$AAe?$AAd?$AA?5?$AAa?$AAd?$AAd?$AAr?$AAe?$AAs?$AAs?$AA?5?$AAf?$AAa?$AAm?$AAi?$AAl?$AAy?$AA?$CC?$AA?$AA@ 005824bc     pjmedia-i386-win32-vc8-debug:sdp.obj
 0003:0000c504       ??_C@_0BL@ILIKGEFL@Unsupported?5address?5family?$AA@ 00582504     pjmedia-i386-win32-vc8-debug:sdp.obj
 0003:0000c524       ??_C@_0N@IAPMNKHK@?$CFu?5IN?5IP6?5?$CFs?$AA@ 00582524     pjmedia-i386-win32-vc8-debug:sdp.obj
 0003:0000c534       ??_C@_0N@PKDMIJBK@?$CFu?5IN?5IP4?5?$CFs?$AA@ 00582534     pjmedia-i386-win32-vc8-debug:sdp.obj
 0003:0000c544       ??_C@_1BE@LGFCOKD@?$AA?$CK?$AAp?$AA_?$AAr?$AAt?$AAp?$AAm?$AAa?$AAp?$AA?$AA@ 00582544     pjmedia-i386-win32-vc8-debug:sdp.obj
 0003:0000c55c       ??_C@_1DC@MOOEGOAE@?$AAp?$AAo?$AAo?$AAl?$AA?5?$AA?$CG?$AA?$CG?$AA?5?$AAa?$AAt?$AAt?$AAr?$AA?5?$AA?$CG?$AA?$CG?$AA?5?$AAp?$AA_?$AAr?$AAt?$AAp?$AAm?$AAa?$AAp?$AA?$AA@ 0058255c     pjmedia-i386-win32-vc8-debug:sdp.obj
 0003:0000c598       ??_C@_0BD@HEFIBNKB@?$CF?4?$CKs?5?$CF?4?$CKs?1?$CFu?$CFs?$CF?4?$CKs?$AA@ 00582598     pjmedia-i386-win32-vc8-debug:sdp.obj
 0003:0000c5b0       ??_C@_01KMDKNFGN@?1?$AA@   005825b0     pjmedia-i386-win32-vc8-debug:sdp.obj
 0003:0000c5b4       ??_C@_1CI@EPAHAEGD@?$AAa?$AAt?$AAt?$AAr?$AA?5?$AA?$CB?$AA?$DN?$AA?5?$AA?$CI?$AA?$CI?$AAv?$AAo?$AAi?$AAd?$AA?5?$AA?$CK?$AA?$CJ?$AA0?$AA?$CJ?$AA?$AA@ 005825b4     pjmedia-i386-win32-vc8-debug:sdp.obj
 0003:0000c5e8       ??_C@_1FI@PEPMJPO@?$AAr?$AAt?$AAp?$AAm?$AAa?$AAp?$AA?9?$AA?$DO?$AAe?$AAn?$AAc?$AA_?$AAn?$AAa?$AAm?$AAe?$AA?4?$AAs?$AAl?$AAe?$AAn?$AA?5?$AA?$CG?$AA?$CG?$AA?5?$AAr?$AAt?$AAp?$AAm?$AAa?$AAp?$AA?9@ 005825e8     pjmedia-i386-win32-vc8-debug:sdp.obj
 0003:0000c654       ??_C@_1DC@EIKIHHHP@?$AAp?$AAo?$AAo?$AAl?$AA?5?$AA?$CG?$AA?$CG?$AA?5?$AAr?$AAt?$AAp?$AAm?$AAa?$AAp?$AA?5?$AA?$CG?$AA?$CG?$AA?5?$AAp?$AA_?$AAa?$AAt?$AAt?$AAr?$AA?$AA@ 00582654     pjmedia-i386-win32-vc8-debug:sdp.obj
 0003:0000c690       ??_C@_1DE@GHMIPEL@?$AAm?$AA?9?$AA?$DO?$AAa?$AAt?$AAt?$AAr?$AA?$FL?$AAi?$AA?$FN?$AA?5?$AA?$CB?$AA?$DN?$AA?5?$AA?$CI?$AA?$CI?$AAv?$AAo?$AAi?$AAd?$AA?5?$AA?$CK?$AA?$CJ?$AA0?$AA?$CJ?$AA?$AA@ 00582690     pjmedia-i386-win32-vc8-debug:sdp.obj
 0003:0000c6d0       ??_C@_1CO@IELLMBJI@?$AAm?$AA?9?$AA?$DO?$AAc?$AAo?$AAn?$AAn?$AA?5?$AA?$CB?$AA?$DN?$AA?5?$AA?$CI?$AA?$CI?$AAv?$AAo?$AAi?$AAd?$AA?5?$AA?$CK?$AA?$CJ?$AA0?$AA?$CJ?$AA?$AA@ 005826d0     pjmedia-i386-win32-vc8-debug:sdp.obj
 0003:0000c708       ??_C@_1CC@CMAOLAKC@?$AAm?$AA?5?$AA?$CB?$AA?$DN?$AA?5?$AA?$CI?$AA?$CI?$AAv?$AAo?$AAi?$AAd?$AA?5?$AA?$CK?$AA?$CJ?$AA0?$AA?$CJ?$AA?$AA@ 00582708     pjmedia-i386-win32-vc8-debug:sdp.obj
 0003:0000c730       ??_C@_1BE@DGPNFPKO@?$AAm?$AA?5?$AA?$CG?$AA?$CG?$AA?5?$AAn?$AAa?$AAm?$AAe?$AA?$AA@ 00582730     pjmedia-i386-win32-vc8-debug:sdp.obj
 0003:0000c748       ??_C@_1CI@FMGOBFFN@?$AAc?$AAt?$AAx?$AA?4?$AAl?$AAa?$AAs?$AAt?$AA_?$AAe?$AAr?$AAr?$AAo?$AAr?$AA?5?$AA?$CB?$AA?$DN?$AA?5?$AA0?$AA?$AA@ 00582748     pjmedia-i386-win32-vc8-debug:sdp.obj
 0003:0000c778       ??_C@_0CI@CAFHMKHI@Error?5parsing?5SDP?5in?5line?5?$CFd?5col@ 00582778     pjmedia-i386-win32-vc8-debug:sdp.obj
 0003:0000c7a8       ??_C@_05LIAFADKM@sdp?4c?$AA@ 005827a8     pjmedia-i386-win32-vc8-debug:sdp.obj
 0003:0000c7b0       ??_C@_0CF@NCOGEPJF@Error?5adding?5media?0?5media?5is?5ign@ 005827b0     pjmedia-i386-win32-vc8-debug:sdp.obj
 0003:0000c7dc       ??_C@_1CO@HBFFMPPN@?$AAs?$AAe?$AAs?$AAs?$AAi?$AAo?$AAn?$AA?5?$AA?$CB?$AA?$DN?$AA?5?$AA?$CI?$AA?$CI?$AAv?$AAo?$AAi?$AAd?$AA?5?$AA?$CK?$AA?$CJ?$AA0?$AA?$CJ?$AA?$AA@ 005827dc     pjmedia-i386-win32-vc8-debug:sdp.obj
 0003:0000c814       ??_C@_04HHCDBDLF@?5?7?$AN?6?$AA@ 00582814     pjmedia-i386-win32-vc8-debug:sdp.obj
 0003:0000c81c       ??_C@_0DG@FMMLOIKL@Error?5adding?5SDP?5media?5format?5?$CF?4@ 0058281c     pjmedia-i386-win32-vc8-debug:sdp.obj
 0003:0000c85c       ??_C@_08LMCBNPPN@sendrecv?$AA@ 0058285c     pjmedia-i386-win32-vc8-debug:sdp.obj
 0003:0000c868       ??_C@_08EHCGIGCO@recvonly?$AA@ 00582868     pjmedia-i386-win32-vc8-debug:sdp.obj
 0003:0000c874       ??_C@_08HPJEFADN@sendonly?$AA@ 00582874     pjmedia-i386-win32-vc8-debug:sdp.obj
 0003:0000c880       ??_C@_08INHMCBAE@inactive?$AA@ 00582880     pjmedia-i386-win32-vc8-debug:sdp.obj
 0003:0000c88c       ??_C@_05MIOLEPMP@v?$DN0?$AN?6?$AA@ 0058288c     pjmedia-i386-win32-vc8-debug:sdp.obj
 0003:0000c894       ??_C@_0BD@NGNJPLJA@c?$DN?$CF?4?$CKs?5?$CF?4?$CKs?5?$CF?4?$CKs?$AN?6?$AA@ 00582894     pjmedia-i386-win32-vc8-debug:sdp.obj
 0003:0000c8ac       ??_C@_1DE@KFDBFPOJ@?$AAs?$AAe?$AAs?$AAs?$AA?9?$AA?$DO?$AAc?$AAo?$AAn?$AAn?$AA?5?$AA?$CB?$AA?$DN?$AA?5?$AA?$CI?$AA?$CI?$AAv?$AAo?$AAi?$AAd?$AA?5?$AA?$CK?$AA?$CJ?$AA0?$AA?$CJ?$AA?$AA@ 005828ac     pjmedia-i386-win32-vc8-debug:sdp.obj
 0003:0000c8ec       ??_C@_1CI@HOBAFJIC@?$AAs?$AAe?$AAs?$AAs?$AA?5?$AA?$CB?$AA?$DN?$AA?5?$AA?$CI?$AA?$CI?$AAv?$AAo?$AAi?$AAd?$AA?5?$AA?$CK?$AA?$CJ?$AA0?$AA?$CJ?$AA?$AA@ 005828ec     pjmedia-i386-win32-vc8-debug:sdp.obj
 0003:0000c91c       ??_C@_03NNAHIIJB@IP6?$AA@  0058291c     pjmedia-i386-win32-vc8-debug:sdp.obj
 0003:0000c920       ??_C@_03OPDBOKBD@IP4?$AA@  00582920     pjmedia-i386-win32-vc8-debug:sdp.obj
 0003:0000c924       ??_C@_02BBAPPCCJ@IN?$AA@   00582924     pjmedia-i386-win32-vc8-debug:sdp.obj
 0003:0000c928       ??_C@_13BHPHAPDN@?$AAm?$AA?$AA@ 00582928     pjmedia-i386-win32-vc8-debug:sdp.obj
 0003:0000c938       ??_C@_1CM@KFFCHNBN@?$AAe?$AAn?$AAd?$AAp?$AAt?$AA?5?$AA?$CG?$AA?$CG?$AA?5?$AAp?$AAo?$AAr?$AAt?$AA?5?$AA?$CG?$AA?$CG?$AA?5?$AAp?$AA_?$AAt?$AAp?$AA?$AA@ 00582938     pjmedia-i386-win32-vc8-debug:transport_udp.obj
 0003:0000c970       ??_C@_1HG@HBDAJLIB@?$AAd?$AA?3?$AA?2?$AAm?$AAy?$AAg?$AAi?$AAt?$AA?2?$AAp?$AAj?$AAp?$AAr?$AAo?$AAj?$AAe?$AAc?$AAt?$AA?9?$AA1?$AA?4?$AA4?$AA?2?$AAp?$AAj?$AAm?$AAe?$AAd?$AAi?$AAa?$AA?2?$AAs@ 00582970     pjmedia-i386-win32-vc8-debug:transport_udp.obj
 0003:0000ca00       ??_C@_1CI@PMPEEJBP@?$AAe?$AAn?$AAd?$AAp?$AAt?$AA?5?$AA?$CG?$AA?$CG?$AA?5?$AAs?$AAi?$AA?5?$AA?$CG?$AA?$CG?$AA?5?$AAp?$AA_?$AAt?$AAp?$AA?$AA@ 00582a00     pjmedia-i386-win32-vc8-debug:transport_udp.obj
 0003:0000ca30       ??_C@_15LFLBLBBH@?$AAt?$AAp?$AA?$AA@ 00582a30     pjmedia-i386-win32-vc8-debug:transport_udp.obj
 0003:0000ca38       ??_C@_0CD@KDFPBNLA@Remote?5RTCP?5address?5switched?5to?5@ 00582a38     pjmedia-i386-win32-vc8-debug:transport_udp.obj
 0003:0000ca64       ??_C@_0CC@MIINFHKB@Remote?5RTP?5address?5switched?5to?5?$CF@ 00582a64     pjmedia-i386-win32-vc8-debug:transport_udp.obj
 0003:0000ca8c       ??_C@_0DF@BFHKOPKN@RX?5RTP?5packet?5dropped?5because?5of@ 00582a8c     pjmedia-i386-win32-vc8-debug:transport_udp.obj
 0003:0000cacc       ??_C@_1BG@EOJHKJHM@?$AAt?$AAp?$AA?5?$AA?$CG?$AA?$CG?$AA?5?$AAi?$AAn?$AAf?$AAo?$AA?$AA@ 00582acc     pjmedia-i386-win32-vc8-debug:transport_udp.obj
 0003:0000cae8       ??_C@_1BO@KMIKMIDN@?$AA?$CB?$AAu?$AAd?$AAp?$AA?9?$AA?$DO?$AAa?$AAt?$AAt?$AAa?$AAc?$AAh?$AAe?$AAd?$AA?$AA@ 00582ae8     pjmedia-i386-win32-vc8-debug:transport_udp.obj
 0003:0000cb0c       ??_C@_1DG@DEIMONIE@?$AAt?$AAp?$AA?5?$AA?$CG?$AA?$CG?$AA?5?$AAr?$AAe?$AAm?$AA_?$AAa?$AAd?$AAd?$AAr?$AA?5?$AA?$CG?$AA?$CG?$AA?5?$AAa?$AAd?$AAd?$AAr?$AA_?$AAl?$AAe?$AAn?$AA?$AA@ 00582b0c     pjmedia-i386-win32-vc8-debug:transport_udp.obj
 0003:0000cb4c       ??_C@_1DI@EKJDEEPP@?$AAu?$AAs?$AAe?$AAr?$AA_?$AAd?$AAa?$AAt?$AAa?$AA?5?$AA?$DN?$AA?$DN?$AA?5?$AAu?$AAd?$AAp?$AA?9?$AA?$DO?$AAu?$AAs?$AAe?$AAr?$AA_?$AAd?$AAa?$AAt?$AAa?$AA?$AA@ 00582b4c     pjmedia-i386-win32-vc8-debug:transport_udp.obj
 0003:0000cb90       ??_C@_0DF@MINIEIGK@TX?5RTP?5packet?5dropped?5because?5of@ 00582b90     pjmedia-i386-win32-vc8-debug:transport_udp.obj
 0003:0000cbd0       ??_C@_1BK@BKMMDFB@?$AAs?$AAi?$AAz?$AAe?$AA?5?$AA?$DM?$AA?$DN?$AA?5?$AA1?$AA5?$AA0?$AA0?$AA?$AA@ 00582bd0     pjmedia-i386-win32-vc8-debug:transport_udp.obj
 0003:0000cbf0       ??_C@_1BM@PBEGBKGN@?$AAu?$AAd?$AAp?$AA?9?$AA?$DO?$AAa?$AAt?$AAt?$AAa?$AAc?$AAh?$AAe?$AAd?$AA?$AA@ 00582bf0     pjmedia-i386-win32-vc8-debug:transport_udp.obj
 0003:0000cc14       ??_C@_1BG@GMDMPNOG@?$AAt?$AAp?$AA?5?$AA?$CG?$AA?$CG?$AA?5?$AAp?$AAo?$AAo?$AAl?$AA?$AA@ 00582c14     pjmedia-i386-win32-vc8-debug:transport_udp.obj
 0003:0000cc30       ??_C@_1DA@BENCOENC@?$AAt?$AAp?$AA?5?$AA?$CG?$AA?$CG?$AA?5?$AAp?$AAo?$AAo?$AAl?$AA?5?$AA?$CG?$AA?$CG?$AA?5?$AAs?$AAd?$AAp?$AA_?$AAl?$AAo?$AAc?$AAa?$AAl?$AA?$AA@ 00582c30     pjmedia-i386-win32-vc8-debug:transport_udp.obj
 0003:0000cc6c       ??_C@_1CM@NEDAEJAI@?$AAt?$AAp?$AA?5?$AA?$CG?$AA?$CG?$AA?5?$AAp?$AAc?$AAt?$AA_?$AAl?$AAo?$AAs?$AAt?$AA?5?$AA?$DM?$AA?$DN?$AA?5?$AA1?$AA0?$AA0?$AA?$AA@ 00582c6c     pjmedia-i386-win32-vc8-debug:transport_udp.obj
 0003:0000cca0       ??_C@_04CEHLIMNH@g611?$AA@ 00582ca0     pjmedia-i386-win32-vc8-debug:g711.obj
 0003:0000cca8       ??_C@_04JMMHOLLC@g711?$AA@ 00582ca8     pjmedia-i386-win32-vc8-debug:g711.obj
 0003:0000ccb0       ??_C@_04BJEPFACN@PCMA?$AA@ 00582cb0     pjmedia-i386-win32-vc8-debug:g711.obj
 0003:0000ccb8       ??_C@_04DHOBIHHI@PCMU?$AA@ 00582cb8     pjmedia-i386-win32-vc8-debug:g711.obj
 0003:0000ccc0       ??_C@_1DI@PDDKDAMJ@?$AAf?$AAa?$AAc?$AAt?$AAo?$AAr?$AAy?$AA?$DN?$AA?$DN?$AA?$CG?$AAg?$AA7?$AA1?$AA1?$AA_?$AAf?$AAa?$AAc?$AAt?$AAo?$AAr?$AAy?$AA?4?$AAb?$AAa?$AAs?$AAe?$AA?$AA@ 00582cc0     pjmedia-i386-win32-vc8-debug:g711.obj
 0003:0000cd08       ??_C@_1GE@CAGGBGJL@?$AAd?$AA?3?$AA?2?$AAm?$AAy?$AAg?$AAi?$AAt?$AA?2?$AAp?$AAj?$AAp?$AAr?$AAo?$AAj?$AAe?$AAc?$AAt?$AA?9?$AA1?$AA?4?$AA4?$AA?2?$AAp?$AAj?$AAm?$AAe?$AAd?$AAi?$AAa?$AA?2?$AAs@ 00582d08     pjmedia-i386-win32-vc8-debug:g711.obj
 0003:0000cd80       ??_C@_1GK@OKDEAMPG@?$AAc?$AAo?$AAd?$AAe?$AAc?$AA?9?$AA?$DO?$AAn?$AAe?$AAx?$AAt?$AA?$DN?$AA?$DN?$AA?$CI?$AA?$CI?$AAv?$AAo?$AAi?$AAd?$AA?5?$AA?$CK?$AA?$CJ?$AA0?$AA?$CJ?$AA?5?$AA?$CG?$AA?$CG?$AA?5?$AAc?$AAo?$AAd?$AAe@ 00582d80     pjmedia-i386-win32-vc8-debug:g711.obj
 0003:0000ce00       ??_C@_1DE@BCBOGPPG@?$AAt?$AAs?$AA?5?$AA?$CG?$AA?$CG?$AA?5?$AAf?$AAr?$AAa?$AAm?$AAe?$AA_?$AAc?$AAn?$AAt?$AA?5?$AA?$CG?$AA?$CG?$AA?5?$AAf?$AAr?$AAa?$AAm?$AAe?$AAs?$AA?$AA@ 00582e00     pjmedia-i386-win32-vc8-debug:g711.obj
 0003:0000ce40       ??_C@_1EE@GCNJHDCF@?$AAi?$AAn?$AAp?$AAu?$AAt?$AA?9?$AA?$DO?$AAs?$AAi?$AAz?$AAe?$AA?5?$AA?$DN?$AA?$DN?$AA?5?$AA?$CI?$AA8?$AA0?$AA0?$AA0?$AA?5?$AA?$CK?$AA?5?$AA1?$AA0?$AA?5?$AA?1?$AA?5?$AA1?$AA0?$AA0?$AA0@ 00582e40     pjmedia-i386-win32-vc8-debug:g711.obj
 0003:0000ce98       ??_C@_1EK@OGPDBHOE@?$AAo?$AAu?$AAt?$AAp?$AAu?$AAt?$AA_?$AAb?$AAu?$AAf?$AA_?$AAl?$AAe?$AAn?$AA?5?$AA?$DO?$AA?$DN?$AA?5?$AA?$CI?$AAi?$AAn?$AAp?$AAu?$AAt?$AA?9?$AA?$DO?$AAs?$AAi?$AAz?$AAe?$AA?5?$AA?$DM@ 00582e98     pjmedia-i386-win32-vc8-debug:g711.obj
 0003:0000cef0       ??_C@_1FC@MAFBDPCL@?$AAo?$AAu?$AAt?$AAp?$AAu?$AAt?$AA_?$AAb?$AAu?$AAf?$AA_?$AAl?$AAe?$AAn?$AA?5?$AA?$DO?$AA?$DN?$AA?5?$AA?$CI?$AA8?$AA0?$AA0?$AA0?$AA?5?$AA?$CK?$AA?5?$AA1?$AA0?$AA?5?$AA?1?$AA?5?$AA1@ 00582ef0     pjmedia-i386-win32-vc8-debug:g711.obj
 0003:0000cf54       ??_C@_07HDFHIMAJ@pjmedia?$AA@ 00582f54     pjmedia-i386-win32-vc8-debug:endpoint.obj
 0003:0000cf60       ??_C@_05BPFJLLEL@video?$AA@ 00582f60     pjmedia-i386-win32-vc8-debug:endpoint.obj
 0003:0000cf68       ??_C@_05KNIAAKIP@audio?$AA@ 00582f68     pjmedia-i386-win32-vc8-debug:endpoint.obj
 0003:0000cfbc       ??_C@_05CECBHAPI@media?$AA@ 00582fbc     pjmedia-i386-win32-vc8-debug:endpoint.obj
 0003:0000cfc4       ??_C@_0L@DLFDMOGF@endpoint?4c?$AA@ 00582fc4     pjmedia-i386-win32-vc8-debug:endpoint.obj
 0003:0000cfd8       ??_C@_0EL@BIFHLACC@Warning?3?5no?5worker?5thread?5is?5cre@ 00582fd8     pjmedia-i386-win32-vc8-debug:endpoint.obj
 0003:0000d034       ??_C@_07LBNDIDNE@med?9ept?$AA@ 00583034     pjmedia-i386-win32-vc8-debug:endpoint.obj
 0003:0000d040       ??_C@_1CC@JIGJPFHP@?$AAw?$AAo?$AAr?$AAk?$AAe?$AAr?$AA_?$AAc?$AAn?$AAt?$AA?5?$AA?$DM?$AA?$DN?$AA?5?$AA1?$AA6?$AA?$AA@ 00583040     pjmedia-i386-win32-vc8-debug:endpoint.obj
 0003:0000d068       ??_C@_1BM@OGBIIDDA@?$AAp?$AAf?$AA?5?$AA?$CG?$AA?$CG?$AA?5?$AAp?$AA_?$AAe?$AAn?$AAd?$AAp?$AAt?$AA?$AA@ 00583068     pjmedia-i386-win32-vc8-debug:endpoint.obj
 0003:0000d090       ??_C@_1GM@FPBIKOEH@?$AAd?$AA?3?$AA?2?$AAm?$AAy?$AAg?$AAi?$AAt?$AA?2?$AAp?$AAj?$AAp?$AAr?$AAo?$AAj?$AAe?$AAc?$AAt?$AA?9?$AA1?$AA?4?$AA4?$AA?2?$AAp?$AAj?$AAm?$AAe?$AAd?$AAi?$AAa?$AA?2?$AAs@ 00583090     pjmedia-i386-win32-vc8-debug:endpoint.obj
 0003:0000d114       ??_C@_1DE@FPNJNJGM@?$AAi?$AAn?$AAd?$AAe?$AAx?$AA?5?$AA?$DM?$AA?5?$AAe?$AAn?$AAd?$AAp?$AAt?$AA?9?$AA?$DO?$AAt?$AAh?$AAr?$AAe?$AAa?$AAd?$AA_?$AAc?$AAn?$AAt?$AA?$AA@ 00583114     pjmedia-i386-win32-vc8-debug:endpoint.obj
 0003:0000d154       ??_C@_08NICIEFBJ@101?50?915?$AA@ 00583154     pjmedia-i386-win32-vc8-debug:endpoint.obj
 0003:0000d160       ??_C@_0BJ@OLBFBHHG@101?5telephone?9event?18000?$AA@ 00583160     pjmedia-i386-win32-vc8-debug:endpoint.obj
 0003:0000d180       ??_C@_03HEBKFNAF@101?$AA@  00583180     pjmedia-i386-win32-vc8-debug:endpoint.obj
 0003:0000d184       ??_C@_04EBNJJJJI@?$CF?4?$CKs?$AA@ 00583184     pjmedia-i386-win32-vc8-debug:endpoint.obj
 0003:0000d18c       ??_C@_09IKOEDHAN@?$CF?4?$CKs?$DN?$CF?4?$CKs?$AA@ 0058318c     pjmedia-i386-win32-vc8-debug:endpoint.obj
 0003:0000d198       ??_C@_01ICJEACDI@?$DL?$AA@ 00583198     pjmedia-i386-win32-vc8-debug:endpoint.obj
 0003:0000d19c       ??_C@_02DPKJAMEF@?$CFd?$AA@ 0058319c     pjmedia-i386-win32-vc8-debug:endpoint.obj
 0003:0000d1a0       ??_C@_1DK@OFJDILED@?$AAc?$AAo?$AAd?$AAe?$AAc?$AA_?$AAi?$AAn?$AAf?$AAo?$AA?9?$AA?$DO?$AAc?$AAh?$AAa?$AAn?$AAn?$AAe?$AAl?$AA_?$AAc?$AAn?$AAt?$AA?5?$AA?$DM?$AA?5?$AA1?$AA0?$AA?$AA@ 005831a0     pjmedia-i386-win32-vc8-debug:endpoint.obj
 0003:0000d1e8       ??_C@_1DE@IHJPNLLP@?$AA?$CB?$AA?$CC?$AAI?$AAn?$AAv?$AAa?$AAl?$AAi?$AAd?$AA?5?$AAa?$AAd?$AAd?$AAr?$AAe?$AAs?$AAs?$AA?5?$AAf?$AAa?$AAm?$AAi?$AAl?$AAy?$AA?$CC?$AA?$AA@ 005831e8     pjmedia-i386-win32-vc8-debug:endpoint.obj
 0003:0000d228       ??_C@_0BH@FKKILFGM@Invalid?5address?5family?$AA@ 00583228     pjmedia-i386-win32-vc8-debug:endpoint.obj
 0003:0000d248       ??_C@_1EC@FHIDABHP@?$AAe?$AAn?$AAd?$AAp?$AAt?$AA?9?$AA?$DO?$AAc?$AAo?$AAd?$AAe?$AAc?$AA_?$AAm?$AAg?$AAr?$AA?4?$AAc?$AAo?$AAd?$AAe?$AAc?$AA_?$AAc?$AAn?$AAt?$AA?5?$AA?$DM?$AA?$DN?$AA?5?$AA3?$AA2@ 00583248     pjmedia-i386-win32-vc8-debug:endpoint.obj
 0003:0000d298       ??_C@_1EK@OMFKIODI@?$AAe?$AAn?$AAd?$AAp?$AAt?$AA?5?$AA?$CG?$AA?$CG?$AA?5?$AAp?$AAo?$AAo?$AAl?$AA?5?$AA?$CG?$AA?$CG?$AA?5?$AAp?$AA_?$AAs?$AAd?$AAp?$AA?5?$AA?$CG?$AA?$CG?$AA?5?$AAs?$AAt?$AAr?$AAe?$AAa?$AAm@ 00583298     pjmedia-i386-win32-vc8-debug:endpoint.obj
 0003:0000d2f0       ??_C@_0EA@ILGHOPII@?5?5?5?$CFs?5codec?5?$CD?$CF2d?3?5pt?$DN?$CFd?5?$CI?$CF?4?$CKs?5?$EA?$CF@ 005832f0     pjmedia-i386-win32-vc8-debug:endpoint.obj
 0003:0000d33c       ??_C@_04POMMNHBC@?5vad?$AA@ 0058333c     pjmedia-i386-win32-vc8-debug:endpoint.obj
 0003:0000d344       ??_C@_04LJHKGEEB@?5cng?$AA@ 00583344     pjmedia-i386-win32-vc8-debug:endpoint.obj
 0003:0000d34c       ??_C@_04JMDOINFK@?5plc?$AA@ 0058334c     pjmedia-i386-win32-vc8-debug:endpoint.obj
 0003:0000d354       ??_C@_05FDNGLLBB@?5penh?$AA@ 00583354     pjmedia-i386-win32-vc8-debug:endpoint.obj
 0003:0000d35c       ??_C@_09FOKECCNG@?5disabled?$AA@ 0058335c     pjmedia-i386-win32-vc8-debug:endpoint.obj
 0003:0000d368       ??_C@_0N@DGOCBNGP@Unknown?5type?$AA@ 00583368     pjmedia-i386-win32-vc8-debug:endpoint.obj
 0003:0000d378       ??_C@_05BIPFLOHN@Video?$AA@ 00583378     pjmedia-i386-win32-vc8-debug:endpoint.obj
 0003:0000d380       ??_C@_05KKCMAPLJ@Audio?$AA@ 00583380     pjmedia-i386-win32-vc8-debug:endpoint.obj
 0003:0000d388       ??_C@_0CH@IFCBLLJF@?5?5Total?5number?5of?5installed?5code@ 00583388     pjmedia-i386-win32-vc8-debug:endpoint.obj
 0003:0000d3b8       ??_C@_0BP@LIKCCMEP@?5?9error?3?5failed?5to?5enum?5codecs?$AA@ 005833b8     pjmedia-i386-win32-vc8-debug:endpoint.obj
 0003:0000d3e0       ??_C@_0BO@DJCACKHJ@Dumping?5PJMEDIA?5capabilities?3?$AA@ 005833e0     pjmedia-i386-win32-vc8-debug:endpoint.obj
 0003:0000d404       ??_C@_08LMNIIOKA@?$CFd?4?$CF02dM?$AA@ 00583404     pjmedia-i386-win32-vc8-debug:endpoint.obj
 0003:0000d410       ??_C@_06NJDNEAKN@?$CFd?4?$CFdK?$AA@ 00583410     pjmedia-i386-win32-vc8-debug:endpoint.obj
 0003:0000d418       __real@41efffffffe00000    00583418     pjmedia-i386-win32-vc8-debug:rtcp.obj
 0003:0000d424       ??_C@_1DG@NOCGNPMP@?$AAt?$AAs?$AA?4?$AAu?$AA6?$AA4?$AA?5?$AA?$DM?$AA?5?$AAs?$AAe?$AAs?$AAs?$AA?9?$AA?$DO?$AAt?$AAs?$AA_?$AAf?$AAr?$AAe?$AAq?$AA?4?$AAu?$AA6?$AA4?$AA?$AA@ 00583424     pjmedia-i386-win32-vc8-debug:rtcp.obj
 0003:0000d468       ??_C@_1GE@NNFMLFJM@?$AAd?$AA?3?$AA?2?$AAm?$AAy?$AAg?$AAi?$AAt?$AA?2?$AAp?$AAj?$AAp?$AAr?$AAo?$AAj?$AAe?$AAc?$AAt?$AA?9?$AA1?$AA?4?$AA4?$AA?2?$AAp?$AAj?$AAm?$AAe?$AAd?$AAi?$AAa?$AA?2?$AAs@ 00583468     pjmedia-i386-win32-vc8-debug:rtcp.obj
 0003:0000d4e0       ??_C@_06EAHJFANL@rtcp?4c?$AA@ 005834e0     pjmedia-i386-win32-vc8-debug:rtcp.obj
 0003:0000d4e8       __real@3fe0000000000000    005834e8     pjmedia-i386-win32-vc8-debug:rtcp.obj
 0003:0000d4f8       ??_C@_0FE@KPGOGEPL@Internal?5RTCP?5NTP?5clock?5skew?5det@ 005834f8     pjmedia-i386-win32-vc8-debug:rtcp.obj
 0003:0000d55c       ??_C@_0CL@JHAJNKLA@RTT?5value?5?$CFd?5usec?5is?5normalized?5@ 0058355c     pjmedia-i386-win32-vc8-debug:rtcp.obj
 0003:0000d590       ??_C@_1DK@DOGBEEBL@?$AA?$CB?$AA?$CC?$AAW?$AAr?$AAo?$AAn?$AAg?$AA?5?$AAR?$AAT?$AAP?$AA?5?$AAh?$AAe?$AAa?$AAd?$AAe?$AAr?$AA?5?$AAp?$AAa?$AAc?$AAk?$AAi?$AAn?$AAg?$AA?$CB?$AA?$CC?$AA?$AA@ 00583590     pjmedia-i386-win32-vc8-debug:rtp.obj
 0003:0000d5d8       ??_C@_1GC@PEELLCPK@?$AAd?$AA?3?$AA?2?$AAm?$AAy?$AAg?$AAi?$AAt?$AA?2?$AAp?$AAj?$AAp?$AAr?$AAo?$AAj?$AAe?$AAc?$AAt?$AA?9?$AA1?$AA?4?$AA4?$AA?2?$AAp?$AAj?$AAm?$AAe?$AAd?$AAi?$AAa?$AA?2?$AAs@ 005835d8     pjmedia-i386-win32-vc8-debug:rtp.obj
 0003:0000d650       ??_C@_0BK@FBDELJKD@Wrong?5RTP?5header?5packing?$CB?$AA@ 00583650     pjmedia-i386-win32-vc8-debug:rtp.obj
 0003:0000d670       ??_C@_05BDLJEHIL@rtp?4c?$AA@ 00583670     pjmedia-i386-win32-vc8-debug:rtp.obj
 0003:0000d678       ??_C@_0DL@OIPEDDCB@pjmedia_rtp_session_init?3?5ses?$DN?$CFp@ 00583678     pjmedia-i386-win32-vc8-debug:rtp.obj
 0003:0000d6c0       ??_C@_1DG@COMPPDKO@?$AAc?$AAh?$AAe?$AAc?$AAk?$AA_?$AAp?$AAt?$AA?$DN?$AA?$DN?$AA1?$AA?5?$AA?$HM?$AA?$HM?$AA?5?$AAc?$AAh?$AAe?$AAc?$AAk?$AA_?$AAp?$AAt?$AA?$DN?$AA?$DN?$AA0?$AA?$AA@ 005836c0     pjmedia-i386-win32-vc8-debug:rtp.obj
 0003:0000d700       ??_C@_0BA@LLGGBELL@telephone?9event?$AA@ 00583700     pjmedia-i386-win32-vc8-debug:session.obj
 0003:0000d79c       ??_C@_08GOMHIHBN@maxptime?$AA@ 0058379c     pjmedia-i386-win32-vc8-debug:session.obj
 0003:0000d7a8       ??_C@_1EC@JLEIPHEN@?$AAs?$AAt?$AAr?$AAe?$AAa?$AAm?$AA_?$AAi?$AAd?$AAx?$AA?5?$AA?$DM?$AA?5?$AAr?$AAe?$AAm?$AAo?$AAt?$AAe?$AA?9?$AA?$DO?$AAm?$AAe?$AAd?$AAi?$AAa?$AA_?$AAc?$AAo?$AAu?$AAn?$AAt@ 005837a8     pjmedia-i386-win32-vc8-debug:session.obj
 0003:0000d7f8       ??_C@_1EA@MMNABCAE@?$AAs?$AAt?$AAr?$AAe?$AAa?$AAm?$AA_?$AAi?$AAd?$AAx?$AA?5?$AA?$DM?$AA?5?$AAl?$AAo?$AAc?$AAa?$AAl?$AA?9?$AA?$DO?$AAm?$AAe?$AAd?$AAi?$AAa?$AA_?$AAc?$AAo?$AAu?$AAn?$AAt?$AA?$AA@ 005837f8     pjmedia-i386-win32-vc8-debug:session.obj
 0003:0000d844       ??_C@_1DM@PABICPNM@?$AAp?$AAo?$AAo?$AAl?$AA?5?$AA?$CG?$AA?$CG?$AA?5?$AAs?$AAi?$AA?5?$AA?$CG?$AA?$CG?$AA?5?$AAl?$AAo?$AAc?$AAa?$AAl?$AA?5?$AA?$CG?$AA?$CG?$AA?5?$AAr?$AAe?$AAm?$AAo?$AAt?$AAe?$AA?$AA@ 00583844     pjmedia-i386-win32-vc8-debug:session.obj
 0003:0000d890       ??_C@_1GK@HEKLNAM@?$AAd?$AA?3?$AA?2?$AAm?$AAy?$AAg?$AAi?$AAt?$AA?2?$AAp?$AAj?$AAp?$AAr?$AAo?$AAj?$AAe?$AAc?$AAt?$AA?9?$AA1?$AA?4?$AA4?$AA?2?$AAp?$AAj?$AAm?$AAe?$AAd?$AAi?$AAa?$AA?2?$AAs@ 00583890     pjmedia-i386-win32-vc8-debug:session.obj
 0003:0000d910       ??_C@_1BE@DBJLPOOL@?$AAm?$AA?5?$AA?$CG?$AA?$CG?$AA?5?$AAf?$AAm?$AAt?$AAp?$AA?$AA@ 00583910     pjmedia-i386-win32-vc8-debug:session.obj
 0003:0000d928       ??_C@_1EO@JHNADGJE@?$AAp?$AAo?$AAo?$AAl?$AA?5?$AA?$CG?$AA?$CG?$AA?5?$AAe?$AAn?$AAd?$AAp?$AAt?$AA?5?$AA?$CG?$AA?$CG?$AA?5?$AAs?$AAi?$AA?5?$AA?$CG?$AA?$CG?$AA?5?$AAl?$AAo?$AAc?$AAa?$AAl?$AA?5?$AA?$CG?$AA?$CG?$AA?5@ 00583928     pjmedia-i386-win32-vc8-debug:session.obj
 0003:0000d988       ??_C@_1CI@KPEGEECM@?$AAp?$AAo?$AAo?$AAl?$AA?5?$AA?$CB?$AA?$DN?$AA?5?$AA?$CI?$AA?$CI?$AAv?$AAo?$AAi?$AAd?$AA?5?$AA?$CK?$AA?$CJ?$AA0?$AA?$CJ?$AA?$AA@ 00583988     pjmedia-i386-win32-vc8-debug:session.obj
 0003:0000d9b8       ??_C@_07KMJDECGK@session?$AA@ 005839b8     pjmedia-i386-win32-vc8-debug:session.obj
 0003:0000d9c4       ??_C@_1DC@MANGGEOA@?$AAe?$AAn?$AAd?$AAp?$AAt?$AA?5?$AA?$CG?$AA?$CG?$AA?5?$AAs?$AAi?$AA?5?$AA?$CG?$AA?$CG?$AA?5?$AAp?$AA_?$AAs?$AAe?$AAs?$AAs?$AAi?$AAo?$AAn?$AA?$AA@ 005839c4     pjmedia-i386-win32-vc8-debug:session.obj
 0003:0000da00       ??_C@_1CA@FKEEIDGE@?$AAs?$AAe?$AAs?$AAs?$AAi?$AAo?$AAn?$AA?5?$AA?$CG?$AA?$CG?$AA?5?$AAi?$AAn?$AAf?$AAo?$AA?$AA@ 00583a00     pjmedia-i386-win32-vc8-debug:session.obj
 0003:0000da28       ??_C@_1BA@EOMBLJLF@?$AAs?$AAe?$AAs?$AAs?$AAi?$AAo?$AAn?$AA?$AA@ 00583a28     pjmedia-i386-win32-vc8-debug:session.obj
 0003:0000da40       ??_C@_1EO@HDMKPEMG@?$AAs?$AAe?$AAs?$AAs?$AAi?$AAo?$AAn?$AA?5?$AA?$CG?$AA?$CG?$AA?5?$AAi?$AAn?$AAd?$AAe?$AAx?$AA?5?$AA?$DM?$AA?5?$AAs?$AAe?$AAs?$AAs?$AAi?$AAo?$AAn?$AA?9?$AA?$DO?$AAs?$AAt?$AAr?$AAe@ 00583a40     pjmedia-i386-win32-vc8-debug:session.obj
 0003:0000daa0       ??_C@_1EG@IIBMOI@?$AAs?$AAe?$AAs?$AAs?$AAi?$AAo?$AAn?$AA?5?$AA?$CG?$AA?$CG?$AA?5?$AAc?$AAo?$AAu?$AAn?$AAt?$AA?5?$AA?$CG?$AA?$CG?$AA?5?$AA?$CK?$AAc?$AAo?$AAu?$AAn?$AAt?$AA?5?$AA?$CG?$AA?$CG?$AA?5?$AAi?$AAn@ 00583aa0     pjmedia-i386-win32-vc8-debug:session.obj
 0003:0000daf8       ??_C@_1FO@JJEMMLGA@?$AAs?$AAe?$AAs?$AAs?$AAi?$AAo?$AAn?$AA?5?$AA?$CG?$AA?$CG?$AA?5?$AAs?$AAt?$AAa?$AAt?$AA?5?$AA?$CG?$AA?$CG?$AA?5?$AAi?$AAn?$AAd?$AAe?$AAx?$AA?5?$AA?$DM?$AA?5?$AAs?$AAe?$AAs?$AAs?$AAi@ 00583af8     pjmedia-i386-win32-vc8-debug:session.obj
 0003:0000db68       ??_C@_1GA@LOGNELDK@?$AAs?$AAe?$AAs?$AAs?$AAi?$AAo?$AAn?$AA?5?$AA?$CG?$AA?$CG?$AA?5?$AAs?$AAt?$AAa?$AAt?$AAe?$AA?5?$AA?$CG?$AA?$CG?$AA?5?$AAi?$AAn?$AAd?$AAe?$AAx?$AA?5?$AA?$DM?$AA?5?$AAs?$AAe?$AAs?$AAs@ 00583b68     pjmedia-i386-win32-vc8-debug:session.obj
 0003:0000dbdc       ??_C@_1DA@GKNLEAFJ@?$AAs?$AAe?$AAs?$AAs?$AAi?$AAo?$AAn?$AA?5?$AA?$CG?$AA?$CG?$AA?5?$AAa?$AAs?$AAc?$AAi?$AAi?$AA_?$AAd?$AAi?$AAg?$AAi?$AAt?$AAs?$AA?$AA@ 00583bdc     pjmedia-i386-win32-vc8-debug:session.obj
 0003:0000dc18       ??_C@_1EA@EANBPAIP@?$AAs?$AAe?$AAs?$AAs?$AAi?$AAo?$AAn?$AA?5?$AA?$CG?$AA?$CG?$AA?5?$AAa?$AAs?$AAc?$AAi?$AAi?$AA_?$AAd?$AAi?$AAg?$AAi?$AAt?$AAs?$AA?5?$AA?$CG?$AA?$CG?$AA?5?$AAs?$AAi?$AAz?$AAe?$AA?$AA@ 00583c18     pjmedia-i386-win32-vc8-debug:session.obj
 0003:0000dc64       ??_C@_0L@KPLLHEOI@STATE_DONE?$AA@ 00583c64     pjmedia-i386-win32-vc8-debug:sdp_neg.obj
 0003:0000dc74       ??_C@_0BA@GHLPEJJC@STATE_WAIT_NEGO?$AA@ 00583c74     pjmedia-i386-win32-vc8-debug:sdp_neg.obj
 0003:0000dc88       ??_C@_0BD@EIDNGBFC@STATE_REMOTE_OFFER?$AA@ 00583c88     pjmedia-i386-win32-vc8-debug:sdp_neg.obj
 0003:0000dca0       ??_C@_0BC@LOEMBHAD@STATE_LOCAL_OFFER?$AA@ 00583ca0     pjmedia-i386-win32-vc8-debug:sdp_neg.obj
 0003:0000dcb8       ??_C@_0L@IOJLEJF@STATE_NULL?$AA@ 00583cb8     pjmedia-i386-win32-vc8-debug:sdp_neg.obj
 0003:0000dcc8       ??_C@_0M@GGDBIFHF@?$DM?$DPUNKNOWN?$DP?$DO?$AA@ 00583cc8     pjmedia-i386-win32-vc8-debug:sdp_neg.obj
 0003:0000dcd8       ??_C@_1CG@ODCIHMBL@?$AAn?$AAe?$AAg?$AA?5?$AA?$CB?$AA?$DN?$AA?5?$AA?$CI?$AA?$CI?$AAv?$AAo?$AAi?$AAd?$AA?5?$AA?$CK?$AA?$CJ?$AA0?$AA?$CJ?$AA?$AA@ 00583cd8     pjmedia-i386-win32-vc8-debug:sdp_neg.obj
 0003:0000dd08       ??_C@_1FA@DBMJALKD@?$AA?$CI?$AAs?$AAt?$AAa?$AAt?$AAu?$AAs?$AA?$DN?$AAp?$AAj?$AAm?$AAe?$AAd?$AAi?$AAa?$AA_?$AAs?$AAd?$AAp?$AA_?$AAv?$AAa?$AAl?$AAi?$AAd?$AAa?$AAt?$AAe?$AA?$CI?$AAl?$AAo?$AAc@ 00583d08     pjmedia-i386-win32-vc8-debug:sdp_neg.obj
 0003:0000dd68       ??_C@_1CO@BIHDCGML@?$AAp?$AAo?$AAo?$AAl?$AA?5?$AA?$CG?$AA?$CG?$AA?5?$AAl?$AAo?$AAc?$AAa?$AAl?$AA?5?$AA?$CG?$AA?$CG?$AA?5?$AAp?$AA_?$AAn?$AAe?$AAg?$AA?$AA@ 00583d68     pjmedia-i386-win32-vc8-debug:sdp_neg.obj
 0003:0000dda0       ??_C@_1GK@FKLEDEIH@?$AAd?$AA?3?$AA?2?$AAm?$AAy?$AAg?$AAi?$AAt?$AA?2?$AAp?$AAj?$AAp?$AAr?$AAo?$AAj?$AAe?$AAc?$AAt?$AA?9?$AA1?$AA?4?$AA4?$AA?2?$AAp?$AAj?$AAm?$AAe?$AAd?$AAi?$AAa?$AA?2?$AAs@ 00583da0     pjmedia-i386-win32-vc8-debug:sdp_neg.obj
 0003:0000de20       ??_C@_1FE@IGICGLDP@?$AA?$CI?$AAs?$AAt?$AAa?$AAt?$AAu?$AAs?$AA?$DN?$AAp?$AAj?$AAm?$AAe?$AAd?$AAi?$AAa?$AA_?$AAs?$AAd?$AAp?$AA_?$AAv?$AAa?$AAl?$AAi?$AAd?$AAa?$AAt?$AAe?$AA?$CI?$AAi?$AAn?$AAi@ 00583e20     pjmedia-i386-win32-vc8-debug:sdp_neg.obj
 0003:0000de84       ??_C@_1DA@OIINGHHD@?$AAp?$AAo?$AAo?$AAl?$AA?5?$AA?$CG?$AA?$CG?$AA?5?$AAr?$AAe?$AAm?$AAo?$AAt?$AAe?$AA?5?$AA?$CG?$AA?$CG?$AA?5?$AAp?$AA_?$AAn?$AAe?$AAg?$AA?$AA@ 00583e84     pjmedia-i386-win32-vc8-debug:sdp_neg.obj
 0003:0000dec0       ??_C@_17KBHEMDEM@?$AAn?$AAe?$AAg?$AA?$AA@ 00583ec0     pjmedia-i386-win32-vc8-debug:sdp_neg.obj
 0003:0000decc       ??_C@_1CM@IILFABKL@?$AAn?$AAe?$AAg?$AA?9?$AA?$DO?$AAa?$AAc?$AAt?$AAi?$AAv?$AAe?$AA_?$AAl?$AAo?$AAc?$AAa?$AAl?$AA_?$AAs?$AAd?$AAp?$AA?$AA@ 00583ecc     pjmedia-i386-win32-vc8-debug:sdp_neg.obj
 0003:0000df00       ??_C@_1BK@EHEOGFDG@?$AAn?$AAe?$AAg?$AA?5?$AA?$CG?$AA?$CG?$AA?5?$AAl?$AAo?$AAc?$AAa?$AAl?$AA?$AA@ 00583f00     pjmedia-i386-win32-vc8-debug:sdp_neg.obj
 0003:0000df20       ??_C@_1CO@ENJJGIJO@?$AAn?$AAe?$AAg?$AA?9?$AA?$DO?$AAa?$AAc?$AAt?$AAi?$AAv?$AAe?$AA_?$AAr?$AAe?$AAm?$AAo?$AAt?$AAe?$AA_?$AAs?$AAd?$AAp?$AA?$AA@ 00583f20     pjmedia-i386-win32-vc8-debug:sdp_neg.obj
 0003:0000df58       ??_C@_1BM@BLOEGHCH@?$AAn?$AAe?$AAg?$AA?5?$AA?$CG?$AA?$CG?$AA?5?$AAr?$AAe?$AAm?$AAo?$AAt?$AAe?$AA?$AA@ 00583f58     pjmedia-i386-win32-vc8-debug:sdp_neg.obj
 0003:0000df7c       ??_C@_1CI@MEEGDBKJ@?$AAn?$AAe?$AAg?$AA?9?$AA?$DO?$AAn?$AAe?$AAg?$AA_?$AAr?$AAe?$AAm?$AAo?$AAt?$AAe?$AA_?$AAs?$AAd?$AAp?$AA?$AA@ 00583f7c     pjmedia-i386-win32-vc8-debug:sdp_neg.obj
 0003:0000dfac       ??_C@_1CG@EMHJKAGA@?$AAn?$AAe?$AAg?$AA?9?$AA?$DO?$AAn?$AAe?$AAg?$AA_?$AAl?$AAo?$AAc?$AAa?$AAl?$AA_?$AAs?$AAd?$AAp?$AA?$AA@ 00583fac     pjmedia-i386-win32-vc8-debug:sdp_neg.obj
 0003:0000dfe0       ??_C@_1FC@GKFIFDHE@?$AAn?$AAe?$AAg?$AA?9?$AA?$DO?$AAs?$AAt?$AAa?$AAt?$AAe?$AA?5?$AA?$DN?$AA?$DN?$AA?5?$AAP?$AAJ?$AAM?$AAE?$AAD?$AAI?$AAA?$AA_?$AAS?$AAD?$AAP?$AA_?$AAN?$AAE?$AAG?$AA_?$AAS?$AAT@ 00583fe0     pjmedia-i386-win32-vc8-debug:sdp_neg.obj
 0003:0000e044       ??_C@_1CK@MOEHLEB@?$AAp?$AAo?$AAo?$AAl?$AA?5?$AA?$CG?$AA?$CG?$AA?5?$AAn?$AAe?$AAg?$AA?5?$AA?$CG?$AA?$CG?$AA?5?$AAl?$AAo?$AAc?$AAa?$AAl?$AA?$AA@ 00584044     pjmedia-i386-win32-vc8-debug:sdp_neg.obj
 0003:0000e078       ??_C@_1LI@MPFBNOJN@?$AAn?$AAe?$AAg?$AA?9?$AA?$DO?$AAs?$AAt?$AAa?$AAt?$AAe?$AA?5?$AA?$DN?$AA?$DN?$AA?5?$AAP?$AAJ?$AAM?$AAE?$AAD?$AAI?$AAA?$AA_?$AAS?$AAD?$AAP?$AA_?$AAN?$AAE?$AAG?$AA_?$AAS?$AAT@ 00584078     pjmedia-i386-win32-vc8-debug:sdp_neg.obj
 0003:0000e154       ??_C@_1BK@KPHCPANC@?$AAn?$AAe?$AAg?$AA?5?$AA?$CG?$AA?$CG?$AA?5?$AAo?$AAf?$AAf?$AAe?$AAr?$AA?$AA@ 00584154     pjmedia-i386-win32-vc8-debug:sdp_neg.obj
 0003:0000e178       ??_C@_1GA@FIIIPKBJ@?$AAn?$AAe?$AAg?$AA?9?$AA?$DO?$AAs?$AAt?$AAa?$AAt?$AAe?$AA?5?$AA?$DN?$AA?$DN?$AA?5?$AAP?$AAJ?$AAM?$AAE?$AAD?$AAI?$AAA?$AA_?$AAS?$AAD?$AAP?$AA_?$AAN?$AAE?$AAG?$AA_?$AAS?$AAT@ 00584178     pjmedia-i386-win32-vc8-debug:sdp_neg.obj
 0003:0000e1ec       ??_C@_1CM@IBJFPONP@?$AAp?$AAo?$AAo?$AAl?$AA?5?$AA?$CG?$AA?$CG?$AA?5?$AAn?$AAe?$AAg?$AA?5?$AA?$CG?$AA?$CG?$AA?5?$AAr?$AAe?$AAm?$AAo?$AAt?$AAe?$AA?$AA@ 005841ec     pjmedia-i386-win32-vc8-debug:sdp_neg.obj
 0003:0000e220       ??_C@_1CC@OKPJAMKA@?$AAn?$AAe?$AAg?$AA?9?$AA?$DO?$AAi?$AAn?$AAi?$AAt?$AAi?$AAa?$AAl?$AA_?$AAs?$AAd?$AAp?$AA?$AA@ 00584220     pjmedia-i386-win32-vc8-debug:sdp_neg.obj
 0003:0000e248       ??_C@_1GC@POJEAEAD@?$AAn?$AAe?$AAg?$AA?9?$AA?$DO?$AAs?$AAt?$AAa?$AAt?$AAe?$AA?5?$AA?$DN?$AA?$DN?$AA?5?$AAP?$AAJ?$AAM?$AAE?$AAD?$AAI?$AAA?$AA_?$AAS?$AAD?$AAP?$AA_?$AAN?$AAE?$AAG?$AA_?$AAS?$AAT@ 00584248     pjmedia-i386-win32-vc8-debug:sdp_neg.obj
 0003:0000e2c0       ??_C@_1GG@LIOHPLMA@?$AAn?$AAe?$AAg?$AA?5?$AA?$CG?$AA?$CG?$AA?5?$AAn?$AAe?$AAg?$AA?9?$AA?$DO?$AAs?$AAt?$AAa?$AAt?$AAe?$AA?$DN?$AA?$DN?$AAP?$AAJ?$AAM?$AAE?$AAD?$AAI?$AAA?$AA_?$AAS?$AAD?$AAP?$AA_?$AAN@ 005842c0     pjmedia-i386-win32-vc8-debug:sdp_neg.obj
 0003:0000e340       ??_C@_1MI@BDKAAFME@?$AAn?$AAe?$AAg?$AA?9?$AA?$DO?$AAs?$AAt?$AAa?$AAt?$AAe?$AA?5?$AA?$DN?$AA?$DN?$AA?5?$AAP?$AAJ?$AAM?$AAE?$AAD?$AAI?$AAA?$AA_?$AAS?$AAD?$AAP?$AA_?$AAN?$AAE?$AAG?$AA_?$AAS?$AAT@ 00584340     pjmedia-i386-win32-vc8-debug:sdp_neg.obj
 0003:0000e430       ??_C@_1FM@DDLFDONI@?$AAn?$AAe?$AAg?$AA?9?$AA?$DO?$AAs?$AAt?$AAa?$AAt?$AAe?$AA?5?$AA?$DN?$AA?$DN?$AA?5?$AAP?$AAJ?$AAM?$AAE?$AAD?$AAI?$AAA?$AA_?$AAS?$AAD?$AAP?$AA_?$AAN?$AAE?$AAG?$AA_?$AAS?$AAT@ 00584430     pjmedia-i386-win32-vc8-debug:sdp_neg.obj
 0003:0000e4a0       ??_C@_1BI@GMNMAAAO@?$AAp?$AAo?$AAo?$AAl?$AA?5?$AA?$CG?$AA?$CG?$AA?5?$AAn?$AAe?$AAg?$AA?$AA@ 005844a0     pjmedia-i386-win32-vc8-debug:sdp_neg.obj
 0003:0000e4c0       ??_C@_1EI@KGILKNJJ@?$AAp?$AAo?$AAo?$AAl?$AA?5?$AA?$CG?$AA?$CG?$AA?5?$AAo?$AAf?$AAf?$AAe?$AAr?$AA?5?$AA?$CG?$AA?$CG?$AA?5?$AAa?$AAn?$AAs?$AAw?$AAe?$AAr?$AA?5?$AA?$CG?$AA?$CG?$AA?5?$AAp?$AA_?$AAa?$AAc?$AAt@ 005844c0     pjmedia-i386-win32-vc8-debug:sdp_neg.obj
 0003:0000e518       ??_C@_06IIBOLJAE@AMR?9WB?$AA@ 00584518     pjmedia-i386-win32-vc8-debug:sdp_neg.obj
 0003:0000e520       ??_C@_03NNMDOPO@AMR?$AA@   00584520     pjmedia-i386-win32-vc8-debug:sdp_neg.obj
 0003:0000e524       ??_C@_05PEPBAGHI@G7221?$AA@ 00584524     pjmedia-i386-win32-vc8-debug:sdp_neg.obj
 0003:0000e530       ??_C@_1FC@PEPJHFED@?$AA?$CB?$AA?$CC?$AAB?$AAu?$AAg?$AA?$CB?$AA?5?$AAO?$AAf?$AAf?$AAe?$AAr?$AA?5?$AAs?$AAh?$AAo?$AAu?$AAl?$AAd?$AA?5?$AAh?$AAa?$AAv?$AAe?$AA?5?$AAb?$AAe?$AAe?$AAn?$AA?5?$AAv?$AAa@ 00584530     pjmedia-i386-win32-vc8-debug:sdp_neg.obj
 0003:0000e594       ??_C@_0CG@CJAMDJJ@Bug?$CB?5Offer?5should?5have?5been?5vali@ 00584594     pjmedia-i386-win32-vc8-debug:sdp_neg.obj
 0003:0000e5c4       ??_C@_08JOPBIJFC@bitrate?$DN?$AA@ 005845c4     pjmedia-i386-win32-vc8-debug:sdp_neg.obj
 0003:0000e5d0       ??_C@_1DK@OOELODOG@?$AAp?$AAt?$AA_?$AAn?$AAe?$AAe?$AAd?$AA_?$AAa?$AAd?$AAa?$AAp?$AAt?$AA?5?$AA?$CB?$AA?$DN?$AA?5?$AA?$CI?$AA?$CI?$AAv?$AAo?$AAi?$AAd?$AA?5?$AA?$CK?$AA?$CJ?$AA0?$AA?$CJ?$AA?$AA@ 005845d0     pjmedia-i386-win32-vc8-debug:sdp_neg.obj
 0003:0000e618       ??_C@_0O@LGOEIABO@interleaving?$DN?$AA@ 00584618     pjmedia-i386-win32-vc8-debug:sdp_neg.obj
 0003:0000e628       ??_C@_0BA@HDNKBJGN@robust?9sorting?$DN?$AA@ 00584628     pjmedia-i386-win32-vc8-debug:sdp_neg.obj
 0003:0000e63c       ??_C@_04GAAFAKP@crc?$DN?$AA@ 0058463c     pjmedia-i386-win32-vc8-debug:sdp_neg.obj
 0003:0000e644       ??_C@_0N@HIEIPPJH@octet?9align?$DN?$AA@ 00584644     pjmedia-i386-win32-vc8-debug:sdp_neg.obj
 0003:0000e654       ??_C@_1CE@LIKNPNMD@?$AAa?$AAm?$AA?5?$AA?$CB?$AA?$DN?$AA?5?$AA?$CI?$AA?$CI?$AAv?$AAo?$AAi?$AAd?$AA?5?$AA?$CK?$AA?$CJ?$AA0?$AA?$CJ?$AA?$AA@ 00584654     pjmedia-i386-win32-vc8-debug:sdp_neg.obj
 0003:0000e680       ??_C@_1CM@JLIIIFIP@?$AAa?$AAn?$AAs?$AAw?$AAe?$AAr?$AA?5?$AA?$CB?$AA?$DN?$AA?5?$AA?$CI?$AA?$CI?$AAv?$AAo?$AAi?$AAd?$AA?5?$AA?$CK?$AA?$CJ?$AA0?$AA?$CJ?$AA?$AA@ 00584680     pjmedia-i386-win32-vc8-debug:sdp_neg.obj
 0003:0000e6b8       ??_C@_1FA@GNOPAPJL@?$AA?$CI?$AAs?$AAt?$AAa?$AAt?$AAu?$AAs?$AA?$DN?$AAp?$AAj?$AAm?$AAe?$AAd?$AAi?$AAa?$AA_?$AAs?$AAd?$AAp?$AA_?$AAv?$AAa?$AAl?$AAi?$AAd?$AAa?$AAt?$AAe?$AA?$CI?$AAo?$AAf?$AAf@ 005846b8     pjmedia-i386-win32-vc8-debug:sdp_neg.obj
 0003:0000e718       ??_C@_1DI@DPPKCGOE@?$AAj?$AA?5?$AA?$CB?$AA?$DN?$AA?5?$AAa?$AAn?$AAs?$AAw?$AAe?$AAr?$AA?9?$AA?$DO?$AAd?$AAe?$AAs?$AAc?$AA?4?$AAf?$AAm?$AAt?$AA_?$AAc?$AAo?$AAu?$AAn?$AAt?$AA?$AA@ 00584718     pjmedia-i386-win32-vc8-debug:sdp_neg.obj
 0003:0000e75c       ??_C@_0BD@JNHMHMMD@?$CF?4?$CKs?5octet?9align?$DN1?$AA@ 0058475c     pjmedia-i386-win32-vc8-debug:sdp_neg.obj
 0003:0000e774       ??_C@_0BD@HOKEFHC@?$CF?4?$CKs?$DLoctet?9align?$DN1?$AA@ 00584774     pjmedia-i386-win32-vc8-debug:sdp_neg.obj
 0003:0000e78c       ??_C@_09GLMNEMC@codec?9mgr?$AA@ 0058478c     pjmedia-i386-win32-vc8-debug:codec.obj
 0003:0000e798       ??_C@_1BE@KDGOHEJD@?$AAm?$AAg?$AAr?$AA?5?$AA?$CG?$AA?$CG?$AA?5?$AAp?$AAf?$AA?$AA@ 00584798     pjmedia-i386-win32-vc8-debug:codec.obj
 0003:0000e7b0       ??_C@_1GG@JKOIMCIH@?$AAd?$AA?3?$AA?2?$AAm?$AAy?$AAg?$AAi?$AAt?$AA?2?$AAp?$AAj?$AAp?$AAr?$AAo?$AAj?$AAe?$AAc?$AAt?$AA?9?$AA1?$AA?4?$AA4?$AA?2?$AAp?$AAj?$AAm?$AAe?$AAd?$AAi?$AAa?$AA?2?$AAs@ 005847b0     pjmedia-i386-win32-vc8-debug:codec.obj
 0003:0000e82c       ??_C@_1DO@EEIIFHKJ@?$AAm?$AAg?$AAr?$AA?9?$AA?$DO?$AAc?$AAo?$AAd?$AAe?$AAc?$AA_?$AAd?$AAe?$AAs?$AAc?$AA?$FL?$AAi?$AA?$FN?$AA?4?$AAp?$AAa?$AAr?$AAa?$AAm?$AA?9?$AA?$DO?$AAp?$AAo?$AAo?$AAl?$AA?$AA@ 0058482c     pjmedia-i386-win32-vc8-debug:codec.obj
 0003:0000e878       ??_C@_1BO@BNPCENCC@?$AAm?$AAg?$AAr?$AA?5?$AA?$CG?$AA?$CG?$AA?5?$AAf?$AAa?$AAc?$AAt?$AAo?$AAr?$AAy?$AA?$AA@ 00584878     pjmedia-i386-win32-vc8-debug:codec.obj
 0003:0000e89c       ??_C@_1CO@FACHMPOK@?$AAm?$AAg?$AAr?$AA?5?$AA?$CG?$AA?$CG?$AA?5?$AAc?$AAo?$AAu?$AAn?$AAt?$AA?5?$AA?$CG?$AA?$CG?$AA?5?$AAc?$AAo?$AAd?$AAe?$AAc?$AAs?$AA?$AA@ 0058489c     pjmedia-i386-win32-vc8-debug:codec.obj
 0003:0000e8d8       ??_C@_1EE@JECMOLIN@?$AAm?$AAg?$AAr?$AA?5?$AA?$CG?$AA?$CG?$AA?5?$AAp?$AA_?$AAi?$AAn?$AAf?$AAo?$AA?5?$AA?$CG?$AA?$CG?$AA?5?$AAp?$AAt?$AA?$DO?$AA?$DN?$AA0?$AA?5?$AA?$CG?$AA?$CG?$AA?5?$AAp?$AAt?$AA?5?$AA?$DM?$AA?5?$AA9@ 005848d8     pjmedia-i386-win32-vc8-debug:codec.obj
 0003:0000e92c       ??_C@_0L@MMBOMEDE@?$CF?4?$CKs?1?$CFu?1?$CFu?$AA@ 0058492c     pjmedia-i386-win32-vc8-debug:codec.obj
 0003:0000e93c       ??_C@_1CM@NHECEOC@?$AAi?$AAn?$AAf?$AAo?$AA?5?$AA?$CG?$AA?$CG?$AA?5?$AAi?$AAd?$AA?5?$AA?$CG?$AA?$CG?$AA?5?$AAm?$AAa?$AAx?$AA_?$AAl?$AAe?$AAn?$AA?$AA@ 0058493c     pjmedia-i386-win32-vc8-debug:codec.obj
 0003:0000e970       ??_C@_1EG@PNDDPIBP@?$AAm?$AAg?$AAr?$AA?5?$AA?$CG?$AA?$CG?$AA?5?$AAc?$AAo?$AAd?$AAe?$AAc?$AA_?$AAi?$AAd?$AA?5?$AA?$CG?$AA?$CG?$AA?5?$AAc?$AAo?$AAu?$AAn?$AAt?$AA?5?$AA?$CG?$AA?$CG?$AA?5?$AA?$CK?$AAc?$AAo?$AAu@ 00584970     pjmedia-i386-win32-vc8-debug:codec.obj
 0003:0000e9c4       ??_C@_1CA@FGAKAPCG@?$AAm?$AAg?$AAr?$AA?5?$AA?$CG?$AA?$CG?$AA?5?$AAc?$AAo?$AAd?$AAe?$AAc?$AA_?$AAi?$AAd?$AA?$AA@ 005849c4     pjmedia-i386-win32-vc8-debug:codec.obj
 0003:0000e9ec       ??_C@_1CO@PLEMIHIG@?$AAm?$AAg?$AAr?$AA?5?$AA?$CG?$AA?$CG?$AA?5?$AAi?$AAn?$AAf?$AAo?$AA?5?$AA?$CG?$AA?$CG?$AA?5?$AAp?$AA_?$AAc?$AAo?$AAd?$AAe?$AAc?$AA?$AA@ 005849ec     pjmedia-i386-win32-vc8-debug:codec.obj
 0003:0000ea24       ??_C@_1DC@MPIDFLIE@?$AAc?$AAo?$AAd?$AAe?$AAc?$AA_?$AAd?$AAe?$AAs?$AAc?$AA?9?$AA?$DO?$AAp?$AAa?$AAr?$AAa?$AAm?$AA?9?$AA?$DO?$AAp?$AAa?$AAr?$AAa?$AAm?$AA?$AA@ 00584a24     pjmedia-i386-win32-vc8-debug:codec.obj
 0003:0000ea60       ??_C@_1CK@EGILOIOM@?$AAm?$AAg?$AAr?$AA?5?$AA?$CG?$AA?$CG?$AA?5?$AAi?$AAn?$AAf?$AAo?$AA?5?$AA?$CG?$AA?$CG?$AA?5?$AAp?$AAa?$AAr?$AAa?$AAm?$AA?$AA@ 00584a60     pjmedia-i386-win32-vc8-debug:codec.obj
 0003:0000ea94       ??_C@_1DA@EFFFDKKD@?$AAc?$AAo?$AAd?$AAe?$AAc?$AA_?$AAd?$AAe?$AAs?$AAc?$AA?9?$AA?$DO?$AAp?$AAa?$AAr?$AAa?$AAm?$AA?9?$AA?$DO?$AAp?$AAo?$AAo?$AAl?$AA?$AA@ 00584a94     pjmedia-i386-win32-vc8-debug:codec.obj
 0003:0000ead0       ??_C@_1BI@PNBKIADI@?$AAm?$AAg?$AAr?$AA?5?$AA?$CG?$AA?$CG?$AA?5?$AAi?$AAn?$AAf?$AAo?$AA?$AA@ 00584ad0     pjmedia-i386-win32-vc8-debug:codec.obj
 0003:0000eaec       ??_C@_1BK@DFPPDNGI@?$AAm?$AAg?$AAr?$AA?5?$AA?$CG?$AA?$CG?$AA?5?$AAc?$AAo?$AAd?$AAe?$AAc?$AA?$AA@ 00584aec     pjmedia-i386-win32-vc8-debug:codec.obj
 0003:0000eb0c       ??_C@_04CCFCAPFE@sd?$CFp?$AA@ 00584b0c     pjmedia-i386-win32-vc8-debug:silencedet.obj
 0003:0000eb14       ??_C@_1BK@JPOKJPGF@?$AAp?$AAo?$AAo?$AAl?$AA?5?$AA?$CG?$AA?$CG?$AA?5?$AAp?$AA_?$AAs?$AAd?$AA?$AA@ 00584b14     pjmedia-i386-win32-vc8-debug:silencedet.obj
 0003:0000eb38       ??_C@_1HA@CGKBAKEE@?$AAd?$AA?3?$AA?2?$AAm?$AAy?$AAg?$AAi?$AAt?$AA?2?$AAp?$AAj?$AAp?$AAr?$AAo?$AAj?$AAe?$AAc?$AAt?$AA?9?$AA1?$AA?4?$AA4?$AA?2?$AAp?$AAj?$AAm?$AAe?$AAd?$AAi?$AAa?$AA?2?$AAs@ 00584b38     pjmedia-i386-win32-vc8-debug:silencedet.obj
 0003:0000ebc0       ??_C@_1BG@LLODMODC@?$AAs?$AAd?$AA?5?$AA?$CG?$AA?$CG?$AA?5?$AAn?$AAa?$AAm?$AAe?$AA?$AA@ 00584bc0     pjmedia-i386-win32-vc8-debug:silencedet.obj
 0003:0000ebdc       ??_C@_15HHMPEBGH@?$AAs?$AAd?$AA?$AA@ 00584bdc     pjmedia-i386-win32-vc8-debug:silencedet.obj
 0003:0000ebe4       ??_C@_0CJ@HMFIAFFP@Starting?5silence?5?$CIlevel?$DN?$CFd?5thres@ 00584be4     pjmedia-i386-win32-vc8-debug:silencedet.obj
 0003:0000ec18       ??_C@_0CG@DGOMOKAK@Re?9adjust?5threshold?5?$CIin?5silence?$CJ@ 00584c18     pjmedia-i386-win32-vc8-debug:silencedet.obj
 0003:0000ec48       ??_C@_0CM@HFHDPICL@Starting?5talk?5burst?5?$CIlevel?$DN?$CFd?5th@ 00584c48     pjmedia-i386-win32-vc8-debug:silencedet.obj
 0003:0000ec7c       ??_C@_0N@GGOMHLHN@silencedet?4c?$AA@ 00584c7c     pjmedia-i386-win32-vc8-debug:silencedet.obj
 0003:0000ec8c       ??_C@_0CJ@FEGDIEOD@Re?9adjust?5threshold?5?$CIin?5talk?5bur@ 00584c8c     pjmedia-i386-win32-vc8-debug:silencedet.obj
 0003:0000ecc0       ??_C@_1BK@KDKCCGFK@?$AAo?$AAp?$AAt?$AAi?$AAo?$AAn?$AAs?$AA?5?$AA?$DN?$AA?$DN?$AA?5?$AA0?$AA?$AA@ 00584cc0     pjmedia-i386-win32-vc8-debug:plc_common.obj
 0003:0000ece0       ??_C@_1GC@MPPEPAIC@?$AAp?$AAo?$AAo?$AAl?$AA?5?$AA?$CG?$AA?$CG?$AA?5?$AAc?$AAl?$AAo?$AAc?$AAk?$AA_?$AAr?$AAa?$AAt?$AAe?$AA?5?$AA?$CG?$AA?$CG?$AA?5?$AAs?$AAa?$AAm?$AAp?$AAl?$AAe?$AAs?$AA_?$AAp?$AAe@ 00584ce0     pjmedia-i386-win32-vc8-debug:plc_common.obj
 0003:0000ed58       ??_C@_1HA@ENEANKDK@?$AAd?$AA?3?$AA?2?$AAm?$AAy?$AAg?$AAi?$AAt?$AA?2?$AAp?$AAj?$AAp?$AAr?$AAo?$AAj?$AAe?$AAc?$AAt?$AA?9?$AA1?$AA?4?$AA4?$AA?2?$AAp?$AAj?$AAm?$AAe?$AAd?$AAi?$AAa?$AA?2?$AAs@ 00584d58     pjmedia-i386-win32-vc8-debug:plc_common.obj
 0003:0000ede0       ??_C@_1BK@PIOKGOGP@?$AAp?$AAl?$AAc?$AA?5?$AA?$CG?$AA?$CG?$AA?5?$AAf?$AAr?$AAa?$AAm?$AAe?$AA?$AA@ 00584de0     pjmedia-i386-win32-vc8-debug:plc_common.obj
 0003:0000ee00       _pjmedia_linear2ulaw_tab   00584e00     pjmedia-i386-win32-vc8-debug:alaw_ulaw_table.obj
 0003:00012e00       _pjmedia_linear2alaw_tab   00588e00     pjmedia-i386-win32-vc8-debug:alaw_ulaw_table.obj
 0003:00016e00       _pjmedia_ulaw2linear_tab   0058ce00     pjmedia-i386-win32-vc8-debug:alaw_ulaw_table.obj
 0003:00017000       _pjmedia_alaw2linear_tab   0058d000     pjmedia-i386-win32-vc8-debug:alaw_ulaw_table.obj
 0003:00018c68       ??_C@_0EO@MOMMHEEA@Secure?5transport?5required?5in?5SDP@ 0058ec68     pjmedia-i386-win32-vc8-debug:errno.obj
 0003:00018cc8       ??_C@_0DM@OPHJDJCK@SRTP?5crypto?5attribute?5required?5?$CI@ 0058ecc8     pjmedia-i386-win32-vc8-debug:errno.obj
 0003:00018d10       ??_C@_0EE@HKDIFKLN@Invalid?5SDP?5media?5transport?5for?5@ 0058ed10     pjmedia-i386-win32-vc8-debug:errno.obj
 0003:00018d64       ??_C@_0DH@JABOECDK@Invalid?5SRTP?5crypto?5tag?5?$CIPJMEDIA@ 0058ed64     pjmedia-i386-win32-vc8-debug:errno.obj
 0003:00018da8       ??_C@_0DK@EIEPDNB@Invalid?5SRTP?5crypto?5attribute?5?$CIP@ 0058eda8     pjmedia-i386-win32-vc8-debug:errno.obj
 0003:00018df0       ??_C@_0DL@PPDCJAFI@Duplicated?5SRTP?5crypto?5tag?5?$CIPJME@ 0058edf0     pjmedia-i386-win32-vc8-debug:errno.obj
 0003:00018e38       ??_C@_0DP@DNDEFJI@SRTP?5SDP?5contains?5ambigue?5answer@ 0058ee38     pjmedia-i386-win32-vc8-debug:errno.obj
 0003:00018e84       ??_C@_0DL@BINEGGLM@Unsupported?5SRTP?5crypto?9suite?5?$CIP@ 0058ee84     pjmedia-i386-win32-vc8-debug:errno.obj
 0003:00018ed0       ??_C@_0EF@DCMAHBDI@Invalid?5SRTP?5key?5length?5for?5spec@ 0058eed0     pjmedia-i386-win32-vc8-debug:errno.obj
 0003:00018f28       ??_C@_0FA@HAKEALMK@SRTP?5crypto?9suite?5name?5not?5match@ 0058ef28     pjmedia-i386-win32-vc8-debug:errno.obj
 0003:00018f88       ??_C@_0EB@GAMOPGD@Invalid?5sample?5format?5for?5sound?5@ 0058ef88     pjmedia-i386-win32-vc8-debug:errno.obj
 0003:00018fd8       ??_C@_0CO@FCJGKBG@Invalid?5sound?5device?5ID?5?$CIPJMEDIA@ 0058efd8     pjmedia-i386-win32-vc8-debug:errno.obj
 0003:00019010       ??_C@_0DH@NACBPKOD@No?5suitable?5sound?5playback?5devic@ 0058f010     pjmedia-i386-win32-vc8-debug:errno.obj
 0003:00019054       ??_C@_0DF@PKIKHNPA@No?5suitable?5sound?5capture?5device@ 0058f054     pjmedia-i386-win32-vc8-debug:errno.obj
 0003:00019094       ??_C@_0DP@HHAKLPGE@Sound?5frame?5too?5large?5for?5file?5b@ 0058f094     pjmedia-i386-win32-vc8-debug:errno.obj
 0003:000190e0       ??_C@_0CM@HKHLDPDN@WAVE?5file?5too?5short?5?$CIPJMEDIA_EWA@ 0058f0e0     pjmedia-i386-win32-vc8-debug:errno.obj
 0003:00019114       ??_C@_0DD@FKNCKLNB@Unsupported?5WAVE?5file?5format?5?$CIPJ@ 0058f114     pjmedia-i386-win32-vc8-debug:errno.obj
 0003:00019154       ??_C@_0CO@CKCFJDML@Not?5a?5valid?5WAVE?5file?5?$CIPJMEDIA_E@ 0058f154     pjmedia-i386-win32-vc8-debug:errno.obj
 0003:00019190       ??_C@_0EG@FBPNENMF@Media?5ports?5have?5incompatible?5nu@ 0058f190     pjmedia-i386-win32-vc8-debug:errno.obj
 0003:000191e8       ??_C@_0EB@DHIDGGBD@Media?5ports?5have?5incompatible?5by@ 0058f1e8     pjmedia-i386-win32-vc8-debug:errno.obj
 0003:00019238       ??_C@_0EA@CDICINEI@Media?5ports?5have?5incompatible?5bi@ 0058f238     pjmedia-i386-win32-vc8-debug:errno.obj
 0003:00019284       ??_C@_0DL@FLCJCEPI@Media?5ports?5have?5incompatible?5me@ 0058f284     pjmedia-i386-win32-vc8-debug:errno.obj
 0003:000192d0       ??_C@_0EL@KOIIKBFP@Media?5ports?5have?5incompatible?5sa@ 0058f2d0     pjmedia-i386-win32-vc8-debug:errno.obj
 0003:00019330       ??_C@_0EA@EJPEOGMK@Media?5ports?5have?5incompatible?5cl@ 0058f330     pjmedia-i386-win32-vc8-debug:errno.obj
 0003:0001937c       ??_C@_0DI@MEKDIPIO@Media?5ports?5are?5not?5compatible?5?$CI@ 0058f37c     pjmedia-i386-win32-vc8-debug:errno.obj
 0003:000193c0       ??_C@_0CO@BFKJOFNE@RTP?5is?5not?5configured?5?$CIPJMEDIA_R@ 0058f3c0     pjmedia-i386-win32-vc8-debug:errno.obj
 0003:000193f8       ??_C@_0EE@PHAAOPAG@RTP?5media?5port?5destination?5is?5no@ 0058f3f8     pjmedia-i386-win32-vc8-debug:errno.obj
 0003:0001944c       ??_C@_0DI@LFLLIJCB@Bad?5sequence?5number?5in?5RTP?5packe@ 0058f44c     pjmedia-i386-win32-vc8-debug:errno.obj
 0003:00019490       ??_C@_0DG@OPPFJBGL@RTP?5session?5in?5probation?5?$CIPJMEDI@ 0058f490     pjmedia-i386-win32-vc8-debug:errno.obj
 0003:000194d0       ??_C@_0DB@HLHLKEBJ@RTP?5session?5restarted?5?$CIPJMEDIA_R@ 0058f4d0     pjmedia-i386-win32-vc8-debug:errno.obj
 0003:0001950c       ??_C@_0CP@OBFABIAL@Invalid?5RTP?5packet?5length?5?$CIPJMED@ 0058f50c     pjmedia-i386-win32-vc8-debug:errno.obj
 0003:00019544       ??_C@_0DF@KDOADJLK@RTP?5packet?5payload?5type?5mismatch@ 0058f544     pjmedia-i386-win32-vc8-debug:errno.obj
 0003:00019584       ??_C@_0DC@PFPAEINL@RTP?5packet?5SSRC?5id?5mismatch?5?$CIPJM@ 0058f584     pjmedia-i386-win32-vc8-debug:errno.obj
 0003:000195c0       ??_C@_0CJ@NGKNCMFA@Invalid?5RTP?5version?5?$CIPJMEDIA_RTP@ 0058f5c0     pjmedia-i386-win32-vc8-debug:errno.obj
 0003:000195f4       ??_C@_0DL@KLDJIJLI@Invalid?5RTP?5packing?5?$CIinternal?5er@ 0058f5f4     pjmedia-i386-win32-vc8-debug:errno.obj
 0003:0001963c       ??_C@_0CI@KDAMKHEL@Invalid?5RTP?5packet?5?$CIPJMEDIA_RTP_@ 0058f63c     pjmedia-i386-win32-vc8-debug:errno.obj
 0003:0001966c       ??_C@_0DN@EHCPFJJN@Remote?5does?5not?5support?5RFC?52833@ 0058f66c     pjmedia-i386-win32-vc8-debug:errno.obj
 0003:000196b8       ??_C@_0CJ@ECIKMCPH@Invalid?5DTMF?5digit?5?$CIPJMEDIA_RTP_@ 0058f6b8     pjmedia-i386-win32-vc8-debug:errno.obj
 0003:000196ec       ??_C@_0DF@NNKPPHHC@Remote?5does?5not?5support?5DTMF?5?$CIPJ@ 0058f6ec     pjmedia-i386-win32-vc8-debug:errno.obj
 0003:0001972c       ??_C@_0CO@MJBLNMMI@Invalid?5media?5type?5?$CIPJMEDIA_EINV@ 0058f72c     pjmedia-i386-win32-vc8-debug:errno.obj
 0003:00019764       ??_C@_0DN@IGGOEBDI@Missing?5rtpmap?5in?5media?5descript@ 0058f764     pjmedia-i386-win32-vc8-debug:errno.obj
 0003:000197b0       ??_C@_0DA@DKJJFGPE@Invalid?5media?5payload?5type?5?$CIPJME@ 0058f7b0     pjmedia-i386-win32-vc8-debug:errno.obj
 0003:000197ec       ??_C@_0DM@GBJMMNCF@Asymetric?5media?5codec?5is?5not?5sup@ 0058f7ec     pjmedia-i386-win32-vc8-debug:errno.obj
 0003:00019834       ??_C@_0DH@KOBKDDJI@Invalid?5remote?5media?5?$CIIP?$CJ?5addres@ 0058f834     pjmedia-i386-win32-vc8-debug:errno.obj
 0003:00019878       ??_C@_0DG@EKMGLMFL@Invalid?5codec?5mode?5?$CIno?5fmtp?$DP?$CJ?5?$CIP@ 0058f878     pjmedia-i386-win32-vc8-debug:errno.obj
 0003:000198b8       ??_C@_0DG@LLBBCNCG@Invalid?5PCM?5frame?5length?5?$CIPJMEDI@ 0058f8b8     pjmedia-i386-win32-vc8-debug:errno.obj
 0003:000198f8       ??_C@_0DF@JDAOLAOM@Invalid?5codec?5frame?5length?5?$CIPJME@ 0058f8f8     pjmedia-i386-win32-vc8-debug:errno.obj
 0003:00019938       ??_C@_0DE@OLKJHMCL@PCM?5frame?5is?5too?5short?5?$CIPJMEDIA_@ 0058f938     pjmedia-i386-win32-vc8-debug:errno.obj
 0003:00019978       ??_C@_0DG@FOGENKNL@Codec?5frame?5is?5too?5short?5?$CIPJMEDI@ 0058f978     pjmedia-i386-win32-vc8-debug:errno.obj
 0003:000199b8       ??_C@_0DG@KJBEJCIE@Codec?5internal?5creation?5error?5?$CIP@ 0058f9b8     pjmedia-i386-win32-vc8-debug:errno.obj
 0003:000199f8       ??_C@_0CP@ODMIIAEN@Unsupported?5media?5codec?5?$CIPJMEDIA@ 0058f9f8     pjmedia-i386-win32-vc8-debug:errno.obj
 0003:00019a30       ??_C@_0DE@PFJJJNGL@SDP?5time?5line?5not?5equal?5?$CIPJMEDIA@ 0058fa30     pjmedia-i386-win32-vc8-debug:errno.obj
 0003:00019a70       ??_C@_0DM@HCOBINN@SDP?5name?1subject?5line?5not?5equal?5@ 0058fa70     pjmedia-i386-win32-vc8-debug:errno.obj
 0003:00019ab8       ??_C@_0DI@BLKBMMGO@SDP?5origin?5line?5not?5equal?5?$CIPJMED@ 0058fab8     pjmedia-i386-win32-vc8-debug:errno.obj
 0003:00019afc       ??_C@_0DN@EALGPLFN@SDP?5session?5descriptor?5not?5equal@ 0058fafc     pjmedia-i386-win32-vc8-debug:errno.obj
 0003:00019b48       ??_C@_0DN@HLKACHFN@SDP?5rtpmap?5attribute?5not?5equal?5?$CI@ 0058fb48     pjmedia-i386-win32-vc8-debug:errno.obj
 0003:00019b94       ??_C@_0DJ@FFGHKCEG@SDP?5fmtp?5attribute?5not?5equal?5?$CIPJ@ 0058fb94     pjmedia-i386-win32-vc8-debug:errno.obj
 0003:00019bd8       ??_C@_0DJ@GGABIHGL@SDP?5media?5direction?5not?5equal?5?$CIP@ 0058fbd8     pjmedia-i386-win32-vc8-debug:errno.obj
 0003:00019c1c       ??_C@_0DF@HHCJAGLJ@SDP?5attributes?5not?5equal?5?$CIPJMEDI@ 0058fc1c     pjmedia-i386-win32-vc8-debug:errno.obj
 0003:00019c5c       ??_C@_0DK@MAHAOAHF@SDP?5connection?5line?5not?5equal?5?$CIP@ 0058fc5c     pjmedia-i386-win32-vc8-debug:errno.obj
 0003:00019ca8       ??_C@_0EH@FMIFCFBA@Format?5in?5SDP?5media?5descriptor?5n@ 0058fca8     pjmedia-i386-win32-vc8-debug:errno.obj
 0003:00019d00       ??_C@_0EJ@FJOJLJDF@Transport?5in?5SDP?5media?5descripto@ 0058fd00     pjmedia-i386-win32-vc8-debug:errno.obj
 0003:00019d58       ??_C@_0ED@KAALGBMF@Port?5in?5SDP?5media?5descriptor?5not@ 0058fd58     pjmedia-i386-win32-vc8-debug:errno.obj
 0003:00019da8       ??_C@_0DM@JMBBJEKO@SDP?5media?5descriptor?5not?5equal?5?$CI@ 0058fda8     pjmedia-i386-win32-vc8-debug:errno.obj
 0003:00019df0       ??_C@_0EK@LPNBCGHG@No?5suitable?5answer?5for?5unknown?5r@ 0058fdf0     pjmedia-i386-win32-vc8-debug:errno.obj
 0003:00019e48       ??_C@_0EM@LLMPLGCO@No?5suitable?5telephone?9event?5for?5@ 0058fe48     pjmedia-i386-win32-vc8-debug:errno.obj
 0003:00019ea4       ??_C@_0DP@KIMEPBPF@No?5suitable?5codec?5for?5remote?5off@ 0058fea4     pjmedia-i386-win32-vc8-debug:errno.obj
 0003:00019ef0       ??_C@_0ED@HELGJJGO@No?5active?5media?5stream?5after?5neg@ 0058fef0     pjmedia-i386-win32-vc8-debug:errno.obj
 0003:00019f40       ??_C@_0ED@NGHPALDD@No?5common?5SDP?5media?5payload?5in?5a@ 0058ff40     pjmedia-i386-win32-vc8-debug:errno.obj
 0003:00019f90       ??_C@_0EN@OPFCIOMP@SDP?5media?5transport?5type?5mismatc@ 0058ff90     pjmedia-i386-win32-vc8-debug:errno.obj
 0003:00019ff0       ??_C@_0EG@MJOIPNIH@SDP?5media?5type?5mismatch?5in?5offer@ 0058fff0     pjmedia-i386-win32-vc8-debug:errno.obj
 0003:0001a048       ??_C@_0EE@BLNHOMNC@SDP?5media?5count?5mismatch?5in?5offe@ 00590048     pjmedia-i386-win32-vc8-debug:errno.obj
 0003:0001a09c       ??_C@_0DN@JGPGLEOH@No?5current?5local?1remote?5offer?1an@ 0059009c     pjmedia-i386-win32-vc8-debug:errno.obj
 0003:0001a0e8       ??_C@_0DL@MFMHOMBE@No?5active?5SDP?5in?5SDP?5negotiator?5@ 005900e8     pjmedia-i386-win32-vc8-debug:errno.obj
 0003:0001a130       ??_C@_0ED@IFOJJHNO@No?5initial?5local?5SDP?5in?5SDP?5nego@ 00590130     pjmedia-i386-win32-vc8-debug:errno.obj
 0003:0001a180       ??_C@_0EF@CJNFLCEL@Invalid?5SDP?5negotiator?5state?5for@ 00590180     pjmedia-i386-win32-vc8-debug:errno.obj
 0003:0001a1d4       ??_C@_0DM@JFGCNJLM@Invalid?5SDP?5media?5transport?5prot@ 005901d4     pjmedia-i386-win32-vc8-debug:errno.obj
 0003:0001a21c       ??_C@_0DB@BKKJGGKM@Invalid?5SDP?5rtcp?5attribyte?5?$CIPJME@ 0059021c     pjmedia-i386-win32-vc8-debug:errno.obj
 0003:0001a258       ??_C@_0DB@BJCACDID@Invalid?5SDP?5fmtp?5attribute?5?$CIPJME@ 00590258     pjmedia-i386-win32-vc8-debug:errno.obj
 0003:0001a294       ??_C@_0DL@KAILPDC@Invalid?5SDP?5payload?5type?5in?5medi@ 00590294     pjmedia-i386-win32-vc8-debug:errno.obj
 0003:0001a2dc       ??_C@_0DN@GADAENKO@No?5SDP?5payload?5format?5in?5the?5med@ 005902dc     pjmedia-i386-win32-vc8-debug:errno.obj
 0003:0001a328       ??_C@_0CO@DIKFNJOF@Invalid?5SDP?5media?5line?5?$CIPJMEDIA_@ 00590328     pjmedia-i386-win32-vc8-debug:errno.obj
 0003:0001a360       ??_C@_0EJ@IDNJACOO@Missing?5SDP?5rtpmap?5for?5dynamic?5p@ 00590360     pjmedia-i386-win32-vc8-debug:errno.obj
 0003:0001a3b8       ??_C@_0DL@HCOGNPAF@SDP?5rtpmap?5attribute?5too?5long?5?$CIP@ 005903b8     pjmedia-i386-win32-vc8-debug:errno.obj
 0003:0001a400       ??_C@_0DF@BJAALDOM@Invalid?5SDP?5rtpmap?5attribute?5?$CIPJ@ 00590400     pjmedia-i386-win32-vc8-debug:errno.obj
 0003:0001a440       ??_C@_0CN@JHLMEODJ@Invalid?5SDP?5attributes?5?$CIPJMEDIA_@ 00590440     pjmedia-i386-win32-vc8-debug:errno.obj
 0003:0001a478       ??_C@_0DM@NEDHCJGL@Missing?5SDP?5connection?5info?5line@ 00590478     pjmedia-i386-win32-vc8-debug:errno.obj
 0003:0001a4c0       ??_C@_0DC@KNNPDHKA@Invalid?5SDP?5connection?5line?5?$CIPJM@ 005904c0     pjmedia-i386-win32-vc8-debug:errno.obj
 0003:0001a4fc       ??_C@_0DF@HNDCDPJF@SDP?5name?1subject?5line?5is?5empty?5?$CI@ 005904fc     pjmedia-i386-win32-vc8-debug:errno.obj
 0003:0001a53c       ??_C@_0CM@DLEAGODI@Invalid?5SDP?5time?5line?5?$CIPJMEDIA_S@ 0059053c     pjmedia-i386-win32-vc8-debug:errno.obj
 0003:0001a570       ??_C@_0DA@DIKNJOEJ@Invalid?5SDP?5origin?5line?5?$CIPJMEDIA@ 00590570     pjmedia-i386-win32-vc8-debug:errno.obj
 0003:0001a5ac       ??_C@_0CO@ONPCFICA@Invalid?5SDP?5version?5line?5?$CIPJMEDI@ 005905ac     pjmedia-i386-win32-vc8-debug:errno.obj
 0003:0001a5e4       ??_C@_0CM@KFAONKNJ@Invalid?5SDP?5descriptor?5?$CIPJMEDIA_@ 005905e4     pjmedia-i386-win32-vc8-debug:errno.obj
 0003:0001a618       ??_C@_0CK@HBHLALIF@Unspecified?5PJMEDIA?5error?5?$CIPJMED@ 00590618     pjmedia-i386-win32-vc8-debug:errno.obj
 0003:0001a9d8       ??_C@_0BJ@JGEGOKIK@Unknown?5pjmedia?5error?5?$CFd?$AA@ 005909d8     pjmedia-i386-win32-vc8-debug:errno.obj
 0003:0001aa0c       ??_C@_08MKBBPGGN@stream?4c?$AA@ 00590a0c     pjmedia-i386-win32-vc8-debug:stream.obj
 0003:0001aa18       ??_C@_0BC@ICNPODMB@Stream?5?$CFs?5created?$AA@ 00590a18     pjmedia-i386-win32-vc8-debug:stream.obj
 0003:0001aa30       ??_C@_0BJ@GBLBGHNA@VAD?5temporarily?5disabled?$AA@ 00590a30     pjmedia-i386-win32-vc8-debug:stream.obj
 0003:0001aa50       ??_C@_06HEEHMEGM@strm?$CFp?$AA@ 00590a50     pjmedia-i386-win32-vc8-debug:stream.obj
 0003:0001aa58       ??_C@_1CM@EEPLMOAE@?$AAs?$AAt?$AAr?$AAe?$AAa?$AAm?$AA?5?$AA?$CB?$AA?$DN?$AA?5?$AA?$CI?$AA?$CI?$AAv?$AAo?$AAi?$AAd?$AA?5?$AA?$CK?$AA?$CJ?$AA0?$AA?$CJ?$AA?$AA@ 00590a58     pjmedia-i386-win32-vc8-debug:stream.obj
 0003:0001aa8c       ??_C@_1DC@GNMNJKC@?$AAp?$AAo?$AAo?$AAl?$AA?5?$AA?$CG?$AA?$CG?$AA?5?$AAi?$AAn?$AAf?$AAo?$AA?5?$AA?$CG?$AA?$CG?$AA?5?$AAp?$AA_?$AAs?$AAt?$AAr?$AAe?$AAa?$AAm?$AA?$AA@ 00590a8c     pjmedia-i386-win32-vc8-debug:stream.obj
 0003:0001aac8       ??_C@_1GI@DEDFFNHF@?$AAd?$AA?3?$AA?2?$AAm?$AAy?$AAg?$AAi?$AAt?$AA?2?$AAp?$AAj?$AAp?$AAr?$AAo?$AAj?$AAe?$AAc?$AAt?$AA?9?$AA1?$AA?4?$AA4?$AA?2?$AAp?$AAj?$AAm?$AAe?$AAd?$AAi?$AAa?$AA?2?$AAs@ 00590ac8     pjmedia-i386-win32-vc8-debug:stream.obj
 0003:0001ab48       ??_C@_0ED@JAAMDOJM@Jitter?5buffer?5starts?5returning?5n@ 00590b48     pjmedia-i386-win32-vc8-debug:stream.obj
 0003:0001ab98       ??_C@_0BF@OJPAAFNN@codec?5decode?$CI?$CJ?5error?$AA@ 00590b98     pjmedia-i386-win32-vc8-debug:stream.obj
 0003:0001abb4       ??_C@_0CM@LPGENADE@Jitter?5buffer?5is?5bufferring?5?$CIpre@ 00590bb4     pjmedia-i386-win32-vc8-debug:stream.obj
 0003:0001abe8       ??_C@_1FK@GBKHMPOM@?$AAf?$AAr?$AAa?$AAm?$AAe?$AA_?$AAt?$AAy?$AAp?$AAe?$AA?5?$AA?$DN?$AA?$DN?$AA?5?$AAP?$AAJ?$AAM?$AAE?$AAD?$AAI?$AAA?$AA_?$AAJ?$AAB?$AA_?$AAZ?$AAE?$AAR?$AAO?$AA_?$AAP?$AAR@ 00590be8     pjmedia-i386-win32-vc8-debug:stream.obj
 0003:0001ac54       ??_C@_0CE@BAFNKJLC@Jitter?5buffer?5empty?5?$CIprefetch?$DN?$CFd@ 00590c54     pjmedia-i386-win32-vc8-debug:stream.obj
 0003:0001ac80       ??_C@_0O@MNJAMJOB@?0?5plc?5invoked?$AA@ 00590c80     pjmedia-i386-win32-vc8-debug:stream.obj
 0003:0001ac90       ??_C@_0O@OGIFGJAB@Frame?5lost?$CFs?$CB?$AA@ 00590c90     pjmedia-i386-win32-vc8-debug:stream.obj
 0003:0001aca0       ??_C@_0M@NKENPDLK@?0?5recovered?$AA@ 00590ca0     pjmedia-i386-win32-vc8-debug:stream.obj
 0003:0001acb0       ??_C@_0BA@GCDEEPHG@?$CFs?3?5?$CFs?5?$FLerr?3?$CFd?$FN?$AA@ 00590cb0     pjmedia-i386-win32-vc8-debug:stream.obj
 0003:0001acc4       ??_C@_0CK@PBJINAMI@Jitter?5buffer?5is?5bufferring?5?$CIpre@ 00590cc4     pjmedia-i386-win32-vc8-debug:stream.obj
 0003:0001acf8       ??_C@_0CC@JAEPJMKF@Jitter?5buffer?5empty?5?$CIprefetch?$DN?$CFd@ 00590cf8     pjmedia-i386-win32-vc8-debug:stream.obj
 0003:0001ad20       ??_C@_0M@PLDMKLOM@Frame?5lost?$CB?$AA@ 00590d20     pjmedia-i386-win32-vc8-debug:stream.obj
 0003:0001ad30       ??_C@_1EK@CNGFNMNC@?$AA?$CB?$AA?$CC?$AAN?$AAo?$AAt?$AA?5?$AAe?$AAn?$AAo?$AAu?$AAg?$AAh?$AA?5?$AAb?$AAu?$AAf?$AAf?$AAe?$AAr?$AA?5?$AAf?$AAo?$AAr?$AA?5?$AAS?$AAD?$AAE?$AAS?$AA?5?$AAp?$AAa?$AAc@ 00590d30     pjmedia-i386-win32-vc8-debug:stream.obj
 0003:0001ad88       ??_C@_0CC@HJGBECDK@Not?5enough?5buffer?5for?5SDES?5packe@ 00590d88     pjmedia-i386-win32-vc8-debug:stream.obj
 0003:0001adb0       ??_C@_0P@ICGHDFAO@VAD?5re?9enabled?$AA@ 00590db0     pjmedia-i386-win32-vc8-debug:stream.obj
 0003:0001adc8       ??_C@_1IE@LGPECIHE@?$AAs?$AAt?$AAr?$AAe?$AAa?$AAm?$AA?9?$AA?$DO?$AAe?$AAn?$AAc?$AA_?$AAb?$AAu?$AAf?$AA_?$AAc?$AAo?$AAu?$AAn?$AAt?$AA?5?$AA?$CL?$AA?5?$AA?$CI?$AAf?$AAr?$AAa?$AAm?$AAe?$AA?9?$AA?$DO@ 00590dc8     pjmedia-i386-win32-vc8-debug:stream.obj
 0003:0001ae68       ??_C@_0BC@EPKDPAEA@Start?5talksprut?4?4?$AA@ 00590e68     pjmedia-i386-win32-vc8-debug:stream.obj
 0003:0001ae80       ??_C@_0BB@DDCHBNNP@Starting?5silence?$AA@ 00590e80     pjmedia-i386-win32-vc8-debug:stream.obj
 0003:0001ae94       ??_C@_0BH@IJDGDLG@RTP?5encode_rtp?$CI?$CJ?5error?$AA@ 00590e94     pjmedia-i386-win32-vc8-debug:stream.obj
 0003:0001aeb0       ??_C@_0BF@IIPLMAAA@Codec?5encode?$CI?$CJ?5error?$AA@ 00590eb0     pjmedia-i386-win32-vc8-debug:stream.obj
 0003:0001aecc       ??_C@_0BJ@COIBCHJA@Sending?5DTMF?5digit?5id?5?$CFc?$AA@ 00590ecc     pjmedia-i386-win32-vc8-debug:stream.obj
 0003:0001aeec       ??_C@_0BK@ECAGOLL@Jitter?5buffer?5put?$CI?$CJ?5error?$AA@ 00590eec     pjmedia-i386-win32-vc8-debug:stream.obj
 0003:0001af0c       ??_C@_0DI@LLLLCFFB@G722?5codec?5used?0?5remote?5samples?5@ 00590f0c     pjmedia-i386-win32-vc8-debug:stream.obj
 0003:0001af50       ??_C@_0BE@EEELMADC@Codec?5parse?$CI?$CJ?5error?$AA@ 00590f50     pjmedia-i386-win32-vc8-debug:stream.obj
 0003:0001af68       ??_C@_0BE@DIMNLOKG@Jitter?5buffer?5reset?$AA@ 00590f68     pjmedia-i386-win32-vc8-debug:stream.obj
 0003:0001af80       ??_C@_0CJ@IOOMBLCB@Changed?5RTP?5peer?5SSRC?5?$CFd?5?$CIprevio@ 00590f80     pjmedia-i386-win32-vc8-debug:stream.obj
 0003:0001afb4       ??_C@_0BN@GBIGHOMM@Bad?5RTP?5pt?5?$CFd?5?$CIexpecting?5?$CFd?$CJ?$AA@ 00590fb4     pjmedia-i386-win32-vc8-debug:stream.obj
 0003:0001afd8       ??_C@_0FA@PMIGIEOC@RTP?5status?3?5badpt?$DN?$CFd?0?5badssrc?$DN?$CFd@ 00590fd8     pjmedia-i386-win32-vc8-debug:stream.obj
 0003:0001b038       ??_C@_0BB@HCGJOLMC@RTP?5decode?5error?$AA@ 00591038     pjmedia-i386-win32-vc8-debug:stream.obj
 0003:0001b04c       ??_C@_0BB@PLKEBPFG@RTP?5recv?$CI?$CJ?5error?$AA@ 0059104c     pjmedia-i386-win32-vc8-debug:stream.obj
 0003:0001b060       ??_C@_0BP@ICFENLOG@Received?5DTMF?5digit?5?$CFc?0?5vol?$DN?$CFd?$AA@ 00591060     pjmedia-i386-win32-vc8-debug:stream.obj
 0003:0001b088       ??_C@_0CH@BDBDCHNK@Ignored?5RTP?5pkt?5with?5bad?5DTMF?5ev@ 00591088     pjmedia-i386-win32-vc8-debug:stream.obj
 0003:0001b0b8       ??_C@_0BC@HIEABHLO@RTCP?5recv?$CI?$CJ?5error?$AA@ 005910b8     pjmedia-i386-win32-vc8-debug:stream.obj
 0003:0001b0d0       ??_C@_1EA@IAHDEFMO@?$AAc?$AAh?$AAa?$AAn?$AAn?$AAe?$AAl?$AA?9?$AA?$DO?$AAo?$AAu?$AAt?$AA_?$AAp?$AAk?$AAt?$AA?5?$AA?$CB?$AA?$DN?$AA?5?$AA?$CI?$AA?$CI?$AAv?$AAo?$AAi?$AAd?$AA?5?$AA?$CK?$AA?$CJ?$AA0?$AA?$CJ?$AA?$AA@ 005910d0     pjmedia-i386-win32-vc8-debug:stream.obj
 0003:0001b11c       ??_C@_1CO@ENLJAHBN@?$AAc?$AAh?$AAa?$AAn?$AAn?$AAe?$AAl?$AA?5?$AA?$CB?$AA?$DN?$AA?5?$AA?$CI?$AA?$CI?$AAv?$AAo?$AAi?$AAd?$AA?5?$AA?$CK?$AA?$CJ?$AA0?$AA?$CJ?$AA?$AA@ 0059111c     pjmedia-i386-win32-vc8-debug:stream.obj
 0003:0001b154       ??_C@_0BG@HLJNKJMG@Decoder?5stream?5paused?$AA@ 00591154     pjmedia-i386-win32-vc8-debug:stream.obj
 0003:0001b170       ??_C@_0BH@IEMENDPF@Decoder?5stream?5started?$AA@ 00591170     pjmedia-i386-win32-vc8-debug:stream.obj
 0003:0001b18c       ??_C@_0BG@DCFJEGJD@Encoder?5stream?5paused?$AA@ 0059118c     pjmedia-i386-win32-vc8-debug:stream.obj
 0003:0001b1a8       ??_C@_0BH@JPIMLCGB@Encoder?5stream?5started?$AA@ 005911a8     pjmedia-i386-win32-vc8-debug:stream.obj
 0003:0001b1c8       ??_C@_1EK@IKAAIIMF@?$AAs?$AAt?$AAr?$AAe?$AAa?$AAm?$AA?5?$AA?$CG?$AA?$CG?$AA?5?$AAs?$AAt?$AAr?$AAe?$AAa?$AAm?$AA?9?$AA?$DO?$AAe?$AAn?$AAc?$AA?5?$AA?$CG?$AA?$CG?$AA?5?$AAs?$AAt?$AAr?$AAe?$AAa?$AAm?$AA?9@ 005911c8     pjmedia-i386-win32-vc8-debug:stream.obj
 0003:0001b220       ??_C@_1BO@FKJLIEOF@?$AAs?$AAt?$AAr?$AAe?$AAa?$AAm?$AA?5?$AA?$CG?$AA?$CG?$AA?5?$AAs?$AAt?$AAa?$AAt?$AA?$AA@ 00591220     pjmedia-i386-win32-vc8-debug:stream.obj
 0003:0001b244       ??_C@_1CA@MFCEBNDK@?$AAs?$AAt?$AAr?$AAe?$AAa?$AAm?$AA?5?$AA?$CG?$AA?$CG?$AA?5?$AAs?$AAt?$AAa?$AAt?$AAe?$AA?$AA@ 00591244     pjmedia-i386-win32-vc8-debug:stream.obj
 0003:0001b26c       ??_C@_1O@PPFFKCHG@?$AAs?$AAt?$AAr?$AAe?$AAa?$AAm?$AA?$AA@ 0059126c     pjmedia-i386-win32-vc8-debug:stream.obj
 0003:0001b27c       ??_C@_0BH@FIOICDIE@Decoder?5stream?5resumed?$AA@ 0059127c     pjmedia-i386-win32-vc8-debug:stream.obj
 0003:0001b298       ??_C@_0BH@EDKAECBA@Encoder?5stream?5resumed?$AA@ 00591298     pjmedia-i386-win32-vc8-debug:stream.obj
 0003:0001b2b4       ??_C@_1CK@DEPNNKGO@?$AAs?$AAt?$AAr?$AAe?$AAa?$AAm?$AA?5?$AA?$CG?$AA?$CG?$AA?5?$AAd?$AAi?$AAg?$AAi?$AAt?$AA_?$AAc?$AAh?$AAa?$AAr?$AA?$AA@ 005912b4     pjmedia-i386-win32-vc8-debug:stream.obj
 0003:0001b2e8       ??_C@_1EI@PDNFMHII@?$AAs?$AAi?$AAz?$AAe?$AAo?$AAf?$AA?$CI?$AAs?$AAt?$AAr?$AAe?$AAa?$AAm?$AA?9?$AA?$DO?$AAr?$AAx?$AA_?$AAd?$AAt?$AAm?$AAf?$AA_?$AAb?$AAu?$AAf?$AA?$FL?$AA0?$AA?$FN?$AA?$CJ?$AA?5?$AA?$DN@ 005912e8     pjmedia-i386-win32-vc8-debug:stream.obj
 0003:0001b340       ??_C@_1DC@CAONAPIP@?$AAs?$AAt?$AAr?$AAe?$AAa?$AAm?$AA?5?$AA?$CG?$AA?$CG?$AA?5?$AAd?$AAi?$AAg?$AAi?$AAt?$AAs?$AA?5?$AA?$CG?$AA?$CG?$AA?5?$AAs?$AAi?$AAz?$AAe?$AA?$AA@ 00591340     pjmedia-i386-win32-vc8-debug:stream.obj
 0003:0001b380       ??_C@_1FC@ONNECCLI@?$AAw?$AAs?$AAo?$AAl?$AAa?$AA?9?$AA?$DO?$AAt?$AAe?$AAm?$AAp?$AAl?$AA_?$AAs?$AAi?$AAz?$AAe?$AA?5?$AA?$DM?$AA?$DN?$AA?5?$AAw?$AAs?$AAo?$AAl?$AAa?$AA?9?$AA?$DO?$AAh?$AAa?$AAn?$AAn@ 00591380     pjmedia-i386-win32-vc8-debug:wsola.obj
 0003:0001b3e8       __real@3ff8000000000000    005913e8     pjmedia-i386-win32-vc8-debug:wsola.obj
 0003:0001b3f4       ??_C@_07LLDBJGIC@wsola?4c?$AA@ 005913f4     pjmedia-i386-win32-vc8-debug:wsola.obj
 0003:0001b400       ??_C@_0BO@PBEKEGBF@Failed?5to?5create?5circular?5buf?$AA@ 00591400     pjmedia-i386-win32-vc8-debug:wsola.obj
 0003:0001b424       ??_C@_1CE@HKIMEAPL@?$AAc?$AAh?$AAa?$AAn?$AAn?$AAe?$AAl?$AA_?$AAc?$AAo?$AAu?$AAn?$AAt?$AA?5?$AA?$DO?$AA?5?$AA0?$AA?$AA@ 00591424     pjmedia-i386-win32-vc8-debug:wsola.obj
 0003:0001b450       ??_C@_1DO@HNOJLLOB@?$AAs?$AAa?$AAm?$AAp?$AAl?$AAe?$AAs?$AA_?$AAp?$AAe?$AAr?$AA_?$AAf?$AAr?$AAa?$AAm?$AAe?$AA?5?$AA?$DM?$AA?5?$AAc?$AAl?$AAo?$AAc?$AAk?$AA_?$AAr?$AAa?$AAt?$AAe?$AA?$AA@ 00591450     pjmedia-i386-win32-vc8-debug:wsola.obj
 0003:0001b49c       ??_C@_1CI@CPJHFBDP@?$AAc?$AAl?$AAo?$AAc?$AAk?$AA_?$AAr?$AAa?$AAt?$AAe?$AA?5?$AA?$DM?$AA?$DN?$AA?5?$AA6?$AA5?$AA5?$AA3?$AA5?$AA?$AA@ 0059149c     pjmedia-i386-win32-vc8-debug:wsola.obj
 0003:0001b4d0       ??_C@_1GG@IAKBIPBK@?$AAp?$AAo?$AAo?$AAl?$AA?5?$AA?$CG?$AA?$CG?$AA?5?$AAc?$AAl?$AAo?$AAc?$AAk?$AA_?$AAr?$AAa?$AAt?$AAe?$AA?5?$AA?$CG?$AA?$CG?$AA?5?$AAs?$AAa?$AAm?$AAp?$AAl?$AAe?$AAs?$AA_?$AAp?$AAe@ 005914d0     pjmedia-i386-win32-vc8-debug:wsola.obj
 0003:0001b550       ??_C@_1GG@CLBLJFGG@?$AAd?$AA?3?$AA?2?$AAm?$AAy?$AAg?$AAi?$AAt?$AA?2?$AAp?$AAj?$AAp?$AAr?$AAo?$AAj?$AAe?$AAc?$AAt?$AA?9?$AA1?$AA?4?$AA4?$AA?2?$AAp?$AAj?$AAm?$AAe?$AAd?$AAi?$AAa?$AA?2?$AAs@ 00591550     pjmedia-i386-win32-vc8-debug:wsola.obj
 0003:0001b5d0       __real@401921fb54442d18    005915d0     pjmedia-i386-win32-vc8-debug:wsola.obj
 0003:0001b5dc       ??_C@_1M@DMOBICCA@?$AAw?$AAs?$AAo?$AAl?$AAa?$AA?$AA@ 005915dc     pjmedia-i386-win32-vc8-debug:wsola.obj
 0003:0001b5ec       ??_C@_1CI@POPKIGC@?$AAw?$AAs?$AAo?$AAl?$AAa?$AA?5?$AA?$CG?$AA?$CG?$AA?5?$AAo?$AAp?$AAt?$AAi?$AAo?$AAn?$AAs?$AA?$DN?$AA?$DN?$AA0?$AA?$AA@ 005915ec     pjmedia-i386-win32-vc8-debug:wsola.obj
 0003:0001b61c       __real@3f800000            0059161c     pjmedia-i386-win32-vc8-debug:wsola.obj
 0003:0001b620       __real@3ff0000000000000    00591620     pjmedia-i386-win32-vc8-debug:wsola.obj
 0003:0001b630       __real@0000000000000000    00591630     pjmedia-i386-win32-vc8-debug:wsola.obj
 0003:0001b640       ??_C@_1EM@MPJCGMLC@?$AA?$CB?$AA?$CC?$AAW?$AAS?$AAO?$AAL?$AAA?$AA?5?$AAb?$AAu?$AAf?$AAf?$AAe?$AAr?$AA?5?$AAs?$AAi?$AAz?$AAe?$AA?5?$AAm?$AAa?$AAy?$AA?5?$AAb?$AAe?$AA?5?$AAt?$AAo?$AA?5?$AAs?$AAm@ 00591640     pjmedia-i386-win32-vc8-debug:wsola.obj
 0003:0001b69c       ??_C@_0CD@BICDEMGJ@WSOLA?5buffer?5size?5may?5be?5to?5smal@ 0059169c     pjmedia-i386-win32-vc8-debug:wsola.obj
 0003:0001b6c8       ??_C@_1DI@CFNECNLA@?$AA?$CB?$AA?$CC?$AAW?$AAS?$AAO?$AAL?$AAA?$AA?5?$AAn?$AAe?$AAe?$AAd?$AA?5?$AAe?$AAr?$AAa?$AAs?$AAe?$AA?5?$AAb?$AAu?$AAf?$AAf?$AAe?$AAr?$AA?$CB?$AA?$CC?$AA?$AA@ 005916c8     pjmedia-i386-win32-vc8-debug:wsola.obj
 0003:0001b70c       ??_C@_0BJ@IJOBNPHA@WSOLA?5need?5erase?5buffer?$CB?$AA@ 0059170c     pjmedia-i386-win32-vc8-debug:wsola.obj
 0003:0001b72c       ??_C@_19KJFIAAFN@?$AAb?$AAu?$AAf?$AA2?$AA?$AA@ 0059172c     pjmedia-i386-win32-vc8-debug:wsola.obj
 0003:0001b738       ??_C@_1BC@NPKJGPLM@?$AA?$CK?$AAd?$AAe?$AAl?$AA_?$AAc?$AAn?$AAt?$AA?$AA@ 00591738     pjmedia-i386-win32-vc8-debug:wsola.obj
 0003:0001b750       ??_C@_1EK@EPLDJPJP@?$AAw?$AAs?$AAo?$AAl?$AAa?$AA?5?$AA?$CG?$AA?$CG?$AA?5?$AAb?$AAu?$AAf?$AA1?$AA?5?$AA?$CG?$AA?$CG?$AA?5?$AAb?$AAu?$AAf?$AA1?$AA_?$AAc?$AAn?$AAt?$AA?5?$AA?$CG?$AA?$CG?$AA?5?$AAd?$AAe?$AAl@ 00591750     pjmedia-i386-win32-vc8-debug:wsola.obj
 0003:0001b7a8       ??_C@_0BI@JNCDFEKK@error?5while?5using?5pfkey?$AA@ 005917a8     pjmedia-i386-win32-vc8-debug:transport_srtp.obj
 0003:0001b7c4       ??_C@_0BN@OEPMNKMP@error?5while?5using?5semaphores?$AA@ 005917c4     pjmedia-i386-win32-vc8-debug:transport_srtp.obj
 0003:0001b7e8       ??_C@_0BE@FFKLLGEP@error?5encoding?5data?$AA@ 005917e8     pjmedia-i386-win32-vc8-debug:transport_srtp.obj
 0003:0001b800       ??_C@_0BD@PIIFGNCP@error?5pasring?5data?$AA@ 00591800     pjmedia-i386-win32-vc8-debug:transport_srtp.obj
 0003:0001b818       ??_C@_0BE@PIHIJLHG@couldn?8t?5write?5data?$AA@ 00591818     pjmedia-i386-win32-vc8-debug:transport_srtp.obj
 0003:0001b830       ??_C@_0BD@FCFDDPHP@couldn?8t?5read?5data?$AA@ 00591830     pjmedia-i386-win32-vc8-debug:transport_srtp.obj
 0003:0001b848       ??_C@_0BD@HFMCMINA@nonce?5check?5failed?$AA@ 00591848     pjmedia-i386-win32-vc8-debug:transport_srtp.obj
 0003:0001b860       ??_C@_0BL@DJFHEKEC@error?5in?5use?5POSIX?5signals?$AA@ 00591860     pjmedia-i386-win32-vc8-debug:transport_srtp.obj
 0003:0001b880       ??_C@_0BH@CDHGOGDE@error?5in?5use?5of?5socket?$AA@ 00591880     pjmedia-i386-win32-vc8-debug:transport_srtp.obj
 0003:0001b89c       ??_C@_0BH@NKHPNDDN@can?8t?5use?5key?5any?5more?$AA@ 0059189c     pjmedia-i386-win32-vc8-debug:transport_srtp.obj
 0003:0001b8b8       ??_C@_0CF@DOHHPHGD@unable?5to?5perform?5desired?5valida@ 005918b8     pjmedia-i386-win32-vc8-debug:transport_srtp.obj
 0003:0001b8e4       ??_C@_0BN@PDJKDLOF@no?5appropriate?5context?5found?$AA@ 005918e4     pjmedia-i386-win32-vc8-debug:transport_srtp.obj
 0003:0001b908       ??_C@_0BG@JKFIFBMN@unsupported?5operation?$AA@ 00591908     pjmedia-i386-win32-vc8-debug:transport_srtp.obj
 0003:0001b924       ??_C@_0BO@KLFALCF@algorithm?5failed?5test?5routine?$AA@ 00591924     pjmedia-i386-win32-vc8-debug:transport_srtp.obj
 0003:0001b948       ??_C@_0CE@GCMJOMFK@replay?5check?5failed?5?$CIindex?5too?5o@ 00591948     pjmedia-i386-win32-vc8-debug:transport_srtp.obj
 0003:0001b974       ??_C@_0CA@LIFPFHJ@replay?5check?5failed?5?$CIbad?5index?$CJ?$AA@ 00591974     pjmedia-i386-win32-vc8-debug:transport_srtp.obj
 0003:0001b99c       ??_C@_0P@MHOCHBCE@cipher?5failure?$AA@ 0059199c     pjmedia-i386-win32-vc8-debug:transport_srtp.obj
 0003:0001b9b0       ??_C@_0BH@DJJHFLDI@authentication?5failure?$AA@ 005919b0     pjmedia-i386-win32-vc8-debug:transport_srtp.obj
 0003:0001b9cc       ??_C@_0CI@FEPPFOBO@can?8t?5process?5as?5much?5data?5as?5re@ 005919cc     pjmedia-i386-win32-vc8-debug:transport_srtp.obj
 0003:0001b9fc       ??_C@_0BE@KBPICNEA@couldn?8t?5initialize?$AA@ 005919fc     pjmedia-i386-win32-vc8-debug:transport_srtp.obj
 0003:0001ba14       ??_C@_0BN@LJIJFBAJ@couldn?8t?5deallocate?5properly?$AA@ 00591a14     pjmedia-i386-win32-vc8-debug:transport_srtp.obj
 0003:0001ba38       ??_C@_0BJ@DGLNBGGB@couldn?8t?5allocate?5memory?$AA@ 00591a38     pjmedia-i386-win32-vc8-debug:transport_srtp.obj
 0003:0001ba58       ??_C@_0BG@LENPEKHL@unsupported?5parameter?$AA@ 00591a58     pjmedia-i386-win32-vc8-debug:transport_srtp.obj
 0003:0001ba74       ??_C@_0BE@KFOIPNMM@unspecified?5failure?$AA@ 00591a74     pjmedia-i386-win32-vc8-debug:transport_srtp.obj
 0003:0001ba8c       ??_C@_02MFDMBIJM@ok?$AA@   00591a8c     pjmedia-i386-win32-vc8-debug:transport_srtp.obj
 0003:0001ba90       ??_C@_0BI@NOFEHABG@AES_CM_128_HMAC_SHA1_32?$AA@ 00591a90     pjmedia-i386-win32-vc8-debug:transport_srtp.obj
 0003:0001baac       ??_C@_0BI@OADHPNHF@AES_CM_128_HMAC_SHA1_80?$AA@ 00591aac     pjmedia-i386-win32-vc8-debug:transport_srtp.obj
 0003:0001bac8       ??_C@_06LAEHEPPF@crypto?$AA@ 00591ac8     pjmedia-i386-win32-vc8-debug:transport_srtp.obj
 0003:0001baf8       ??_C@_0BJ@BOBCJFAN@Unknown?5libsrtp?5error?5?$CFd?$AA@ 00591af8     pjmedia-i386-win32-vc8-debug:transport_srtp.obj
 0003:0001bb18       ??_C@_0CD@JOBKHEBK@Failed?5to?5register?5libsrtp?5deini@ 00591b18     pjmedia-i386-win32-vc8-debug:transport_srtp.obj
 0003:0001bb44       ??_C@_0BB@HGEADDBB@transport_srtp?4c?$AA@ 00591b44     pjmedia-i386-win32-vc8-debug:transport_srtp.obj
 0003:0001bb58       ??_C@_0CB@KJOFGAC@Failed?5to?5initialize?5libsrtp?3?5?$CFs@ 00591b58     pjmedia-i386-win32-vc8-debug:transport_srtp.obj
 0003:0001bb80       ??_C@_0CD@EDFIBBCB@Failed?5to?5deinitialize?5libsrtp?3?5@ 00591b80     pjmedia-i386-win32-vc8-debug:transport_srtp.obj
 0003:0001bbac       ??_C@_17HMGJKIIL@?$AAo?$AAp?$AAt?$AA?$AA@ 00591bac     pjmedia-i386-win32-vc8-debug:transport_srtp.obj
 0003:0001bbb8       ??_C@_1HI@INLAJBIN@?$AAd?$AA?3?$AA?2?$AAm?$AAy?$AAg?$AAi?$AAt?$AA?2?$AAp?$AAj?$AAp?$AAr?$AAo?$AAj?$AAe?$AAc?$AAt?$AA?9?$AA1?$AA?4?$AA4?$AA?2?$AAp?$AAj?$AAm?$AAe?$AAd?$AAi?$AAa?$AA?2?$AAs@ 00591bb8     pjmedia-i386-win32-vc8-debug:transport_srtp.obj
 0003:0001bc48       ??_C@_06IPCNFNJD@srtp?$CFp?$AA@ 00591c48     pjmedia-i386-win32-vc8-debug:transport_srtp.obj
 0003:0001bc50       ??_C@_1CI@IBFHDBIO@?$AAe?$AAn?$AAd?$AAp?$AAt?$AA?5?$AA?$CG?$AA?$CG?$AA?5?$AAt?$AAp?$AA?5?$AA?$CG?$AA?$CG?$AA?5?$AAp?$AA_?$AAt?$AAp?$AA?$AA@ 00591c50     pjmedia-i386-win32-vc8-debug:transport_srtp.obj
 0003:0001bc80       ??_C@_0BA@ENEHOOPC@RX?3?5disable?$CFs?$CFs?$AA@ 00591c80     pjmedia-i386-win32-vc8-debug:transport_srtp.obj
 0003:0001bc94       ??_C@_0O@EHJJODHO@RX?3?5?$CFs?5key?$DN?$CFs?$AA@ 00591c94     pjmedia-i386-win32-vc8-debug:transport_srtp.obj
 0003:0001bca4       ??_C@_0BA@BONGIHBG@TX?3?5disable?$CFs?$CFs?$AA@ 00591ca4     pjmedia-i386-win32-vc8-debug:transport_srtp.obj
 0003:0001bcb8       ??_C@_04PIHNPOJJ@?5enc?$AA@ 00591cb8     pjmedia-i386-win32-vc8-debug:transport_srtp.obj
 0003:0001bcc0       ??_C@_05EPPOHEBK@?5auth?$AA@ 00591cc0     pjmedia-i386-win32-vc8-debug:transport_srtp.obj
 0003:0001bcc8       ??_C@_0O@LPFLKIMI@TX?3?5?$CFs?5key?$DN?$CFs?$AA@ 00591cc8     pjmedia-i386-win32-vc8-debug:transport_srtp.obj
 0003:0001bcd8       ??_C@_1BO@OBDHBCGG@?$AAt?$AAp?$AA?5?$AA?$CG?$AA?$CG?$AA?5?$AAt?$AAx?$AA?5?$AA?$CG?$AA?$CG?$AA?5?$AAr?$AAx?$AA?$AA@ 00591cd8     pjmedia-i386-win32-vc8-debug:transport_srtp.obj
 0003:0001bcfc       ??_C@_0CG@CHCMAIDE@Failed?5to?5dealloc?5TX?5SRTP?5contex@ 00591cfc     pjmedia-i386-win32-vc8-debug:transport_srtp.obj
 0003:0001bd2c       ??_C@_0CG@KDAPJFOB@Failed?5to?5dealloc?5RX?5SRTP?5contex@ 00591d2c     pjmedia-i386-win32-vc8-debug:transport_srtp.obj
 0003:0001bd5c       ??_C@_19BEPCNALE@?$AAs?$AAr?$AAt?$AAp?$AA?$AA@ 00591d5c     pjmedia-i386-win32-vc8-debug:transport_srtp.obj
 0003:0001bd68       ??_C@_1DI@NHMPMOHF@?$AAi?$AAn?$AAf?$AAo?$AA?9?$AA?$DO?$AAs?$AAp?$AAe?$AAc?$AAi?$AAf?$AAi?$AAc?$AA_?$AAi?$AAn?$AAf?$AAo?$AA_?$AAc?$AAn?$AAt?$AA?5?$AA?$DM?$AA?5?$AA4?$AA?$AA@ 00591d68     pjmedia-i386-win32-vc8-debug:transport_srtp.obj
 0003:0001bdac       ??_C@_0CO@EDHKLEPP@Failed?5to?5unprotect?5SRTP?0?5pkt?5si@ 00591dac     pjmedia-i386-win32-vc8-debug:transport_srtp.obj
 0003:0001bde4       ??_C@_0BP@CAGNCNCA@Failed?5to?5restart?5SRTP?0?5err?$DN?$CFs?$AA@ 00591de4     pjmedia-i386-win32-vc8-debug:transport_srtp.obj
 0003:0001be0c       ??_C@_1DA@ECGHFHEH@?$AA?$CI?$AA?$CI?$AA?$CI?$AAl?$AAo?$AAn?$AAg?$AA?$CJ?$AAp?$AAk?$AAt?$AA?$CJ?$AA?5?$AA?$CG?$AA?5?$AA0?$AAx?$AA0?$AA3?$AA?$CJ?$AA?$DN?$AA?$DN?$AA0?$AA?$AA@ 00591e0c     pjmedia-i386-win32-vc8-debug:transport_srtp.obj
 0003:0001be48       ??_C@_0CP@OAIPELPD@Failed?5to?5unprotect?5SRTCP?0?5pkt?5s@ 00591e48     pjmedia-i386-win32-vc8-debug:transport_srtp.obj
 0003:0001be80       ??_C@_1DG@DDFOJFNA@?$AA?$CB?$AA?$CC?$AAS?$AAh?$AAo?$AAu?$AAl?$AAd?$AA?5?$AAn?$AAe?$AAv?$AAe?$AAr?$AA?5?$AAr?$AAe?$AAa?$AAc?$AAh?$AA?5?$AAh?$AAe?$AAr?$AAe?$AA?$CC?$AA?$AA@ 00591e80     pjmedia-i386-win32-vc8-debug:transport_srtp.obj
 0003:0001bec0       ??_C@_0BI@MOAPCAF@Should?5never?5reach?5here?$AA@ 00591ec0     pjmedia-i386-win32-vc8-debug:transport_srtp.obj
 0003:0001bedc       ??_C@_1CI@PICKKBLK@?$AAs?$AAd?$AAp?$AA_?$AAr?$AAe?$AAm?$AAo?$AAt?$AAe?$AA?5?$AA?$CG?$AA?$CG?$AA?5?$AAm?$AA_?$AAr?$AAe?$AAm?$AA?$AA@ 00591edc     pjmedia-i386-win32-vc8-debug:transport_srtp.obj
 0003:0001bf0c       ??_C@_1DI@FKNKINIE@?$AAt?$AAp?$AA?5?$AA?$CG?$AA?$CG?$AA?5?$AAs?$AAd?$AAp?$AA_?$AAp?$AAo?$AAo?$AAl?$AA?5?$AA?$CG?$AA?$CG?$AA?5?$AAs?$AAd?$AAp?$AA_?$AAl?$AAo?$AAc?$AAa?$AAl?$AA?$AA@ 00591f0c     pjmedia-i386-win32-vc8-debug:transport_srtp.obj
 0003:0001bf50       ??_C@_0BA@OGAKIHAO@?$CFd?5?$CFs?5inline?3?$CFs?$AA@ 00591f50     pjmedia-i386-win32-vc8-debug:transport_srtp.obj
 0003:0001bf68       ??_C@_1GM@GMFMOBNN@?$AA?$CK?$AAb?$AAu?$AAf?$AAf?$AAe?$AAr?$AA_?$AAl?$AAe?$AAn?$AA?5?$AA?$DO?$AA?$DN?$AA?5?$AA?$CI?$AAc?$AAr?$AAy?$AAp?$AAt?$AAo?$AA?9?$AA?$DO?$AAn?$AAa?$AAm?$AAe?$AA?4?$AAs?$AAl?$AAe@ 00591f68     pjmedia-i386-win32-vc8-debug:transport_srtp.obj
 0003:0001bfec       ??_C@_0CE@BAIPFCEP@Failed?5encoding?5plain?5key?5to?5bas@ 00591fec     pjmedia-i386-win32-vc8-debug:transport_srtp.obj
 0003:0001c018       ??_C@_0CB@DDJJDFFB@Failed?5generating?5random?5key?3?5?$CFs@ 00592018     pjmedia-i386-win32-vc8-debug:transport_srtp.obj
 0003:0001c040       ??_C@_1FG@MFJEMHJF@?$AA3?$AA2?$AA?5?$AA?$DO?$AA?$DN?$AA?5?$AAc?$AAr?$AAy?$AAp?$AAt?$AAo?$AA_?$AAs?$AAu?$AAi?$AAt?$AAe?$AAs?$AA?$FL?$AAc?$AAs?$AA_?$AAi?$AAd?$AAx?$AA?$FN?$AA?4?$AAc?$AAi?$AAp?$AAh@ 00592040     pjmedia-i386-win32-vc8-debug:transport_srtp.obj
 0003:0001c0a8       ??_C@_0CH@PPONEAL@Failed?5decoding?5crypto?5key?5from?5@ 005920a8     pjmedia-i386-win32-vc8-debug:transport_srtp.obj
 0003:0001c0d8       ??_C@_0N@FJKIJMGM@Key?5too?5long?$AA@ 005920d8     pjmedia-i386-win32-vc8-debug:transport_srtp.obj
 0003:0001c0e8       ??_C@_0BP@FKKPLPLE@Attribute?5crypto?5expecting?5key?$AA@ 005920e8     pjmedia-i386-win32-vc8-debug:transport_srtp.obj
 0003:0001c110       ??_C@_02MINBJDHL@?$HM?5?$AA@ 00592110     pjmedia-i386-win32-vc8-debug:transport_srtp.obj
 0003:0001c114       ??_C@_0DA@ONAGIJJE@Attribute?5crypto?5key?5method?5?8?$CFs?8@ 00592114     pjmedia-i386-win32-vc8-debug:transport_srtp.obj
 0003:0001c150       ??_C@_06OGMBMJA@inline?$AA@ 00592150     pjmedia-i386-win32-vc8-debug:transport_srtp.obj
 0003:0001c158       ??_C@_0CG@JCJFEHFF@Attribute?5crypto?5expecting?5key?5m@ 00592158     pjmedia-i386-win32-vc8-debug:transport_srtp.obj
 0003:0001c188       ??_C@_0CI@IIDGBGP@Attribute?5crypto?5expecting?5crypt@ 00592188     pjmedia-i386-win32-vc8-debug:transport_srtp.obj
 0003:0001c1b8       ??_C@_0BP@IBJNGPHO@Attribute?5crypto?5expecting?5tag?$AA@ 005921b8     pjmedia-i386-win32-vc8-debug:transport_srtp.obj
 0003:0001c1e0       ??_C@_1EM@GOCGNPBL@?$AAt?$AAp?$AA?5?$AA?$CG?$AA?$CG?$AA?5?$AAp?$AAo?$AAo?$AAl?$AA?5?$AA?$CG?$AA?$CG?$AA?5?$AAs?$AAd?$AAp?$AA_?$AAl?$AAo?$AAc?$AAa?$AAl?$AA?5?$AA?$CG?$AA?$CG?$AA?5?$AAs?$AAd?$AAp?$AA_?$AAr@ 005921e0     pjmedia-i386-win32-vc8-debug:transport_srtp.obj
 0003:0001c23c       ??_C@_0CN@IMPBKLBH@SRTP?5failed?5stop?5underlying?5medi@ 0059223c     pjmedia-i386-win32-vc8-debug:transport_srtp.obj
 0003:0001c274       ??_C@_1CK@KNFDBKGE@?$AAs?$AAr?$AAt?$AAp?$AA?9?$AA?$DO?$AAs?$AAe?$AAs?$AAs?$AAi?$AAo?$AAn?$AA_?$AAi?$AAn?$AAi?$AAt?$AAe?$AAd?$AA?$AA@ 00592274     pjmedia-i386-win32-vc8-debug:transport_srtp.obj
 0003:0001c2a8       ??_C@_1DE@DOJDHBHH@?$AAt?$AAp?$AA?5?$AA?$CG?$AA?$CG?$AA?5?$AAp?$AAk?$AAt?$AA?5?$AA?$CG?$AA?$CG?$AA?5?$AA?$CI?$AA?$CK?$AAp?$AAk?$AAt?$AA_?$AAl?$AAe?$AAn?$AA?$DO?$AA0?$AA?$CJ?$AA?$AA@ 005922a8     pjmedia-i386-win32-vc8-debug:transport_srtp.obj
 0003:0001c2e8       ??_C@_1CE@PBMONEOD@?$AAp?$AAo?$AAo?$AAl?$AA?5?$AA?$CG?$AA?$CG?$AA?5?$AAf?$AAr?$AAa?$AAm?$AAe?$AAl?$AAi?$AAs?$AAt?$AA?$AA@ 005922e8     pjmedia-i386-win32-vc8-debug:jbuf.obj
 0003:0001c318       ??_C@_1GE@PLPGBGNJ@?$AAd?$AA?3?$AA?2?$AAm?$AAy?$AAg?$AAi?$AAt?$AA?2?$AAp?$AAj?$AAp?$AAr?$AAo?$AAj?$AAe?$AAc?$AAt?$AA?9?$AA1?$AA?4?$AA4?$AA?2?$AAp?$AAj?$AAm?$AAe?$AAd?$AAi?$AAa?$AA?2?$AAs@ 00592318     pjmedia-i386-win32-vc8-debug:jbuf.obj
 0003:0001c390       ??_C@_1DK@BALFONBN@?$AAp?$AAr?$AAe?$AAf?$AAe?$AAt?$AAc?$AAh?$AA?5?$AA?$DM?$AA?$DN?$AA?5?$AAj?$AAb?$AA?9?$AA?$DO?$AAj?$AAb?$AA_?$AAm?$AAa?$AAx?$AA_?$AAc?$AAo?$AAu?$AAn?$AAt?$AA?$AA@ 00592390     pjmedia-i386-win32-vc8-debug:jbuf.obj
 0003:0001c3d8       ??_C@_15HGHNENOI@?$AAj?$AAb?$AA?$AA@ 005923d8     pjmedia-i386-win32-vc8-debug:jbuf.obj
 0003:0001c3e0       ??_C@_1LI@DBBHCEEC@?$AAm?$AAi?$AAn?$AA_?$AAp?$AAr?$AAe?$AAf?$AAe?$AAt?$AAc?$AAh?$AA?5?$AA?$DM?$AA?5?$AAm?$AAa?$AAx?$AA_?$AAp?$AAr?$AAe?$AAf?$AAe?$AAt?$AAc?$AAh?$AA?5?$AA?$CG?$AA?$CG?$AA?5?$AAp@ 005923e0     pjmedia-i386-win32-vc8-debug:jbuf.obj
 0003:0001c4c0       ??_C@_0JP@HJEAJNM@JB?5summary?3?6?5?5size?$DN?$CFd?5prefetch?$DN?$CF@ 005924c0     pjmedia-i386-win32-vc8-debug:jbuf.obj
 0003:0001c580       ??_C@_0BH@ICPPMPH@PUT?5prefetch_cnt?$DN?$CFd?1?$CFd?$AA@ 00592580     pjmedia-i386-win32-vc8-debug:jbuf.obj
 0003:0001c59c       ??_C@_1BK@JAFBLAMM@?$AAd?$AAi?$AAs?$AAt?$AAa?$AAn?$AAc?$AAe?$AA?5?$AA?$DO?$AA?5?$AA0?$AA?$AA@ 0059259c     pjmedia-i386-win32-vc8-debug:jbuf.obj
 0003:0001c5bc       ??_C@_0DK@BHBFBPAF@Discarding?5frame?5?$CD?$CFd?3?5eff?$DN?$CFd?5dis@ 005925bc     pjmedia-i386-win32-vc8-debug:jbuf.obj
 0003:0001c604       ??_C@_1DK@HPMOAJDG@?$AAf?$AAr?$AAa?$AAm?$AAe?$AAl?$AAi?$AAs?$AAt?$AA?9?$AA?$DO?$AAd?$AAi?$AAs?$AAc?$AAa?$AAr?$AAd?$AAe?$AAd?$AA_?$AAn?$AAu?$AAm?$AA?5?$AA?$DO?$AA?5?$AA0?$AA?$AA@ 00592604     pjmedia-i386-win32-vc8-debug:jbuf.obj
 0003:0001c64c       ??_C@_1DM@PLEDDNM@?$AAf?$AAr?$AAa?$AAm?$AAe?$AAl?$AAi?$AAs?$AAt?$AA?9?$AA?$DO?$AAd?$AAi?$AAs?$AAc?$AAa?$AAr?$AAd?$AAe?$AAd?$AA_?$AAn?$AAu?$AAm?$AA?5?$AA?$DN?$AA?$DN?$AA?5?$AA0?$AA?$AA@ 0059264c     pjmedia-i386-win32-vc8-debug:jbuf.obj
 0003:0001c698       ??_C@_1EI@FPPKPGDK@?$AAf?$AAr?$AAa?$AAm?$AAe?$AA_?$AAs?$AAi?$AAz?$AAe?$AA?5?$AA?$DM?$AA?$DN?$AA?5?$AAf?$AAr?$AAa?$AAm?$AAe?$AAl?$AAi?$AAs?$AAt?$AA?9?$AA?$DO?$AAf?$AAr?$AAa?$AAm?$AAe?$AA_?$AAs@ 00592698     pjmedia-i386-win32-vc8-debug:jbuf.obj
 0003:0001c6f0       ??_C@_0CG@IOOLCNIE@jb?5updated?$CI2?$CJ?0?5lvl?$DN?$CFd?5pre?$DN?$CFd?0?5si@ 005926f0     pjmedia-i386-win32-vc8-debug:jbuf.obj
 0003:0001c720       ??_C@_0CG@DNHPAAEH@jb?5updated?$CI1?$CJ?0?5lvl?$DN?$CFd?5pre?$DN?$CFd?0?5si@ 00592720     pjmedia-i386-win32-vc8-debug:jbuf.obj
 0003:0001c750       ??_C@_0BH@NGBDKIFE@GET?5prefetch_cnt?$DN?$CFd?1?$CFd?$AA@ 00592750     pjmedia-i386-win32-vc8-debug:jbuf.obj
 0003:0001c76c       ??_C@_1BI@PPDBJPP@?$AAj?$AAb?$AA?5?$AA?$CG?$AA?$CG?$AA?5?$AAs?$AAt?$AAa?$AAt?$AAe?$AA?$AA@ 0059276c     pjmedia-i386-win32-vc8-debug:jbuf.obj
 0003:0001c788       ??_C@_03CPEGOAOM@pcm?$AA@  00592788     pjmedia-i386-win32-vc8-debug:port.obj
 0003:0001c78c       ??_C@_1BM@GBCEPKLE@?$AAp?$AAo?$AAr?$AAt?$AA?5?$AA?$CG?$AA?$CG?$AA?5?$AAf?$AAr?$AAa?$AAm?$AAe?$AA?$AA@ 0059278c     pjmedia-i386-win32-vc8-debug:port.obj
 0003:0001c7b0       ??_C@_1GE@NJONMOP@?$AAd?$AA?3?$AA?2?$AAm?$AAy?$AAg?$AAi?$AAt?$AA?2?$AAp?$AAj?$AAp?$AAr?$AAo?$AAj?$AAe?$AAc?$AAt?$AA?9?$AA1?$AA?4?$AA4?$AA?2?$AAp?$AAj?$AAm?$AAe?$AAd?$AAi?$AAa?$AA?2?$AAs@ 005927b0     pjmedia-i386-win32-vc8-debug:port.obj
 0003:0001c828       ??_C@_19EBEADLAH@?$AAp?$AAo?$AAr?$AAt?$AA?$AA@ 00592828     pjmedia-i386-win32-vc8-debug:port.obj
 0003:0001c834       ??_C@_0CH@JNBFBBKA@Connection?5lost?5?$CIPJLIB_UTIL_EHTT@ 00592834     pjlib-util-i386-win32-vc8-debug:errno.obj
 0003:0001c864       ??_C@_0CN@MKMAKFDH@Insufficient?5buffer?5?$CIPJLIB_UTIL_@ 00592864     pjlib-util-i386-win32-vc8-debug:errno.obj
 0003:0001c89c       ??_C@_0DN@CABCKELB@Incomplete?5response?5header?5recei@ 0059289c     pjlib-util-i386-win32-vc8-debug:errno.obj
 0003:0001c8e8       ??_C@_0DB@BDFJPAOA@Invalid?5URL?5port?5number?5?$CIPJLIB_U@ 005928e8     pjlib-util-i386-win32-vc8-debug:errno.obj
 0003:0001c924       ??_C@_0CL@GOOAEBLJ@Invalid?5URL?5format?5?$CIPJLIB_UTIL_E@ 00592924     pjlib-util-i386-win32-vc8-debug:errno.obj
 0003:0001c958       ??_C@_0EF@HAPLEMIK@STUN?5transaction?5terminates?5with@ 00592958     pjlib-util-i386-win32-vc8-debug:errno.obj
 0003:0001c9b0       ??_C@_0EB@FGOGNHPO@Missing?1stale?5STUN?5NONCE?5attribu@ 005929b0     pjlib-util-i386-win32-vc8-debug:errno.obj
 0003:0001ca00       ??_C@_0DH@MMHMOPBG@Missing?5STUN?5REALM?5attribute?5?$CIPJ@ 00592a00     pjlib-util-i386-win32-vc8-debug:errno.obj
 0003:0001ca44       ??_C@_0DJ@BCFNCGF@Found?5duplicate?5STUN?5attribute?5?$CI@ 00592a44     pjlib-util-i386-win32-vc8-debug:errno.obj
 0003:0001ca88       ??_C@_0EK@LMHKLKC@Missing?1invalid?5STUN?5MESSAGE?9INT@ 00592a88     pjlib-util-i386-win32-vc8-debug:errno.obj
 0003:0001cae0       ??_C@_0DN@JLMAJAKN@Missing?5STUN?5USERNAME?5attribute?5@ 00592ae0     pjlib-util-i386-win32-vc8-debug:errno.obj
 0003:0001cb30       ??_C@_0ED@CNMDGMPD@Found?5STUN?5attribute?5after?5FINGE@ 00592b30     pjlib-util-i386-win32-vc8-debug:errno.obj
 0003:0001cb80       ??_C@_0FA@DIAPLEFD@Found?5non?9FINGERPRINT?5attr?4?5afte@ 00592b80     pjlib-util-i386-win32-vc8-debug:errno.obj
 0003:0001cbe0       ??_C@_0EI@BNLBFIKH@Unable?5to?5find?5STUN?5handler?5for?5@ 00592be0     pjlib-util-i386-win32-vc8-debug:errno.obj
 0003:0001cc38       ??_C@_0DJ@DDEJFFIL@STUN?5transaction?5ID?5mismatch?5?$CIPJ@ 00592c38     pjlib-util-i386-win32-vc8-debug:errno.obj
 0003:0001cc7c       ??_C@_0DO@LEKPMIHP@Expecting?5STUN?5response?5message?5@ 00592c7c     pjlib-util-i386-win32-vc8-debug:errno.obj
 0003:0001ccc8       ??_C@_0EA@NAKPKGDE@STUN?5IPv6?5attribute?5not?5supporte@ 00592cc8     pjlib-util-i386-win32-vc8-debug:errno.obj
 0003:0001cd14       ??_C@_0DP@PDBNFLFH@Invalid?5STUN?5socket?5address?5leng@ 00592d14     pjlib-util-i386-win32-vc8-debug:errno.obj
 0003:0001cd60       ??_C@_0DF@KMIPDCMM@Unknown?5STUN?5attribute?5?$CIPJLIB_UT@ 00592d60     pjlib-util-i386-win32-vc8-debug:errno.obj
 0003:0001cda0       ??_C@_0DH@EMGNELGL@Too?5many?5STUN?5attributes?5?$CIPJLIB_@ 00592da0     pjlib-util-i386-win32-vc8-debug:errno.obj
 0003:0001cde8       ??_C@_0EB@GKEHOPAE@DNS?5?$CCThe?5zone?5specified?5is?5not?5a@ 00592de8     pjlib-util-i386-win32-vc8-debug:errno.obj
 0003:0001ce38       ??_C@_0CP@HJODAHHO@DNS?5?$CCNot?5authorized?$CC?5?$CIPJLIB_UTIL@ 00592e38     pjlib-util-i386-win32-vc8-debug:errno.obj
 0003:0001ce70       ??_C@_0EG@OMHMBNML@DNS?5?$CCThe?5RRset?5?$CIname?0?5type?$CJ?5does@ 00592e70     pjlib-util-i386-win32-vc8-debug:errno.obj
 0003:0001cec4       ??_C@_0DO@OIIHMCI@DNS?5?$CCThe?5RRset?5?$CIname?0?5type?$CJ?5exis@ 00592ec4     pjlib-util-i386-win32-vc8-debug:errno.obj
 0003:0001cf10       ??_C@_0DB@PFAMNHPJ@DNS?5?$CCThe?5name?5exists?$CC?5?$CIPJLIB_UTI@ 00592f10     pjlib-util-i386-win32-vc8-debug:errno.obj
 0003:0001cf4c       ??_C@_0CI@LDMKLLKJ@DNS?5?$CCRefused?$CC?5?$CIPJLIB_UTIL_EDNS_R@ 00592f4c     pjlib-util-i386-win32-vc8-debug:errno.obj
 0003:0001cf7c       ??_C@_0DA@DIMDKHPM@DNS?5?$CCNot?5Implemented?$CC?5?$CIPJLIB_UTI@ 00592f7c     pjlib-util-i386-win32-vc8-debug:errno.obj
 0003:0001cfb8       ??_C@_0CM@CNNJNBCA@DNS?5?$CCName?5Error?$CC?5?$CIPJLIB_UTIL_EDN@ 00592fb8     pjlib-util-i386-win32-vc8-debug:errno.obj
 0003:0001cfec       ??_C@_0DA@NBPIIAHM@DNS?5?$CCServer?5failure?$CC?5?$CIPJLIB_UTIL@ 00592fec     pjlib-util-i386-win32-vc8-debug:errno.obj
 0003:0001d028       ??_C@_0CN@BCAAPMPM@DNS?5?$CCFormat?5error?$CC?5?$CIPJLIB_UTIL_E@ 00593028     pjlib-util-i386-win32-vc8-debug:errno.obj
 0003:0001d060       ??_C@_0CN@DEFBDJKF@Invalid?5DNS?5answer?5?$CIPJLIB_UTIL_E@ 00593060     pjlib-util-i386-win32-vc8-debug:errno.obj
 0003:0001d098       ??_C@_0EC@HJFBNLFC@No?5answer?5record?5in?5the?5DNS?5resp@ 00593098     pjlib-util-i386-win32-vc8-debug:errno.obj
 0003:0001d0e8       ??_C@_0DH@PHJBLCKD@No?5working?5DNS?5nameserver?5?$CIPJLIB@ 005930e8     pjlib-util-i386-win32-vc8-debug:errno.obj
 0003:0001d12c       ??_C@_0DH@LFJGDOHB@No?5nameserver?5is?5in?5DNS?5resolver@ 0059312c     pjlib-util-i386-win32-vc8-debug:errno.obj
 0003:0001d170       ??_C@_0DJ@NBOGGJL@Invalid?5DNS?5nameserver?5address?5?$CI@ 00593170     pjlib-util-i386-win32-vc8-debug:errno.obj
 0003:0001d1b4       ??_C@_0DE@FIPILDGP@Invalid?5DNS?5name?5pointer?5?$CIPJLIB_@ 005931b4     pjlib-util-i386-win32-vc8-debug:errno.obj
 0003:0001d1f4       ??_C@_0CL@OCFDFFNM@Invalid?5DNS?5class?5?$CIPJLIB_UTIL_ED@ 005931f4     pjlib-util-i386-win32-vc8-debug:errno.obj
 0003:0001d228       ??_C@_0DC@JFKHADAC@Invalid?5DNS?5packet?5length?5?$CIPJLIB@ 00593228     pjlib-util-i386-win32-vc8-debug:errno.obj
 0003:0001d268       ??_C@_0EC@KJLJANIE@DNS?5query?5packet?5buffer?5is?5too?5s@ 00593268     pjlib-util-i386-win32-vc8-debug:errno.obj
 0003:0001d2b8       ??_C@_0CI@OKGDIDF@Invalid?5XML?5message?5?$CIPJLIB_UTIL_@ 005932b8     pjlib-util-i386-win32-vc8-debug:errno.obj
 0003:0001d2e8       ??_C@_0DK@OILEGGA@Symetric?5NAT?5detected?5by?5STUN?5?$CIP@ 005932e8     pjlib-util-i386-win32-vc8-debug:errno.obj
 0003:0001d330       ??_C@_0ED@MIOBPJDH@Received?5no?5response?5from?5STUN?5s@ 00593330     pjlib-util-i386-win32-vc8-debug:errno.obj
 0003:0001d380       ??_C@_0DJ@BDPKKDEL@No?5STUN?5mapped?5address?5attribute@ 00593380     pjlib-util-i386-win32-vc8-debug:errno.obj
 0003:0001d3c4       ??_C@_0DM@JJJKHKHH@Received?5STUN?5error?5attribute?5?$CIP@ 005933c4     pjlib-util-i386-win32-vc8-debug:errno.obj
 0003:0001d410       ??_C@_0EE@OMBAKMPD@No?5STUN?5binding?5response?5in?5the?5@ 00593410     pjlib-util-i386-win32-vc8-debug:errno.obj
 0003:0001d464       ??_C@_0DL@JFEBBJAB@Invalid?5STUN?5server?1socket?5index@ 00593464     pjlib-util-i386-win32-vc8-debug:errno.obj
 0003:0001d4ac       ??_C@_0DJ@GEFJCPHI@Invalid?5STUN?5attribute?5type?5?$CIPJL@ 005934ac     pjlib-util-i386-win32-vc8-debug:errno.obj
 0003:0001d4f0       ??_C@_0DI@MNKBLDCO@STUN?5attribute?5length?5error?5?$CIPJL@ 005934f0     pjlib-util-i386-win32-vc8-debug:errno.obj
 0003:0001d534       ??_C@_0DH@BGLGMNML@Invalid?5STUN?5message?5length?5?$CIPJL@ 00593534     pjlib-util-i386-win32-vc8-debug:errno.obj
 0003:0001d578       ??_C@_0DG@MLIAHJMC@Unknown?5STUN?5message?5type?5?$CIPJLIB@ 00593578     pjlib-util-i386-win32-vc8-debug:errno.obj
 0003:0001d5b8       ??_C@_0DI@FPKNFLPC@Unable?5to?5resolve?5STUN?5server?5?$CIP@ 005935b8     pjlib-util-i386-win32-vc8-debug:errno.obj
 0003:0001d7ec       ??_C@_0BM@LDLEGOFO@Unknown?5pjlib?9util?5error?5?$CFd?$AA@ 005937ec     pjlib-util-i386-win32-vc8-debug:errno.obj
 0003:0001d810       ??_C@_02BAABKJLB@?9?9?$AA@ 00593810     pjlib-util-i386-win32-vc8-debug:getopt.obj
 0003:0001d814       ??_C@_1BG@BNCNGJJK@?$AAc?$AAs?$AAt?$AAa?$AAr?$AAt?$AA?5?$AA?$DO?$AA?5?$AA0?$AA?$AA@ 00593814     pjlib-util-i386-win32-vc8-debug:scanner.obj
 0003:0001d830       ??_C@_1HG@DBHLDMGJ@?$AAd?$AA?3?$AA?2?$AAm?$AAy?$AAg?$AAi?$AAt?$AA?2?$AAp?$AAj?$AAp?$AAr?$AAo?$AAj?$AAe?$AAc?$AAt?$AA?9?$AA1?$AA?4?$AA4?$AA?2?$AAp?$AAj?$AAl?$AAi?$AAb?$AA?9?$AAu?$AAt?$AAi@ 00593830     pjlib-util-i386-win32-vc8-debug:scanner.obj
 0003:0001d8c0       ??_C@_0DL@LPIJLIOP@d?3?2mygit?2pjproject?91?44?2pjlib?9uti@ 005938c0     pjlib-util-i386-win32-vc8-debug:scanner.obj
 0003:0001d908       ??_C@_1DA@FEHFDNDH@?$AAp?$AAj?$AA_?$AAc?$AAi?$AAs?$AA_?$AAm?$AAa?$AAt?$AAc?$AAh?$AA?$CI?$AAs?$AAp?$AAe?$AAc?$AA?0?$AA0?$AA?$CJ?$AA?$DN?$AA?$DN?$AA0?$AA?$AA@ 00593908     pjlib-util-i386-win32-vc8-debug:scanner.obj
 0003:0001d944       ??_C@_1DE@FFIKCEEP@?$AAp?$AAj?$AA_?$AAc?$AAi?$AAs?$AA_?$AAm?$AAa?$AAt?$AAc?$AAh?$AA?$CI?$AAs?$AAp?$AAe?$AAc?$AA?0?$AA?8?$AA?$CF?$AA?8?$AA?$CJ?$AA?$DN?$AA?$DN?$AA0?$AA?$AA@ 00593944     pjlib-util-i386-win32-vc8-debug:scanner.obj
 0003:0001d984       ??_C@_1BE@DNGPADLB@?$AAq?$AAs?$AAi?$AAz?$AAe?$AA?5?$AA?$DO?$AA?5?$AA0?$AA?$AA@ 00593984     pjlib-util-i386-win32-vc8-debug:scanner.obj
 0003:0001d99c       ??_C@_03KHCCLPOB@Bad?$AA@  0059399c     pjlib-util-i386-win32-vc8-debug:resolver.obj
 0003:0001d9a0       ??_C@_06MAFFGDO@Active?$AA@ 005939a0     pjlib-util-i386-win32-vc8-debug:resolver.obj
 0003:0001d9a8       ??_C@_07IAIHCIDD@Probing?$AA@ 005939a8     pjlib-util-i386-win32-vc8-debug:resolver.obj
 0003:0001d9b4       ??_C@_0L@LIJHCMPL@resolver?4c?$AA@ 005939b4     pjlib-util-i386-win32-vc8-debug:resolver.obj
 0003:0001d9c4       ??_C@_1CC@OFBCCIJI@?$AAp?$AAf?$AA?5?$AA?$CG?$AA?$CG?$AA?5?$AAp?$AA_?$AAr?$AAe?$AAs?$AAo?$AAl?$AAv?$AAe?$AAr?$AA?$AA@ 005939c4     pjlib-util-i386-win32-vc8-debug:resolver.obj
 0003:0001d9f0       ??_C@_1HI@EKACAEOL@?$AAd?$AA?3?$AA?2?$AAm?$AAy?$AAg?$AAi?$AAt?$AA?2?$AAp?$AAj?$AAp?$AAr?$AAo?$AAj?$AAe?$AAc?$AAt?$AA?9?$AA1?$AA?4?$AA4?$AA?2?$AAp?$AAj?$AAl?$AAi?$AAb?$AA?9?$AAu?$AAt?$AAi@ 005939f0     pjlib-util-i386-win32-vc8-debug:resolver.obj
 0003:0001da80       ??_C@_1BC@ODGDHABI@?$AAr?$AAe?$AAs?$AAo?$AAl?$AAv?$AAe?$AAr?$AA?$AA@ 00593a80     pjlib-util-i386-win32-vc8-debug:resolver.obj
 0003:0001da98       ??_C@_1BG@DBJIMINH@?$AAc?$AAo?$AAu?$AAn?$AAt?$AA?5?$AA?$DM?$AA?5?$AA1?$AA6?$AA?$AA@ 00593a98     pjlib-util-i386-win32-vc8-debug:resolver.obj
 0003:0001dab4       ??_C@_1DK@JOOBACGJ@?$AAr?$AAe?$AAs?$AAo?$AAl?$AAv?$AAe?$AAr?$AA?5?$AA?$CG?$AA?$CG?$AA?5?$AAc?$AAo?$AAu?$AAn?$AAt?$AA?5?$AA?$CG?$AA?$CG?$AA?5?$AAs?$AAe?$AAr?$AAv?$AAe?$AAr?$AAs?$AA?$AA@ 00593ab4     pjlib-util-i386-win32-vc8-debug:resolver.obj
 0003:0001dafc       ??_C@_1BO@CFOLJEAJ@?$AAr?$AAe?$AAs?$AAo?$AAl?$AAv?$AAe?$AAr?$AA?5?$AA?$CG?$AA?$CG?$AA?5?$AAs?$AAt?$AA?$AA@ 00593afc     pjlib-util-i386-win32-vc8-debug:resolver.obj
 0003:0001db20       ??_C@_0DE@LLACOPGB@Picked?5up?5DNS?5?$CFs?5record?5for?5?$CF?4?$CKs@ 00593b20     pjlib-util-i386-win32-vc8-debug:resolver.obj
 0003:0001db60       ??_C@_1DE@BCKLCGBP@?$AAt?$AAy?$AAp?$AAe?$AA?5?$AA?$DO?$AA?5?$AA0?$AA?5?$AA?$CG?$AA?$CG?$AA?5?$AAt?$AAy?$AAp?$AAe?$AA?5?$AA?$DM?$AA?5?$AA0?$AAx?$AAF?$AAF?$AAF?$AAF?$AA?$AA@ 00593b60     pjlib-util-i386-win32-vc8-debug:resolver.obj
 0003:0001dba0       ??_C@_1EG@EMHOAJBD@?$AAn?$AAa?$AAm?$AAe?$AA?9?$AA?$DO?$AAs?$AAl?$AAe?$AAn?$AA?$DO?$AA0?$AA?5?$AA?$CG?$AA?$CG?$AA?5?$AAn?$AAa?$AAm?$AAe?$AA?9?$AA?$DO?$AAs?$AAl?$AAe?$AAn?$AA?5?$AA?$DM?$AA?5?$AA?$CI?$AA1?$AA2@ 00593ba0     pjlib-util-i386-win32-vc8-debug:resolver.obj
 0003:0001dbf4       ??_C@_1DC@JIMKOFBN@?$AAr?$AAe?$AAs?$AAo?$AAl?$AAv?$AAe?$AAr?$AA?5?$AA?$CG?$AA?$CG?$AA?5?$AAn?$AAa?$AAm?$AAe?$AA?5?$AA?$CG?$AA?$CG?$AA?5?$AAt?$AAy?$AAp?$AAe?$AA?$AA@ 00593bf4     pjlib-util-i386-win32-vc8-debug:resolver.obj
 0003:0001dc30       ??_C@_0DC@PBGKNNLN@?$CFs?5?$CFd?5bytes?5to?5NS?5?$CFd?5?$CI?$CFs?3?$CFd?$CJ?3?5DN@ 00593c30     pjlib-util-i386-win32-vc8-debug:resolver.obj
 0003:0001dc6c       ??_C@_0BA@JFAGDHFD@Re?9transmitting?$AA@ 00593c6c     pjlib-util-i386-win32-vc8-debug:resolver.obj
 0003:0001dc80       ??_C@_0N@IBGJGPJN@Transmitting?$AA@ 00593c80     pjlib-util-i386-win32-vc8-debug:resolver.obj
 0003:0001dc90       ??_C@_1CO@ILJIFBPI@?$AAq?$AA?9?$AA?$DO?$AAt?$AAi?$AAm?$AAe?$AAr?$AA_?$AAe?$AAn?$AAt?$AAr?$AAy?$AA?4?$AAi?$AAd?$AA?5?$AA?$DN?$AA?$DN?$AA?5?$AA0?$AA?$AA@ 00593c90     pjlib-util-i386-win32-vc8-debug:resolver.obj
 0003:0001dcc8       ??_C@_1M@ODHDFHNE@?$AAq?$AAu?$AAe?$AAr?$AAy?$AA?$AA@ 00593cc8     pjlib-util-i386-win32-vc8-debug:resolver.obj
 0003:0001dcd8       ??_C@_1BG@GGFBPIED@?$AAp?$AAk?$AAt?$AA?5?$AA?$CG?$AA?$CG?$AA?5?$AAr?$AAe?$AAc?$AA?$AA@ 00593cd8     pjlib-util-i386-win32-vc8-debug:resolver.obj
 0003:0001dcf4       ??_C@_1BM@DEGOKKDC@?$AAm?$AAa?$AAx?$AA_?$AAc?$AAo?$AAu?$AAn?$AAt?$AA?5?$AA?$DO?$AA?5?$AA0?$AA?$AA@ 00593cf4     pjlib-util-i386-win32-vc8-debug:resolver.obj
 0003:0001dd18       ??_C@_0CJ@MMDCPKPE@Nameserver?5?$CFs?3?$CFd?5state?5changed?5?$CF@ 00593d18     pjlib-util-i386-win32-vc8-debug:resolver.obj
 0003:0001dd4c       ??_C@_0BP@GLADIPED@Error?5transmitting?5request?3?5?$CFs?$AA@ 00593d4c     pjlib-util-i386-win32-vc8-debug:resolver.obj
 0003:0001dd74       ??_C@_1CG@HGDGJNAK@?$AA?$CB?$AA?$CC?$AAU?$AAn?$AAh?$AAa?$AAn?$AAd?$AAl?$AAe?$AAd?$AA?5?$AAe?$AAr?$AAr?$AAo?$AAr?$AA?$CC?$AA?$AA@ 00593d74     pjlib-util-i386-win32-vc8-debug:resolver.obj
 0003:0001dda4       ??_C@_0BA@EBCKFBNG@Unhandled?5error?$AA@ 00593da4     pjlib-util-i386-win32-vc8-debug:resolver.obj
 0003:0001ddb8       ??_C@_0CE@JHMLGLFH@DNS?5resolver?5ioqueue?5read?5error?3@ 00593db8     pjlib-util-i386-win32-vc8-debug:resolver.obj
 0003:0001dde4       ??_C@_1CO@LGAKDAJO@?$AAq?$AA?9?$AA?$DO?$AAt?$AAi?$AAm?$AAe?$AAr?$AA_?$AAe?$AAn?$AAt?$AAr?$AAy?$AA?4?$AAi?$AAd?$AA?5?$AA?$CB?$AA?$DN?$AA?5?$AA0?$AA?$AA@ 00593de4     pjlib-util-i386-win32-vc8-debug:resolver.obj
 0003:0001de1c       ??_C@_0CI@NOCPIGKM@DNS?5response?5from?5?$CFs?3?$CFd?5id?$DN?$CFd?5di@ 00593e1c     pjlib-util-i386-win32-vc8-debug:resolver.obj
 0003:0001de4c       ??_C@_0CK@NLLFBPNI@Error?5parsing?5DNS?5response?5from?5@ 00593e4c     pjlib-util-i386-win32-vc8-debug:resolver.obj
 0003:0001de80       ??_C@_06HEECPDDL@restmp?$AA@ 00593e80     pjlib-util-i386-win32-vc8-debug:resolver.obj
 0003:0001de88       ??_C@_0CK@MMBMIKLP@Received?5?$CFd?5bytes?5DNS?5response?5f@ 00593e88     pjlib-util-i386-win32-vc8-debug:resolver.obj
 0003:0001debc       ??_C@_0CH@PBJNCHDG@DNS?5resolver?5read?5error?5from?5?$CFs?3@ 00593ebc     pjlib-util-i386-win32-vc8-debug:resolver.obj
 0003:0001deec       ??_C@_08FNHHDNFI@dnscache?$AA@ 00593eec     pjlib-util-i386-win32-vc8-debug:resolver.obj
 0003:0001def8       ??_C@_1DI@JEHHLBLM@?$AAp?$AAk?$AAt?$AA?9?$AA?$DO?$AAq?$AA?$FL?$AA0?$AA?$FN?$AA?4?$AAn?$AAa?$AAm?$AAe?$AA?4?$AAs?$AAl?$AAe?$AAn?$AA?5?$AA?$DM?$AA?5?$AA?$CI?$AA1?$AA2?$AA8?$AA?$CJ?$AA?$AA@ 00593ef8     pjlib-util-i386-win32-vc8-debug:resolver.obj
 0003:0001df3c       ??_C@_1DM@FHJBJANL@?$AAp?$AAk?$AAt?$AA?9?$AA?$DO?$AAa?$AAn?$AAs?$AA?$FL?$AA0?$AA?$FN?$AA?4?$AAn?$AAa?$AAm?$AAe?$AA?4?$AAs?$AAl?$AAe?$AAn?$AA?5?$AA?$DM?$AA?5?$AA?$CI?$AA1?$AA2?$AA8?$AA?$CJ?$AA?$AA@ 00593f3c     pjlib-util-i386-win32-vc8-debug:resolver.obj
 0003:0001df88       ??_C@_1IA@BBOEGBAL@?$AA?$CI?$AAp?$AAk?$AAt?$AA?9?$AA?$DO?$AAh?$AAd?$AAr?$AA?4?$AAa?$AAn?$AAs?$AAc?$AAo?$AAu?$AAn?$AAt?$AA?5?$AA?$CG?$AA?$CG?$AA?5?$AAp?$AAk?$AAt?$AA?9?$AA?$DO?$AAa?$AAn?$AAs?$AA?$CJ?$AA?5@ 00593f88     pjlib-util-i386-win32-vc8-debug:resolver.obj
 0003:0001e028       ??_C@_1HI@JPFAAAJI@?$AA?$CI?$AA?$CI?$AA?$CI?$AAp?$AAk?$AAt?$AA?9?$AA?$DO?$AAh?$AAd?$AAr?$AA?4?$AAf?$AAl?$AAa?$AAg?$AAs?$AA?$CJ?$AA?5?$AA?$CG?$AA?5?$AA?$CI?$AA?$CI?$AAp?$AAj?$AA_?$AAu?$AAi?$AAn?$AAt?$AA1?$AA6@ 00594028     pjlib-util-i386-win32-vc8-debug:resolver.obj
 0003:0001e0b8       ??_C@_1CA@LOPCEJJJ@?$AAr?$AAe?$AAs?$AAo?$AAl?$AAv?$AAe?$AAr?$AA?5?$AA?$CG?$AA?$CG?$AA?5?$AAp?$AAk?$AAt?$AA?$AA@ 005940b8     pjlib-util-i386-win32-vc8-debug:resolver.obj
 0003:0001e0e0       ??_C@_0CD@MOCMLNNF@?5?5Pool?5capacity?3?5?$CFd?0?5used?5size?3?5@ 005940e0     pjlib-util-i386-win32-vc8-debug:resolver.obj
 0003:0001e10c       ??_C@_0BL@OIOIOFBO@?5?5Nb?4?5of?5timer?5entries?3?5?$CFu?$AA@ 0059410c     pjlib-util-i386-win32-vc8-debug:resolver.obj
 0003:0001e12c       ??_C@_0CG@DNEONFED@?5?5Nb?4?5of?5pending?5query?5free?5node@ 0059412c     pjlib-util-i386-win32-vc8-debug:resolver.obj
 0003:0001e15c       ??_C@_0CC@ENHNPIME@?5?5Nb?4?5of?5pending?5queries?3?5?$CFu?5?$CI?$CFu@ 0059415c     pjlib-util-i386-win32-vc8-debug:resolver.obj
 0003:0001e184       ??_C@_0P@BMCOBHPI@?5?5?5Type?5?$CFs?3?5?$CFs?$AA@ 00594184     pjlib-util-i386-win32-vc8-debug:resolver.obj
 0003:0001e198       ??_C@_0BO@LKJCLCIL@?5?5Nb?4?5of?5cached?5responses?3?5?$CFu?$AA@ 00594198     pjlib-util-i386-win32-vc8-debug:resolver.obj
 0003:0001e1bc       ??_C@_0DA@FCCMJHFI@?5?5?5NS?5?$CFd?3?5?$CFs?3?$CFd?5?$CIstate?$DN?$CFs?5until?5@ 005941bc     pjlib-util-i386-win32-vc8-debug:resolver.obj
 0003:0001e1f8       ??_C@_03HBABANP@bad?$AA@   005941f8     pjlib-util-i386-win32-vc8-debug:resolver.obj
 0003:0001e1fc       ??_C@_06MDLIGPKC@active?$AA@ 005941fc     pjlib-util-i386-win32-vc8-debug:resolver.obj
 0003:0001e204       ??_C@_07HJPBEKGF@probing?$AA@ 00594204     pjlib-util-i386-win32-vc8-debug:resolver.obj
 0003:0001e210       ??_C@_0BA@BJIJOCOE@?5?5Name?5servers?3?$AA@ 00594210     pjlib-util-i386-win32-vc8-debug:resolver.obj
 0003:0001e224       ??_C@_0BJ@DHDGEIGD@?5Dumping?5resolver?5state?3?$AA@ 00594224     pjlib-util-i386-win32-vc8-debug:resolver.obj
 0003:0001e244       ??_C@_0DA@GGGKMBOI@Starting?5async?5DNS?5?$CFs?5query_job?3@ 00594244     pjlib-util-i386-win32-vc8-debug:srv_resolver.obj
 0003:0001e280       ??_C@_01LFCBOECM@?4?$AA@   00594280     pjlib-util-i386-win32-vc8-debug:srv_resolver.obj
 0003:0001e288       ??_C@_1LC@GLFIPECN@?$AAd?$AAo?$AAm?$AAa?$AAi?$AAn?$AA_?$AAn?$AAa?$AAm?$AAe?$AA?5?$AA?$CG?$AA?$CG?$AA?5?$AAd?$AAo?$AAm?$AAa?$AAi?$AAn?$AA_?$AAn?$AAa?$AAm?$AAe?$AA?9?$AA?$DO?$AAs?$AAl?$AAe?$AAn@ 00594288     pjlib-util-i386-win32-vc8-debug:srv_resolver.obj
 0003:0001e360       ??_C@_1IA@BAGAMPE@?$AAd?$AA?3?$AA?2?$AAm?$AAy?$AAg?$AAi?$AAt?$AA?2?$AAp?$AAj?$AAp?$AAr?$AAo?$AAj?$AAe?$AAc?$AAt?$AA?9?$AA1?$AA?4?$AA4?$AA?2?$AAp?$AAj?$AAl?$AAi?$AAb?$AA?9?$AAu?$AAt?$AAi@ 00594360     pjlib-util-i386-win32-vc8-debug:srv_resolver.obj
 0003:0001e3fc       ??_C@_0DH@GBMACLIM@DNS?5?$CFs?5record?5resolution?5error?5f@ 005943fc     pjlib-util-i386-win32-vc8-debug:srv_resolver.obj
 0003:0001e440       ??_C@_0DF@NMOAKAGH@Server?5resolution?5complete?0?5?$CFd?5s@ 00594440     pjlib-util-i386-win32-vc8-debug:srv_resolver.obj
 0003:0001e480       ??_C@_1CG@LDFBIFFG@?$AAs?$AAr?$AAv?$AA?9?$AA?$DO?$AAa?$AAd?$AAd?$AAr?$AA_?$AAc?$AAn?$AAt?$AA?5?$AA?$DM?$AA?$DN?$AA?5?$AA8?$AA?$AA@ 00594480     pjlib-util-i386-win32-vc8-debug:srv_resolver.obj
 0003:0001e4b0       ??_C@_1CK@DKOGKPLJ@?$AA?$CB?$AA?$CC?$AAU?$AAn?$AAe?$AAx?$AAp?$AAe?$AAc?$AAt?$AAe?$AAd?$AA?5?$AAs?$AAt?$AAa?$AAt?$AAe?$AA?$CB?$AA?$CC?$AA?$AA@ 005944b0     pjlib-util-i386-win32-vc8-debug:srv_resolver.obj
 0003:0001e4e4       ??_C@_0BC@LIDAFMDL@Unexpected?5state?$CB?$AA@ 005944e4     pjlib-util-i386-win32-vc8-debug:srv_resolver.obj
 0003:0001e4fc       ??_C@_0BO@FJBLCFMD@Additional?5DNS?5A?5for?5?$CF?4?$CKs?3?5?$CFs?$AA@ 005944fc     pjlib-util-i386-win32-vc8-debug:srv_resolver.obj
 0003:0001e520       ??_C@_0BD@DMPEKAIE@DNS?5A?5for?5?$CF?4?$CKs?3?5?$CFs?$AA@ 00594520     pjlib-util-i386-win32-vc8-debug:srv_resolver.obj
 0003:0001e538       ??_C@_1FM@BHHJCKDA@?$AAr?$AAe?$AAc?$AA?4?$AAa?$AAl?$AAi?$AAa?$AAs?$AA?4?$AAs?$AAl?$AAe?$AAn?$AA?5?$AA?$DM?$AA?$DN?$AA?5?$AA?$CI?$AAi?$AAn?$AAt?$AA?$CJ?$AAs?$AAi?$AAz?$AAe?$AAo?$AAf?$AA?$CI?$AAs?$AAr@ 00594538     pjlib-util-i386-win32-vc8-debug:srv_resolver.obj
 0003:0001e5a8       ??_C@_1CI@NHDLLOGC@?$AAr?$AAe?$AAc?$AA?4?$AAa?$AAd?$AAd?$AAr?$AA_?$AAc?$AAo?$AAu?$AAn?$AAt?$AA?5?$AA?$CB?$AA?$DN?$AA?5?$AA0?$AA?$AA@ 005945a8     pjlib-util-i386-win32-vc8-debug:srv_resolver.obj
 0003:0001e5d8       ??_C@_0EH@EGFGCLAC@DNS?5SRV?5resolution?5failed?5for?5?$CF?4@ 005945d8     pjlib-util-i386-win32-vc8-debug:srv_resolver.obj
 0003:0001e630       ??_C@_0CH@COCLGFLO@DNS?5SRV?5resolution?5failed?5for?5?$CF?4@ 00594630     pjlib-util-i386-win32-vc8-debug:srv_resolver.obj
 0003:0001e660       ??_C@_1DC@DFELOOOO@?$AA?$CB?$AA?$CC?$AAU?$AAn?$AAe?$AAx?$AAp?$AAe?$AAc?$AAt?$AAe?$AAd?$AA?5?$AAu?$AAs?$AAe?$AAr?$AA?5?$AAd?$AAa?$AAt?$AAa?$AA?$CB?$AA?$CC?$AA?$AA@ 00594660     pjlib-util-i386-win32-vc8-debug:srv_resolver.obj
 0003:0001e69c       ??_C@_0BG@FLJDAEL@Unexpected?5user?5data?$CB?$AA@ 0059469c     pjlib-util-i386-win32-vc8-debug:srv_resolver.obj
 0003:0001e6b8       ??_C@_0BM@MJBLDIAG@?5?$CFd?3?5SRV?5?$CFd?5?$CFd?5?$CFd?5?$CF?4?$CKs?5?$CI?$CFs?$CJ?$AA@ 005946b8     pjlib-util-i386-win32-vc8-debug:srv_resolver.obj
 0003:0001e6e0       ??_C@_0EE@LPMFAMKM@SRV?5query_job?5for?5?$CF?4?$CKs?5completed@ 005946e0     pjlib-util-i386-win32-vc8-debug:srv_resolver.obj
 0003:0001e734       ??_C@_1BK@GGFKDK@?$AAj?$AA?5?$AA?$CB?$AA?$DN?$AA?5?$AAi?$AA?$CL?$AAc?$AAo?$AAu?$AAn?$AAt?$AA?$AA@ 00594734     pjlib-util-i386-win32-vc8-debug:srv_resolver.obj
 0003:0001e754       ??_C@_0CJ@IGNPBKGN@Could?5not?5find?5SRV?5record?5in?5DNS@ 00594754     pjlib-util-i386-win32-vc8-debug:srv_resolver.obj
 0003:0001e788       ??_C@_0BG@OENDJHLB@Hostname?5is?5too?5long?$CB?$AA@ 00594788     pjlib-util-i386-win32-vc8-debug:srv_resolver.obj
 0003:0001e7a4       ??_C@_0CL@ICCMMEFF@Received?5non?5SRV?5answer?5for?5SRV?5@ 005947a4     pjlib-util-i386-win32-vc8-debug:srv_resolver.obj
 0003:0001e7d8       ??_C@_0CI@IBPJGCBL@Starting?5async?5DNS?5A?5query_job?5f@ 005947d8     pjlib-util-i386-win32-vc8-debug:srv_resolver.obj
 0003:0001e808       ??_C@_09ONJBBFFA@?$CIUnknown?$CJ?$AA@ 00594808     pjlib-util-i386-win32-vc8-debug:dns.obj
 0003:0001e814       ??_C@_05DGMJPCKB@NAPTR?$AA@ 00594814     pjlib-util-i386-win32-vc8-debug:dns.obj
 0003:0001e81c       ??_C@_03CGKMFPEO@TXT?$AA@  0059481c     pjlib-util-i386-win32-vc8-debug:dns.obj
 0003:0001e820       ??_C@_02KJOOPCC@MX?$AA@    00594820     pjlib-util-i386-win32-vc8-debug:dns.obj
 0003:0001e824       ??_C@_03PGIOJGPL@PTR?$AA@  00594824     pjlib-util-i386-win32-vc8-debug:dns.obj
 0003:0001e828       ??_C@_05PGNGFKDN@CNAME?$AA@ 00594828     pjlib-util-i386-win32-vc8-debug:dns.obj
 0003:0001e830       ??_C@_02OLCMIILA@NS?$AA@   00594830     pjlib-util-i386-win32-vc8-debug:dns.obj
 0003:0001e834       ??_C@_03IENKIAKD@SRV?$AA@  00594834     pjlib-util-i386-win32-vc8-debug:dns.obj
 0003:0001e838       ??_C@_04OHNMNPPA@AAAA?$AA@ 00594838     pjlib-util-i386-win32-vc8-debug:dns.obj
 0003:0001e840       ??_C@_01FHEEJDEE@A?$AA@    00594840     pjlib-util-i386-win32-vc8-debug:dns.obj
 0003:0001e844       ??_C@_1BG@NHHJFHNP@?$AA?$CK?$AAs?$AAi?$AAz?$AAe?$AA?5?$AA?$DO?$AA?$DN?$AA?5?$AAd?$AA?$AA@ 00594844     pjlib-util-i386-win32-vc8-debug:dns.obj
 0003:0001e860       ??_C@_1EA@GPIEHAJL@?$AAp?$AAa?$AAc?$AAk?$AAe?$AAt?$AA?5?$AA?$CG?$AA?$CG?$AA?5?$AAs?$AAi?$AAz?$AAe?$AA?5?$AA?$CG?$AA?$CG?$AA?5?$AAq?$AAt?$AAy?$AAp?$AAe?$AA?5?$AA?$CG?$AA?$CG?$AA?5?$AAn?$AAa?$AAm?$AAe?$AA?$AA@ 00594860     pjlib-util-i386-win32-vc8-debug:dns.obj
 0003:0001e8b0       ??_C@_1GO@FAMLOKGE@?$AAd?$AA?3?$AA?2?$AAm?$AAy?$AAg?$AAi?$AAt?$AA?2?$AAp?$AAj?$AAp?$AAr?$AAo?$AAj?$AAe?$AAc?$AAt?$AA?9?$AA1?$AA?4?$AA4?$AA?2?$AAp?$AAj?$AAl?$AAi?$AAb?$AA?9?$AAu?$AAt?$AAi@ 005948b0     pjlib-util-i386-win32-vc8-debug:dns.obj
 0003:0001e938       ??_C@_1EA@OPKPHOGB@?$AAp?$AAo?$AAo?$AAl?$AA?5?$AA?$CG?$AA?$CG?$AA?5?$AAp?$AAa?$AAc?$AAk?$AAe?$AAt?$AA?5?$AA?$CG?$AA?$CG?$AA?5?$AAs?$AAi?$AAz?$AAe?$AA?5?$AA?$CG?$AA?$CG?$AA?5?$AAp?$AA_?$AAr?$AAe?$AAs?$AA?$AA@ 00594938     pjlib-util-i386-win32-vc8-debug:dns.obj
 0003:0001e984       ??_C@_1CG@DJNOHJMO@?$AAp?$AAo?$AAo?$AAl?$AA?5?$AA?$CG?$AA?$CG?$AA?5?$AAp?$AA?5?$AA?$CG?$AA?$CG?$AA?5?$AAp?$AA_?$AAd?$AAs?$AAt?$AA?$AA@ 00594984     pjlib-util-i386-win32-vc8-debug:dns.obj
 0003:0001e9b8       _base64_char               005949b8     pjlib-util-i386-win32-vc8-debug:base64.obj
 0003:0001ea08       ??_C@_1EC@PACNHEMO@?$AA?$CK?$AAo?$AAu?$AAt?$AA_?$AAl?$AAe?$AAn?$AA?5?$AA?$DO?$AA?$DN?$AA?5?$AA?$CI?$AAi?$AAn?$AA_?$AAl?$AAe?$AAn?$AA?5?$AA?$CK?$AA?5?$AA4?$AA?5?$AA?1?$AA?5?$AA3?$AA?5?$AA?$CL?$AA?5?$AA3?$AA?$CJ@ 00594a08     pjlib-util-i386-win32-vc8-debug:base64.obj
 0003:0001ea58       ??_C@_1DG@FBBIODPK@?$AAi?$AAn?$AAp?$AAu?$AAt?$AA?5?$AA?$CG?$AA?$CG?$AA?5?$AAo?$AAu?$AAt?$AAp?$AAu?$AAt?$AA?5?$AA?$CG?$AA?$CG?$AA?5?$AAo?$AAu?$AAt?$AA_?$AAl?$AAe?$AAn?$AA?$AA@ 00594a58     pjlib-util-i386-win32-vc8-debug:base64.obj
 0003:0001ea98       ??_C@_1HE@LHBJDBOE@?$AAd?$AA?3?$AA?2?$AAm?$AAy?$AAg?$AAi?$AAt?$AA?2?$AAp?$AAj?$AAp?$AAr?$AAo?$AAj?$AAe?$AAc?$AAt?$AA?9?$AA1?$AA?4?$AA4?$AA?2?$AAp?$AAj?$AAl?$AAi?$AAb?$AA?9?$AAu?$AAt?$AAi@ 00594a98     pjlib-util-i386-win32-vc8-debug:base64.obj
 0003:0001eb24       ??_C@_1BK@IGKMLFDG@?$AAj?$AA?5?$AA?$DM?$AA?5?$AA?$CK?$AAo?$AAu?$AAt?$AA_?$AAl?$AAe?$AAn?$AA?$AA@ 00594b24     pjlib-util-i386-win32-vc8-debug:base64.obj
 0003:0001eb44       ??_C@_1DE@FJIMPKJC@?$AA?$CK?$AAo?$AAu?$AAt?$AA_?$AAl?$AAe?$AAn?$AA?5?$AA?$DO?$AA?$DN?$AA?5?$AA?$CI?$AAl?$AAe?$AAn?$AA?5?$AA?$CK?$AA?5?$AA3?$AA?5?$AA?1?$AA?5?$AA4?$AA?$CJ?$AA?$AA@ 00594b44     pjlib-util-i386-win32-vc8-debug:base64.obj
 0003:0001eb84       ??_C@_1DA@PGJCBFEE@?$AAi?$AAn?$AAp?$AAu?$AAt?$AA?5?$AA?$CG?$AA?$CG?$AA?5?$AAo?$AAu?$AAt?$AA?5?$AA?$CG?$AA?$CG?$AA?5?$AAo?$AAu?$AAt?$AA_?$AAl?$AAe?$AAn?$AA?$AA@ 00594b84     pjlib-util-i386-win32-vc8-debug:base64.obj
 0003:0001ebc0       ??_C@_1GM@MFPEOKEG@?$AA?$CB?$AA?$CC?$AAS?$AAh?$AAo?$AAu?$AAl?$AAd?$AA?5?$AAn?$AAo?$AAt?$AA?5?$AAh?$AAa?$AAp?$AAp?$AAe?$AAn?$AA?5?$AAa?$AAs?$AA?5?$AA?8?$AA?$DN?$AA?8?$AA?5?$AAs?$AAh?$AAo?$AAu?$AAl@ 00594bc0     pjlib-util-i386-win32-vc8-debug:base64.obj
 0003:0001ec44       ??_C@_0DD@GALDCHMC@Should?5not?5happen?5as?5?8?$DN?8?5should?5@ 00594c44     pjlib-util-i386-win32-vc8-debug:base64.obj
 0003:0001ec84       ??_C@_0CN@HLGDBJEL@d?3?2mygit?2pjproject?91?44?2pjlib?2src@ 00594c84     pjlib-i386-win32-vc8-debug:string.obj
 0003:0001ecbc       ??_C@_1CI@NFHHBACP@?$AA?$CB?$AA?$CC?$AAU?$AAn?$AAs?$AAu?$AAp?$AAp?$AAo?$AAr?$AAt?$AAe?$AAd?$AA?5?$AAb?$AAa?$AAs?$AAe?$AA?$CC?$AA?$AA@ 00594cbc     pjlib-i386-win32-vc8-debug:string.obj
 0003:0001ecf0       ??_C@_1FK@HCOEDFMJ@?$AAd?$AA?3?$AA?2?$AAm?$AAy?$AAg?$AAi?$AAt?$AA?2?$AAp?$AAj?$AAp?$AAr?$AAo?$AAj?$AAe?$AAc?$AAt?$AA?9?$AA1?$AA?4?$AA4?$AA?2?$AAp?$AAj?$AAl?$AAi?$AAb?$AA?2?$AAs?$AAr?$AAc@ 00594cf0     pjlib-i386-win32-vc8-debug:string.obj
 0003:0001ed5c       ??_C@_0BB@CEONGONL@Unsupported?5base?$AA@ 00594d5c     pjlib-i386-win32-vc8-debug:string.obj
 0003:0001ed70       _PJ_AF_UNSPEC              00594d70     pjlib-i386-win32-vc8-debug:sock_bsd.obj
 0003:0001ed74       _PJ_AF_UNIX                00594d74     pjlib-i386-win32-vc8-debug:sock_bsd.obj
 0003:0001ed78       _PJ_AF_INET                00594d78     pjlib-i386-win32-vc8-debug:sock_bsd.obj
 0003:0001ed7c       _PJ_AF_INET6               00594d7c     pjlib-i386-win32-vc8-debug:sock_bsd.obj
 0003:0001ed80       _PJ_AF_PACKET              00594d80     pjlib-i386-win32-vc8-debug:sock_bsd.obj
 0003:0001ed84       _PJ_AF_IRDA                00594d84     pjlib-i386-win32-vc8-debug:sock_bsd.obj
 0003:0001ed88       _PJ_SOCK_STREAM            00594d88     pjlib-i386-win32-vc8-debug:sock_bsd.obj
 0003:0001ed8c       _PJ_SOCK_DGRAM             00594d8c     pjlib-i386-win32-vc8-debug:sock_bsd.obj
 0003:0001ed90       _PJ_SOCK_RAW               00594d90     pjlib-i386-win32-vc8-debug:sock_bsd.obj
 0003:0001ed94       _PJ_SOCK_RDM               00594d94     pjlib-i386-win32-vc8-debug:sock_bsd.obj
 0003:0001ed98       _PJ_SOL_SOCKET             00594d98     pjlib-i386-win32-vc8-debug:sock_bsd.obj
 0003:0001ed9c       _PJ_SOL_IP                 00594d9c     pjlib-i386-win32-vc8-debug:sock_bsd.obj
 0003:0001eda0       _PJ_SOL_TCP                00594da0     pjlib-i386-win32-vc8-debug:sock_bsd.obj
 0003:0001eda4       _PJ_SOL_UDP                00594da4     pjlib-i386-win32-vc8-debug:sock_bsd.obj
 0003:0001eda8       _PJ_SOL_IPV6               00594da8     pjlib-i386-win32-vc8-debug:sock_bsd.obj
 0003:0001edac       _PJ_IP_TOS                 00594dac     pjlib-i386-win32-vc8-debug:sock_bsd.obj
 0003:0001edb0       _PJ_IPTOS_LOWDELAY         00594db0     pjlib-i386-win32-vc8-debug:sock_bsd.obj
 0003:0001edb4       _PJ_IPTOS_THROUGHPUT       00594db4     pjlib-i386-win32-vc8-debug:sock_bsd.obj
 0003:0001edb8       _PJ_IPTOS_RELIABILITY      00594db8     pjlib-i386-win32-vc8-debug:sock_bsd.obj
 0003:0001edbc       _PJ_IPTOS_MINCOST          00594dbc     pjlib-i386-win32-vc8-debug:sock_bsd.obj
 0003:0001edc0       _PJ_SO_TYPE                00594dc0     pjlib-i386-win32-vc8-debug:sock_bsd.obj
 0003:0001edc4       _PJ_SO_RCVBUF              00594dc4     pjlib-i386-win32-vc8-debug:sock_bsd.obj
 0003:0001edc8       _PJ_SO_SNDBUF              00594dc8     pjlib-i386-win32-vc8-debug:sock_bsd.obj
 0003:0001edcc       _PJ_TCP_NODELAY            00594dcc     pjlib-i386-win32-vc8-debug:sock_bsd.obj
 0003:0001edd0       _PJ_SO_REUSEADDR           00594dd0     pjlib-i386-win32-vc8-debug:sock_bsd.obj
 0003:0001edd4       _PJ_SO_PRIORITY            00594dd4     pjlib-i386-win32-vc8-debug:sock_bsd.obj
 0003:0001edd8       _PJ_IP_MULTICAST_IF        00594dd8     pjlib-i386-win32-vc8-debug:sock_bsd.obj
 0003:0001eddc       _PJ_IP_MULTICAST_TTL       00594ddc     pjlib-i386-win32-vc8-debug:sock_bsd.obj
 0003:0001ede0       _PJ_IP_MULTICAST_LOOP      00594de0     pjlib-i386-win32-vc8-debug:sock_bsd.obj
 0003:0001ede4       _PJ_IP_ADD_MEMBERSHIP      00594de4     pjlib-i386-win32-vc8-debug:sock_bsd.obj
 0003:0001ede8       _PJ_IP_DROP_MEMBERSHIP     00594de8     pjlib-i386-win32-vc8-debug:sock_bsd.obj
 0003:0001edec       _PJ_MSG_OOB                00594dec     pjlib-i386-win32-vc8-debug:sock_bsd.obj
 0003:0001edf0       _PJ_MSG_PEEK               00594df0     pjlib-i386-win32-vc8-debug:sock_bsd.obj
 0003:0001edf4       _PJ_MSG_DONTROUTE          00594df4     pjlib-i386-win32-vc8-debug:sock_bsd.obj
 0003:0001ee14       ??_C@_1CM@OEECOBPG@?$AAc?$AAp?$AA?5?$AA?$CG?$AA?$CG?$AA?5?$AAc?$AAp?$AA?9?$AA?$DO?$AAs?$AAl?$AAe?$AAn?$AA?5?$AA?$CG?$AA?$CG?$AA?5?$AAi?$AAn?$AAp?$AA?$AA@ 00594e14     pjlib-i386-win32-vc8-debug:sock_bsd.obj
 0003:0001ee48       ??_C@_1FO@MFHJLFFA@?$AAd?$AA?3?$AA?2?$AAm?$AAy?$AAg?$AAi?$AAt?$AA?2?$AAp?$AAj?$AAp?$AAr?$AAo?$AAj?$AAe?$AAc?$AAt?$AA?9?$AA1?$AA?4?$AA4?$AA?2?$AAp?$AAj?$AAl?$AAi?$AAb?$AA?2?$AAs?$AAr?$AAc@ 00594e48     pjlib-i386-win32-vc8-debug:sock_bsd.obj
 0003:0001eeb8       ??_C@_1DA@NIAFCNGJ@?$AAs?$AAr?$AAc?$AA?5?$AA?$CG?$AA?$CG?$AA?5?$AAs?$AAr?$AAc?$AA?9?$AA?$DO?$AAs?$AAl?$AAe?$AAn?$AA?5?$AA?$CG?$AA?$CG?$AA?5?$AAd?$AAs?$AAt?$AA?$AA@ 00594eb8     pjlib-i386-win32-vc8-debug:sock_bsd.obj
 0003:0001eef8       ??_C@_1EE@BHODCNOF@?$AAa?$AAf?$AA?$DN?$AA?$DN?$AAP?$AAJ?$AA_?$AAA?$AAF?$AA_?$AAI?$AAN?$AAE?$AAT?$AA?5?$AA?$HM?$AA?$HM?$AA?5?$AAa?$AAf?$AA?$DN?$AA?$DN?$AAP?$AAJ?$AA_?$AAA?$AAF?$AA_?$AAI?$AAN?$AAE?$AAT@ 00594ef8     pjlib-i386-win32-vc8-debug:sock_bsd.obj
 0003:0001ef4c       ??_C@_1CG@FCIAPMOJ@?$AAs?$AAr?$AAc?$AA?5?$AA?$CG?$AA?$CG?$AA?5?$AAd?$AAs?$AAt?$AA?5?$AA?$CG?$AA?$CG?$AA?5?$AAs?$AAi?$AAz?$AAe?$AA?$AA@ 00594f4c     pjlib-i386-win32-vc8-debug:sock_bsd.obj
 0003:0001ef7c       ??_C@_0CP@COLIDBCF@d?3?2mygit?2pjproject?91?44?2pjlib?2src@ 00594f7c     pjlib-i386-win32-vc8-debug:sock_bsd.obj
 0003:0001efb4       ??_C@_1CE@CHKBIEBK@?$AAs?$AAo?$AAc?$AAk?$AA?$CB?$AA?$DN?$AA?$CI?$AA?$CI?$AAv?$AAo?$AAi?$AAd?$AA?5?$AA?$CK?$AA?$CJ?$AA0?$AA?$CJ?$AA?$AA@ 00594fb4     pjlib-i386-win32-vc8-debug:sock_bsd.obj
 0003:0001efe0       ??_C@_1FO@NFJOCODB@?$AAa?$AAd?$AAd?$AAr?$AA?5?$AA?$CG?$AA?$CG?$AA?5?$AAl?$AAe?$AAn?$AA?5?$AA?$DO?$AA?$DN?$AA?5?$AA?$CI?$AAi?$AAn?$AAt?$AA?$CJ?$AAs?$AAi?$AAz?$AAe?$AAo?$AAf?$AA?$CI?$AAs?$AAt?$AAr?$AAu?$AAc@ 00594fe0     pjlib-i386-win32-vc8-debug:sock_bsd.obj
 0003:0001f050       ??_C@_17JOFJILLL@?$AAl?$AAe?$AAn?$AA?$AA@ 00595050     pjlib-i386-win32-vc8-debug:sock_bsd.obj
 0003:0001f05c       ??_C@_1BG@KIOEFHJP@?$AAb?$AAu?$AAf?$AA?5?$AA?$CG?$AA?$CG?$AA?5?$AAl?$AAe?$AAn?$AA?$AA@ 0059505c     pjlib-i386-win32-vc8-debug:sock_bsd.obj
 0003:0001f078       ??_C@_1CA@EMDLJNLA@?$AAf?$AAr?$AAo?$AAm?$AA?5?$AA?$CG?$AA?$CG?$AA?5?$AAf?$AAr?$AAo?$AAm?$AAl?$AAe?$AAn?$AA?$AA@ 00595078     pjlib-i386-win32-vc8-debug:sock_bsd.obj
 0003:0001f0a0       ??_C@_1CC@JEHODAPI@?$AAo?$AAp?$AAt?$AAv?$AAa?$AAl?$AA?5?$AA?$CG?$AA?$CG?$AA?5?$AAo?$AAp?$AAt?$AAl?$AAe?$AAn?$AA?$AA@ 005950a0     pjlib-i386-win32-vc8-debug:sock_bsd.obj
 0003:0001f0c8       ??_C@_1CO@HPOGKJKP@?$AAn?$AAe?$AAw?$AAs?$AAo?$AAc?$AAk?$AA?5?$AA?$CB?$AA?$DN?$AA?5?$AA?$CI?$AA?$CI?$AAv?$AAo?$AAi?$AAd?$AA?5?$AA?$CK?$AA?$CJ?$AA0?$AA?$CJ?$AA?$AA@ 005950c8     pjlib-i386-win32-vc8-debug:sock_bsd.obj
 0003:0001f100       ??_C@_1CC@EAFADDBO@?$AAp?$AA?5?$AA?$CB?$AA?$DN?$AA?5?$AA?$CI?$AA?$CI?$AAv?$AAo?$AAi?$AAd?$AA?5?$AA?$CK?$AA?$CJ?$AA0?$AA?$CJ?$AA?$AA@ 00595100     pjlib-i386-win32-vc8-debug:pool.obj
 0003:0001f128       ??_C@_1FG@JDMIMKBI@?$AAd?$AA?3?$AA?2?$AAm?$AAy?$AAg?$AAi?$AAt?$AA?2?$AAp?$AAj?$AAp?$AAr?$AAo?$AAj?$AAe?$AAc?$AAt?$AA?9?$AA1?$AA?4?$AA4?$AA?2?$AAp?$AAj?$AAl?$AAi?$AAb?$AA?2?$AAs?$AAr?$AAc@ 00595128     pjlib-i386-win32-vc8-debug:pool.obj
 0003:0001f190       ??_C@_0CL@BHDJIK@d?3?2mygit?2pjproject?91?44?2pjlib?2src@ 00595190     pjlib-i386-win32-vc8-debug:pool.obj
 0003:0001f1c4       ??_C@_1DM@GJMPJMCP@?$AAs?$AAi?$AAz?$AAe?$AA?5?$AA?$DO?$AA?$DN?$AA?5?$AAs?$AAi?$AAz?$AAe?$AAo?$AAf?$AA?$CI?$AAp?$AAj?$AA_?$AAp?$AAo?$AAo?$AAl?$AA_?$AAb?$AAl?$AAo?$AAc?$AAk?$AA?$CJ?$AA?$AA@ 005951c4     pjlib-i386-win32-vc8-debug:pool.obj
 0003:0001f210       ??_C@_1HA@KHKDBJOJ@?$AAi?$AAn?$AAi?$AAt?$AAi?$AAa?$AAl?$AA_?$AAs?$AAi?$AAz?$AAe?$AA?5?$AA?$DO?$AA?$DN?$AA?5?$AAs?$AAi?$AAz?$AAe?$AAo?$AAf?$AA?$CI?$AAp?$AAj?$AA_?$AAp?$AAo?$AAo?$AAl?$AA_?$AAt@ 00595210     pjlib-i386-win32-vc8-debug:pool.obj
 0003:0001f298       ??_C@_03FEFJNEK@Sat?$AA@   00595298     pjlib-i386-win32-vc8-debug:log.obj
 0003:0001f29c       ??_C@_03IDIOELNC@Fri?$AA@  0059529c     pjlib-i386-win32-vc8-debug:log.obj
 0003:0001f2a0       ??_C@_03IOFIKPDN@Thu?$AA@  005952a0     pjlib-i386-win32-vc8-debug:log.obj
 0003:0001f2a4       ??_C@_03MHOMLAJA@Wed?$AA@  005952a4     pjlib-i386-win32-vc8-debug:log.obj
 0003:0001f2a8       ??_C@_03NAGEINEP@Tue?$AA@  005952a8     pjlib-i386-win32-vc8-debug:log.obj
 0003:0001f2ac       ??_C@_03PDAGKDH@Mon?$AA@   005952ac     pjlib-i386-win32-vc8-debug:log.obj
 0003:0001f2b0       ??_C@_03KOEHGMDN@Sun?$AA@  005952b0     pjlib-i386-win32-vc8-debug:log.obj
 0003:0001f2b4       ??_C@_06HGKAKJPG@DETRC?3?$AA@ 005952b4     pjlib-i386-win32-vc8-debug:log.obj
 0003:0001f2bc       ??_C@_06ELIFFDKB@TRACE?3?$AA@ 005952bc     pjlib-i386-win32-vc8-debug:log.obj
 0003:0001f2c4       ??_C@_06DNOFLLB@DEBUG?3?$AA@ 005952c4     pjlib-i386-win32-vc8-debug:log.obj
 0003:0001f2cc       ??_C@_06ICKKLHPE@?5INFO?3?$AA@ 005952cc     pjlib-i386-win32-vc8-debug:log.obj
 0003:0001f2d4       ??_C@_06OHJPOJDB@?5WARN?3?$AA@ 005952d4     pjlib-i386-win32-vc8-debug:log.obj
 0003:0001f2dc       ??_C@_06PONDCDME@ERROR?3?$AA@ 005952dc     pjlib-i386-win32-vc8-debug:log.obj
 0003:0001f2e4       ??_C@_06DDFOEFIF@FATAL?3?$AA@ 005952e4     pjlib-i386-win32-vc8-debug:log.obj
 0003:0001f2ec       ??_C@_0BO@BGMDCDKP@?$DMlogging?5error?3?5msg?5too?5long?$DO?$AA@ 005952ec     pjlib-i386-win32-vc8-debug:log.obj
 0003:0001f310       ??_C@_0CK@EEOLDIAL@d?3?2mygit?2pjproject?91?44?2pjlib?2src@ 00595310     pjlib-i386-win32-vc8-debug:log.obj
 0003:0001f344       ??_C@_0DI@PKGPCBFN@d?3?2mygit?2pjproject?91?44?2pjlib?2src@ 00595344     pjlib-i386-win32-vc8-debug:log_writer_stdout.obj
 0003:0001f388       ??_C@_0BA@FNCACAIG@os_core_win32?4c?$AA@ 00595388     pjlib-i386-win32-vc8-debug:os_core_win32.obj
 0003:0001f39c       ??_C@_0BP@NGEKBPIB@pjlib?5?$CFs?5for?5win32?5initialized?$AA@ 0059539c     pjlib-i386-win32-vc8-debug:os_core_win32.obj
 0003:0001f3c4       ??_C@_0BA@NGJFHJA@PJLIB?1No?5memory?$AA@ 005953c4     pjlib-i386-win32-vc8-debug:os_core_win32.obj
 0003:0001f3d8       ??_C@_04IFCNACLH@pj?$CFp?$AA@ 005953d8     pjlib-i386-win32-vc8-debug:os_core_win32.obj
 0003:0001f3e0       ??_C@_0CI@EAKIIBBA@Main?5thread?5stack?5max?5usage?$DN?$CFu?5b@ 005953e0     pjlib-i386-win32-vc8-debug:os_core_win32.obj
 0003:0001f410       ??_C@_0DE@DKACGBCJ@d?3?2mygit?2pjproject?91?44?2pjlib?2src@ 00595410     pjlib-i386-win32-vc8-debug:os_core_win32.obj
 0003:0001f450       ??_C@_1DA@EPDLFMNN@?$AAp?$AAr?$AAi?$AAo?$AA?$DO?$AA?$DN?$AA?$CI?$AA?9?$AA1?$AA5?$AA?$CJ?$AA?5?$AA?$CG?$AA?$CG?$AA?5?$AAp?$AAr?$AAi?$AAo?$AA?$DM?$AA?$DN?$AA1?$AA5?$AA?$AA@ 00595450     pjlib-i386-win32-vc8-debug:os_core_win32.obj
 0003:0001f48c       ??_C@_1O@OOICOHEB@?$AAt?$AAh?$AAr?$AAe?$AAa?$AAd?$AA?$AA@ 0059548c     pjlib-i386-win32-vc8-debug:os_core_win32.obj
 0003:0001f4a0       ??_C@_1GI@EHEAAMPO@?$AAd?$AA?3?$AA?2?$AAm?$AAy?$AAg?$AAi?$AAt?$AA?2?$AAp?$AAj?$AAp?$AAr?$AAo?$AAj?$AAe?$AAc?$AAt?$AA?9?$AA1?$AA?4?$AA4?$AA?2?$AAp?$AAj?$AAl?$AAi?$AAb?$AA?2?$AAs?$AAr?$AAc@ 005954a0     pjlib-i386-win32-vc8-debug:os_core_win32.obj
 0003:0001f51c       ??_C@_05KHEDLION@thr?$CFp?$AA@ 0059551c     pjlib-i386-win32-vc8-debug:os_core_win32.obj
 0003:0001f528       ??_C@_1EG@HCJPCAON@?$AA?$CB?$AA?$CC?$AAN?$AAo?$AAt?$AA?5?$AAe?$AAn?$AAo?$AAu?$AAg?$AAh?$AA?5?$AAp?$AAj?$AA_?$AAt?$AAh?$AAr?$AAe?$AAa?$AAd?$AA_?$AAd?$AAe?$AAs?$AAc?$AA?5?$AAs?$AAi?$AAz?$AAe@ 00595528     pjlib-i386-win32-vc8-debug:os_core_win32.obj
 0003:0001f57c       ??_C@_0CA@KDDLBGGI@Not?5enough?5pj_thread_desc?5size?$CB?$AA@ 0059557c     pjlib-i386-win32-vc8-debug:os_core_win32.obj
 0003:0001f5a4       ??_C@_1DG@GPPEEMGI@?$AAp?$AAo?$AAo?$AAl?$AA?5?$AA?$CG?$AA?$CG?$AA?5?$AAp?$AAr?$AAo?$AAc?$AA?5?$AA?$CG?$AA?$CG?$AA?5?$AAt?$AAh?$AAr?$AAe?$AAa?$AAd?$AA_?$AAp?$AAt?$AAr?$AA?$AA@ 005955a4     pjlib-i386-win32-vc8-debug:os_core_win32.obj
 0003:0001f5e4       ??_C@_0CD@GPHECFNA@Thread?5stack?5max?5usage?$DN?$CFu?5by?5?$CFs?3@ 005955e4     pjlib-i386-win32-vc8-debug:os_core_win32.obj
 0003:0001f610       ??_C@_1EK@KGMDGLFJ@?$AA?$CB?$AA?$CC?$AAT?$AAL?$AAS?$AA?5?$AAi?$AAs?$AA?5?$AAn?$AAo?$AAt?$AA?5?$AAs?$AAe?$AAt?$AA?5?$AA?$CI?$AAp?$AAj?$AA_?$AAi?$AAn?$AAi?$AAt?$AA?$CI?$AA?$CJ?$AA?5?$AAe?$AAr?$AAr?$AAo@ 00595610     pjlib-i386-win32-vc8-debug:os_core_win32.obj
 0003:0001f668       ??_C@_0CC@JLGHEGJO@TLS?5is?5not?5set?5?$CIpj_init?$CI?$CJ?5error?$DP@ 00595668     pjlib-i386-win32-vc8-debug:os_core_win32.obj
 0003:0001f690       ??_C@_13LFIEIAHP@?$AAp?$AA?$AA@ 00595690     pjlib-i386-win32-vc8-debug:os_core_win32.obj
 0003:0001f698       ??_C@_1BCM@LMJGLOKF@?$AA?$CB?$AA?$CC?$AAC?$AAa?$AAl?$AAl?$AAi?$AAn?$AAg?$AA?5?$AAp?$AAj?$AAl?$AAi?$AAb?$AA?5?$AAf?$AAr?$AAo?$AAm?$AA?5?$AAu?$AAn?$AAk?$AAn?$AAo?$AAw?$AAn?$AA?1?$AAe?$AAx?$AAt@ 00595698     pjlib-i386-win32-vc8-debug:os_core_win32.obj
 0003:0001f800       ??_C@_0IN@DGHJHPPL@Calling?5pjlib?5from?5unknown?1exter@ 00595800     pjlib-i386-win32-vc8-debug:os_core_win32.obj
 0003:0001f8b0       ??_C@_1HC@CNEMGLGB@?$AA?$CC?$AAS?$AAT?$AAA?$AAC?$AAK?$AA?5?$AAO?$AAV?$AAE?$AAR?$AAF?$AAL?$AAO?$AAW?$AA?$CB?$AA?$CB?$AA?5?$AA?$CC?$AA?5?$AA?$CG?$AA?$CG?$AA?5?$AA?$CI?$AAu?$AAs?$AAa?$AAg?$AAe?$AA?5?$AA?$DM?$AA?$DN@ 005958b0     pjlib-i386-win32-vc8-debug:os_core_win32.obj
 0003:0001f938       ??_C@_0BC@GDBGMOLB@STACK?5OVERFLOW?$CB?$CB?5?$AA@ 00595938     pjlib-i386-win32-vc8-debug:os_core_win32.obj
 0003:0001f950       ??_C@_17PCHMAMGJ@?$AAv?$AAa?$AAr?$AA?$AA@ 00595950     pjlib-i386-win32-vc8-debug:os_core_win32.obj
 0003:0001f95c       ??_C@_1BG@PPEGLHPH@?$AAa?$AAt?$AAo?$AAm?$AAi?$AAc?$AA_?$AAv?$AAa?$AAr?$AA?$AA@ 0059595c     pjlib-i386-win32-vc8-debug:os_core_win32.obj
 0003:0001f978       ??_C@_1CK@HHDJMMIF@?$AAi?$AAn?$AAd?$AAe?$AAx?$AA?5?$AA?$CB?$AA?$DN?$AA?5?$AA?$CI?$AA?$CI?$AAv?$AAo?$AAi?$AAd?$AA?5?$AA?$CK?$AA?$CJ?$AA0?$AA?$CJ?$AA?$AA@ 00595978     pjlib-i386-win32-vc8-debug:os_core_win32.obj
 0003:0001f9ac       ??_C@_05EJDHHBFJ@mtx?$CFp?$AA@ 005959ac     pjlib-i386-win32-vc8-debug:os_core_win32.obj
 0003:0001f9b4       ??_C@_1CE@MHFMCIAM@?$AAp?$AAo?$AAo?$AAl?$AA?5?$AA?$CG?$AA?$CG?$AA?5?$AAm?$AAu?$AAt?$AAe?$AAx?$AA_?$AAp?$AAt?$AAr?$AA?$AA@ 005959b4     pjlib-i386-win32-vc8-debug:os_core_win32.obj
 0003:0001f9e0       ??_C@_1M@PMBPJDFK@?$AAm?$AAu?$AAt?$AAe?$AAx?$AA?$AA@ 005959e0     pjlib-i386-win32-vc8-debug:os_core_win32.obj
 0003:0001f9f0       ??_C@_1EC@GCIAJGPL@?$AAm?$AAu?$AAt?$AAe?$AAx?$AA?9?$AA?$DO?$AAo?$AAw?$AAn?$AAe?$AAr?$AA?5?$AA?$DN?$AA?$DN?$AA?5?$AAp?$AAj?$AA_?$AAt?$AAh?$AAr?$AAe?$AAa?$AAd?$AA_?$AAt?$AAh?$AAi?$AAs?$AA?$CI?$AA?$CJ@ 005959f0     pjlib-i386-win32-vc8-debug:os_core_win32.obj
 0003:0001fa40       ??_C@_1CA@LHAPCNHN@?$AAp?$AAo?$AAo?$AAl?$AA?5?$AA?$CG?$AA?$CG?$AA?5?$AAp?$AA_?$AAm?$AAu?$AAt?$AAe?$AAx?$AA?$AA@ 00595a40     pjlib-i386-win32-vc8-debug:os_core_win32.obj
 0003:0001fa68       ??_C@_1GC@LDINOLIB@?$AAd?$AA?3?$AA?2?$AAm?$AAy?$AAg?$AAi?$AAt?$AA?2?$AAp?$AAj?$AAp?$AAr?$AAo?$AAj?$AAe?$AAc?$AAt?$AA?9?$AA1?$AA?4?$AA4?$AA?2?$AAp?$AAj?$AAl?$AAi?$AAb?$AA?2?$AAs?$AAr?$AAc@ 00595a68     pjlib-i386-win32-vc8-debug:os_core_win32.obj
 0003:0001fae0       ??_C@_1EE@JKGKFCJM@?$AAm?$AAu?$AAt?$AAe?$AAx?$AA?9?$AA?$DO?$AAr?$AAe?$AAa?$AAd?$AAe?$AAr?$AA_?$AAc?$AAo?$AAu?$AAn?$AAt?$AA?5?$AA?$DM?$AA?5?$AA0?$AAx?$AA7?$AAF?$AAF?$AAF?$AAF?$AAF?$AAF?$AA0@ 00595ae0     pjlib-i386-win32-vc8-debug:os_core_win32.obj
 0003:0001fb38       ??_C@_1EE@FBNPIAAA@?$AA?$CB?$AA?$CC?$AAT?$AAh?$AAi?$AAs?$AA?5?$AAp?$AAr?$AAe?$AAt?$AAt?$AAy?$AA?5?$AAm?$AAu?$AAc?$AAh?$AA?5?$AAi?$AAs?$AA?5?$AAu?$AAn?$AAe?$AAx?$AAp?$AAe?$AAc?$AAt?$AAe?$AAd@ 00595b38     pjlib-i386-win32-vc8-debug:os_core_win32.obj
 0003:0001fb8c       ??_C@_0BP@HDILOBIG@This?5pretty?5much?5is?5unexpected?$AA@ 00595b8c     pjlib-i386-win32-vc8-debug:os_core_win32.obj
 0003:0001fbb4       ??_C@_1DC@HENDGEDB@?$AAm?$AAu?$AAt?$AAe?$AAx?$AA?9?$AA?$DO?$AAr?$AAe?$AAa?$AAd?$AAe?$AAr?$AA_?$AAc?$AAo?$AAu?$AAn?$AAt?$AA?5?$AA?$DO?$AA?$DN?$AA?5?$AA1?$AA?$AA@ 00595bb4     pjlib-i386-win32-vc8-debug:os_core_win32.obj
 0003:0001fbf0       ??_C@_1DC@HACGLEAM@?$AAm?$AAu?$AAt?$AAe?$AAx?$AA?9?$AA?$DO?$AAr?$AAe?$AAa?$AAd?$AAe?$AAr?$AA_?$AAc?$AAo?$AAu?$AAn?$AAt?$AA?5?$AA?$DM?$AA?$DN?$AA?5?$AA1?$AA?$AA@ 00595bf0     pjlib-i386-win32-vc8-debug:os_core_win32.obj
 0003:0001fc2c       ??_C@_05EKKMALCN@sem?$CFp?$AA@ 00595c2c     pjlib-i386-win32-vc8-debug:os_core_win32.obj
 0003:0001fc34       ??_C@_1CA@JMCEKLBJ@?$AAp?$AAo?$AAo?$AAl?$AA?5?$AA?$CG?$AA?$CG?$AA?5?$AAs?$AAe?$AAm?$AA_?$AAp?$AAt?$AAr?$AA?$AA@ 00595c34     pjlib-i386-win32-vc8-debug:os_core_win32.obj
 0003:0001fc5c       ??_C@_17CJHHAHNC@?$AAs?$AAe?$AAm?$AA?$AA@ 00595c5c     pjlib-i386-win32-vc8-debug:os_core_win32.obj
 0003:0001fc68       ??_C@_05JFHCBPOM@evt?$CFp?$AA@ 00595c68     pjlib-i386-win32-vc8-debug:os_core_win32.obj
 0003:0001fc70       ??_C@_1CE@LCHMPKLP@?$AAp?$AAo?$AAo?$AAl?$AA?5?$AA?$CG?$AA?$CG?$AA?5?$AAe?$AAv?$AAe?$AAn?$AAt?$AA_?$AAp?$AAt?$AAr?$AA?$AA@ 00595c70     pjlib-i386-win32-vc8-debug:os_core_win32.obj
 0003:0001fc9c       ??_C@_1M@IBCECAGJ@?$AAe?$AAv?$AAe?$AAn?$AAt?$AA?$AA@ 00595c9c     pjlib-i386-win32-vc8-debug:os_core_win32.obj
 0003:0001fcac       ??_C@_0M@IGFPEOLJ@cachingpool?$AA@ 00595cac     pjlib-i386-win32-vc8-debug:pool_caching.obj
 0003:0001fcbc       ??_C@_0DD@KAFBPNDE@d?3?2mygit?2pjproject?91?44?2pjlib?2src@ 00595cbc     pjlib-i386-win32-vc8-debug:pool_caching.obj
 0003:0001fcfc       ??_C@_0DD@ECGDPCBA@Pool?5is?5not?5released?5by?5applicat@ 00595cfc     pjlib-i386-win32-vc8-debug:pool_caching.obj
 0003:0001fd3c       ??_C@_19PJIDINHE@?$AAi?$AA?$DM?$AA1?$AA6?$AA?$AA@ 00595d3c     pjlib-i386-win32-vc8-debug:pool_caching.obj
 0003:0001fd48       ??_C@_1BG@FEHIFIBG@?$AAp?$AAf?$AA?5?$AA?$CG?$AA?$CG?$AA?5?$AAp?$AAo?$AAo?$AAl?$AA?$AA@ 00595d48     pjlib-i386-win32-vc8-debug:pool_caching.obj
 0003:0001fd68       ??_C@_1GG@MBCHAACK@?$AAd?$AA?3?$AA?2?$AAm?$AAy?$AAg?$AAi?$AAt?$AA?2?$AAp?$AAj?$AAp?$AAr?$AAo?$AAj?$AAe?$AAc?$AAt?$AA?9?$AA1?$AA?4?$AA4?$AA?2?$AAp?$AAj?$AAl?$AAi?$AAb?$AA?2?$AAs?$AAr?$AAc@ 00595d68     pjlib-i386-win32-vc8-debug:pool_caching.obj
 0003:0001fde4       ??_C@_0CB@GKBJPDKG@?5?5Total?5?$CF9d?5of?5?$CF9d?5?$CI?$CFd?5?$CF?$CF?$CJ?5used?$CB@ 00595de4     pjlib-i386-win32-vc8-debug:pool_caching.obj
 0003:0001fe0c       ??_C@_0CA@MMLIKIEG@?5?5?5?$CF16s?3?5?$CF8d?5of?5?$CF8d?5?$CI?$CFd?$CF?$CF?$CJ?5used?$AA@ 00595e0c     pjlib-i386-win32-vc8-debug:pool_caching.obj
 0003:0001fe34       ??_C@_0BM@IDLDGCC@?5?5Dumping?5all?5active?5pools?3?$AA@ 00595e34     pjlib-i386-win32-vc8-debug:pool_caching.obj
 0003:0001fe58       ??_C@_0CN@DOKPIIOH@?5?5?5Capacity?$DN?$CFu?0?5max_capacity?$DN?$CFu?0@ 00595e58     pjlib-i386-win32-vc8-debug:pool_caching.obj
 0003:0001fe90       ??_C@_08COPEICHG@cachpool?$AA@ 00595e90     pjlib-i386-win32-vc8-debug:pool_caching.obj
 0003:0001fe9c       ??_C@_0BH@BBPHJKOA@?5Dumping?5caching?5pool?3?$AA@ 00595e9c     pjlib-i386-win32-vc8-debug:pool_caching.obj
 0003:0001feb8       ??_C@_08KJEDNCKC@?$CFs?$CFs?$CFs?$CFs?$AA@ 00595eb8     pjlib-i386-win32-vc8-debug:sock_common.obj
 0003:0001fec4       ??_C@_03HODKBCIO@?3?$CFd?$AA@ 00595ec4     pjlib-i386-win32-vc8-debug:sock_common.obj
 0003:0001fec8       ??_C@_1EI@LMAIDKEG@?$AA?$CB?$AAs?$AAt?$AAr?$AA_?$AAa?$AAd?$AAd?$AAr?$AA?5?$AA?$HM?$AA?$HM?$AA?5?$AAs?$AAt?$AAr?$AA_?$AAa?$AAd?$AAd?$AAr?$AA?9?$AA?$DO?$AAs?$AAl?$AAe?$AAn?$AA?5?$AA?$DM?$AA?5?$AA?$CI?$AA1@ 00595ec8     pjlib-i386-win32-vc8-debug:sock_common.obj
 0003:0001ff20       ??_C@_1GE@NJGOJLHF@?$AAd?$AA?3?$AA?2?$AAm?$AAy?$AAg?$AAi?$AAt?$AA?2?$AAp?$AAj?$AAp?$AAr?$AAo?$AAj?$AAe?$AAc?$AAt?$AA?9?$AA1?$AA?4?$AA4?$AA?2?$AAp?$AAj?$AAl?$AAi?$AAb?$AA?2?$AAs?$AAr?$AAc@ 00595f20     pjlib-i386-win32-vc8-debug:sock_common.obj
 0003:0001ff98       ??_C@_0DC@HPFAILKA@d?3?2mygit?2pjproject?91?44?2pjlib?2src@ 00595f98     pjlib-i386-win32-vc8-debug:sock_common.obj
 0003:0001ffd4       ??_C@_1CA@EINGOHHA@?$AAa?$AAf?$AA?$DN?$AA?$DN?$AAP?$AAJ?$AA_?$AAA?$AAF?$AA_?$AAI?$AAN?$AAE?$AAT?$AA6?$AA?$AA@ 00595fd4     pjlib-i386-win32-vc8-debug:sock_common.obj
 0003:0001fffc       ??_C@_19CEKCHDNN@?$AAa?$AAd?$AAd?$AAr?$AA?$AA@ 00595ffc     pjlib-i386-win32-vc8-debug:sock_common.obj
 0003:00020008       ??_C@_1II@IEDNCJLG@?$AAa?$AA?9?$AA?$DO?$AAa?$AAd?$AAd?$AAr?$AA?4?$AAs?$AAa?$AA_?$AAf?$AAa?$AAm?$AAi?$AAl?$AAy?$AA?5?$AA?$DN?$AA?$DN?$AA?5?$AAP?$AAJ?$AA_?$AAA?$AAF?$AA_?$AAI?$AAN?$AAE?$AAT?$AA?5@ 00596008     pjlib-i386-win32-vc8-debug:sock_common.obj
 0003:000200b0       ??_C@_1LE@BCBAMGPH@?$AA?$CI?$AAa?$AAf?$AA?$DN?$AA?$DN?$AAP?$AAJ?$AA_?$AAA?$AAF?$AA_?$AAI?$AAN?$AAE?$AAT?$AA?5?$AA?$HM?$AA?$HM?$AA?5?$AAa?$AAf?$AA?$DN?$AA?$DN?$AAP?$AAJ?$AA_?$AAA?$AAF?$AA_?$AAI?$AAN?$AAE@ 005960b0     pjlib-i386-win32-vc8-debug:sock_common.obj
 0003:00020188       ??_C@_1GM@GCDHCLKA@?$AAa?$AAf?$AA?$DN?$AA?$DN?$AAP?$AAJ?$AA_?$AAA?$AAF?$AA_?$AAU?$AAN?$AAS?$AAP?$AAE?$AAC?$AA?5?$AA?$HM?$AA?$HM?$AA?5?$AAa?$AAf?$AA?$DN?$AA?$DN?$AAP?$AAJ?$AA_?$AAA?$AAF?$AA_?$AAI?$AAN@ 00596188     pjlib-i386-win32-vc8-debug:sock_common.obj
 0003:00020210       ??_C@_1FK@OKOAJPPE@?$AAa?$AAi?$AA?4?$AAa?$AAi?$AA_?$AAa?$AAd?$AAd?$AAr?$AA?4?$AAa?$AAd?$AAd?$AAr?$AA?4?$AAs?$AAa?$AA_?$AAf?$AAa?$AAm?$AAi?$AAl?$AAy?$AA?5?$AA?$DN?$AA?$DN?$AA?5?$AA?$CI?$AAp?$AAj@ 00596210     pjlib-i386-win32-vc8-debug:sock_common.obj
 0003:0002027c       ??_C@_04NFKLOGOF@1?3?31?$AA@ 0059627c     pjlib-i386-win32-vc8-debug:sock_common.obj
 0003:00020284       ??_C@_07EBPGIHEF@1?41?41?41?$AA@ 00596284     pjlib-i386-win32-vc8-debug:sock_common.obj
 0003:00020290       ??_C@_0DJ@OCCONKIP@d?3?2mygit?2pjproject?91?44?2pjlib?2src@ 00596290     pjlib-i386-win32-vc8-debug:pool_policy_malloc.obj
 0003:000202d4       ??_C@_0CM@HNEMPJLO@d?3?2mygit?2pjproject?91?44?2pjlib?2src@ 005962d4     pjlib-i386-win32-vc8-debug:types.obj
 0003:00020308       ??_C@_0CK@DJAHHNOI@Unsupported?5address?5family?5?$CIPJ_E@ 00596308     pjlib-i386-win32-vc8-debug:errno.obj
 0003:0002033c       ??_C@_0CH@OGOOBJBE@IPv6?5is?5not?5supported?5?$CIPJ_EIPV6N@ 0059633c     pjlib-i386-win32-vc8-debug:errno.obj
 0003:0002036c       ??_C@_0BG@NBDJGAFI@Ignored?5?$CIPJ_EIGNORED?$CJ?$AA@ 0059636c     pjlib-i386-win32-vc8-debug:errno.obj
 0003:00020388       ??_C@_0CB@MGGLJMNO@Size?5is?5too?5short?5?$CIPJ_ETOOSMALL?$CJ@ 00596388     pjlib-i386-win32-vc8-debug:errno.obj
 0003:000203b0       ??_C@_0DB@FDCHLEID@gethostbyname?$CI?$CJ?5has?5returned?5err@ 005963b0     pjlib-i386-win32-vc8-debug:errno.obj
 0003:000203ec       ??_C@_0BN@PCCNBFLN@Size?5is?5too?5big?5?$CIPJ_ETOOBIG?$CJ?$AA@ 005963ec     pjlib-i386-win32-vc8-debug:errno.obj
 0003:00020410       ??_C@_0BG@GMBDFNLN@End?5of?5file?5?$CIPJ_EEOF?$CJ?$AA@ 00596410     pjlib-i386-win32-vc8-debug:errno.obj
 0003:0002042c       ??_C@_0CD@LODOFNLC@Object?5already?5exists?5?$CIPJ_EEXIST@ 0059642c     pjlib-i386-win32-vc8-debug:errno.obj
 0003:00020458       ??_C@_0CE@KDDMJLGF@Operation?5cancelled?5?$CIPJ_ECANCELL@ 00596458     pjlib-i386-win32-vc8-debug:errno.obj
 0003:00020484       ??_C@_0CC@OEEEEEML@Invalid?5operation?5?$CIPJ_EINVALIDOP@ 00596484     pjlib-i386-win32-vc8-debug:errno.obj
 0003:000204ac       ??_C@_0CP@BAIBJOJE@Option?1operation?5is?5not?5supporte@ 005964ac     pjlib-i386-win32-vc8-debug:errno.obj
 0003:000204e4       ??_C@_0BK@OMPILOH@Object?5is?5busy?5?$CIPJ_EBUSY?$CJ?$AA@ 005964e4     pjlib-i386-win32-vc8-debug:errno.obj
 0003:00020504       ??_C@_0DF@MIFNAIHL@Too?5many?5objects?5of?5the?5specifie@ 00596504     pjlib-i386-win32-vc8-debug:errno.obj
 0003:00020544       ??_C@_0CD@JOGIDHPJ@Operation?5timed?5out?5?$CIPJ_ETIMEDOU@ 00596544     pjlib-i386-win32-vc8-debug:errno.obj
 0003:00020570       ??_C@_0BI@HHGDCAID@BUG?5DETECTED?$CB?5?$CIPJ_EBUG?$CJ?$AA@ 00596570     pjlib-i386-win32-vc8-debug:errno.obj
 0003:0002058c       ??_C@_0BO@GOLCMJKK@Not?5enough?5memory?5?$CIPJ_ENOMEM?$CJ?$AA@ 0059658c     pjlib-i386-win32-vc8-debug:errno.obj
 0003:000205b0       ??_C@_0BJ@JNKLPII@Not?5found?5?$CIPJ_ENOTFOUND?$CJ?$AA@ 005965b0     pjlib-i386-win32-vc8-debug:errno.obj
 0003:000205d0       ??_C@_0CA@GJABNEKD@Name?5too?5long?5?$CIPJ_ENAMETOOLONG?$CJ?$AA@ 005965d0     pjlib-i386-win32-vc8-debug:errno.obj
 0003:000205f8       ??_C@_0CG@CBCJBJGD@Invalid?5value?5or?5argument?5?$CIPJ_EI@ 005965f8     pjlib-i386-win32-vc8-debug:errno.obj
 0003:00020628       ??_C@_0CO@GABEOAFF@Too?5many?5connecting?5sockets?5?$CIPJ_@ 00596628     pjlib-i386-win32-vc8-debug:errno.obj
 0003:00020660       ??_C@_0CA@DCLOOJGD@Pending?5operation?5?$CIPJ_EPENDING?$CJ?$AA@ 00596660     pjlib-i386-win32-vc8-debug:errno.obj
 0003:00020688       ??_C@_0BM@FLPPOGAG@Unknown?5Error?5?$CIPJ_EUNKNOWN?$CJ?$AA@ 00596688     pjlib-i386-win32-vc8-debug:errno.obj
 0003:00020788       ??_C@_1FK@DLNOOHBD@?$AAs?$AAt?$AAa?$AAr?$AAt?$AA?5?$AA?$DO?$AA?$DN?$AA?5?$AA?$CI?$AA?$CI?$AA?$CI?$AA2?$AA0?$AA0?$AA0?$AA0?$AA?5?$AA?$CL?$AA?5?$AA5?$AA0?$AA0?$AA0?$AA0?$AA?$CJ?$AA?5?$AA?$CL?$AA?5?$AA5?$AA0?$AA0@ 00596788     pjlib-i386-win32-vc8-debug:errno.obj
 0003:000207f8       ??_C@_1HO@NFELGIHB@?$AAe?$AAr?$AAr?$AA_?$AAm?$AAs?$AAg?$AA_?$AAh?$AAn?$AAd?$AA_?$AAc?$AAn?$AAt?$AA?5?$AA?$DM?$AA?5?$AA?$CI?$AAs?$AAi?$AAz?$AAe?$AAo?$AAf?$AA?$CI?$AAe?$AAr?$AAr?$AA_?$AAm?$AAs@ 005967f8     pjlib-i386-win32-vc8-debug:errno.obj
 0003:00020890       ??_C@_1CI@LKNPLGGB@?$AAs?$AAt?$AAa?$AAr?$AAt?$AA?5?$AA?$CG?$AA?$CG?$AA?5?$AAs?$AAp?$AAa?$AAc?$AAe?$AA?5?$AA?$CG?$AA?$CG?$AA?5?$AAf?$AA?$AA@ 00596890     pjlib-i386-win32-vc8-debug:errno.obj
 0003:000208c0       ??_C@_1FI@FNLMDAID@?$AAd?$AA?3?$AA?2?$AAm?$AAy?$AAg?$AAi?$AAt?$AA?2?$AAp?$AAj?$AAp?$AAr?$AAo?$AAj?$AAe?$AAc?$AAt?$AA?9?$AA1?$AA?4?$AA4?$AA?2?$AAp?$AAj?$AAl?$AAi?$AAb?$AA?2?$AAs?$AAr?$AAc@ 005968c0     pjlib-i386-win32-vc8-debug:errno.obj
 0003:0002092c       ??_C@_0BB@BIKLJNJD@Unknown?5error?5?$CFd?$AA@ 0059692c     pjlib-i386-win32-vc8-debug:errno.obj
 0003:00020940       ??_C@_07PBILKAFL@Success?$AA@ 00596940     pjlib-i386-win32-vc8-debug:errno.obj
 0003:0002094c       ??_C@_1BO@OJPHOMAD@?$AAb?$AAu?$AAf?$AA?5?$AA?$CG?$AA?$CG?$AA?5?$AAb?$AAu?$AAf?$AAs?$AAi?$AAz?$AAe?$AA?$AA@ 0059694c     pjlib-i386-win32-vc8-debug:errno.obj
 0003:00020970       ??_C@_0BH@ONDLFCEA@Unknown?5pjlib?5error?5?$CFd?$AA@ 00596970     pjlib-i386-win32-vc8-debug:errno.obj
 0003:0002098c       ??_C@_06DJHOIPC@?$CFs?3?5?$CFs?$AA@ 0059698c     pjlib-i386-win32-vc8-debug:errno.obj
 0003:00020994       ??_C@_05NAOIJFC@Error?$AA@ 00596994     pjlib-i386-win32-vc8-debug:errno.obj
 0003:0002099c       ??_C@_0CL@FFFGEIIM@d?3?2mygit?2pjproject?91?44?2pjlib?2src@ 0059699c     pjlib-i386-win32-vc8-debug:rand.obj
 0003:000209d0       ??_C@_1BO@IFOFGLKN@?$AAp?$AAo?$AAo?$AAl?$AA?5?$AA?$CG?$AA?$CG?$AA?5?$AAp?$AA_?$AAh?$AAe?$AAa?$AAp?$AA?$AA@ 005969d0     pjlib-i386-win32-vc8-debug:timer.obj
 0003:000209f8       ??_C@_1FI@FNKLDFIN@?$AAd?$AA?3?$AA?2?$AAm?$AAy?$AAg?$AAi?$AAt?$AA?2?$AAp?$AAj?$AAp?$AAr?$AAo?$AAj?$AAe?$AAc?$AAt?$AA?9?$AA1?$AA?4?$AA4?$AA?2?$AAp?$AAj?$AAl?$AAi?$AAb?$AA?2?$AAs?$AAr?$AAc@ 005969f8     pjlib-i386-win32-vc8-debug:timer.obj
 0003:00020a64       ??_C@_1BI@DEOIKAPM@?$AAe?$AAn?$AAt?$AAr?$AAy?$AA?5?$AA?$CG?$AA?$CG?$AA?5?$AAc?$AAb?$AA?$AA@ 00596a64     pjlib-i386-win32-vc8-debug:timer.obj
 0003:00020a80       ??_C@_1CK@BOBACKKA@?$AAe?$AAn?$AAt?$AAr?$AAy?$AA?9?$AA?$DO?$AA_?$AAt?$AAi?$AAm?$AAe?$AAr?$AA_?$AAi?$AAd?$AA?5?$AA?$DM?$AA?5?$AA1?$AA?$AA@ 00596a80     pjlib-i386-win32-vc8-debug:timer.obj
 0003:00020ab4       ??_C@_1DC@NCOGDIAG@?$AAe?$AAn?$AAt?$AAr?$AAy?$AA?9?$AA?$DO?$AAc?$AAb?$AA?5?$AA?$CB?$AA?$DN?$AA?5?$AA?$CI?$AA?$CI?$AAv?$AAo?$AAi?$AAd?$AA?5?$AA?$CK?$AA?$CJ?$AA0?$AA?$CJ?$AA?$AA@ 00596ab4     pjlib-i386-win32-vc8-debug:timer.obj
 0003:00020af0       ??_C@_1CK@NIFHNMEB@?$AAh?$AAt?$AA?5?$AA?$CG?$AA?$CG?$AA?5?$AAe?$AAn?$AAt?$AAr?$AAy?$AA?5?$AA?$CG?$AA?$CG?$AA?5?$AAd?$AAe?$AAl?$AAa?$AAy?$AA?$AA@ 00596af0     pjlib-i386-win32-vc8-debug:timer.obj
 0003:00020b24       ??_C@_0CM@BNGGBDFA@d?3?2mygit?2pjproject?91?44?2pjlib?2src@ 00596b24     pjlib-i386-win32-vc8-debug:timer.obj
 0003:00020b58       ??_C@_1BI@CGKKKIHJ@?$AAh?$AAt?$AA?5?$AA?$CG?$AA?$CG?$AA?5?$AAe?$AAn?$AAt?$AAr?$AAy?$AA?$AA@ 00596b58     pjlib-i386-win32-vc8-debug:timer.obj
 0003:00020b78       ??_C@_1EG@MEMOBNLP@?$AAe?$AAn?$AAt?$AAr?$AAy?$AA?5?$AA?$DN?$AA?$DN?$AA?5?$AAh?$AAt?$AA?9?$AA?$DO?$AAh?$AAe?$AAa?$AAp?$AA?$FL?$AAt?$AAi?$AAm?$AAe?$AAr?$AA_?$AAn?$AAo?$AAd?$AAe?$AA_?$AAs?$AAl?$AAo@ 00596b78     pjlib-i386-win32-vc8-debug:timer.obj
 0003:00020bcc       ??_C@_15EOMHOEKA@?$AAh?$AAt?$AA?$AA@ 00596bcc     pjlib-i386-win32-vc8-debug:timer.obj
 0003:00020bd4       ??_C@_1CE@GFFKOKMD@?$AAh?$AAt?$AA?9?$AA?$DO?$AAc?$AAu?$AAr?$AA_?$AAs?$AAi?$AAz?$AAe?$AA?5?$AA?$CB?$AA?$DN?$AA?5?$AA0?$AA?$AA@ 00596bd4     pjlib-i386-win32-vc8-debug:timer.obj
 0003:00020c00       ??_C@_1CO@MDLDAOGN@?$AAh?$AAa?$AAn?$AAd?$AAl?$AAe?$AAr?$AA?5?$AA?$CB?$AA?$DN?$AA?5?$AA?$CI?$AA?$CI?$AAv?$AAo?$AAi?$AAd?$AA?5?$AA?$CK?$AA?$CJ?$AA0?$AA?$CJ?$AA?$AA@ 00596c00     pjlib-i386-win32-vc8-debug:except.obj
 0003:00020c38       ??_C@_1FK@MAPNBBJE@?$AAd?$AA?3?$AA?2?$AAm?$AAy?$AAg?$AAi?$AAt?$AA?2?$AAp?$AAj?$AAp?$AAr?$AAo?$AAj?$AAe?$AAc?$AAt?$AA?9?$AA1?$AA?4?$AA4?$AA?2?$AAp?$AAj?$AAl?$AAi?$AAb?$AA?2?$AAs?$AAr?$AAc@ 00596c38     pjlib-i386-win32-vc8-debug:except.obj
 0003:00020ca4       ??_C@_08PDFMOJIE@except?4c?$AA@ 00596ca4     pjlib-i386-win32-vc8-debug:except.obj
 0003:00020cb0       ??_C@_0CD@KFHCCJFN@?$CB?$CB?$CBFATAL?3?5unhandled?5exception?5?$CFs@ 00596cb0     pjlib-i386-win32-vc8-debug:except.obj
 0003:00020cdc       ??_C@_1CM@CIICDJMC@?$AAt?$AAh?$AAr?$AAe?$AAa?$AAd?$AA_?$AAl?$AAo?$AAc?$AAa?$AAl?$AA_?$AAi?$AAd?$AA?5?$AA?$CB?$AA?$DN?$AA?5?$AA?9?$AA1?$AA?$AA@ 00596cdc     pjlib-i386-win32-vc8-debug:except.obj
 0003:00020d10       ??_C@_1BM@OONEPGEP@?$AAi?$AAd?$AA?$DO?$AA0?$AA?5?$AA?$CG?$AA?$CG?$AA?5?$AAi?$AAd?$AA?$DM?$AA1?$AA6?$AA?$AA@ 00596d10     pjlib-i386-win32-vc8-debug:except.obj
 0003:00020d34       ??_C@_0N@LJPLLMIL@exception?5?$CFd?$AA@ 00596d34     pjlib-i386-win32-vc8-debug:except.obj
 0003:00020d44       ??_C@_0N@GJOLEKJC@?$DMInvalid?5ID?$DO?$AA@ 00596d44     pjlib-i386-win32-vc8-debug:except.obj
 0003:00020d54       _PJ_GUID_STRING_LENGTH     00596d54     pjlib-i386-win32-vc8-debug:guid_win32.obj
 0003:00020d58       ??_C@_0DB@PJLEIDGO@d?3?2mygit?2pjproject?91?44?2pjlib?2src@ 00596d58     pjlib-i386-win32-vc8-debug:guid_win32.obj
 0003:00020d94       ??_C@_0CL@EEFOGHIH@d?3?2mygit?2pjproject?91?44?2pjlib?2src@ 00596d94     pjlib-i386-win32-vc8-debug:hash.obj
 0003:00020dc8       ??_C@_1FG@JGMKFEMA@?$AAd?$AA?3?$AA?2?$AAm?$AAy?$AAg?$AAi?$AAt?$AA?2?$AAp?$AAj?$AAp?$AAr?$AAo?$AAj?$AAe?$AAc?$AAt?$AA?9?$AA1?$AA?4?$AA4?$AA?2?$AAp?$AAj?$AAl?$AAi?$AAb?$AA?2?$AAs?$AAr?$AAc@ 00596dc8     pjlib-i386-win32-vc8-debug:hash.obj
 0003:00020e30       ??_C@_1BG@OJJHGIJH@?$AAc?$AAo?$AAu?$AAn?$AAt?$AA?5?$AA?$CB?$AA?$DN?$AA?5?$AA0?$AA?$AA@ 00596e30     pjlib-i386-win32-vc8-debug:array.obj
 0003:00020e50       ??_C@_1FI@MCFCBPCF@?$AAd?$AA?3?$AA?2?$AAm?$AAy?$AAg?$AAi?$AAt?$AA?2?$AAp?$AAj?$AAp?$AAr?$AAo?$AAj?$AAe?$AAc?$AAt?$AA?9?$AA1?$AA?4?$AA4?$AA?2?$AAp?$AAj?$AAl?$AAi?$AAb?$AA?2?$AAs?$AAr?$AAc@ 00596e50     pjlib-i386-win32-vc8-debug:array.obj
 0003:00020ebc       ??_C@_1CA@KCHPHKDA@?$AAi?$AAo?$AAq?$AAu?$AAe?$AAu?$AAe?$AA?5?$AA?$CG?$AA?$CG?$AA?5?$AAl?$AAo?$AAc?$AAk?$AA?$AA@ 00596ebc     pjlib-i386-win32-vc8-debug:ioqueue_select.obj
 0003:00020ee8       ??_C@_1HC@IJKGENJH@?$AAd?$AA?3?$AA?2?$AAm?$AAy?$AAg?$AAi?$AAt?$AA?2?$AAp?$AAj?$AAp?$AAr?$AAo?$AAj?$AAe?$AAc?$AAt?$AA?9?$AA1?$AA?4?$AA4?$AA?2?$AAp?$AAj?$AAl?$AAi?$AAb?$AA?2?$AAs?$AAr?$AAc@ 00596ee8     pjlib-i386-win32-vc8-debug:ioqueue_select.obj
 0003:00020f70       ??_C@_1CG@DEMIAMFE@?$AAk?$AAe?$AAy?$AA?5?$AA?$CB?$AA?$DN?$AA?5?$AA?$CI?$AA?$CI?$AAv?$AAo?$AAi?$AAd?$AA?5?$AA?$CK?$AA?$CJ?$AA0?$AA?$CJ?$AA?$AA@ 00596f70     pjlib-i386-win32-vc8-debug:ioqueue_select.obj
 0003:00020fa0       ??_C@_17FJFCONIE@?$AAk?$AAe?$AAy?$AA?$AA@ 00596fa0     pjlib-i386-win32-vc8-debug:ioqueue_select.obj
 0003:00020fac       ??_C@_1BI@EKGFNMKL@?$AAs?$AAe?$AAn?$AAd?$AA_?$AAr?$AAc?$AA?5?$AA?$DO?$AA?5?$AA0?$AA?$AA@ 00596fac     pjlib-i386-win32-vc8-debug:ioqueue_select.obj
 0003:00020fc8       ??_C@_1DG@KDBMKDML@?$AA?$CB?$AA?$CC?$AAI?$AAn?$AAv?$AAa?$AAl?$AAi?$AAd?$AA?5?$AAo?$AAp?$AAe?$AAr?$AAa?$AAt?$AAi?$AAo?$AAn?$AA?5?$AAt?$AAy?$AAp?$AAe?$AA?$CB?$AA?$CC?$AA?$AA@ 00596fc8     pjlib-i386-win32-vc8-debug:ioqueue_select.obj
 0003:00021008       ??_C@_0BI@NKJLJNEF@Invalid?5operation?5type?$CB?$AA@ 00597008     pjlib-i386-win32-vc8-debug:ioqueue_select.obj
 0003:00021028       ??_C@_1EE@CNIDBBIK@?$AAr?$AAe?$AAa?$AAd?$AA_?$AAo?$AAp?$AA?9?$AA?$DO?$AAo?$AAp?$AA?5?$AA?$DN?$AA?$DN?$AA?5?$AAP?$AAJ?$AA_?$AAI?$AAO?$AAQ?$AAU?$AAE?$AAU?$AAE?$AA_?$AAO?$AAP?$AA_?$AAR?$AAE?$AAA@ 00597028     pjlib-i386-win32-vc8-debug:ioqueue_select.obj
 0003:0002107c       ??_C@_0DJ@LEHEFFKN@d?3?2mygit?2pjproject?91?44?2pjlib?2src@ 0059707c     pjlib-i386-win32-vc8-debug:ioqueue_select.obj
 0003:000210c0       ??_C@_1EE@GPIKMDPH@?$AAk?$AAe?$AAy?$AA?5?$AA?$CG?$AA?$CG?$AA?5?$AAo?$AAp?$AA_?$AAk?$AAe?$AAy?$AA?5?$AA?$CG?$AA?$CG?$AA?5?$AAb?$AAu?$AAf?$AAf?$AAe?$AAr?$AA?5?$AA?$CG?$AA?$CG?$AA?5?$AAl?$AAe?$AAn?$AAg?$AAt@ 005970c0     pjlib-i386-win32-vc8-debug:ioqueue_select.obj
 0003:00021118       ??_C@_1EA@PBLBPGMH@?$AAk?$AAe?$AAy?$AA?5?$AA?$CG?$AA?$CG?$AA?5?$AAo?$AAp?$AA_?$AAk?$AAe?$AAy?$AA?5?$AA?$CG?$AA?$CG?$AA?5?$AAd?$AAa?$AAt?$AAa?$AA?5?$AA?$CG?$AA?$CG?$AA?5?$AAl?$AAe?$AAn?$AAg?$AAt?$AAh?$AA?$AA@ 00597118     pjlib-i386-win32-vc8-debug:ioqueue_select.obj
 0003:00021168       ??_C@_1EO@LGPBHJKN@?$AAa?$AAd?$AAd?$AAr?$AAl?$AAe?$AAn?$AA?5?$AA?$DM?$AA?$DN?$AA?5?$AA?$CI?$AAi?$AAn?$AAt?$AA?$CJ?$AAs?$AAi?$AAz?$AAe?$AAo?$AAf?$AA?$CI?$AAp?$AAj?$AA_?$AAs?$AAo?$AAc?$AAk?$AAa?$AAd@ 00597168     pjlib-i386-win32-vc8-debug:ioqueue_select.obj
 0003:000211c8       ??_C@_1DE@IAHNELBK@?$AAk?$AAe?$AAy?$AA?5?$AA?$CG?$AA?$CG?$AA?5?$AAo?$AAp?$AA_?$AAk?$AAe?$AAy?$AA?5?$AA?$CG?$AA?$CG?$AA?5?$AAn?$AAe?$AAw?$AA_?$AAs?$AAo?$AAc?$AAk?$AA?$AA@ 005971c8     pjlib-i386-win32-vc8-debug:ioqueue_select.obj
 0003:00021208       ??_C@_1CO@PMKELHLG@?$AAk?$AAe?$AAy?$AA?5?$AA?$CG?$AA?$CG?$AA?5?$AAa?$AAd?$AAd?$AAr?$AA?5?$AA?$CG?$AA?$CG?$AA?5?$AAa?$AAd?$AAd?$AAr?$AAl?$AAe?$AAn?$AA?$AA@ 00597208     pjlib-i386-win32-vc8-debug:ioqueue_select.obj
 0003:00021240       ??_C@_1CO@FLGLFEIC@?$AAi?$AAo?$AAq?$AAu?$AAe?$AAu?$AAe?$AA?5?$AA?$CB?$AA?$DN?$AA?5?$AA?$CI?$AA?$CI?$AAv?$AAo?$AAi?$AAd?$AA?5?$AA?$CK?$AA?$CJ?$AA0?$AA?$CJ?$AA?$AA@ 00597240     pjlib-i386-win32-vc8-debug:ioqueue_select.obj
 0003:00021278       ??_C@_1BG@HNKGLEIM@?$AAa?$AAl?$AAl?$AAo?$AAw?$AA?5?$AA?$HM?$AA?$HM?$AA?5?$AA1?$AA?$AA@ 00597278     pjlib-i386-win32-vc8-debug:ioqueue_select.obj
 0003:00021294       ??_C@_06LGNCCACI@select?$AA@ 00597294     pjlib-i386-win32-vc8-debug:ioqueue_select.obj
 0003:0002129c       ??_C@_05PHKAINEA@pjlib?$AA@ 0059729c     pjlib-i386-win32-vc8-debug:ioqueue_select.obj
 0003:000212a4       ??_C@_0CA@IMDCINDN@select?$CI?$CJ?5I?1O?5Queue?5created?5?$CI?$CFp?$CJ?$AA@ 005972a4     pjlib-i386-win32-vc8-debug:ioqueue_select.obj
 0003:000212cc       ??_C@_05LIJONKFG@ioq?$CFp?$AA@ 005972cc     pjlib-i386-win32-vc8-debug:ioqueue_select.obj
 0003:000212d8       ??_C@_1KA@LNOEPJNH@?$AAp?$AAo?$AAo?$AAl?$AA?5?$AA?$CB?$AA?$DN?$AA?5?$AA?$CI?$AA?$CI?$AAv?$AAo?$AAi?$AAd?$AA?5?$AA?$CK?$AA?$CJ?$AA0?$AA?$CJ?$AA?5?$AA?$CG?$AA?$CG?$AA?5?$AAp?$AA_?$AAi?$AAo?$AAq?$AAu?$AAe?$AAu?$AAe@ 005972d8     pjlib-i386-win32-vc8-debug:ioqueue_select.obj
 0003:00021398       ??_C@_1GK@HOPALPNM@?$AAd?$AA?3?$AA?2?$AAm?$AAy?$AAg?$AAi?$AAt?$AA?2?$AAp?$AAj?$AAp?$AAr?$AAo?$AAj?$AAe?$AAc?$AAt?$AA?9?$AA1?$AA?4?$AA4?$AA?2?$AAp?$AAj?$AAl?$AAi?$AAb?$AA?2?$AAs?$AAr?$AAc@ 00597398     pjlib-i386-win32-vc8-debug:ioqueue_select.obj
 0003:00021418       ??_C@_1BA@ENKELKPH@?$AAi?$AAo?$AAq?$AAu?$AAe?$AAu?$AAe?$AA?$AA@ 00597418     pjlib-i386-win32-vc8-debug:ioqueue_select.obj
 0003:00021430       ??_C@_1EI@PJMCDAJH@?$AA?$CB?$AAp?$AAj?$AA_?$AAl?$AAi?$AAs?$AAt?$AA_?$AAe?$AAm?$AAp?$AAt?$AAy?$AA?$CI?$AA?$CG?$AAi?$AAo?$AAq?$AAu?$AAe?$AAu?$AAe?$AA?9?$AA?$DO?$AAf?$AAr?$AAe?$AAe?$AA_?$AAl?$AAi@ 00597430     pjlib-i386-win32-vc8-debug:ioqueue_select.obj
 0003:00021488       ??_C@_1FO@PPHPABF@?$AAp?$AAo?$AAo?$AAl?$AA?5?$AA?$CG?$AA?$CG?$AA?5?$AAi?$AAo?$AAq?$AAu?$AAe?$AAu?$AAe?$AA?5?$AA?$CG?$AA?$CG?$AA?5?$AAs?$AAo?$AAc?$AAk?$AA?5?$AA?$CB?$AA?$DN?$AA?5?$AA?$CI?$AA?9?$AA1?$AA?$CJ?$AA?5@ 00597488     pjlib-i386-win32-vc8-debug:ioqueue_select.obj
 0003:000214f8       ??_C@_1CI@INOOPFAE@?$AAk?$AAe?$AAy?$AA?9?$AA?$DO?$AAr?$AAe?$AAf?$AA_?$AAc?$AAo?$AAu?$AAn?$AAt?$AA?5?$AA?$DN?$AA?$DN?$AA?5?$AA0?$AA?$AA@ 005974f8     pjlib-i386-win32-vc8-debug:ioqueue_select.obj
 0003:00021528       ??_C@_1CG@PJOLFMEL@?$AAi?$AAo?$AAq?$AAu?$AAe?$AAu?$AAe?$AA?9?$AA?$DO?$AAc?$AAo?$AAu?$AAn?$AAt?$AA?5?$AA?$DO?$AA?5?$AA0?$AA?$AA@ 00597528     pjlib-i386-win32-vc8-debug:ioqueue_select.obj
 0003:00021558       ??_C@_1CE@KOHBIHOL@?$AAk?$AAe?$AAy?$AA?9?$AA?$DO?$AAc?$AAl?$AAo?$AAs?$AAi?$AAn?$AAg?$AA?5?$AA?$DN?$AA?$DN?$AA?5?$AA1?$AA?$AA@ 00597558     pjlib-i386-win32-vc8-debug:ioqueue_select.obj
 0003:00021584       ??_C@_1CA@OBALMACM@?$AAh?$AA?9?$AA?$DO?$AAc?$AAl?$AAo?$AAs?$AAi?$AAn?$AAg?$AA?5?$AA?$CB?$AA?$DN?$AA?5?$AA0?$AA?$AA@ 00597584     pjlib-i386-win32-vc8-debug:ioqueue_select.obj
 0003:000215ac       ??_C@_1CE@KOLKIPFK@?$AA?$CB?$AA?$CC?$AAI?$AAn?$AAv?$AAa?$AAl?$AAi?$AAd?$AA?5?$AAe?$AAv?$AAe?$AAn?$AAt?$AA?$CB?$AA?$CC?$AA?$AA@ 005975ac     pjlib-i386-win32-vc8-debug:ioqueue_select.obj
 0003:000215d8       ??_C@_0P@KEHJHANK@Invalid?5event?$CB?$AA@ 005975d8     pjlib-i386-win32-vc8-debug:ioqueue_select.obj
 0003:000215ec       ??_C@_1BK@HMAALPLD@?$AAp?$AAo?$AAo?$AAl?$AA?5?$AA?$CG?$AA?$CG?$AA?5?$AAl?$AAo?$AAc?$AAk?$AA?$AA@ 005975ec     pjlib-i386-win32-vc8-debug:lock.obj
 0003:00021610       ??_C@_1FG@MPHGIOMO@?$AAd?$AA?3?$AA?2?$AAm?$AAy?$AAg?$AAi?$AAt?$AA?2?$AAp?$AAj?$AAp?$AAr?$AAo?$AAj?$AAe?$AAc?$AAt?$AA?9?$AA1?$AA?4?$AA4?$AA?2?$AAp?$AAj?$AAl?$AAi?$AAb?$AA?2?$AAs?$AAr?$AAc@ 00597610     pjlib-i386-win32-vc8-debug:lock.obj
 0003:00021678       ??_C@_19LMCCMMJG@?$AAl?$AAo?$AAc?$AAk?$AA?$AA@ 00597678     pjlib-i386-win32-vc8-debug:lock.obj
 0003:00021684       ??_C@_1CI@EGCMNLMJ@?$AAl?$AAo?$AAc?$AAk?$AA?5?$AA?$CB?$AA?$DN?$AA?5?$AA?$CI?$AA?$CI?$AAv?$AAo?$AAi?$AAd?$AA?5?$AA?$CK?$AA?$CJ?$AA0?$AA?$CJ?$AA?$AA@ 00597684     pjlib-i386-win32-vc8-debug:lock.obj
 0003:000216b4       ??_C@_0DB@KFPHELLI@No?5host?5data?5of?5that?5type?5was?5fo@ 005976b4     pjlib-i386-win32-vc8-debug:os_error_win32.obj
 0003:000216f0       ??_C@_0CD@OEALOMDH@Host?5not?5found?5?$CIWSAHOST_NOT_FOUN@ 005976f0     pjlib-i386-win32-vc8-debug:os_error_win32.obj
 0003:0002171c       ??_C@_0CL@GFDHEKLB@Graceful?5shutdown?5in?5progress?5?$CIW@ 0059771c     pjlib-i386-win32-vc8-debug:os_error_win32.obj
 0003:00021750       ??_C@_0CO@HPDHHDHA@WSAStartup?5not?5yet?5called?5?$CIWSANO@ 00597750     pjlib-i386-win32-vc8-debug:os_error_win32.obj
 0003:00021788       ??_C@_0DC@BLAKHMMJ@Winsock?5version?5out?5of?5range?5?$CIWS@ 00597788     pjlib-i386-win32-vc8-debug:os_error_win32.obj
 0003:000217c4       ??_C@_0CP@IBAEMKGH@Network?5system?5is?5unavailable?5?$CIW@ 005977c4     pjlib-i386-win32-vc8-debug:os_error_win32.obj
 0003:000217fc       ??_C@_0CP@MLAFGPOA@Too?5many?5levels?5of?5remote?5in?5pat@ 005977fc     pjlib-i386-win32-vc8-debug:os_error_win32.obj
 0003:00021834       ??_C@_0CC@IMLIDHNH@Stale?5NFS?5file?5handle?5?$CIWSAESTALE@ 00597834     pjlib-i386-win32-vc8-debug:os_error_win32.obj
 0003:0002185c       ??_C@_0CA@MIOFDKMA@Disc?5quota?5exceeded?5?$CIWSAEDQUOT?$CJ?$AA@ 0059785c     pjlib-i386-win32-vc8-debug:os_error_win32.obj
 0003:00021884       ??_C@_0BL@IGHJMJKO@Too?5many?5users?5?$CIWSAEUSERS?$CJ?$AA@ 00597884     pjlib-i386-win32-vc8-debug:os_error_win32.obj
 0003:000218a4       ??_C@_0CB@GPCGLHOJ@Too?5many?5processes?5?$CIWSAEPROCLIM?$CJ@ 005978a4     pjlib-i386-win32-vc8-debug:os_error_win32.obj
 0003:000218cc       ??_C@_0CD@NEFLEHEG@Directory?5not?5empty?5?$CIWSAENOTEMPT@ 005978cc     pjlib-i386-win32-vc8-debug:os_error_win32.obj
 0003:000218f8       ??_C@_0CD@ECJOJHBH@No?5route?5to?5host?5?$CIWSAEHOSTUNREAC@ 005978f8     pjlib-i386-win32-vc8-debug:os_error_win32.obj
 0003:00021924       ??_C@_0BM@NCJCEEDP@Host?5is?5down?5?$CIWSAEHOSTDOWN?$CJ?$AA@ 00597924     pjlib-i386-win32-vc8-debug:os_error_win32.obj
 0003:00021948       ??_C@_0CF@MOFKOMBB@File?5name?5too?5long?5?$CIWSAENAMETOOL@ 00597948     pjlib-i386-win32-vc8-debug:os_error_win32.obj
 0003:00021974       ??_C@_0CN@FCKBNFMB@Too?5many?5levels?5of?5symbolic?5link@ 00597974     pjlib-i386-win32-vc8-debug:os_error_win32.obj
 0003:000219ac       ??_C@_0CF@JMKFBJH@Connection?5refused?5?$CIWSAECONNREFU@ 005979ac     pjlib-i386-win32-vc8-debug:os_error_win32.obj
 0003:000219d8       ??_C@_0CE@IIKHBGF@Connection?5timed?5out?5?$CIWSAETIMEDO@ 005979d8     pjlib-i386-win32-vc8-debug:os_error_win32.obj
 0003:00021a04       ??_C@_0DE@CAILNFFE@Too?5many?5references?0?5can?8t?5splic@ 00597a04     pjlib-i386-win32-vc8-debug:os_error_win32.obj
 0003:00021a44       ??_C@_0DA@JGJMJPNM@Can?8t?5send?5after?5socket?5shutdown@ 00597a44     pjlib-i386-win32-vc8-debug:os_error_win32.obj
 0003:00021a80       ??_C@_0CG@CECDMHLL@Socket?5is?5not?5connected?5?$CIWSAENOT@ 00597a80     pjlib-i386-win32-vc8-debug:os_error_win32.obj
 0003:00021ab0       ??_C@_0CJ@JOPBNNOD@Socket?5is?5already?5connected?5?$CIWSA@ 00597ab0     pjlib-i386-win32-vc8-debug:os_error_win32.obj
 0003:00021ae4       ??_C@_0CH@EKNGIMKN@No?5buffer?5space?5available?5?$CIWSAEN@ 00597ae4     pjlib-i386-win32-vc8-debug:os_error_win32.obj
 0003:00021b14       ??_C@_0CJ@PJHCFAAN@Connection?5reset?5by?5peer?5?$CIWSAECO@ 00597b14     pjlib-i386-win32-vc8-debug:os_error_win32.obj
 0003:00021b48       ??_C@_0DD@PGDIHOBG@Software?5caused?5connection?5abort@ 00597b48     pjlib-i386-win32-vc8-debug:os_error_win32.obj
 0003:00021b88       ??_C@_0CE@LJEEEFEC@Net?5connection?5reset?5?$CIWSAENETRES@ 00597b88     pjlib-i386-win32-vc8-debug:os_error_win32.obj
 0003:00021bb4       ??_C@_0CI@NKJAACME@Network?5is?5unreachable?5?$CIWSAENETU@ 00597bb4     pjlib-i386-win32-vc8-debug:os_error_win32.obj
 0003:00021be4       ??_C@_0BO@IICKDHLJ@Network?5is?5down?5?$CIWSAENETDOWN?$CJ?$AA@ 00597be4     pjlib-i386-win32-vc8-debug:os_error_win32.obj
 0003:00021c08       ??_C@_0DC@FJJPJPOD@Can?8t?5assign?5requested?5address?5?$CI@ 00597c08     pjlib-i386-win32-vc8-debug:os_error_win32.obj
 0003:00021c44       ??_C@_0CH@OCKNFBKE@Address?5already?5in?5use?5?$CIWSAEADDR@ 00597c44     pjlib-i386-win32-vc8-debug:os_error_win32.obj
 0003:00021c74       ??_C@_0CP@MMKHGIFC@Address?5family?5not?5supported?5?$CIWS@ 00597c74     pjlib-i386-win32-vc8-debug:os_error_win32.obj
 0003:00021cac       ??_C@_0DA@GFNBENIG@Protocol?5family?5not?5supported?5?$CIW@ 00597cac     pjlib-i386-win32-vc8-debug:os_error_win32.obj
 0003:00021ce8       ??_C@_0DC@GJMFANID@Operation?5not?5supported?5on?5socke@ 00597ce8     pjlib-i386-win32-vc8-debug:os_error_win32.obj
 0003:00021d24       ??_C@_0CP@JLBNHCOL@Socket?5type?5not?5supported?5?$CIWSAES@ 00597d24     pjlib-i386-win32-vc8-debug:os_error_win32.obj
 0003:00021d5c       ??_C@_0CM@HPGHEHCE@Protocol?5not?5supported?5?$CIWSAEPROT@ 00597d5c     pjlib-i386-win32-vc8-debug:os_error_win32.obj
 0003:00021d90       ??_C@_0CF@HNFLHOHA@Bad?5protocol?5option?5?$CIWSAENOPROTO@ 00597d90     pjlib-i386-win32-vc8-debug:os_error_win32.obj
 0003:00021dbc       ??_C@_0CP@MMIMIEMF@Protocol?5wrong?5type?5for?5socket?5?$CI@ 00597dbc     pjlib-i386-win32-vc8-debug:os_error_win32.obj
 0003:00021df4       ??_C@_0BP@LNFPBFEK@Message?5too?5long?5?$CIWSAEMSGSIZE?$CJ?$AA@ 00597df4     pjlib-i386-win32-vc8-debug:os_error_win32.obj
 0003:00021e1c       ??_C@_0CP@HCDICECK@Destination?5address?5required?5?$CIWS@ 00597e1c     pjlib-i386-win32-vc8-debug:os_error_win32.obj
 0003:00021e54       ??_C@_0CN@PAFKDEBN@Socket?5operation?5on?5non?9socket?5?$CI@ 00597e54     pjlib-i386-win32-vc8-debug:os_error_win32.obj
 0003:00021e8c       ??_C@_0CM@BEMCBKDH@Operation?5already?5in?5progress?5?$CIW@ 00597e8c     pjlib-i386-win32-vc8-debug:os_error_win32.obj
 0003:00021ec0       ??_C@_0CL@DKGHEPCD@Operation?5now?5in?5progress?5?$CIWSAEI@ 00597ec0     pjlib-i386-win32-vc8-debug:os_error_win32.obj
 0003:00021ef4       ??_C@_0CH@GCPPFMGM@Operation?5would?5block?5?$CIWSAEWOULD@ 00597ef4     pjlib-i386-win32-vc8-debug:os_error_win32.obj
 0003:00021f24       ??_C@_0CC@HMKKNDGL@Too?5many?5open?5sockets?5?$CIWSAEMFILE@ 00597f24     pjlib-i386-win32-vc8-debug:os_error_win32.obj
 0003:00021f4c       ??_C@_0BN@FEIDINKH@Invalid?5argument?5?$CIWSAEINVAL?$CJ?$AA@ 00597f4c     pjlib-i386-win32-vc8-debug:os_error_win32.obj
 0003:00021f70       ??_C@_0BI@LAKHPJJ@Bad?5address?5?$CIWSAEFAULT?$CJ?$AA@ 00597f70     pjlib-i386-win32-vc8-debug:os_error_win32.obj
 0003:00021f8c       ??_C@_0BO@BMBEEPBP@Permission?5denied?5?$CIWSAEACCES?$CJ?$AA@ 00597f8c     pjlib-i386-win32-vc8-debug:os_error_win32.obj
 0003:00021fb0       ??_C@_0BL@OKPDNKLH@Bad?5file?5number?5?$CIWSAEBADF?$CJ?$AA@ 00597fb0     pjlib-i386-win32-vc8-debug:os_error_win32.obj
 0003:00021fd0       ??_C@_0CD@FNMHLHMI@Interrupted?5system?5call?5?$CIWSAEINT@ 00597fd0     pjlib-i386-win32-vc8-debug:os_error_win32.obj
 0003:000221e0       ??_C@_0BE@JPHLLAEM@Win32?5error?5code?5?$CFu?$AA@ 005981e0     pjlib-i386-win32-vc8-debug:os_error_win32.obj
 0003:000221f8       ??_C@_1BK@KKHIEKEI@?$AAb?$AAu?$AAf?$AAs?$AAi?$AAz?$AAe?$AA?5?$AA?$DO?$AA?$DN?$AA?5?$AA0?$AA?$AA@ 005981f8     pjlib-i386-win32-vc8-debug:os_error_win32.obj
 0003:00022218       ??_C@_1CG@MKDKEIKM@?$AAb?$AAu?$AAf?$AA?5?$AA?$CB?$AA?$DN?$AA?5?$AA?$CI?$AA?$CI?$AAv?$AAo?$AAi?$AAd?$AA?5?$AA?$CK?$AA?$CJ?$AA0?$AA?$CJ?$AA?$AA@ 00598218     pjlib-i386-win32-vc8-debug:os_error_win32.obj
 0003:00022248       ??_C@_1GK@JKFBBHJD@?$AAd?$AA?3?$AA?2?$AAm?$AAy?$AAg?$AAi?$AAt?$AA?2?$AAp?$AAj?$AAp?$AAr?$AAo?$AAj?$AAe?$AAc?$AAt?$AA?9?$AA1?$AA?4?$AA4?$AA?2?$AAp?$AAj?$AAl?$AAi?$AAb?$AA?2?$AAs?$AAr?$AAc@ 00598248     pjlib-i386-win32-vc8-debug:os_error_win32.obj
 0003:000222c8       ??_C@_1EI@LHIOBFFM@?$AAh?$AAo?$AAs?$AAt?$AAn?$AAa?$AAm?$AAe?$AA?5?$AA?$CG?$AA?$CG?$AA?5?$AAh?$AAo?$AAs?$AAt?$AAn?$AAa?$AAm?$AAe?$AA?5?$AA?9?$AA?$DO?$AAs?$AAl?$AAe?$AAn?$AA?5?$AA?$DM?$AA?5?$AA?$CI?$AA1@ 005982c8     pjlib-i386-win32-vc8-debug:addr_resolv_sock.obj
 0003:00022320       ??_C@_1GO@CDNHLFLG@?$AAd?$AA?3?$AA?2?$AAm?$AAy?$AAg?$AAi?$AAt?$AA?2?$AAp?$AAj?$AAp?$AAr?$AAo?$AAj?$AAe?$AAc?$AAt?$AA?9?$AA1?$AA?4?$AA4?$AA?2?$AAp?$AAj?$AAl?$AAi?$AAb?$AA?2?$AAs?$AAr?$AAc@ 00598320     pjlib-i386-win32-vc8-debug:addr_resolv_sock.obj
 0003:000223a4       ??_C@_1CA@LMDHKGAC@?$AAc?$AAo?$AAu?$AAn?$AAt?$AA?5?$AA?$CG?$AA?$CG?$AA?5?$AA?$CK?$AAc?$AAo?$AAu?$AAn?$AAt?$AA?$AA@ 005983a4     pjlib-i386-win32-vc8-debug:addr_resolv_sock.obj
 0003:000223cc       ??_C@_1BI@BGGDHCPA@?$AAb?$AAu?$AAf?$AA?5?$AA?$CG?$AA?$CG?$AA?5?$AAs?$AAi?$AAz?$AAe?$AA?$AA@ 005983cc     pjlib-i386-win32-vc8-debug:pool_buf.obj
 0003:000223e8       ??_C@_1FO@FCDKOOFF@?$AAd?$AA?3?$AA?2?$AAm?$AAy?$AAg?$AAi?$AAt?$AA?2?$AAp?$AAj?$AAp?$AAr?$AAo?$AAj?$AAe?$AAc?$AAt?$AA?9?$AA1?$AA?4?$AA4?$AA?2?$AAp?$AAj?$AAl?$AAi?$AAb?$AA?2?$AAs?$AAr?$AAc@ 005983e8     pjlib-i386-win32-vc8-debug:pool_buf.obj
 0003:00022458       ??_C@_1CI@HJOGHDAN@?$AAs?$AAi?$AAz?$AAe?$AA?5?$AA?$DM?$AA?$DN?$AA?5?$AAp?$AAa?$AAr?$AAa?$AAm?$AA?9?$AA?$DO?$AAs?$AAi?$AAz?$AAe?$AA?$AA@ 00598458     pjlib-i386-win32-vc8-debug:pool_buf.obj
 0003:00022488       ??_C@_09LHLPNNII@1?46?9trunk?$AA@ 00598488     pjlib-i386-win32-vc8-debug:config.obj
 0003:00022494       ??_C@_08DOCHLGNA@config?4c?$AA@ 00598494     pjlib-i386-win32-vc8-debug:config.obj
 0003:000224a0       ??_C@_0CA@HPFADEMC@?5PJ_HAS_HIGH_RES_TIMER?5?5?5?5?5?3?5?$CFd?$AA@ 005984a0     pjlib-i386-win32-vc8-debug:config.obj
 0003:000224c8       ??_C@_0CA@KNFEOAMF@?5PJ_OS_HAS_CHECK_STACK?5?5?5?5?5?3?5?$CFd?$AA@ 005984c8     pjlib-i386-win32-vc8-debug:config.obj
 0003:000224f0       ??_C@_0CA@ELABDFDK@?5PJ_TIMESTAMP_USE_RDTSC?3?5?5?5?3?5?$CFd?$AA@ 005984f0     pjlib-i386-win32-vc8-debug:config.obj
 0003:00022518       ??_C@_0CA@JCLOPIAE@?5PJ_EXCEPTION_USE_WIN32_SEH?3?5?$CFd?$AA@ 00598518     pjlib-i386-win32-vc8-debug:config.obj
 0003:00022540       ??_C@_0CA@PDHBELMF@?5PJ_MAX_EXCEPTION_ID?5?5?5?5?5?5?5?3?5?$CFd?$AA@ 00598540     pjlib-i386-win32-vc8-debug:config.obj
 0003:00022568       ??_C@_0CA@KBIPPCDM@?5PJ_HAS_EXCEPTION_NAMES?5?5?5?5?3?5?$CFd?$AA@ 00598568     pjlib-i386-win32-vc8-debug:config.obj
 0003:00022590       ??_C@_0CA@HDOPKKCK@?5PJ_ENABLE_EXTRA_CHECK?5?5?5?5?5?3?5?$CFd?$AA@ 00598590     pjlib-i386-win32-vc8-debug:config.obj
 0003:000225b8       ??_C@_0CA@PPJIFE@?5PJ_HAS_EVENT_OBJ?5?5?5?5?5?5?5?5?5?5?3?5?$CFd?$AA@ 005985b8     pjlib-i386-win32-vc8-debug:config.obj
 0003:000225e0       ??_C@_0CA@MDECAGDJ@?5PJ_HAS_SEMAPHORE?5?5?5?5?5?5?5?5?5?5?3?5?$CFd?$AA@ 005985e0     pjlib-i386-win32-vc8-debug:config.obj
 0003:00022608       ??_C@_0CA@KKPKMEKG@?5PJ_HAS_THREADS?5?5?5?5?5?5?5?5?5?5?5?5?3?5?$CFd?$AA@ 00598608     pjlib-i386-win32-vc8-debug:config.obj
 0003:00022630       ??_C@_0CA@EOIHPMGI@?5PJ_IOQUEUE_HAS_SAFE_UNREG?5?3?5?$CFd?$AA@ 00598630     pjlib-i386-win32-vc8-debug:config.obj
 0003:00022658       ??_C@_0CA@MFIGELPB@?5PJ_IOQUEUE_MAX_HANDLES?5?5?5?5?3?5?$CFd?$AA@ 00598658     pjlib-i386-win32-vc8-debug:config.obj
 0003:00022680       ??_C@_0CA@IFEKDPPK@?5ioqueue?5type?5?5?5?5?5?5?5?5?5?5?5?5?5?5?3?5?$CFs?$AA@ 00598680     pjlib-i386-win32-vc8-debug:config.obj
 0003:000226a8       ??_C@_0CA@IJPJLFMD@?5PJ_MAX_HOSTNAME?5?5?5?5?5?5?5?5?5?5?5?3?5?$CFd?$AA@ 005986a8     pjlib-i386-win32-vc8-debug:config.obj
 0003:000226d0       ??_C@_0CA@PHJFINJO@?5PJ_HAS_TCP?5?5?5?5?5?5?5?5?5?5?5?5?5?5?5?5?3?5?$CFd?$AA@ 005986d0     pjlib-i386-win32-vc8-debug:config.obj
 0003:000226f8       ??_C@_0CA@JFMEIGNB@?5PJ_HAS_POOL_ALT_API?5?5?5?5?5?5?5?3?5?$CFd?$AA@ 005986f8     pjlib-i386-win32-vc8-debug:config.obj
 0003:00022720       ??_C@_0CA@HLGIANHB@?5PJ_POOL_DEBUG?5?5?5?5?5?5?5?5?5?5?5?5?5?3?5?$CFd?$AA@ 00598720     pjlib-i386-win32-vc8-debug:config.obj
 0003:00022748       ??_C@_0CA@LNDGNGPB@?5PJ_LOG_USE_STACK_BUFFER?5?5?5?3?5?$CFd?$AA@ 00598748     pjlib-i386-win32-vc8-debug:config.obj
 0003:00022770       ??_C@_0CA@JKBDOCPB@?5PJ_LOG_MAX_SIZE?5?5?5?5?5?5?5?5?5?5?5?3?5?$CFd?$AA@ 00598770     pjlib-i386-win32-vc8-debug:config.obj
 0003:00022798       ??_C@_0CA@GEBJAONH@?5PJ_LOG_MAX_LEVEL?5?5?5?5?5?5?5?5?5?5?3?5?$CFd?$AA@ 00598798     pjlib-i386-win32-vc8-debug:config.obj
 0003:000227c0       ??_C@_0CA@PKIHIMKF@?5PJ_FUNCTIONS_ARE_INLINED?5?5?3?5?$CFd?$AA@ 005987c0     pjlib-i386-win32-vc8-debug:config.obj
 0003:000227e8       ??_C@_0CA@NBBHLDIH@?5PJ_DEBUG?5?5?5?5?5?5?5?5?5?5?5?5?5?5?5?5?5?5?3?5?$CFd?$AA@ 005987e8     pjlib-i386-win32-vc8-debug:config.obj
 0003:00022810       ??_C@_0CA@LMENGBAP@?5PJ_HAS_FLOATING_POINT?5?5?5?5?5?3?5?$CFd?$AA@ 00598810     pjlib-i386-win32-vc8-debug:config.obj
 0003:00022838       ??_C@_0CA@GGBFPJFC@?5PJ_HAS_INT64?5?5?5?5?5?5?5?5?5?5?5?5?5?5?3?5?$CFd?$AA@ 00598838     pjlib-i386-win32-vc8-debug:config.obj
 0003:00022860       ??_C@_0CA@CNKKKLLD@?5PJ_IS_?$CIBIG?1LITTLE?$CJ_ENDIAN?5?3?5?$CFs?$AA@ 00598860     pjlib-i386-win32-vc8-debug:config.obj
 0003:00022888       ??_C@_0O@KEGGAHLA@little?9endian?$AA@ 00598888     pjlib-i386-win32-vc8-debug:config.obj
 0003:00022898       ??_C@_0CJ@BAKBAPNO@?5PJ_CC_NAME?1VER_?$CI1?02?03?$CJ?5?5?5?5?3?5?$CFs?9@ 00598898     pjlib-i386-win32-vc8-debug:config.obj
 0003:000228cc       ??_C@_04DPFJJIOK@msvc?$AA@ 005988cc     pjlib-i386-win32-vc8-debug:config.obj
 0003:000228d4       ??_C@_0CA@GPBHGDBG@?5PJ_OS_NAME?5?5?5?5?5?5?5?5?5?5?5?5?5?5?5?5?3?5?$CFs?$AA@ 005988d4     pjlib-i386-win32-vc8-debug:config.obj
 0003:000228fc       ??_C@_05NMJMPJJB@win32?$AA@ 005988fc     pjlib-i386-win32-vc8-debug:config.obj
 0003:00022904       ??_C@_0CA@KOLEBPNK@?5PJ_HAS_PENTIUM?5?5?5?5?5?5?5?5?5?5?5?5?3?5?$CFd?$AA@ 00598904     pjlib-i386-win32-vc8-debug:config.obj
 0003:0002292c       ??_C@_0CA@NCEBBBBA@?5PJ_M_NAME?5?5?5?5?5?5?5?5?5?5?5?5?5?5?5?5?5?3?5?$CFs?$AA@ 0059892c     pjlib-i386-win32-vc8-debug:config.obj
 0003:00022954       ??_C@_04OMAFGPMM@i386?$AA@ 00598954     pjlib-i386-win32-vc8-debug:config.obj
 0003:0002295c       ??_C@_0CA@JHFFEGGP@?5PJ_VERSION?5?5?5?5?5?5?5?5?5?5?5?5?5?5?5?5?3?5?$CFs?$AA@ 0059895c     pjlib-i386-win32-vc8-debug:config.obj
 0003:00022984       ??_C@_0BI@GDBJIAMF@Dumping?5configurations?3?$AA@ 00598984     pjlib-i386-win32-vc8-debug:config.obj
 0003:000229a0       ??_C@_0BO@KNCHBKC@PJLIB?5?$CIc?$CJ2008?92009?5Teluu?5Inc?4?$AA@ 005989a0     pjlib-i386-win32-vc8-debug:config.obj
 0003:000229c4       ??_C@_1BK@HGDCMKGI@?$AAp?$AA_?$AAc?$AAn?$AAt?$AA?5?$AA?$CG?$AA?$CG?$AA?5?$AAi?$AAf?$AAs?$AA?$AA@ 005989c4     pjlib-i386-win32-vc8-debug:ip_helper_win32.obj
 0003:000229e8       ??_C@_1GM@LOEKENEL@?$AAd?$AA?3?$AA?2?$AAm?$AAy?$AAg?$AAi?$AAt?$AA?2?$AAp?$AAj?$AAp?$AAr?$AAo?$AAj?$AAe?$AAc?$AAt?$AA?9?$AA1?$AA?4?$AA4?$AA?2?$AAp?$AAj?$AAl?$AAi?$AAb?$AA?2?$AAs?$AAr?$AAc@ 005989e8     pjlib-i386-win32-vc8-debug:ip_helper_win32.obj
 0003:00022a6c       ??_C@_0P@PMIJPFPM@GetIpAddrTable?$AA@ 00598a6c     pjlib-i386-win32-vc8-debug:ip_helper_win32.obj
 0003:00022a80       ??_C@_08PFPBFMIL@IpHlpApi?$AA@ 00598a80     pjlib-i386-win32-vc8-debug:ip_helper_win32.obj
 0003:00022a8c       ??_C@_0L@BLHMKEDC@GetIfEntry?$AA@ 00598a8c     pjlib-i386-win32-vc8-debug:ip_helper_win32.obj
 0003:00022a9c       ??_C@_0BF@LHFCIIHE@GetAdaptersAddresses?$AA@ 00598a9c     pjlib-i386-win32-vc8-debug:ip_helper_win32.obj
 0003:00022ab8       ??_C@_1CA@PNMIBKCD@?$AAp?$AA_?$AAc?$AAn?$AAt?$AA?5?$AA?$CG?$AA?$CG?$AA?5?$AAr?$AAo?$AAu?$AAt?$AAe?$AAs?$AA?$AA@ 00598ab8     pjlib-i386-win32-vc8-debug:ip_helper_win32.obj
 0003:00022ae0       ??_C@_0BC@MNHJPEOP@GetIpForwardTable?$AA@ 00598ae0     pjlib-i386-win32-vc8-debug:ip_helper_win32.obj
 0003:00022af8       ??_C@_0DC@PCCAAGDK@d?3?2mygit?2pjproject?91?44?2pjlib?2src@ 00598af8     pjlib-i386-win32-vc8-debug:sock_select.obj
 0003:00022b34       ??_C@_04DKFOEDJA@srtp?$AA@ 00598b34     libsrtp-i386-win32-vc8-debug:srtp.obj
 0003:00022b3c       ??_C@_0CD@KFGKPJOG@?$CFs?3?5cloning?5stream?5?$CISSRC?3?50x?$CF08x@ 00598b3c     libsrtp-i386-win32-vc8-debug:srtp.obj
 0003:00022b68       ??_C@_0BJ@CAOFEOFD@?$CFs?3?5rtcp?5auth?5key?3?5?5?5?$CFs?6?$AA@ 00598b68     libsrtp-i386-win32-vc8-debug:srtp.obj
 0003:00022b88       ??_C@_0BJ@KAKGCCMO@?$CFs?3?5rtcp?5cipher?5key?3?5?$CFs?6?$AA@ 00598b88     libsrtp-i386-win32-vc8-debug:srtp.obj
 0003:00022ba8       ??_C@_0CJ@BAADIODK@?$CFs?3?5found?5aes_icm?0?5generating?5rt@ 00598ba8     libsrtp-i386-win32-vc8-debug:srtp.obj
 0003:00022bdc       ??_C@_0BE@HGKFNAFC@?$CFs?3?5auth?5key?3?5?5?5?$CFs?6?$AA@ 00598bdc     libsrtp-i386-win32-vc8-debug:srtp.obj
 0003:00022bf4       ??_C@_0BE@PGOGLMMP@?$CFs?3?5cipher?5key?3?5?$CFs?6?$AA@ 00598bf4     libsrtp-i386-win32-vc8-debug:srtp.obj
 0003:00022c0c       ??_C@_0CE@KANLHMK@?$CFs?3?5found?5aes_icm?0?5generating?5sa@ 00598c0c     libsrtp-i386-win32-vc8-debug:srtp.obj
 0003:00022c38       ??_C@_0CI@PDNDGOMA@?$CFs?3?5initializing?5stream?5?$CISSRC?3?50@ 00598c38     libsrtp-i386-win32-vc8-debug:srtp.obj
 0003:00022c68       ??_C@_0CE@FFJEPPID@?7unknown?5event?5reported?5to?5handl@ 00598c68     libsrtp-i386-win32-vc8-debug:srtp.obj
 0003:00022c94       ??_C@_0BN@MKCGGAOP@?7packet?5index?5limit?5reached?6?$AA@ 00598c94     libsrtp-i386-win32-vc8-debug:srtp.obj
 0003:00022cb8       ??_C@_0BP@KNJIFCF@?7key?5usage?5hard?5limit?5reached?6?$AA@ 00598cb8     libsrtp-i386-win32-vc8-debug:srtp.obj
 0003:00022ce0       ??_C@_0BP@HOEKLBIN@?7key?5usage?5soft?5limit?5reached?6?$AA@ 00598ce0     libsrtp-i386-win32-vc8-debug:srtp.obj
 0003:00022d08       ??_C@_0BB@PPFALDPP@?7SSRC?5collision?6?$AA@ 00598d08     libsrtp-i386-win32-vc8-debug:srtp.obj
 0003:00022d1c       ??_C@_0BH@GAKJJGLB@srtp?3?5in?5stream?50x?$CFx?3?5?$AA@ 00598d1c     libsrtp-i386-win32-vc8-debug:srtp.obj
 0003:00022d38       ??_C@_0BK@GCKOFNLP@?$CFs?3?5srtp?5auth?5tag?3?5?5?5?5?$CFs?6?$AA@ 00598d38     libsrtp-i386-win32-vc8-debug:srtp.obj
 0003:00022d58       ??_C@_0BK@KLBGMJPP@?$CFs?3?5keystream?5prefix?3?5?$CFs?6?$AA@ 00598d58     libsrtp-i386-win32-vc8-debug:srtp.obj
 0003:00022d78       ??_C@_0CF@PEPHCKJP@?$CFs?3?5estimated?5packet?5index?3?5?$CF016@ 00598d78     libsrtp-i386-win32-vc8-debug:srtp.obj
 0003:00022da4       ??_C@_0BL@MADNODBC@?$CFs?3?5function?5srtp_protect?6?$AA@ 00598da4     libsrtp-i386-win32-vc8-debug:srtp.obj
 0003:00022dc4       ??_C@_0BO@KMHOFFAA@?$CFs?3?5packet?5auth?5tag?3?5?5?5?5?5?5?$CFs?6?$AA@ 00598dc4     libsrtp-i386-win32-vc8-debug:srtp.obj
 0003:00022de8       ??_C@_0BO@BONEKIBH@?$CFs?3?5computed?5auth?5tag?3?5?5?5?5?$CFs?6?$AA@ 00598de8     libsrtp-i386-win32-vc8-debug:srtp.obj
 0003:00022e0c       ??_C@_0CH@MOHBLIMO@?$CFs?3?5estimated?5u_packet?5index?3?5?$CF0@ 00598e0c     libsrtp-i386-win32-vc8-debug:srtp.obj
 0003:00022e3c       ??_C@_0CN@PJAKIEAG@?$CFs?3?5using?5provisional?5stream?5?$CISS@ 00598e3c     libsrtp-i386-win32-vc8-debug:srtp.obj
 0003:00022e74       ??_C@_0BN@LADOAJPP@?$CFs?3?5function?5srtp_unprotect?6?$AA@ 00598e74     libsrtp-i386-win32-vc8-debug:srtp.obj
 0003:00022e98       ??_C@_0BL@OBHAKLEH@?$CFs?3?5srtcp?5auth?5tag?3?5?5?5?5?$CFs?6?$AA@ 00598e98     libsrtp-i386-win32-vc8-debug:srtp.obj
 0003:00022eb8       ??_C@_0BF@JBCKCIAJ@?$CFs?3?5srtcp?5index?3?5?$CFx?6?$AA@ 00598eb8     libsrtp-i386-win32-vc8-debug:srtp.obj
 0003:00022ed4       ??_C@_0CC@GFCANNPL@?$CFs?3?5srtcp?5tag?5from?5packet?3?5?5?5?5?$CFs@ 00598ed4     libsrtp-i386-win32-vc8-debug:srtp.obj
 0003:00022efc       ??_C@_0CC@IMKDPKDI@?$CFs?3?5srtcp?5computed?5tag?3?5?5?5?5?5?5?5?$CFs@ 00598efc     libsrtp-i386-win32-vc8-debug:srtp.obj
 0003:00022f24       ??_C@_0DD@HHOLLDKC@?$CFs?3?5srtcp?5using?5provisional?5stre@ 00598f24     libsrtp-i386-win32-vc8-debug:srtp.obj
 0003:00022f64       ??_C@_0O@MIKIJNFL@crypto?5kernel?$AA@ 00598f64     libsrtp-i386-win32-vc8-debug:crypto_kernel.obj
 0003:00022f74       ??_C@_06KCCPFFCC@?$CIoff?$CJ?6?$AA@ 00598f74     libsrtp-i386-win32-vc8-debug:crypto_kernel.obj
 0003:00022f7c       ??_C@_05KICKCMEO@?$CIon?$CJ?6?$AA@ 00598f7c     libsrtp-i386-win32-vc8-debug:crypto_kernel.obj
 0003:00022f84       ??_C@_05NMIPNJMJ@?5?5?$CFs?5?$AA@ 00598f84     libsrtp-i386-win32-vc8-debug:crypto_kernel.obj
 0003:00022f8c       ??_C@_0BH@NLMDBEPJ@debug?5modules?5loaded?3?6?$AA@ 00598f8c     libsrtp-i386-win32-vc8-debug:crypto_kernel.obj
 0003:00022fa8       ??_C@_0P@CJMMEABE@auth?5func?3?5?$CFs?6?$AA@ 00598fa8     libsrtp-i386-win32-vc8-debug:crypto_kernel.obj
 0003:00022fbc       ??_C@_0BL@HPMBNDJK@failed?5with?5error?5code?5?$CFd?6?$AA@ 00598fbc     libsrtp-i386-win32-vc8-debug:crypto_kernel.obj
 0003:00022fdc       ??_C@_0O@CJBDENN@?5?5self?9test?3?5?$AA@ 00598fdc     libsrtp-i386-win32-vc8-debug:crypto_kernel.obj
 0003:00022fec       ??_C@_0BG@FPPKCBEM@?5?5instance?5count?3?5?$CFd?6?$AA@ 00598fec     libsrtp-i386-win32-vc8-debug:crypto_kernel.obj
 0003:00023008       ??_C@_0M@FNOFIMGM@cipher?3?5?$CFs?6?$AA@ 00599008     libsrtp-i386-win32-vc8-debug:crypto_kernel.obj
 0003:00023018       ??_C@_07JBEBJPGA@passed?6?$AA@ 00599018     libsrtp-i386-win32-vc8-debug:crypto_kernel.obj
 0003:00023024       ??_C@_07GLGIIGGC@failed?6?$AA@ 00599024     libsrtp-i386-win32-vc8-debug:crypto_kernel.obj
 0003:00023030       ??_C@_0BH@HDPMNGEM@testing?5rand_source?4?4?4?$AA@ 00599030     libsrtp-i386-win32-vc8-debug:crypto_kernel.obj
 0003:0002304c       ??_C@_0CI@MFBGGOG@?$CFs?3?5freeing?5memory?5for?5debug?5mod@ 0059904c     libsrtp-i386-win32-vc8-debug:crypto_kernel.obj
 0003:0002307c       ??_C@_0CK@KGHAAPIM@?$CFs?3?5freeing?5memory?5for?5authentic@ 0059907c     libsrtp-i386-win32-vc8-debug:crypto_kernel.obj
 0003:000230b0       ??_C@_0CC@DLGHEHKN@?$CFs?3?5freeing?5memory?5for?5cipher?5?$CFs@ 005990b0     libsrtp-i386-win32-vc8-debug:crypto_kernel.obj
 0003:000230d8       ??_C@_05KNPMOECN@alloc?$AA@ 005990d8     libsrtp-i386-win32-vc8-debug:alloc.obj
 0003:000230e0       ??_C@_0CN@JJLNACEJ@?$CFs?3?5allocation?5failed?5?$CIasked?5for@ 005990e0     libsrtp-i386-win32-vc8-debug:alloc.obj
 0003:00023118       ??_C@_0BO@KJOGHNGM@?$CFs?3?5?$CIlocation?3?5?$CFp?$CJ?5allocated?6?$AA@ 00599118     libsrtp-i386-win32-vc8-debug:alloc.obj
 0003:0002313c       ??_C@_0BK@BNKOPMHD@?$CFs?3?5?$CIlocation?3?5?$CFp?$CJ?5freed?6?$AA@ 0059913c     libsrtp-i386-win32-vc8-debug:alloc.obj
 0003:0002315c       ??_C@_07EFAIHJHH@libsrtp?$AA@ 0059915c     libsrtp-i386-win32-vc8-debug:srtp_err.obj
 0003:00023168       ??_C@_07MPIJGLIA@aes?5icm?$AA@ 00599168     libsrtp-i386-win32-vc8-debug:aes_icm.obj
 0003:00023174       ??_C@_0CK@DAFEFAPH@?$CFs?3?5allocating?5cipher?5with?5key?5l@ 00599174     libsrtp-i386-win32-vc8-debug:aes_icm.obj
 0003:000231a8       ??_C@_0BA@ILFEGDEM@?$CFs?3?5offset?3?5?$CFs?6?$AA@ 005991a8     libsrtp-i386-win32-vc8-debug:aes_icm.obj
 0003:000231bc       ??_C@_0O@GFBJNBAD@?$CFs?3?5key?3?5?5?$CFs?6?$AA@ 005991bc     libsrtp-i386-win32-vc8-debug:aes_icm.obj
 0003:000231cc       ??_C@_0BE@ILCAEFF@?$CFs?3?5ciphertext?3?5?$CFs?6?$AA@ 005991cc     libsrtp-i386-win32-vc8-debug:aes_icm.obj
 0003:000231e4       ??_C@_0BE@ENJPOLAG@?$CFs?3?5counter?3?5?5?5?5?$CFs?6?$AA@ 005991e4     libsrtp-i386-win32-vc8-debug:aes_icm.obj
 0003:000231fc       ??_C@_0BD@KCAAHGLK@?$CFs?3?5set_octet?3?5?$CFs?6?$AA@ 005991fc     libsrtp-i386-win32-vc8-debug:aes_icm.obj
 0003:00023214       ??_C@_0BF@OAOEHNDM@?$CFs?3?5set_counter?3?5?$CFs?6?$AA@ 00599214     libsrtp-i386-win32-vc8-debug:aes_icm.obj
 0003:00023230       ??_C@_0BE@ECIFEEKH@?$CFs?3?5setting?5iv?3?5?$CFs?6?$AA@ 00599230     libsrtp-i386-win32-vc8-debug:aes_icm.obj
 0003:00023248       ??_C@_0BF@BLBMMINO@?$CFs?3?5block?5index?3?5?$CFd?6?$AA@ 00599248     libsrtp-i386-win32-vc8-debug:aes_icm.obj
 0003:00023264       ??_C@_09EJIBOKIO@auth?5func?$AA@ 00599264     libsrtp-i386-win32-vc8-debug:auth.obj
 0003:00023270       ??_C@_0BO@CKPEGHKK@?$CFs?3?5?5?5?$CImismatch?5at?5octet?5?$CFd?$CJ?6?$AA@ 00599270     libsrtp-i386-win32-vc8-debug:auth.obj
 0003:00023294       ??_C@_0BJ@ECBNBHJB@?$CFs?3?5test?5case?5?$CFd?5failed?6?$AA@ 00599294     libsrtp-i386-win32-vc8-debug:auth.obj
 0003:000232b4       ??_C@_0BG@PEPPBOLB@?$CFs?3?5tag?5expected?3?5?$CFs?6?$AA@ 005992b4     libsrtp-i386-win32-vc8-debug:auth.obj
 0003:000232d0       ??_C@_0BG@KCOPIALB@?$CFs?3?5tag?5computed?3?5?$CFs?6?$AA@ 005992d0     libsrtp-i386-win32-vc8-debug:auth.obj
 0003:000232ec       ??_C@_0O@NBGEFCOD@?$CFs?3?5data?3?5?$CFs?6?$AA@ 005992ec     libsrtp-i386-win32-vc8-debug:auth.obj
 0003:000232fc       ??_C@_0N@OIMPEMMJ@?$CFs?3?5key?3?5?$CFs?6?$AA@ 005992fc     libsrtp-i386-win32-vc8-debug:auth.obj
 0003:0002330c       ??_C@_0CM@DFOPKAOA@?$CFs?3?5running?5self?9test?5for?5auth?5f@ 0059930c     libsrtp-i386-win32-vc8-debug:auth.obj
 0003:00023340       ??_C@_06KDGDAFPH@cipher?$AA@ 00599340     libsrtp-i386-win32-vc8-debug:cipher.obj
 0003:00023348       ??_C@_0CA@EAJGEBOP@?$CFs?3?5random?5test?5case?5?$CFd?5failed?6?$AA@ 00599348     libsrtp-i386-win32-vc8-debug:cipher.obj
 0003:00023370       ??_C@_0BG@NMIIDDNI@?$CFs?3?5plaintext?$FL2?$FN?3?5?$CFs?6?$AA@ 00599370     libsrtp-i386-win32-vc8-debug:cipher.obj
 0003:0002338c       ??_C@_0CB@OOAIJLO@?$CFs?3?5random?5plaintext?5length?5?$CFd?6?6@ 0059938c     libsrtp-i386-win32-vc8-debug:cipher.obj
 0003:000233b4       ??_C@_0BE@MABNCJMD@?$CFs?3?5p?5expected?3?5?$CFs?6?$AA@ 005993b4     libsrtp-i386-win32-vc8-debug:cipher.obj
 0003:000233cc       ??_C@_0BE@JGANLHMD@?$CFs?3?5p?5computed?3?5?$CFs?6?$AA@ 005993cc     libsrtp-i386-win32-vc8-debug:cipher.obj
 0003:000233e4       ??_C@_0BF@GOBFCCEB@?$CFs?3?5plaintext?3?5?5?5?$CFs?6?$AA@ 005993e4     libsrtp-i386-win32-vc8-debug:cipher.obj
 0003:00023400       ??_C@_0BH@EDJDPICD@?$CFs?3?5ciphertext?3?5?5?5?5?$CFs?6?$AA@ 00599400     libsrtp-i386-win32-vc8-debug:cipher.obj
 0003:0002341c       ??_C@_0BI@IEPFOPNP@?$CFs?3?5testing?5decryption?6?$AA@ 0059941c     libsrtp-i386-win32-vc8-debug:cipher.obj
 0003:00023438       ??_C@_0BE@PPCKDKP@?$CFs?3?5c?5expected?3?5?$CFs?6?$AA@ 00599438     libsrtp-i386-win32-vc8-debug:cipher.obj
 0003:00023450       ??_C@_0BE@FJOCDNKP@?$CFs?3?5c?5computed?3?5?$CFs?6?$AA@ 00599450     libsrtp-i386-win32-vc8-debug:cipher.obj
 0003:00023468       ??_C@_0BK@FFAGFACF@?$CFs?3?5?$CIfailure?5at?5byte?5?$CFd?$CJ?6?$AA@ 00599468     libsrtp-i386-win32-vc8-debug:cipher.obj
 0003:00023488       ??_C@_0BG@LLNGMAPJ@?$CFs?3?5ciphertext?3?5?5?5?$CFs?6?$AA@ 00599488     libsrtp-i386-win32-vc8-debug:cipher.obj
 0003:000234a4       ??_C@_0BG@IGPMAAHP@?$CFs?3?5plaintext?3?5?5?5?5?$CFs?6?$AA@ 005994a4     libsrtp-i386-win32-vc8-debug:cipher.obj
 0003:000234c0       ??_C@_0BI@DMHBCEPE@?$CFs?3?5testing?5encryption?6?$AA@ 005994c0     libsrtp-i386-win32-vc8-debug:cipher.obj
 0003:000234dc       ??_C@_0CF@FLDNHEPF@?$CFs?3?5running?5self?9test?5for?5cipher@ 005994dc     libsrtp-i386-win32-vc8-debug:cipher.obj
 0003:00023508       ??_C@_0L@NBBBLMAJ@hmac?5sha?91?$AA@ 00599508     libsrtp-i386-win32-vc8-debug:hmac.obj
 0003:00023518       ??_C@_0CN@FDNDBNFI@?$CFs?3?5?5?5?5?5?5?5?5?5?5?5?5?5?5?5?5?5?5?5?5?5?5?5?5?5?5?5ta@ 00599518     libsrtp-i386-win32-vc8-debug:hmac.obj
 0003:00023550       ??_C@_0CN@KBEHBKDH@?$CFs?3?5allocating?5auth?5func?5with?5ke@ 00599550     libsrtp-i386-win32-vc8-debug:hmac.obj
 0003:00023588       ??_C@_0O@PJECJPIJ@?$CFs?3?5ipad?3?5?$CFs?6?$AA@ 00599588     libsrtp-i386-win32-vc8-debug:hmac.obj
 0003:00023598       ??_C@_0P@JHGAOEEF@?$CFs?3?5input?3?5?$CFs?6?$AA@ 00599598     libsrtp-i386-win32-vc8-debug:hmac.obj
 0003:000235ac       ??_C@_0BA@NKCNJNLN@?$CFs?3?5output?3?5?$CFs?6?$AA@ 005995ac     libsrtp-i386-win32-vc8-debug:hmac.obj
 0003:000235c0       ??_C@_0BM@JABNBLDM@?$CFs?3?5intermediate?5state?3?5?$CFs?6?$AA@ 005995c0     libsrtp-i386-win32-vc8-debug:hmac.obj
 0003:000235e4       ??_C@_07DPHFMMFN@aes?5cbc?$AA@ 005995e4     libsrtp-i386-win32-vc8-debug:aes_cbc.obj
 0003:000235f0       ??_C@_0BC@JDOKDHF@?$CFs?3?5outblock?3?5?$CFs?6?$AA@ 005995f0     libsrtp-i386-win32-vc8-debug:aes_cbc.obj
 0003:00023608       ??_C@_0BC@OKGIACPM@?$CFs?3?5inblock?3?5?5?$CFs?6?$AA@ 00599608     libsrtp-i386-win32-vc8-debug:aes_cbc.obj
 0003:00023620       ??_C@_0M@IBNAAFBJ@?$CFs?3?5iv?3?5?$CFs?6?$AA@ 00599620     libsrtp-i386-win32-vc8-debug:aes_cbc.obj
 0003:00023630       ??_C@_0BO@HCJFKKEE@?$CFs?3?5initializing?5null?5cipher?6?$AA@ 00599630     libsrtp-i386-win32-vc8-debug:null_cipher.obj
 0003:00023654       ??_C@_09LCMAEBCF@stat?5test?$AA@ 00599654     libsrtp-i386-win32-vc8-debug:stat.obj
 0003:00023660       ??_C@_0BD@GAOMHCBM@?$CFs?3?5bit?5count?3?5?$CFd?6?$AA@ 00599660     libsrtp-i386-win32-vc8-debug:stat.obj
 0003:00023678       __real@404715c28f5c28f6    00599678     libsrtp-i386-win32-vc8-debug:stat.obj
 0003:00023688       __real@400147ae147ae148    00599688     libsrtp-i386-win32-vc8-debug:stat.obj
 0003:00023694       ??_C@_0BF@CHHGEAGD@?$CFs?3?5poker?5test?3?5?$CFf?6?6?$AA@ 00599694     libsrtp-i386-win32-vc8-debug:stat.obj
 0003:000236b0       __real@40b3880000000000    005996b0     libsrtp-i386-win32-vc8-debug:stat.obj
 0003:000236c0       __real@3f6a36e2eb1c432d    005996c0     libsrtp-i386-win32-vc8-debug:stat.obj
 0003:000236cc       ??_C@_0BC@BLEGIAEL@?$CFs?3?5?5?5gaps?$FL?$FN?3?5?$CFd?6?$AA@ 005996cc     libsrtp-i386-win32-vc8-debug:stat.obj
 0003:000236e4       ??_C@_0BC@KILFBMLF@?$CFs?3?5?5?5runs?$FL?$FN?3?5?$CFd?6?$AA@ 005996e4     libsrtp-i386-win32-vc8-debug:stat.obj
 0003:000236fc       ??_C@_0P@POGGHKML@?$CFs?3?5runs?5test?6?$AA@ 005996fc     libsrtp-i386-win32-vc8-debug:stat.obj
 0003:00023710       ??_C@_0BG@BMIBNCBB@?$CFs?3?5?$DO25?5gaps?5?$CI2?$CJ?3?5?$CFd?6?$AA@ 00599710     libsrtp-i386-win32-vc8-debug:stat.obj
 0003:0002372c       ??_C@_0BG@GPAHHCLO@?$CFs?3?5?$DO25?5runs?5?$CI2?$CJ?3?5?$CFd?6?$AA@ 0059972c     libsrtp-i386-win32-vc8-debug:stat.obj
 0003:00023748       ??_C@_0BC@NJGIDECN@?$CFs?3?5?$DO25?5gaps?3?5?$CFd?6?$AA@ 00599748     libsrtp-i386-win32-vc8-debug:stat.obj
 0003:00023760       ??_C@_0BC@IAPCEOOF@?$CFs?3?5?$DO25?5runs?3?5?$CFd?6?$AA@ 00599760     libsrtp-i386-win32-vc8-debug:stat.obj
 0003:00023778       ??_C@_0BN@GAPDDPKH@?$CFs?3?5passed?5random?5stat?5test?6?$AA@ 00599778     libsrtp-i386-win32-vc8-debug:stat.obj
 0003:0002379c       ??_C@_0BP@FICCAFLM@?$CFs?3?5stat?3?5failed?5run?1gap?5test?6?$AA@ 0059979c     libsrtp-i386-win32-vc8-debug:stat.obj
 0003:000237c4       ??_C@_0BN@GPPMGOKK@?$CFs?3?5stat?3?5failed?5poker?5test?6?$AA@ 005997c4     libsrtp-i386-win32-vc8-debug:stat.obj
 0003:000237e8       ??_C@_0BK@EBGHFECB@?$CFs?3?5stat?3?5poker?5test?3?5?$CFf?6?$AA@ 005997e8     libsrtp-i386-win32-vc8-debug:stat.obj
 0003:00023808       ??_C@_0CC@OEPLDONG@?$CFs?3?5stat?3?5failed?5monobit?5test?5?$CFd@ 00599808     libsrtp-i386-win32-vc8-debug:stat.obj
 0003:00023830       ??_C@_0BJ@LDNJNIDO@?$CFs?3?5stat?3?5bit?5count?3?5?$CFd?6?$AA@ 00599830     libsrtp-i386-win32-vc8-debug:stat.obj
 0003:00023850       ??_C@_0BG@NKOONLJG@?$CFs?3?5?$DO25?5gaps?5?$CI4?$CJ?3?5?$CFd?6?$AA@ 00599850     libsrtp-i386-win32-vc8-debug:stat.obj
 0003:0002386c       ??_C@_0BG@KJGIHLDJ@?$CFs?3?5?$DO25?5runs?5?$CI4?$CJ?3?5?$CFd?6?$AA@ 0059986c     libsrtp-i386-win32-vc8-debug:stat.obj
 0003:00023888       ??_C@_0BG@NACLNCIP@?$CFs?3?5?$DO25?5gaps?5?$CI3?$CJ?3?5?$CFd?6?$AA@ 00599888     libsrtp-i386-win32-vc8-debug:stat.obj
 0003:000238a4       ??_C@_0BG@KDKNHCCA@?$CFs?3?5?$DO25?5runs?5?$CI3?$CJ?3?5?$CFd?6?$AA@ 005998a4     libsrtp-i386-win32-vc8-debug:stat.obj
 0003:000238c0       ??_C@_0CB@CCDIJIAM@?$CFs?3?5couldn?8t?5get?5rand?5bytes?3?5?$CFd?6@ 005998c0     libsrtp-i386-win32-vc8-debug:stat.obj
 0003:000238e8       ??_C@_0CH@JEBAOIDL@?$CFs?3?5failed?5stat?5test?5?$CItry?5number@ 005998e8     libsrtp-i386-win32-vc8-debug:stat.obj
 0003:00023918       ??_C@_05BPJLFPNI@sha?91?$AA@ 00599918     libsrtp-i386-win32-vc8-debug:sha1.obj
 0003:00023920       ??_C@_0CG@KGMPNKKF@?$CFs?3?5?$CIupdate?$CJ?5not?5running?5sha1_co@ 00599920     libsrtp-i386-win32-vc8-debug:sha1.obj
 0003:00023950       ??_C@_0CC@GKOIIHOG@?$CFs?3?5?$CIupdate?$CJ?5running?5sha1_core?$CI?$CJ@ 00599950     libsrtp-i386-win32-vc8-debug:sha1.obj
 0003:00023978       ??_C@_0CH@HCINMGOM@?$CFs?3?5?$CIfinal?$CJ?5running?5sha1_core?$CI?$CJ?5@ 00599978     libsrtp-i386-win32-vc8-debug:sha1.obj
 0003:000239a8       ??_C@_0CB@KIPIFMFH@?$CFs?3?5?$CIfinal?$CJ?5running?5sha1_core?$CI?$CJ?6@ 005999a8     libsrtp-i386-win32-vc8-debug:sha1.obj
 0003:000239d0       ??_C@_15IABLJNFO@?$AA?6?$AA?6?$AA?$AA@ 005999d0     LIBCMTD:wassert.obj
 0003:000239d8       ??_C@_13LBAGMAIH@?$AA?6?$AA?$AA@ 005999d8     LIBCMTD:wassert.obj
 0003:000239dc       ??_C@_17LGKOMLJ@?$AA?4?$AA?4?$AA?4?$AA?$AA@ 005999dc     LIBCMTD:wassert.obj
 0003:000239e8       ??_C@_1EK@MBDPDCGA@?$AAM?$AAi?$AAc?$AAr?$AAo?$AAs?$AAo?$AAf?$AAt?$AA?5?$AAV?$AAi?$AAs?$AAu?$AAa?$AAl?$AA?5?$AAC?$AA?$CL?$AA?$CL?$AA?5?$AAR?$AAu?$AAn?$AAt?$AAi?$AAm?$AAe?$AA?5?$AAL?$AAi?$AAb@ 005999e8     LIBCMTD:wassert.obj
 0003:00023a40       ??_C@_1HK@POCJMFGK@?$AA?$CI?$AAP?$AAr?$AAe?$AAs?$AAs?$AA?5?$AAR?$AAe?$AAt?$AAr?$AAy?$AA?5?$AAt?$AAo?$AA?5?$AAd?$AAe?$AAb?$AAu?$AAg?$AA?5?$AAt?$AAh?$AAe?$AA?5?$AAa?$AAp?$AAp?$AAl?$AAi?$AAc@ 00599a40     LIBCMTD:wassert.obj
 0003:00023ad8       ??_C@_1LO@HBAMOOPN@?$AAw?$AAc?$AAs?$AAc?$AAa?$AAt?$AA_?$AAs?$AA?$CI?$AAa?$AAs?$AAs?$AAe?$AAr?$AAt?$AAb?$AAu?$AAf?$AA?0?$AA?5?$AA?$CI?$AA6?$AA0?$AA?5?$AA?$CK?$AA?5?$AA9?$AA?$CJ?$AA?0?$AA?5?$AAL?$AA?$CC@ 00599ad8     LIBCMTD:wassert.obj
 0003:00023bc0       ??_C@_1FG@GMPCGFKH@?$AAw?$AAc?$AAs?$AAc?$AAa?$AAt?$AA_?$AAs?$AA?$CI?$AAa?$AAs?$AAs?$AAe?$AAr?$AAt?$AAb?$AAu?$AAf?$AA?0?$AA?5?$AA?$CI?$AA6?$AA0?$AA?5?$AA?$CK?$AA?5?$AA9?$AA?$CJ?$AA?0?$AA?5?$AAd?$AAb@ 00599bc0     LIBCMTD:wassert.obj
 0003:00023c28       ??_C@_1OA@EGMLFBHJ@?$AAF?$AAo?$AAr?$AA?5?$AAi?$AAn?$AAf?$AAo?$AAr?$AAm?$AAa?$AAt?$AAi?$AAo?$AAn?$AA?5?$AAo?$AAn?$AA?5?$AAh?$AAo?$AAw?$AA?5?$AAy?$AAo?$AAu?$AAr?$AA?5?$AAp?$AAr?$AAo?$AAg@ 00599c28     LIBCMTD:wassert.obj
 0003:00023d38       ??_C@_1BCO@FMFFDPPF@?$AAw?$AAc?$AAs?$AAc?$AAa?$AAt?$AA_?$AAs?$AA?$CI?$AAa?$AAs?$AAs?$AAe?$AAr?$AAt?$AAb?$AAu?$AAf?$AA?0?$AA?5?$AA?$CI?$AA6?$AA0?$AA?5?$AA?$CK?$AA?5?$AA9?$AA?$CJ?$AA?0?$AA?5?$AAL?$AA?$CC@ 00599d38     LIBCMTD:wassert.obj
 0003:00023ea8       ??_C@_1EM@MBEKCGIC@?$AAw?$AAc?$AAs?$AAc?$AAa?$AAt?$AA_?$AAs?$AA?$CI?$AA?5?$AAa?$AAs?$AAs?$AAe?$AAr?$AAt?$AAb?$AAu?$AAf?$AA?0?$AA?5?$AA?$CI?$AA6?$AA0?$AA?5?$AA?$CK?$AA?5?$AA9?$AA?$CJ?$AA?0?$AA?5?$AAe@ 00599ea8     LIBCMTD:wassert.obj
 0003:00023f08       ??_C@_1CHM@CEIMNDLH@?$AAw?$AAc?$AAs?$AAn?$AAc?$AAa?$AAt?$AA_?$AAs?$AA?$CI?$AA?5?$AAa?$AAs?$AAs?$AAe?$AAr?$AAt?$AAb?$AAu?$AAf?$AA?0?$AA?5?$AA?$CI?$AA6?$AA0?$AA?5?$AA?$CK?$AA?5?$AA9?$AA?$CJ?$AA?0?$AA?5@ 00599f08     LIBCMTD:wassert.obj
 0003:00024204       ??_C@_1BK@PEDCIPMA@?$AAE?$AAx?$AAp?$AAr?$AAe?$AAs?$AAs?$AAi?$AAo?$AAn?$AA?3?$AA?5?$AA?$AA@ 0059a204     LIBCMTD:wassert.obj
 0003:00024228       ??_C@_1GC@HOBBPFHJ@?$AAw?$AAc?$AAs?$AAc?$AAa?$AAt?$AA_?$AAs?$AA?$CI?$AA?5?$AAa?$AAs?$AAs?$AAe?$AAr?$AAt?$AAb?$AAu?$AAf?$AA?0?$AA?5?$AA?$CI?$AA6?$AA0?$AA?5?$AA?$CK?$AA?5?$AA9?$AA?$CJ?$AA?0?$AA?5?$AAL@ 0059a228     LIBCMTD:wassert.obj
 0003:000242a0       ??_C@_1KG@CFEIMPNH@?$AA_?$AAi?$AAt?$AAo?$AAw?$AA_?$AAs?$AA?$CI?$AA?5?$AAl?$AAi?$AAn?$AAe?$AAn?$AAo?$AA?0?$AA?5?$AAa?$AAs?$AAs?$AAe?$AAr?$AAt?$AAb?$AAu?$AAf?$AA?5?$AA?$CL?$AA?5?$AAw?$AAc?$AAs@ 0059a2a0     LIBCMTD:wassert.obj
 0003:00024368       ??_C@_1O@KCAFKHJE@?$AAL?$AAi?$AAn?$AAe?$AA?3?$AA?5?$AA?$AA@ 0059a368     LIBCMTD:wassert.obj
 0003:00024378       ??_C@_1FG@NHDGJLMI@?$AAw?$AAc?$AAs?$AAc?$AAa?$AAt?$AA_?$AAs?$AA?$CI?$AA?5?$AAa?$AAs?$AAs?$AAe?$AAr?$AAt?$AAb?$AAu?$AAf?$AA?0?$AA?5?$AA?$CI?$AA6?$AA0?$AA?5?$AA?$CK?$AA?5?$AA9?$AA?$CJ?$AA?0?$AA?5?$AAL@ 0059a378     LIBCMTD:wassert.obj
 0003:000243e0       ??_C@_1FE@IIFBBPFI@?$AAw?$AAc?$AAs?$AAc?$AAa?$AAt?$AA_?$AAs?$AA?$CI?$AA?5?$AAa?$AAs?$AAs?$AAe?$AAr?$AAt?$AAb?$AAu?$AAf?$AA?0?$AA?5?$AA?$CI?$AA6?$AA0?$AA?5?$AA?$CK?$AA?5?$AA9?$AA?$CJ?$AA?0?$AA?5?$AAf@ 0059a3e0     LIBCMTD:wassert.obj
 0003:00024448       ??_C@_1IC@CFFJBMAD@?$AAw?$AAc?$AAs?$AAc?$AAa?$AAt?$AA_?$AAs?$AA?$CI?$AA?5?$AAa?$AAs?$AAs?$AAe?$AAr?$AAt?$AAb?$AAu?$AAf?$AA?0?$AA?5?$AA?$CI?$AA6?$AA0?$AA?5?$AA?$CK?$AA?5?$AA9?$AA?$CJ?$AA?0?$AA?5?$AAp@ 0059a448     LIBCMTD:wassert.obj
 0003:000244e8       ??_C@_1HG@OJJMBIKO@?$AAw?$AAc?$AAs?$AAn?$AAc?$AAa?$AAt?$AA_?$AAs?$AA?$CI?$AA?5?$AAa?$AAs?$AAs?$AAe?$AAr?$AAt?$AAb?$AAu?$AAf?$AA?0?$AA?5?$AA?$CI?$AA6?$AA0?$AA?5?$AA?$CK?$AA?5?$AA9?$AA?$CJ?$AA?0?$AA?5@ 0059a4e8     LIBCMTD:wassert.obj
 0003:00024578       ??_C@_1GO@BIHLMMND@?$AAw?$AAc?$AAs?$AAn?$AAc?$AAa?$AAt?$AA_?$AAs?$AA?$CI?$AA?5?$AAa?$AAs?$AAs?$AAe?$AAr?$AAt?$AAb?$AAu?$AAf?$AA?0?$AA?5?$AA?$CI?$AA6?$AA0?$AA?5?$AA?$CK?$AA?5?$AA9?$AA?$CJ?$AA?0?$AA?5@ 0059a578     LIBCMTD:wassert.obj
 0003:00024600       ??_C@_1FO@IJLLDBEB@?$AAw?$AAc?$AAs?$AAc?$AAa?$AAt?$AA_?$AAs?$AA?$CI?$AA?5?$AAa?$AAs?$AAs?$AAe?$AAr?$AAt?$AAb?$AAu?$AAf?$AA?0?$AA?5?$AA?$CI?$AA6?$AA0?$AA?5?$AA?$CK?$AA?5?$AA9?$AA?$CJ?$AA?0?$AA?5?$AAp@ 0059a600     LIBCMTD:wassert.obj
 0003:00024670       ??_C@_1FG@CLEECKIJ@?$AAw?$AAc?$AAs?$AAc?$AAa?$AAt?$AA_?$AAs?$AA?$CI?$AA?5?$AAa?$AAs?$AAs?$AAe?$AAr?$AAt?$AAb?$AAu?$AAf?$AA?0?$AA?5?$AA?$CI?$AA6?$AA0?$AA?5?$AA?$CK?$AA?5?$AA9?$AA?$CJ?$AA?0?$AA?5?$AAd@ 0059a670     LIBCMTD:wassert.obj
 0003:000246d8       ??_C@_1GG@PMHOPJKA@?$AAw?$AAc?$AAs?$AAn?$AAc?$AAa?$AAt?$AA_?$AAs?$AA?$CI?$AA?5?$AAa?$AAs?$AAs?$AAe?$AAr?$AAt?$AAb?$AAu?$AAf?$AA?0?$AA?5?$AA?$CI?$AA6?$AA0?$AA?5?$AA?$CK?$AA?5?$AA9?$AA?$CJ?$AA?0?$AA?5@ 0059a6d8     LIBCMTD:wassert.obj
 0003:00024754       ??_C@_1O@HEMHKNDC@?$AAF?$AAi?$AAl?$AAe?$AA?3?$AA?5?$AA?$AA@ 0059a754     LIBCMTD:wassert.obj
 0003:00024768       ??_C@_1FG@HIDBOJF@?$AAw?$AAc?$AAs?$AAc?$AAa?$AAt?$AA_?$AAs?$AA?$CI?$AA?5?$AAa?$AAs?$AAs?$AAe?$AAr?$AAt?$AAb?$AAu?$AAf?$AA?0?$AA?5?$AA?$CI?$AA6?$AA0?$AA?5?$AA?$CK?$AA?5?$AA9?$AA?$CJ?$AA?0?$AA?5?$AAL@ 0059a768     LIBCMTD:wassert.obj
 0003:000247d0       ??_C@_1FC@FFKGGIKO@?$AAw?$AAc?$AAs?$AAc?$AAa?$AAt?$AA_?$AAs?$AA?$CI?$AA?5?$AAa?$AAs?$AAs?$AAe?$AAr?$AAt?$AAb?$AAu?$AAf?$AA?0?$AA?5?$AA?$CI?$AA6?$AA0?$AA?5?$AA?$CK?$AA?5?$AA9?$AA?$CJ?$AA?0?$AA?5?$AAn@ 0059a7d0     LIBCMTD:wassert.obj
 0003:00024838       ??_C@_1EK@BDNABPEK@?$AAw?$AAc?$AAs?$AAc?$AAa?$AAt?$AA_?$AAs?$AA?$CI?$AA?5?$AAa?$AAs?$AAs?$AAe?$AAr?$AAt?$AAb?$AAu?$AAf?$AA?0?$AA?5?$AA?$CI?$AA6?$AA0?$AA?5?$AA?$CK?$AA?5?$AA9?$AA?$CJ?$AA?0?$AA?5?$AAp@ 0059a838     LIBCMTD:wassert.obj
 0003:00024890       ??_C@_1HK@JKBDGMGN@?$AAw?$AAc?$AAs?$AAn?$AAc?$AAp?$AAy?$AA_?$AAs?$AA?$CI?$AA?5?$AAp?$AAc?$AAh?$AA?0?$AA?5?$AA?$CI?$AA2?$AA6?$AA0?$AA?5?$AA?$CL?$AA?5?$AA1?$AA?$CJ?$AA?5?$AA?9?$AA?5?$AA?$CI?$AAp?$AAc?$AAh@ 0059a890     LIBCMTD:wassert.obj
 0003:00024924       ??_C@_1CO@EAEJAADC@?$AA?$DM?$AAp?$AAr?$AAo?$AAg?$AAr?$AAa?$AAm?$AA?5?$AAn?$AAa?$AAm?$AAe?$AA?5?$AAu?$AAn?$AAk?$AAn?$AAo?$AAw?$AAn?$AA?$DO?$AA?$AA@ 0059a924     LIBCMTD:wassert.obj
 0003:00024960       ??_C@_1HA@EPFCONEE@?$AAw?$AAc?$AAs?$AAc?$AAp?$AAy?$AA_?$AAs?$AA?$CI?$AA?5?$AAp?$AAr?$AAo?$AAg?$AAn?$AAa?$AAm?$AAe?$AA?0?$AA?5?$AA2?$AA6?$AA0?$AA?5?$AA?$CL?$AA?5?$AA1?$AA?0?$AA?5?$AAL?$AA?$CC?$AA?$DM@ 0059a960     LIBCMTD:wassert.obj
 0003:000249e8       ??_C@_1BE@PHKBBGE@?$AAP?$AAr?$AAo?$AAg?$AAr?$AAa?$AAm?$AA?3?$AA?5?$AA?$AA@ 0059a9e8     LIBCMTD:wassert.obj
 0003:00024a00       ??_C@_1FM@LKICECBD@?$AAw?$AAc?$AAs?$AAc?$AAa?$AAt?$AA_?$AAs?$AA?$CI?$AA?5?$AAa?$AAs?$AAs?$AAe?$AAr?$AAt?$AAb?$AAu?$AAf?$AA?0?$AA?5?$AA?$CI?$AA6?$AA0?$AA?5?$AA?$CK?$AA?5?$AA9?$AA?$CJ?$AA?0?$AA?5?$AAL@ 0059aa00     LIBCMTD:wassert.obj
 0003:00024a70       ??_C@_1FI@JIGMFG@?$AAw?$AAc?$AAs?$AAc?$AAa?$AAt?$AA_?$AAs?$AA?$CI?$AA?5?$AAa?$AAs?$AAs?$AAe?$AAr?$AAt?$AAb?$AAu?$AAf?$AA?0?$AA?5?$AA?$CI?$AA6?$AA0?$AA?5?$AA?$CK?$AA?5?$AA9?$AA?$CJ?$AA?0?$AA?5?$AAd@ 0059aa70     LIBCMTD:wassert.obj
 0003:00024adc       ??_C@_1CE@OJBNHDMO@?$AAA?$AAs?$AAs?$AAe?$AAr?$AAt?$AAi?$AAo?$AAn?$AA?5?$AAf?$AAa?$AAi?$AAl?$AAe?$AAd?$AA?$CB?$AA?$AA@ 0059aadc     LIBCMTD:wassert.obj
 0003:00024b08       ??_C@_1GM@EFCJNBAA@?$AAw?$AAc?$AAs?$AAc?$AAp?$AAy?$AA_?$AAs?$AA?$CI?$AA?5?$AAa?$AAs?$AAs?$AAe?$AAr?$AAt?$AAb?$AAu?$AAf?$AA?0?$AA?5?$AA?$CI?$AA6?$AA0?$AA?5?$AA?$CK?$AA?5?$AA9?$AA?$CJ?$AA?0?$AA?5?$AAL@ 0059ab08     LIBCMTD:wassert.obj
 0003:00024b8c       ??_C@_0CG@KNFFOMBO@Filename?5cannot?5be?5displayed?5on?5@ 0059ab8c     LIBCMTD:wassert.obj
 0003:00024bc0       ??_C@_1IG@IGPDOJOE@?$AAs?$AAt?$AAr?$AAc?$AAp?$AAy?$AA_?$AAs?$AA?$CI?$AAa?$AAe?$AAx?$AAp?$AAr?$AA?0?$AA?5?$AA?$CI?$AA6?$AA0?$AA?5?$AA?$CK?$AA?5?$AA9?$AA?$CJ?$AA?0?$AA?5?$AA?$CC?$AAF?$AAi?$AAl?$AAe?$AAn@ 0059abc0     LIBCMTD:wassert.obj
 0003:00024c60       ??_C@_1EK@EDAIPDBP@?$AAs?$AAt?$AAr?$AAc?$AAa?$AAt?$AA_?$AAs?$AA?$CI?$AAa?$AAf?$AAi?$AAl?$AAe?$AAn?$AAa?$AAm?$AAe?$AA?0?$AA?5?$AA?$CI?$AA6?$AA0?$AA?5?$AA?$CK?$AA?5?$AA9?$AA?$CJ?$AA?0?$AA?5?$AA?$CC?$AA?4@ 0059ac60     LIBCMTD:wassert.obj
 0003:00024cb8       ??_C@_1IK@MDEEAGJC@?$AAw?$AAc?$AAs?$AAt?$AAo?$AAm?$AAb?$AAs?$AA_?$AAs?$AA?$CI?$AA?$CI?$AA?$CI?$AAv?$AAo?$AAi?$AAd?$AA?5?$AA?$CK?$AA?$CJ?$AA0?$AA?$CJ?$AA?0?$AA?5?$AAa?$AAf?$AAi?$AAl?$AAe?$AAn?$AAa?$AAm@ 0059acb8     LIBCMTD:wassert.obj
 0003:00024d60       ??_C@_0CI@FDIHEIE@Expression?5cannot?5be?5displayed?5o@ 0059ad60     LIBCMTD:wassert.obj
 0003:00024d90       ??_C@_1IK@ONGNJJEH@?$AAs?$AAt?$AAr?$AAc?$AAp?$AAy?$AA_?$AAs?$AA?$CI?$AAa?$AAe?$AAx?$AAp?$AAr?$AA?0?$AA?5?$AA?$CI?$AA6?$AA0?$AA?5?$AA?$CK?$AA?5?$AA9?$AA?$CJ?$AA?0?$AA?5?$AA?$CC?$AAE?$AAx?$AAp?$AAr?$AAe@ 0059ad90     LIBCMTD:wassert.obj
 0003:00024e38       ??_C@_03KHICJKCI@?4?4?4?$AA@ 0059ae38     LIBCMTD:wassert.obj
 0003:00024e40       ??_C@_1EC@IFDALDOK@?$AAs?$AAt?$AAr?$AAc?$AAa?$AAt?$AA_?$AAs?$AA?$CI?$AAa?$AAe?$AAx?$AAp?$AAr?$AA?0?$AA?5?$AA?$CI?$AA6?$AA0?$AA?5?$AA?$CK?$AA?5?$AA9?$AA?$CJ?$AA?0?$AA?5?$AA?$CC?$AA?4?$AA?4?$AA?4?$AA?$CC?$AA?$CJ@ 0059ae40     LIBCMTD:wassert.obj
 0003:00024e90       ??_C@_1HK@ENOPLEGF@?$AAw?$AAc?$AAs?$AAt?$AAo?$AAm?$AAb?$AAs?$AA_?$AAs?$AA?$CI?$AA?$CI?$AA?$CI?$AAv?$AAo?$AAi?$AAd?$AA?5?$AA?$CK?$AA?$CJ?$AA0?$AA?$CJ?$AA?0?$AA?5?$AAa?$AAe?$AAx?$AAp?$AAr?$AA?0?$AA?5?$AA?$CI@ 0059ae90     LIBCMTD:wassert.obj
 0003:00024f24       ??_C@_1BC@LNOOMFNA@?$AA_?$AAw?$AAa?$AAs?$AAs?$AAe?$AAr?$AAt?$AA?$AA@ 0059af24     LIBCMTD:wassert.obj
 0003:00024f40       ??_C@_1GA@PJFCHOLB@?$AAf?$AA?3?$AA?2?$AAs?$AAp?$AA?2?$AAv?$AAc?$AAt?$AAo?$AAo?$AAl?$AAs?$AA?2?$AAc?$AAr?$AAt?$AA_?$AAb?$AAl?$AAd?$AA?2?$AAs?$AAe?$AAl?$AAf?$AA_?$AAx?$AA8?$AA6?$AA?2?$AAc@ 0059af40     LIBCMTD:wassert.obj
 0003:00024fb4       ??_C@_1CC@OLIJCKA@?$AA?$CI?$AAs?$AAt?$AAr?$AAi?$AAn?$AAg?$AA?5?$AA?$CB?$AA?$DN?$AA?5?$AAN?$AAU?$AAL?$AAL?$AA?$CJ?$AA?$AA@ 0059afb4     LIBCMTD:sprintf.obj
 0003:00024fdc       ??_C@_1BA@KBJJGFFE@?$AAs?$AAp?$AAr?$AAi?$AAn?$AAt?$AAf?$AA?$AA@ 0059afdc     LIBCMTD:sprintf.obj
 0003:00024ff0       ??_C@_1BE@BPBEAPLI@?$AAs?$AAp?$AAr?$AAi?$AAn?$AAt?$AAf?$AA?4?$AAc?$AA?$AA@ 0059aff0     LIBCMTD:sprintf.obj
 0003:00025008       ??_C@_1CC@MGIEJOME@?$AA?$CI?$AAf?$AAo?$AAr?$AAm?$AAa?$AAt?$AA?5?$AA?$CB?$AA?$DN?$AA?5?$AAN?$AAU?$AAL?$AAL?$AA?$CJ?$AA?$AA@ 0059b008     LIBCMTD:sprintf.obj
 0003:00025030       ??_C@_1CI@HBNALCBB@?$AA?$CI?$AA?$CK?$AAm?$AAo?$AAd?$AAe?$AA?5?$AA?$CB?$AA?$DN?$AA?5?$AA_?$AAT?$AA?$CI?$AA?8?$AA?2?$AA0?$AA?8?$AA?$CJ?$AA?$CJ?$AA?$AA@ 0059b030     LIBCMTD:fopen.obj
 0003:00025060       ??_C@_1BO@MJMKAKCJ@?$AA?$CI?$AAm?$AAo?$AAd?$AAe?$AA?5?$AA?$CB?$AA?$DN?$AA?5?$AAN?$AAU?$AAL?$AAL?$AA?$CJ?$AA?$AA@ 0059b060     LIBCMTD:fopen.obj
 0003:00025084       ??_C@_1BA@HNEAFMNL@?$AA_?$AAf?$AAs?$AAo?$AAp?$AAe?$AAn?$AA?$AA@ 0059b084     LIBCMTD:fopen.obj
 0003:00025098       ??_C@_1BA@GBANKLPE@?$AAf?$AAo?$AAp?$AAe?$AAn?$AA?4?$AAc?$AA?$AA@ 0059b098     LIBCMTD:fopen.obj
 0003:000250ac       ??_C@_1BO@CLGIAEOJ@?$AA?$CI?$AAf?$AAi?$AAl?$AAe?$AA?5?$AA?$CB?$AA?$DN?$AA?5?$AAN?$AAU?$AAL?$AAL?$AA?$CJ?$AA?$AA@ 0059b0ac     LIBCMTD:fopen.obj
 0003:000250d0       ??_C@_1BA@PBGKCCAP@?$AAf?$AAo?$AAp?$AAe?$AAn?$AA_?$AAs?$AA?$AA@ 0059b0d0     LIBCMTD:fopen.obj
 0003:000250e4       ??_C@_1CA@LLJLFCDN@?$AA?$CI?$AAp?$AAf?$AAi?$AAl?$AAe?$AA?5?$AA?$CB?$AA?$DN?$AA?5?$AAN?$AAU?$AAL?$AAL?$AA?$CJ?$AA?$AA@ 0059b0e4     LIBCMTD:fopen.obj
 0003:0002510c       ??_C@_1O@KLNKIMAP@?$AAf?$AAw?$AAr?$AAi?$AAt?$AAe?$AA?$AA@ 0059b10c     LIBCMTD:fwrite.obj
 0003:0002511c       ??_C@_1BC@JOKKJJOM@?$AAf?$AAw?$AAr?$AAi?$AAt?$AAe?$AA?4?$AAc?$AA?$AA@ 0059b11c     LIBCMTD:fwrite.obj
 0003:00025134       ??_C@_1CC@FADMNIL@?$AA?$CI?$AAs?$AAt?$AAr?$AAe?$AAa?$AAm?$AA?5?$AA?$CB?$AA?$DN?$AA?5?$AAN?$AAU?$AAL?$AAL?$AA?$CJ?$AA?$AA@ 0059b134     LIBCMTD:fwrite.obj
 0003:00025160       ??_C@_1LG@DCNDJCHK@?$AA?$CI?$AA?$CC?$AAI?$AAn?$AAc?$AAo?$AAn?$AAs?$AAi?$AAs?$AAt?$AAe?$AAn?$AAt?$AA?5?$AAS?$AAt?$AAr?$AAe?$AAa?$AAm?$AA?5?$AAC?$AAo?$AAu?$AAn?$AAt?$AA?4?$AA?5?$AAF?$AAl?$AAu@ 0059b160     LIBCMTD:fwrite.obj
 0003:0002523c       ??_C@_1DC@FHEPNAPF@?$AAn?$AAu?$AAm?$AA?5?$AA?$DM?$AA?$DN?$AA?5?$AA?$CI?$AAS?$AAI?$AAZ?$AAE?$AA_?$AAM?$AAA?$AAX?$AA?5?$AA?1?$AA?5?$AAs?$AAi?$AAz?$AAe?$AA?$CJ?$AA?$AA@ 0059b23c     LIBCMTD:fwrite.obj
 0003:00025278       ??_C@_1CC@CGFEEBMC@?$AA?$CI?$AAb?$AAu?$AAf?$AAf?$AAe?$AAr?$AA?5?$AA?$CB?$AA?$DN?$AA?5?$AAN?$AAU?$AAL?$AAL?$AA?$CJ?$AA?$AA@ 0059b278     LIBCMTD:fwrite.obj
 0003:000252a0       ??_C@_1BO@JGPKCBCE@?$AA_?$AAf?$AAw?$AAr?$AAi?$AAt?$AAe?$AA_?$AAn?$AAo?$AAl?$AAo?$AAc?$AAk?$AA?$AA@ 0059b2a0     LIBCMTD:fwrite.obj
 0003:000252c4       ??_C@_1O@EGMJNCOI@?$AAf?$AAc?$AAl?$AAo?$AAs?$AAe?$AA?$AA@ 0059b2c4     LIBCMTD:fclose.obj
 0003:000252d4       ??_C@_1BC@MHEDMIA@?$AAf?$AAc?$AAl?$AAo?$AAs?$AAe?$AA?4?$AAc?$AA?$AA@ 0059b2d4     LIBCMTD:fclose.obj
 0003:000252ec       ??_C@_1BO@JINCABEC@?$AA_?$AAf?$AAc?$AAl?$AAo?$AAs?$AAe?$AA_?$AAn?$AAo?$AAl?$AAo?$AAc?$AAk?$AA?$AA@ 0059b2ec     LIBCMTD:fclose.obj
 0003:00025310       ??_C@_1BM@JMKHIAHP@?$AA?$CI?$AAs?$AAt?$AAr?$AA?5?$AA?$CB?$AA?$DN?$AA?5?$AAN?$AAU?$AAL?$AAL?$AA?$CJ?$AA?$AA@ 0059b310     LIBCMTD:fclose.obj
 0003:00025334       ??_C@_1O@GKDHFACN@?$AAp?$AAr?$AAi?$AAn?$AAt?$AAf?$AA?$AA@ 0059b334     LIBCMTD:printf.obj
 0003:00025344       ??_C@_1BC@BHLBENIK@?$AAp?$AAr?$AAi?$AAn?$AAt?$AAf?$AA?4?$AAc?$AA?$AA@ 0059b344     LIBCMTD:printf.obj
 0003:00025360       ??_C@_1BAE@CBLKKPB@?$AA?$CI?$AA?5?$AA?$CI?$AA_?$AAS?$AAt?$AAr?$AAe?$AAa?$AAm?$AA?9?$AA?$DO?$AA_?$AAf?$AAl?$AAa?$AAg?$AA?5?$AA?$CG?$AA?5?$AA_?$AAI?$AAO?$AAS?$AAT?$AAR?$AAG?$AA?$CJ?$AA?5?$AA?$HM?$AA?$HM?$AA?5@ 0059b360     LIBCMTD:puts.obj
 0003:00025498       ??_C@_19OHLFMNEA@?$AAp?$AAu?$AAt?$AAs?$AA?$AA@ 0059b498     LIBCMTD:puts.obj
 0003:000254a4       ??_C@_1O@LBIKEMKD@?$AAp?$AAu?$AAt?$AAs?$AA?4?$AAc?$AA?$AA@ 0059b4a4     LIBCMTD:puts.obj
 0003:000254b4       __FPinit                   0059b4b4     LIBCMTD:fpinit.obj
 0003:000254b8       __FPmtinit                 0059b4b8     LIBCMTD:fpinit.obj
 0003:000254bc       __FPmtterm                 0059b4bc     LIBCMTD:fpinit.obj
 0003:000254c4       ??_C@_1CA@EHPEFHFN@?$AA?$CI?$AA?5?$AAs?$AAt?$AAr?$AA?5?$AA?$CB?$AA?$DN?$AA?5?$AAN?$AAU?$AAL?$AAL?$AA?5?$AA?$CJ?$AA?$AA@ 0059b4c4     LIBCMTD:fgets.obj
 0003:000254ec       ??_C@_1BO@CLMMCNLO@?$AA?$CI?$AA?5?$AAc?$AAo?$AAu?$AAn?$AAt?$AA?5?$AA?$DO?$AA?$DN?$AA?5?$AA0?$AA?5?$AA?$CJ?$AA?$AA@ 0059b4ec     LIBCMTD:fgets.obj
 0003:00025510       ??_C@_1M@BEMABAL@?$AAf?$AAg?$AAe?$AAt?$AAs?$AA?$AA@ 0059b510     LIBCMTD:fgets.obj
 0003:00025520       ??_C@_1BA@OJDNOBAC@?$AAf?$AAg?$AAe?$AAt?$AAs?$AA?4?$AAc?$AA?$AA@ 0059b520     LIBCMTD:fgets.obj
 0003:00025538       ??_C@_1EK@KICPAPCG@?$AA?$CI?$AA?5?$AAs?$AAt?$AAr?$AAi?$AAn?$AAg?$AA?5?$AA?$CB?$AA?$DN?$AA?5?$AAN?$AAU?$AAL?$AAL?$AA?5?$AA?$CJ?$AA?5?$AA?$HM?$AA?$HM?$AA?5?$AA?$CI?$AA?5?$AAc?$AAo?$AAu?$AAn?$AAt?$AA?5?$AA?$DN?$AA?$DN@ 0059b538     LIBCMTD:fgets.obj
 0003:00025590       ??_C@_07PNHPCIEC@_file?4c?$AA@ 0059b590     LIBCMTD:_file.obj
 0003:000255a0       ??_C@_1EC@FABAOFFO@?$AA?$CI?$AAc?$AAo?$AAu?$AAn?$AAt?$AA?5?$AA?$DN?$AA?$DN?$AA?5?$AA0?$AA?$CJ?$AA?5?$AA?$HM?$AA?$HM?$AA?5?$AA?$CI?$AAs?$AAt?$AAr?$AAi?$AAn?$AAg?$AA?5?$AA?$CB?$AA?$DN?$AA?5?$AAN?$AAU?$AAL?$AAL?$AA?$CJ@ 0059b5a0     LIBCMTD:snprintf.obj
 0003:000255f0       ??_C@_1BE@CHNFPLHD@?$AA_?$AAs?$AAn?$AAp?$AAr?$AAi?$AAn?$AAt?$AAf?$AA?$AA@ 0059b5f0     LIBCMTD:snprintf.obj
 0003:00025608       ??_C@_1GC@GHEPACJN@?$AAf?$AA?3?$AA?2?$AAs?$AAp?$AA?2?$AAv?$AAc?$AAt?$AAo?$AAo?$AAl?$AAs?$AA?2?$AAc?$AAr?$AAt?$AA_?$AAb?$AAl?$AAd?$AA?2?$AAs?$AAe?$AAl?$AAf?$AA_?$AAx?$AA8?$AA6?$AA?2?$AAc@ 0059b608     LIBCMTD:snprintf.obj
 0003:00025680       ?ProcessDetach@NativeDll@<CrtImplementationDetails>@@0IB 0059b680     LIBCMTD:toupper.obj
 0003:00025684       ?ProcessAttach@NativeDll@<CrtImplementationDetails>@@0IB 0059b684     LIBCMTD:toupper.obj
 0003:00025688       ?ThreadAttach@NativeDll@<CrtImplementationDetails>@@0IB 0059b688     LIBCMTD:toupper.obj
 0003:0002568c       ?ThreadDetach@NativeDll@<CrtImplementationDetails>@@0IB 0059b68c     LIBCMTD:toupper.obj
 0003:00025690       ?ProcessVerifier@NativeDll@<CrtImplementationDetails>@@0IB 0059b690     LIBCMTD:toupper.obj
 0003:00025694       ??_C@_06PJIGMIJB@Client?$AA@ 0059b694     LIBCMTD:dbgheap.obj
 0003:0002569c       ??_C@_06KMEJCCGM@Ignore?$AA@ 0059b69c     LIBCMTD:dbgheap.obj
 0003:000256a4       ??_C@_03OGPFLFLO@CRT?$AA@  0059b6a4     LIBCMTD:dbgheap.obj
 0003:000256a8       ??_C@_06EFAGIKOH@Normal?$AA@ 0059b6a8     LIBCMTD:dbgheap.obj
 0003:000256b0       ??_C@_04HJMOFLDF@Free?$AA@ 0059b6b0     LIBCMTD:dbgheap.obj
 0003:000256d0       ??_C@_0DC@JEMAGEKG@Error?3?5memory?5allocation?3?5bad?5me@ 0059b6d0     LIBCMTD:dbgheap.obj
 0003:0002570c       ??_C@_0CF@BICKFLAF@Invalid?5allocation?5size?3?5?$CFIu?5byt@ 0059b70c     LIBCMTD:dbgheap.obj
 0003:00025738       ??_C@_0CB@CCLOLAHO@Client?5hook?5allocation?5failure?4?6@ 0059b738     LIBCMTD:dbgheap.obj
 0003:00025760       ??_C@_0DF@BBEGIFEK@Client?5hook?5allocation?5failure?5a@ 0059b760     LIBCMTD:dbgheap.obj
 0003:000257a0       ??_C@_1BE@DOFBOBGF@?$AAd?$AAb?$AAg?$AAh?$AAe?$AAa?$AAp?$AA?4?$AAc?$AA?$AA@ 0059b7a0     LIBCMTD:dbgheap.obj
 0003:000257b8       ??_C@_1CE@LJFEPPMP@?$AA_?$AAC?$AAr?$AAt?$AAC?$AAh?$AAe?$AAc?$AAk?$AAM?$AAe?$AAm?$AAo?$AAr?$AAy?$AA?$CI?$AA?$CJ?$AA?$AA@ 0059b7b8     LIBCMTD:dbgheap.obj
 0003:000257e4       ??_C@_1BI@MIPBBENM@?$AA_?$AAc?$AAa?$AAl?$AAl?$AAo?$AAc?$AA_?$AAd?$AAb?$AAg?$AA?$AA@ 0059b7e4     LIBCMTD:dbgheap.obj
 0003:00025800       ??_C@_1DO@MEOGCGBN@?$AA?$CI?$AA_?$AAH?$AAE?$AAA?$AAP?$AA_?$AAM?$AAA?$AAX?$AAR?$AAE?$AAQ?$AA?5?$AA?1?$AA?5?$AAn?$AAN?$AAu?$AAm?$AA?$CJ?$AA?5?$AA?$DO?$AA?$DN?$AA?5?$AAn?$AAS?$AAi?$AAz?$AAe?$AA?$AA@ 0059b800     LIBCMTD:dbgheap.obj
 0003:0002584c       ??_C@_1DE@KOOKLFBB@?$AA_?$AAp?$AAF?$AAi?$AAr?$AAs?$AAt?$AAB?$AAl?$AAo?$AAc?$AAk?$AA?5?$AA?$DN?$AA?$DN?$AA?5?$AAp?$AAO?$AAl?$AAd?$AAB?$AAl?$AAo?$AAc?$AAk?$AA?$AA@ 0059b84c     LIBCMTD:dbgheap.obj
 0003:0002588c       ??_C@_1DC@GEFKNOOL@?$AA_?$AAp?$AAL?$AAa?$AAs?$AAt?$AAB?$AAl?$AAo?$AAc?$AAk?$AA?5?$AA?$DN?$AA?$DN?$AA?5?$AAp?$AAO?$AAl?$AAd?$AAB?$AAl?$AAo?$AAc?$AAk?$AA?$AA@ 0059b88c     LIBCMTD:dbgheap.obj
 0003:000258c8       ??_C@_1GE@PCKLOLAO@?$AAf?$AAR?$AAe?$AAa?$AAl?$AAl?$AAo?$AAc?$AA?5?$AA?$HM?$AA?$HM?$AA?5?$AA?$CI?$AA?$CB?$AAf?$AAR?$AAe?$AAa?$AAl?$AAl?$AAo?$AAc?$AA?5?$AA?$CG?$AA?$CG?$AA?5?$AAp?$AAN?$AAe?$AAw?$AAB?$AAl@ 0059b8c8     LIBCMTD:dbgheap.obj
 0003:00025940       ??_C@_1IK@DCPKDGNH@?$AAp?$AAO?$AAl?$AAd?$AAB?$AAl?$AAo?$AAc?$AAk?$AA?9?$AA?$DO?$AAn?$AAL?$AAi?$AAn?$AAe?$AA?5?$AA?$DN?$AA?$DN?$AA?5?$AAI?$AAG?$AAN?$AAO?$AAR?$AAE?$AA_?$AAL?$AAI?$AAN?$AAE?$AA?5@ 0059b940     LIBCMTD:dbgheap.obj
 0003:000259e8       ??_C@_1EE@GFOPCECE@?$AA_?$AAC?$AAr?$AAt?$AAI?$AAs?$AAV?$AAa?$AAl?$AAi?$AAd?$AAH?$AAe?$AAa?$AAp?$AAP?$AAo?$AAi?$AAn?$AAt?$AAe?$AAr?$AA?$CI?$AAp?$AAU?$AAs?$AAe?$AAr?$AAD?$AAa?$AAt?$AAa@ 0059b9e8     LIBCMTD:dbgheap.obj
 0003:00025a40       ??_C@_0EM@LGFLMAGJ@The?5Block?5at?50x?$CFp?5was?5allocated?5@ 0059ba40     LIBCMTD:dbgheap.obj
 0003:00025aa0       ??_C@_0FA@EFEIGJKG@Error?3?5memory?5allocation?3?5bad?5me@ 0059baa0     LIBCMTD:dbgheap.obj
 0003:00025b00       ??_C@_0ED@GPCPBAGP@Invalid?5allocation?5size?3?5?$CFIu?5byt@ 0059bb00     LIBCMTD:dbgheap.obj
 0003:00025b50       ??_C@_0CE@DOFMDOL@Client?5hook?5re?9allocation?5failur@ 0059bb50     LIBCMTD:dbgheap.obj
 0003:00025b7c       ??_C@_0DI@KKJPDPGM@Client?5hook?5re?9allocation?5failur@ 0059bb7c     LIBCMTD:dbgheap.obj
 0003:00025bc0       ??_C@_1BM@OKFKJCEN@?$AA_?$AAr?$AAe?$AAc?$AAa?$AAl?$AAl?$AAo?$AAc?$AA_?$AAd?$AAb?$AAg?$AA?$AA@ 0059bbc0     LIBCMTD:dbgheap.obj
 0003:00025be4       ??_C@_1DO@GOKJCEHJ@?$AA?$CI?$AA_?$AAH?$AAE?$AAA?$AAP?$AA_?$AAM?$AAA?$AAX?$AAR?$AAE?$AAQ?$AA?5?$AA?1?$AA?5?$AAc?$AAo?$AAu?$AAn?$AAt?$AA?$CJ?$AA?5?$AA?$DO?$AA?$DN?$AA?5?$AAs?$AAi?$AAz?$AAe?$AA?$AA@ 0059bbe4     LIBCMTD:dbgheap.obj
 0003:00025c30       ??_C@_1BI@HAPNGHDP@?$AA_?$AAe?$AAx?$AAp?$AAa?$AAn?$AAd?$AA_?$AAd?$AAb?$AAg?$AA?$AA@ 0059bc30     LIBCMTD:dbgheap.obj
 0003:00025c4c       ??_C@_1CE@CJACEFBA@?$AAp?$AAU?$AAs?$AAe?$AAr?$AAD?$AAa?$AAt?$AAa?$AA?5?$AA?$CB?$AA?$DN?$AA?5?$AAN?$AAU?$AAL?$AAL?$AA?$AA@ 0059bc4c     LIBCMTD:dbgheap.obj
 0003:00025c78       ??_C@_1CM@MMAADDMD@?$AA_?$AAp?$AAF?$AAi?$AAr?$AAs?$AAt?$AAB?$AAl?$AAo?$AAc?$AAk?$AA?5?$AA?$DN?$AA?$DN?$AA?5?$AAp?$AAH?$AAe?$AAa?$AAd?$AA?$AA@ 0059bc78     LIBCMTD:dbgheap.obj
 0003:00025cac       ??_C@_1CK@DMAGEMBG@?$AA_?$AAp?$AAL?$AAa?$AAs?$AAt?$AAB?$AAl?$AAo?$AAc?$AAk?$AA?5?$AA?$DN?$AA?$DN?$AA?5?$AAp?$AAH?$AAe?$AAa?$AAd?$AA?$AA@ 0059bcac     LIBCMTD:dbgheap.obj
 0003:00025ce0       ??_C@_1DM@ODCJIDCP@?$AAp?$AAH?$AAe?$AAa?$AAd?$AA?9?$AA?$DO?$AAn?$AAB?$AAl?$AAo?$AAc?$AAk?$AAU?$AAs?$AAe?$AA?5?$AA?$DN?$AA?$DN?$AA?5?$AAn?$AAB?$AAl?$AAo?$AAc?$AAk?$AAU?$AAs?$AAe?$AA?$AA@ 0059bce0     LIBCMTD:dbgheap.obj
 0003:00025d28       ??_C@_1HK@HPCBMDFG@?$AAp?$AAH?$AAe?$AAa?$AAd?$AA?9?$AA?$DO?$AAn?$AAL?$AAi?$AAn?$AAe?$AA?5?$AA?$DN?$AA?$DN?$AA?5?$AAI?$AAG?$AAN?$AAO?$AAR?$AAE?$AA_?$AAL?$AAI?$AAN?$AAE?$AA?5?$AA?$CG?$AA?$CG?$AA?5?$AAp@ 0059bd28     LIBCMTD:dbgheap.obj
 0003:00025dc0       ??_C@_0IG@LEMBDCJK@HEAP?5CORRUPTION?5DETECTED?3?5after?5@ 0059bdc0     LIBCMTD:dbgheap.obj
 0003:00025e60       ??_C@_0KE@MBMNHHHN@HEAP?5CORRUPTION?5DETECTED?3?5after?5@ 0059be60     LIBCMTD:dbgheap.obj
 0003:00025f28       ??_C@_0IK@PJCGLBOB@HEAP?5CORRUPTION?5DETECTED?3?5before@ 0059bf28     LIBCMTD:dbgheap.obj
 0003:00025fd0       ??_C@_0KI@JGFOHMEB@HEAP?5CORRUPTION?5DETECTED?3?5before@ 0059bfd0     LIBCMTD:dbgheap.obj
 0003:000260a0       ??_C@_1EO@LHDAJOCM@?$AA_?$AAB?$AAL?$AAO?$AAC?$AAK?$AA_?$AAT?$AAY?$AAP?$AAE?$AA_?$AAI?$AAS?$AA_?$AAV?$AAA?$AAL?$AAI?$AAD?$AA?$CI?$AAp?$AAH?$AAe?$AAa?$AAd?$AA?9?$AA?$DO?$AAn?$AAB?$AAl?$AAo@ 0059c0a0     LIBCMTD:dbgheap.obj
 0003:00026100       ??_C@_0BL@KEIPLFAC@Client?5hook?5free?5failure?4?6?$AA@ 0059c100     LIBCMTD:dbgheap.obj
 0003:00026120       ??_C@_0EJ@HEIBCIMJ@The?5Block?5at?50x?$CFp?5was?5allocated?5@ 0059c120     LIBCMTD:dbgheap.obj
 0003:00026178       ??_C@_1BG@MBKOGDLD@?$AA_?$AAm?$AAs?$AAi?$AAz?$AAe?$AA_?$AAd?$AAb?$AAg?$AA?$AA@ 0059c178     LIBCMTD:dbgheap.obj
 0003:00026194       ??_C@_0CI@JMLBEDHJ@?$CFhs?5located?5at?50x?$CFp?5is?5?$CFIu?5bytes@ 0059c194     LIBCMTD:dbgheap.obj
 0003:000261c8       ??_C@_0EG@DGJMPDBH@?$CFhs?5located?5at?50x?$CFp?5is?5?$CFIu?5bytes@ 0059c1c8     LIBCMTD:dbgheap.obj
 0003:00026220       ??_C@_0IC@BBJIOOJH@HEAP?5CORRUPTION?5DETECTED?3?5on?5top@ 0059c220     LIBCMTD:dbgheap.obj
 0003:000262c0       ??_C@_0KA@IHNJJKPL@HEAP?5CORRUPTION?5DETECTED?3?5on?5top@ 0059c2c0     LIBCMTD:dbgheap.obj
 0003:00026380       ??_C@_07OHKEFPKJ@DAMAGED?$AA@ 0059c380     LIBCMTD:dbgheap.obj
 0003:0002638c       ??_C@_0CL@HNNNMKMJ@_heapchk?5fails?5with?5unknown?5retu@ 0059c38c     LIBCMTD:dbgheap.obj
 0003:000263c0       ??_C@_0CC@MFFCHFHO@_heapchk?5fails?5with?5_HEAPBADPTR?4@ 0059c3c0     LIBCMTD:dbgheap.obj
 0003:000263e8       ??_C@_0CC@MJGLGBDG@_heapchk?5fails?5with?5_HEAPBADEND?4@ 0059c3e8     LIBCMTD:dbgheap.obj
 0003:00026410       ??_C@_0CD@CPKEAPBD@_heapchk?5fails?5with?5_HEAPBADNODE@ 0059c410     LIBCMTD:dbgheap.obj
 0003:0002643c       ??_C@_0CE@MKKHMBMK@_heapchk?5fails?5with?5_HEAPBADBEGI@ 0059c43c     LIBCMTD:dbgheap.obj
 0003:00026468       ??_C@_1BO@GJFDNMNF@?$AA_?$AAC?$AAr?$AAt?$AAS?$AAe?$AAt?$AAD?$AAb?$AAg?$AAF?$AAl?$AAa?$AAg?$AA?$AA@ 0059c468     LIBCMTD:dbgheap.obj
 0003:00026490       ??_C@_1BHO@NNANJNF@?$AA?$CI?$AAf?$AAN?$AAe?$AAw?$AAB?$AAi?$AAt?$AAs?$AA?$DN?$AA?$DN?$AA_?$AAC?$AAR?$AAT?$AAD?$AAB?$AAG?$AA_?$AAR?$AAE?$AAP?$AAO?$AAR?$AAT?$AA_?$AAF?$AAL?$AAA?$AAG?$AA?$CJ?$AA?5@ 0059c490     LIBCMTD:dbgheap.obj
 0003:0002665c       ??_C@_1DE@GJCKCKEC@?$AA_?$AAC?$AAr?$AAt?$AAD?$AAo?$AAF?$AAo?$AAr?$AAA?$AAl?$AAl?$AAC?$AAl?$AAi?$AAe?$AAn?$AAt?$AAO?$AAb?$AAj?$AAe?$AAc?$AAt?$AAs?$AA?$AA@ 0059c65c     LIBCMTD:dbgheap.obj
 0003:0002669c       ??_C@_1BI@CJGCEEDL@?$AAp?$AAf?$AAn?$AA?5?$AA?$CB?$AA?$DN?$AA?5?$AAN?$AAU?$AAL?$AAL?$AA?$AA@ 0059c69c     LIBCMTD:dbgheap.obj
 0003:000266b8       ??_C@_1CG@DGPPLLPG@?$AA_?$AAg?$AAe?$AAt?$AA_?$AAo?$AAs?$AAv?$AAe?$AAr?$AA?$CI?$AA?$CG?$AAo?$AAs?$AAv?$AAe?$AAr?$AA?$CJ?$AA?$AA@ 0059c6b8     LIBCMTD:dbgheap.obj
 0003:000266e8       ??_C@_1CO@JHPAACDJ@?$AA_?$AAC?$AAr?$AAt?$AAI?$AAs?$AAV?$AAa?$AAl?$AAi?$AAd?$AAH?$AAe?$AAa?$AAp?$AAP?$AAo?$AAi?$AAn?$AAt?$AAe?$AAr?$AA?$AA@ 0059c6e8     LIBCMTD:dbgheap.obj
 0003:00026720       ??_C@_0CB@EAAIGELO@Bad?5memory?5block?5found?5at?50x?$CFp?4?6@ 0059c720     LIBCMTD:dbgheap.obj
 0003:00026748       ??_C@_0DP@LEFMFBOD@Bad?5memory?5block?5found?5at?50x?$CFp?4?6@ 0059c748     LIBCMTD:dbgheap.obj
 0003:00026794       ??_C@_1CE@NJJKELF@?$AA_?$AAC?$AAr?$AAt?$AAM?$AAe?$AAm?$AAC?$AAh?$AAe?$AAc?$AAk?$AAp?$AAo?$AAi?$AAn?$AAt?$AA?$AA@ 0059c794     LIBCMTD:dbgheap.obj
 0003:000267c0       ??_C@_1BM@MIMANDHC@?$AAs?$AAt?$AAa?$AAt?$AAe?$AA?5?$AA?$CB?$AA?$DN?$AA?5?$AAN?$AAU?$AAL?$AAL?$AA?$AA@ 0059c7c0     LIBCMTD:dbgheap.obj
 0003:000267e4       ??_C@_1CC@DFPEDFBP@?$AAn?$AAe?$AAw?$AAS?$AAt?$AAa?$AAt?$AAe?$AA?5?$AA?$CB?$AA?$DN?$AA?5?$AAN?$AAU?$AAL?$AAL?$AA?$AA@ 0059c7e4     LIBCMTD:dbgheap.obj
 0003:0002680c       ??_C@_1CC@DHPFEMMN@?$AAo?$AAl?$AAd?$AAS?$AAt?$AAa?$AAt?$AAe?$AA?5?$AA?$CB?$AA?$DN?$AA?5?$AAN?$AAU?$AAL?$AAL?$AA?$AA@ 0059c80c     LIBCMTD:dbgheap.obj
 0003:00026834       ??_C@_1CE@PDIENACM@?$AA_?$AAC?$AAr?$AAt?$AAM?$AAe?$AAm?$AAD?$AAi?$AAf?$AAf?$AAe?$AAr?$AAe?$AAn?$AAc?$AAe?$AA?$AA@ 0059c834     LIBCMTD:dbgheap.obj
 0003:00026860       ??_C@_0BH@GFGKJDCO@Object?5dump?5complete?4?6?$AA@ 0059c860     LIBCMTD:dbgheap.obj
 0003:0002687c       ??_C@_0DA@MDLBNIBM@crt?5block?5at?50x?$CFp?0?5subtype?5?$CFx?0?5?$CF@ 0059c87c     LIBCMTD:dbgheap.obj
 0003:000268b8       ??_C@_0CH@FAGDDGPN@normal?5block?5at?50x?$CFp?0?5?$CFIu?5bytes?5@ 0059c8b8     LIBCMTD:dbgheap.obj
 0003:000268e8       ??_C@_0DD@GHNAAKBB@client?5block?5at?50x?$CFp?0?5subtype?5?$CFx@ 0059c8e8     LIBCMTD:dbgheap.obj
 0003:00026928       ??_C@_06PKLGBFGM@?$HL?$CFld?$HN?5?$AA@ 0059c928     LIBCMTD:dbgheap.obj
 0003:00026930       ??_C@_0L@JMEFFCCJ@?$CFhs?$CI?$CFd?$CJ?5?3?5?$AA@ 0059c930     LIBCMTD:dbgheap.obj
 0003:00026940       ??_C@_0BE@OIEFNFL@?$CDFile?5Error?$CD?$CI?$CFd?$CJ?5?3?5?$AA@ 0059c940     LIBCMTD:dbgheap.obj
 0003:00026958       ??_C@_0BE@KCIPKCIA@Dumping?5objects?5?9?$DO?6?$AA@ 0059c958     LIBCMTD:dbgheap.obj
 0003:00026970       ??_C@_0BA@HJBKCELP@?5Data?3?5?$DM?$CFs?$DO?5?$CFs?6?$AA@ 0059c970     LIBCMTD:dbgheap.obj
 0003:00026984       ??_C@_1BI@KALLJECN@?$AA?$CI?$AA?$CK?$AA_?$AAe?$AAr?$AAr?$AAn?$AAo?$AA?$CI?$AA?$CJ?$AA?$CJ?$AA?$AA@ 0059c984     LIBCMTD:dbgheap.obj
 0003:000269a0       ??_C@_1CG@LPFIACGM@?$AA_?$AAp?$AAr?$AAi?$AAn?$AAt?$AAM?$AAe?$AAm?$AAB?$AAl?$AAo?$AAc?$AAk?$AAD?$AAa?$AAt?$AAa?$AA?$AA@ 0059c9a0     LIBCMTD:dbgheap.obj
 0003:000269d0       ??_C@_05MKKEDADM@?$CF?42X?5?$AA@ 0059c9d0     LIBCMTD:dbgheap.obj
 0003:000269d8       ??_C@_0BI@JBFPOEJA@Detected?5memory?5leaks?$CB?6?$AA@ 0059c9d8     LIBCMTD:dbgheap.obj
 0003:000269f4       ??_C@_0BP@DEDHGGGI@Total?5allocations?3?5?$CFId?5bytes?4?6?$AA@ 0059c9f4     LIBCMTD:dbgheap.obj
 0003:00026a1c       ??_C@_0CB@BLHDAFNE@Largest?5number?5used?3?5?$CFId?5bytes?4?6@ 0059ca1c     LIBCMTD:dbgheap.obj
 0003:00026a44       ??_C@_0BO@DACNIABB@?$CFId?5bytes?5in?5?$CFId?5?$CFhs?5Blocks?4?6?$AA@ 0059ca44     LIBCMTD:dbgheap.obj
 0003:00026a68       ??_C@_1CM@MPNIBKGK@?$AA_?$AAC?$AAr?$AAt?$AAM?$AAe?$AAm?$AAD?$AAu?$AAm?$AAp?$AAS?$AAt?$AAa?$AAt?$AAi?$AAs?$AAt?$AAi?$AAc?$AAs?$AA?$AA@ 0059ca68     LIBCMTD:dbgheap.obj
 0003:00026a9c       ??_C@_1DK@LFLKFPDA@?$AAo?$AAf?$AAf?$AAs?$AAe?$AAt?$AA?5?$AA?$DN?$AA?$DN?$AA?5?$AA0?$AA?5?$AA?$HM?$AA?$HM?$AA?5?$AAo?$AAf?$AAf?$AAs?$AAe?$AAt?$AA?5?$AA?$DM?$AA?5?$AAs?$AAi?$AAz?$AAe?$AA?$AA@ 0059ca9c     LIBCMTD:dbgheap.obj
 0003:00026ae4       ??_C@_1DG@DONCJBBJ@?$AA_?$AAa?$AAl?$AAi?$AAg?$AAn?$AAe?$AAd?$AA_?$AAo?$AAf?$AAf?$AAs?$AAe?$AAt?$AA_?$AAm?$AAa?$AAl?$AAl?$AAo?$AAc?$AA_?$AAd?$AAb?$AAg?$AA?$AA@ 0059cae4     LIBCMTD:dbgheap.obj
 0003:00026b24       ??_C@_1CE@NPMGPNNP@?$AAI?$AAS?$AA_?$AA2?$AA_?$AAP?$AAO?$AAW?$AA_?$AAN?$AA?$CI?$AAa?$AAl?$AAi?$AAg?$AAn?$AA?$CJ?$AA?$AA@ 0059cb24     LIBCMTD:dbgheap.obj
 0003:00026b50       ??_C@_1DI@NINIKFFK@?$AA_?$AAa?$AAl?$AAi?$AAg?$AAn?$AAe?$AAd?$AA_?$AAo?$AAf?$AAf?$AAs?$AAe?$AAt?$AA_?$AAr?$AAe?$AAa?$AAl?$AAl?$AAo?$AAc?$AA_?$AAd?$AAb?$AAg?$AA?$AA@ 0059cb50     LIBCMTD:dbgheap.obj
 0003:00026b94       ??_C@_0DL@PGHMMKNE@Damage?5before?50x?$CFp?5which?5was?5all@ 0059cb94     LIBCMTD:dbgheap.obj
 0003:00026be0       ??_C@_0EI@NDNJMAJK@The?5block?5at?50x?$CFp?5was?5not?5alloca@ 0059cbe0     LIBCMTD:dbgheap.obj
 0003:00026c38       ??_C@_1DK@MMLHIFFH@?$AA_?$AAa?$AAl?$AAi?$AAg?$AAn?$AAe?$AAd?$AA_?$AAo?$AAf?$AAf?$AAs?$AAe?$AAt?$AA_?$AAr?$AAe?$AAc?$AAa?$AAl?$AAl?$AAo?$AAc?$AA_?$AAd?$AAb?$AAg?$AA?$AA@ 0059cc38     LIBCMTD:dbgheap.obj
 0003:00026c80       ??_C@_0EF@PGELACII@The?5block?5at?50x?$CFp?5was?5not?5alloca@ 0059cc80     LIBCMTD:dbgheap.obj
 0003:00026cd4       ??_C@_1CG@CEGMHIMN@?$AA_?$AAa?$AAl?$AAi?$AAg?$AAn?$AAe?$AAd?$AA_?$AAm?$AAs?$AAi?$AAz?$AAe?$AA_?$AAd?$AAb?$AAg?$AA?$AA@ 0059ccd4     LIBCMTD:dbgheap.obj
 0003:00026d04       ??_C@_1CC@MOBIKHH@?$AAm?$AAe?$AAm?$AAb?$AAl?$AAo?$AAc?$AAk?$AA?5?$AA?$CB?$AA?$DN?$AA?5?$AAN?$AAU?$AAL?$AAL?$AA?$AA@ 0059cd04     LIBCMTD:dbgheap.obj
 0003:00026d2c       ??_C@_1CC@JLPHKJPH@?$AAc?$AAo?$AAu?$AAn?$AAt?$AA?5?$AA?$DM?$AA?$DN?$AA?5?$AAI?$AAN?$AAT?$AA_?$AAM?$AAA?$AAX?$AA?$AA@ 0059cd2c     LIBCMTD:strnicmp.obj
 0003:00026d54       ??_C@_1BI@DCHLDCPP@?$AAs?$AAr?$AAc?$AA?5?$AA?$CB?$AA?$DN?$AA?5?$AAN?$AAU?$AAL?$AAL?$AA?$AA@ 0059cd54     LIBCMTD:strnicmp.obj
 0003:00026d70       ??_C@_1BI@BJLEPLEF@?$AA_?$AAs?$AAt?$AAr?$AAn?$AAi?$AAc?$AAm?$AAp?$AA_?$AAl?$AA?$AA@ 0059cd70     LIBCMTD:strnicmp.obj
 0003:00026d8c       ??_C@_1BG@DAODMAPG@?$AAs?$AAt?$AAr?$AAn?$AAi?$AAc?$AAm?$AAp?$AA?4?$AAc?$AA?$AA@ 0059cd8c     LIBCMTD:strnicmp.obj
 0003:00026da8       ??_C@_1BI@GKKCBDMD@?$AAd?$AAs?$AAt?$AA?5?$AA?$CB?$AA?$DN?$AA?5?$AAN?$AAU?$AAL?$AAL?$AA?$AA@ 0059cda8     LIBCMTD:strnicmp.obj
 0003:00026dc4       ??_C@_1BE@BHJDFFNA@?$AA_?$AAs?$AAt?$AAr?$AAn?$AAi?$AAc?$AAm?$AAp?$AA?$AA@ 0059cdc4     LIBCMTD:strnicmp.obj
 0003:00026ddc       ??_C@_1BG@GLLONOEH@?$AA_?$AAs?$AAt?$AAr?$AAi?$AAc?$AAm?$AAp?$AA_?$AAl?$AA?$AA@ 0059cddc     LIBCMTD:stricmp.obj
 0003:00026df8       ??_C@_1BE@OLHMELNO@?$AAs?$AAt?$AAr?$AAi?$AAc?$AAm?$AAp?$AA?4?$AAc?$AA?$AA@ 0059cdf8     LIBCMTD:stricmp.obj
 0003:00026e10       ??_C@_1BC@JLGKKIIG@?$AA_?$AAs?$AAt?$AAr?$AAi?$AAc?$AAm?$AAp?$AA?$AA@ 0059ce10     LIBCMTD:stricmp.obj
 0003:00026e28       ??_C@_1BK@FHMHFMNL@?$AA_?$AAv?$AAs?$AAn?$AAp?$AAr?$AAi?$AAn?$AAt?$AAf?$AA_?$AAl?$AA?$AA@ 0059ce28     LIBCMTD:vsnprint.obj
 0003:00026e48       ??_C@_1GE@LHHNFABB@?$AAf?$AA?3?$AA?2?$AAs?$AAp?$AA?2?$AAv?$AAc?$AAt?$AAo?$AAo?$AAl?$AAs?$AA?2?$AAc?$AAr?$AAt?$AA_?$AAb?$AAl?$AAd?$AA?2?$AAs?$AAe?$AAl?$AAf?$AA_?$AAx?$AA8?$AA6?$AA?2?$AAc@ 0059ce48     LIBCMTD:vsnprint.obj
 0003:00026ec0       ??_C@_0P@MIGLKIOC@CorExitProcess?$AA@ 0059cec0     LIBCMTD:crt0dat.obj
 0003:00026ed4       ??_C@_0M@MBOPBNBK@mscoree?4dll?$AA@ 0059ced4     LIBCMTD:crt0dat.obj
 0003:00026ee4       ??_C@_1BO@PCPNBEJP@?$AA_?$AAo?$AAs?$AAp?$AAl?$AAa?$AAt?$AAf?$AAo?$AAr?$AAm?$AA?$CB?$AA?$DN?$AA0?$AA?$AA@ 0059cee4     LIBCMTD:crt0dat.obj
 0003:00026f08       ??_C@_1CA@HBJLODAG@?$AA_?$AAg?$AAe?$AAt?$AA_?$AAo?$AAs?$AAp?$AAl?$AAa?$AAt?$AAf?$AAo?$AAr?$AAm?$AA?$AA@ 0059cf08     LIBCMTD:crt0dat.obj
 0003:00026f30       ??_C@_1BE@DFOEAGLM@?$AAc?$AAr?$AAt?$AA0?$AAd?$AAa?$AAt?$AA?4?$AAc?$AA?$AA@ 0059cf30     LIBCMTD:crt0dat.obj
 0003:00026f48       ??_C@_1BO@LKEBEKJP@?$AAp?$AAV?$AAa?$AAl?$AAu?$AAe?$AA?5?$AA?$CB?$AA?$DN?$AA?5?$AAN?$AAU?$AAL?$AAL?$AA?$AA@ 0059cf48     LIBCMTD:crt0dat.obj
 0003:00026f6c       ??_C@_1BG@OLMEODBO@?$AA_?$AAg?$AAe?$AAt?$AA_?$AAo?$AAs?$AAv?$AAe?$AAr?$AA?$AA@ 0059cf6c     LIBCMTD:crt0dat.obj
 0003:00026f88       ??_C@_1BI@EHCOONPO@?$AA_?$AAg?$AAe?$AAt?$AA_?$AAw?$AAi?$AAn?$AAv?$AAe?$AAr?$AA?$AA@ 0059cf88     LIBCMTD:crt0dat.obj
 0003:00026fa4       ??_C@_1BM@MHJHOJPG@?$AA_?$AAg?$AAe?$AAt?$AA_?$AAw?$AAi?$AAn?$AAm?$AAa?$AAj?$AAo?$AAr?$AA?$AA@ 0059cfa4     LIBCMTD:crt0dat.obj
 0003:00026fc8       ??_C@_1BM@FAAKKHPI@?$AA_?$AAg?$AAe?$AAt?$AA_?$AAw?$AAi?$AAn?$AAm?$AAi?$AAn?$AAo?$AAr?$AA?$AA@ 0059cfc8     LIBCMTD:crt0dat.obj
 0003:00026fec       ??_C@_1CC@CDIPMFPD@?$AA_?$AAw?$AAp?$AAg?$AAm?$AAp?$AAt?$AAr?$AA?5?$AA?$CB?$AA?$DN?$AA?5?$AAN?$AAU?$AAL?$AAL?$AA?$AA@ 0059cfec     LIBCMTD:crt0dat.obj
 0003:00027014       ??_C@_1BK@PNLDCCDP@?$AA_?$AAg?$AAe?$AAt?$AA_?$AAw?$AAp?$AAg?$AAm?$AAp?$AAt?$AAr?$AA?$AA@ 0059d014     LIBCMTD:crt0dat.obj
 0003:00027034       ??_C@_1CA@BBNAFCKO@?$AA_?$AAp?$AAg?$AAm?$AAp?$AAt?$AAr?$AA?5?$AA?$CB?$AA?$DN?$AA?5?$AAN?$AAU?$AAL?$AAL?$AA?$AA@ 0059d034     LIBCMTD:crt0dat.obj
 0003:0002705c       ??_C@_1BI@COAAPHJK@?$AA_?$AAg?$AAe?$AAt?$AA_?$AAp?$AAg?$AAm?$AAp?$AAt?$AAr?$AA?$AA@ 0059d05c     LIBCMTD:crt0dat.obj
 0003:00027078       ??_C@_1O@EJLDHPPL@?$AAs?$AAi?$AAg?$AAn?$AAa?$AAl?$AA?$AA@ 0059d078     LIBCMTD:winsig.obj
 0003:00027088       ??_C@_1BC@KDODBONJ@?$AAw?$AAi?$AAn?$AAs?$AAi?$AAg?$AA?4?$AAc?$AA?$AA@ 0059d088     LIBCMTD:winsig.obj
 0003:000270a0       ??_C@_1DO@MLNEDKGB@?$AA?$CI?$AA?$CC?$AAI?$AAn?$AAv?$AAa?$AAl?$AAi?$AAd?$AA?5?$AAs?$AAi?$AAg?$AAn?$AAa?$AAl?$AA?5?$AAo?$AAr?$AA?5?$AAe?$AAr?$AAr?$AAo?$AAr?$AA?$CC?$AA?0?$AA?5?$AA0?$AA?$CJ?$AA?$AA@ 0059d0a0     LIBCMTD:winsig.obj
 0003:000270ec       ??_C@_08FKHPDPAC@winsig?4c?$AA@ 0059d0ec     LIBCMTD:winsig.obj
 0003:000270f8       ??_C@_1M@DMJEIKHL@?$AAr?$AAa?$AAi?$AAs?$AAe?$AA?$AA@ 0059d0f8     LIBCMTD:winsig.obj
 0003:00027108       ??_C@_1DC@OIOKIELJ@?$AA_?$AAg?$AAe?$AAt?$AA_?$AAw?$AAi?$AAn?$AAm?$AAa?$AAj?$AAo?$AAr?$AA?$CI?$AA?$CG?$AAw?$AAi?$AAn?$AAm?$AAa?$AAj?$AAo?$AAr?$AA?$CJ?$AA?$AA@ 0059d108     LIBCMTD:crtmboxw.obj
 0003:00027144       ??_C@_0BI@DFKBFLJE@GetProcessWindowStation?$AA@ 0059d144     LIBCMTD:crtmboxw.obj
 0003:00027160       ??_C@_0BK@DEKFELLI@GetUserObjectInformationW?$AA@ 0059d160     LIBCMTD:crtmboxw.obj
 0003:00027180       ??_C@_1DK@NLBDKACM@?$AA_?$AAg?$AAe?$AAt?$AA_?$AAo?$AAs?$AAp?$AAl?$AAa?$AAt?$AAf?$AAo?$AAr?$AAm?$AA?$CI?$AA?$CG?$AAo?$AAs?$AAp?$AAl?$AAa?$AAt?$AAf?$AAo?$AAr?$AAm?$AA?$CJ?$AA?$AA@ 0059d180     LIBCMTD:crtmboxw.obj
 0003:000271c8       ??_C@_1CC@LBPMICNL@?$AA_?$AA_?$AAc?$AAr?$AAt?$AAM?$AAe?$AAs?$AAs?$AAa?$AAg?$AAe?$AAB?$AAo?$AAx?$AAW?$AA?$AA@ 0059d1c8     LIBCMTD:crtmboxw.obj
 0003:000271f0       ??_C@_1GC@HLBFDAED@?$AAf?$AA?3?$AA?2?$AAs?$AAp?$AA?2?$AAv?$AAc?$AAt?$AAo?$AAo?$AAl?$AAs?$AA?2?$AAc?$AAr?$AAt?$AA_?$AAb?$AAl?$AAd?$AA?2?$AAs?$AAe?$AAl?$AAf?$AA_?$AAx?$AA8?$AA6?$AA?2?$AAc@ 0059d1f0     LIBCMTD:crtmboxw.obj
 0003:00027268       ??_C@_0BD@HHGDFDBJ@GetLastActivePopup?$AA@ 0059d268     LIBCMTD:crtmboxw.obj
 0003:00027280       ??_C@_0BA@HNOPNCHB@GetActiveWindow?$AA@ 0059d280     LIBCMTD:crtmboxw.obj
 0003:00027294       ??_C@_0M@DLDCCGNP@MessageBoxW?$AA@ 0059d294     LIBCMTD:crtmboxw.obj
 0003:000272a4       ??_C@_1BG@GOEBHBDC@?$AAU?$AAS?$AAE?$AAR?$AA3?$AA2?$AA?4?$AAD?$AAL?$AAL?$AA?$AA@ 0059d2a4     LIBCMTD:crtmboxw.obj
 0003:000272c0       ??_C@_1CM@HABGDNLJ@?$AAl?$AAe?$AAn?$AAg?$AAt?$AAh?$AA?5?$AA?$DM?$AA?5?$AAs?$AAi?$AAz?$AAe?$AAI?$AAn?$AAT?$AAC?$AAh?$AAa?$AAr?$AAs?$AA?$AA@ 0059d2c0     LIBCMTD:xtows.obj
 0003:000272f4       ??_C@_1DE@PCJGDBBD@?$AA2?$AA?5?$AA?$DM?$AA?$DN?$AA?5?$AAr?$AAa?$AAd?$AAi?$AAx?$AA?5?$AA?$CG?$AA?$CG?$AA?5?$AAr?$AAa?$AAd?$AAi?$AAx?$AA?5?$AA?$DM?$AA?$DN?$AA?5?$AA3?$AA6?$AA?$AA@ 0059d2f4     LIBCMTD:xtows.obj
 0003:00027338       ??_C@_1FA@MKGGAGEI@?$AAs?$AAi?$AAz?$AAe?$AAI?$AAn?$AAT?$AAC?$AAh?$AAa?$AAr?$AAs?$AA?5?$AA?$DO?$AA?5?$AA?$CI?$AAs?$AAi?$AAz?$AAe?$AA_?$AAt?$AA?$CJ?$AA?$CI?$AAi?$AAs?$AA_?$AAn?$AAe?$AAg?$AA?5?$AA?$DP@ 0059d338     LIBCMTD:xtows.obj
 0003:00027398       ??_C@_1CC@JNJFIMGE@?$AAs?$AAi?$AAz?$AAe?$AAI?$AAn?$AAT?$AAC?$AAh?$AAa?$AAr?$AAs?$AA?5?$AA?$DO?$AA?5?$AA0?$AA?$AA@ 0059d398     LIBCMTD:xtows.obj
 0003:000273c0       ??_C@_1O@NCBFODOE@?$AAx?$AAt?$AAo?$AAw?$AA_?$AAs?$AA?$AA@ 0059d3c0     LIBCMTD:xtows.obj
 0003:000273d0       ??_C@_1FM@LINCFGBD@?$AAf?$AA?3?$AA?2?$AAs?$AAp?$AA?2?$AAv?$AAc?$AAt?$AAo?$AAo?$AAl?$AAs?$AA?2?$AAc?$AAr?$AAt?$AA_?$AAb?$AAl?$AAd?$AA?2?$AAs?$AAe?$AAl?$AAf?$AA_?$AAx?$AA8?$AA6?$AA?2?$AAc@ 0059d3d0     LIBCMTD:xtows.obj
 0003:00027440       ??_C@_1BI@ICGGMGLK@?$AAb?$AAu?$AAf?$AA?5?$AA?$CB?$AA?$DN?$AA?5?$AAN?$AAU?$AAL?$AAL?$AA?$AA@ 0059d440     LIBCMTD:xtows.obj
 0003:0002745c       ??_C@_1BC@HDEJCFPB@?$AAx?$AA6?$AA4?$AAt?$AAo?$AAw?$AA_?$AAs?$AA?$AA@ 0059d45c     LIBCMTD:xtows.obj
 0003:00027474       ??_C@_1DM@MADKGDLO@?$AA?$CI?$AAL?$AA?$CC?$AAB?$AAu?$AAf?$AAf?$AAe?$AAr?$AA?5?$AAi?$AAs?$AA?5?$AAt?$AAo?$AAo?$AA?5?$AAs?$AAm?$AAa?$AAl?$AAl?$AA?$CC?$AA?5?$AA?$CG?$AA?$CG?$AA?5?$AA0?$AA?$CJ?$AA?$AA@ 0059d474     LIBCMTD:wcsncat_s.obj
 0003:000274bc       ??_C@_1CI@HCPHDDLE@?$AAB?$AAu?$AAf?$AAf?$AAe?$AAr?$AA?5?$AAi?$AAs?$AA?5?$AAt?$AAo?$AAo?$AA?5?$AAs?$AAm?$AAa?$AAl?$AAl?$AA?$AA@ 0059d4bc     LIBCMTD:wcsncat_s.obj
 0003:000274f0       ??_C@_1FA@MJKDNFFB@?$AA?$CI?$AAL?$AA?$CC?$AAS?$AAt?$AAr?$AAi?$AAn?$AAg?$AA?5?$AAi?$AAs?$AA?5?$AAn?$AAo?$AAt?$AA?5?$AAn?$AAu?$AAl?$AAl?$AA?5?$AAt?$AAe?$AAr?$AAm?$AAi?$AAn?$AAa?$AAt?$AAe?$AAd@ 0059d4f0     LIBCMTD:wcsncat_s.obj
 0003:00027550       ??_C@_1DM@FHLMIEG@?$AAS?$AAt?$AAr?$AAi?$AAn?$AAg?$AA?5?$AAi?$AAs?$AA?5?$AAn?$AAo?$AAt?$AA?5?$AAn?$AAu?$AAl?$AAl?$AA?5?$AAt?$AAe?$AAr?$AAm?$AAi?$AAn?$AAa?$AAt?$AAe?$AAd?$AA?$AA@ 0059d550     LIBCMTD:wcsncat_s.obj
 0003:00027598       ??_C@_1CG@OFBJMIGJ@?$AA?$CI?$AA?$CI?$AA?$CI?$AA_?$AAS?$AAr?$AAc?$AA?$CJ?$AA?$CJ?$AA?$CJ?$AA?5?$AA?$CB?$AA?$DN?$AA?5?$AAN?$AAU?$AAL?$AAL?$AA?$AA@ 0059d598     LIBCMTD:wcsncat_s.obj
 0003:000275c8       ??_C@_1BE@KPKIKKCF@?$AAw?$AAc?$AAs?$AAn?$AAc?$AAa?$AAt?$AA_?$AAs?$AA?$AA@ 0059d5c8     LIBCMTD:wcsncat_s.obj
 0003:000275e0       ??_C@_1GK@ECHLEFPM@?$AAF?$AA?3?$AA?2?$AAS?$AAP?$AA?2?$AAv?$AAc?$AAt?$AAo?$AAo?$AAl?$AAs?$AA?2?$AAc?$AAr?$AAt?$AA_?$AAb?$AAl?$AAd?$AA?2?$AAS?$AAE?$AAL?$AAF?$AA_?$AAX?$AA8?$AA6?$AA?2?$AAc@ 0059d5e0     LIBCMTD:wcsncat_s.obj
 0003:00027660       ??_C@_1FC@PFMLEHKI@?$AA?$CI?$AA?$CI?$AA_?$AAD?$AAs?$AAt?$AA?$CJ?$AA?$CJ?$AA?5?$AA?$CB?$AA?$DN?$AA?5?$AAN?$AAU?$AAL?$AAL?$AA?5?$AA?$CG?$AA?$CG?$AA?5?$AA?$CI?$AA?$CI?$AA_?$AAS?$AAi?$AAz?$AAe?$AAI?$AAn?$AAW?$AAo?$AAr@ 0059d660     LIBCMTD:wcsncat_s.obj
 0003:000276c4       ??_C@_1BE@PMMBFFCC@?$AAw?$AAc?$AAs?$AAn?$AAc?$AAp?$AAy?$AA_?$AAs?$AA?$AA@ 0059d6c4     LIBCMTD:wcsncpy_s.obj
 0003:000276e0       ??_C@_1GK@IKMAONFM@?$AAF?$AA?3?$AA?2?$AAS?$AAP?$AA?2?$AAv?$AAc?$AAt?$AAo?$AAo?$AAl?$AAs?$AA?2?$AAc?$AAr?$AAt?$AA_?$AAb?$AAl?$AAd?$AA?2?$AAS?$AAE?$AAL?$AAF?$AA_?$AAX?$AA8?$AA6?$AA?2?$AAc@ 0059d6e0     LIBCMTD:wcsncpy_s.obj
 0003:00027760       ??_C@_1BC@PLIEPKPJ@?$AAw?$AAc?$AAs?$AAc?$AAa?$AAt?$AA_?$AAs?$AA?$AA@ 0059d760     LIBCMTD:wcscat_s.obj
 0003:00027778       ??_C@_1GI@HANKOOAN@?$AAF?$AA?3?$AA?2?$AAS?$AAP?$AA?2?$AAv?$AAc?$AAt?$AAo?$AAo?$AAl?$AAs?$AA?2?$AAc?$AAr?$AAt?$AA_?$AAb?$AAl?$AAd?$AA?2?$AAS?$AAE?$AAL?$AAF?$AA_?$AAX?$AA8?$AA6?$AA?2?$AAc@ 0059d778     LIBCMTD:wcscat_s.obj
 0003:000277f4       ??_C@_1BC@KIONAFPO@?$AAw?$AAc?$AAs?$AAc?$AAp?$AAy?$AA_?$AAs?$AA?$AA@ 0059d7f4     LIBCMTD:wcscpy_s.obj
 0003:00027810       ??_C@_1GI@LIGBEGKN@?$AAF?$AA?3?$AA?2?$AAS?$AAP?$AA?2?$AAv?$AAc?$AAt?$AAo?$AAo?$AAl?$AAs?$AA?2?$AAc?$AAr?$AAt?$AA_?$AAb?$AAl?$AAd?$AA?2?$AAS?$AAE?$AAL?$AAF?$AA_?$AAX?$AA8?$AA6?$AA?2?$AAc@ 0059d810     LIBCMTD:wcscpy_s.obj
 0003:0002788c       ??_C@_1BC@BHLPNJBO@?$AAf?$AAw?$AAp?$AAr?$AAi?$AAn?$AAt?$AAf?$AA?$AA@ 0059d88c     LIBCMTD:fwprintf.obj
 0003:000278a4       ??_C@_1BG@MGCFCFAI@?$AAf?$AAw?$AAp?$AAr?$AAi?$AAn?$AAt?$AAf?$AA?4?$AAc?$AA?$AA@ 0059d8a4     LIBCMTD:fwprintf.obj
 0003:000278c0       ??_C@_09KGBNCNDN@setvbuf?4c?$AA@ 0059d8c0     LIBCMTD:setvbuf.obj
 0003:000278d0       ??_C@_1EG@IJNJIDNB@?$AA?$CI?$AA?$CI?$AA2?$AA?5?$AA?$DM?$AA?$DN?$AA?5?$AAs?$AAi?$AAz?$AAe?$AA?$CJ?$AA?5?$AA?$CG?$AA?$CG?$AA?5?$AA?$CI?$AAs?$AAi?$AAz?$AAe?$AA?5?$AA?$DM?$AA?$DN?$AA?5?$AAI?$AAN?$AAT?$AA_?$AAM?$AAA?$AAX@ 0059d8d0     LIBCMTD:setvbuf.obj
 0003:00027928       ??_C@_1HC@CBFEDAGG@?$AA?$CI?$AAt?$AAy?$AAp?$AAe?$AA?5?$AA?$DN?$AA?$DN?$AA?5?$AA_?$AAI?$AAO?$AAN?$AAB?$AAF?$AA?$CJ?$AA?5?$AA?$HM?$AA?$HM?$AA?5?$AA?$CI?$AAt?$AAy?$AAp?$AAe?$AA?5?$AA?$DN?$AA?$DN?$AA?5?$AA_?$AAI?$AAO@ 0059d928     LIBCMTD:setvbuf.obj
 0003:000279b0       ??_C@_1BA@OGODIODK@?$AAs?$AAe?$AAt?$AAv?$AAb?$AAu?$AAf?$AA?$AA@ 0059d9b0     LIBCMTD:setvbuf.obj
 0003:000279c4       ??_C@_1BE@FMDCPFIG@?$AAs?$AAe?$AAt?$AAv?$AAb?$AAu?$AAf?$AA?4?$AAc?$AA?$AA@ 0059d9c4     LIBCMTD:setvbuf.obj
 0003:000279dc       ??_C@_1CA@LFDHAMEM@?$AA_?$AAs?$AAe?$AAt?$AA_?$AAe?$AAr?$AAr?$AAo?$AAr?$AA_?$AAm?$AAo?$AAd?$AAe?$AA?$AA@ 0059d9dc     LIBCMTD:errmode.obj
 0003:00027a04       ??_C@_1BE@FFANBHLE@?$AAe?$AAr?$AAr?$AAm?$AAo?$AAd?$AAe?$AA?4?$AAc?$AA?$AA@ 0059da04     LIBCMTD:errmode.obj
 0003:00027a1c       ??_C@_1DE@BCNCAIK@?$AA?$CI?$AA?$CC?$AAI?$AAn?$AAv?$AAa?$AAl?$AAi?$AAd?$AA?5?$AAe?$AAr?$AAr?$AAo?$AAr?$AA_?$AAm?$AAo?$AAd?$AAe?$AA?$CC?$AA?0?$AA?5?$AA0?$AA?$CJ?$AA?$AA@ 0059da1c     LIBCMTD:errmode.obj
 0003:00027a5c       ??_C@_02PHMGELLB@?6?6?$AA@ 0059da5c     LIBCMTD:assert.obj
 0003:00027a60       ??_C@_01EEMJAFIK@?6?$AA@   0059da60     LIBCMTD:assert.obj
 0003:00027a64       ??_C@_0CF@GOGNBNAK@Microsoft?5Visual?5C?$CL?$CL?5Runtime?5Lib@ 0059da64     LIBCMTD:assert.obj
 0003:00027a90       ??_C@_0DN@EBBNMLME@?$CIPress?5Retry?5to?5debug?5the?5applic@ 0059da90     LIBCMTD:assert.obj
 0003:00027ae0       ??_C@_1LM@PPELICOO@?$AAs?$AAt?$AAr?$AAc?$AAa?$AAt?$AA_?$AAs?$AA?$CI?$AAa?$AAs?$AAs?$AAe?$AAr?$AAt?$AAb?$AAu?$AAf?$AA?0?$AA?5?$AA?$CI?$AA6?$AA0?$AA?5?$AA?$CK?$AA?5?$AA9?$AA?$CJ?$AA?0?$AA?5?$AA?$CC?$AA?$CI@ 0059dae0     LIBCMTD:assert.obj
 0003:00027bc8       ??_C@_1FG@FPMGDMJC@?$AAs?$AAt?$AAr?$AAc?$AAa?$AAt?$AA_?$AAs?$AA?$CI?$AAa?$AAs?$AAs?$AAe?$AAr?$AAt?$AAb?$AAu?$AAf?$AA?0?$AA?5?$AA?$CI?$AA6?$AA0?$AA?5?$AA?$CK?$AA?5?$AA9?$AA?$CJ?$AA?0?$AA?5?$AAd?$AAb@ 0059dbc8     LIBCMTD:assert.obj
 0003:00027c30       ??_C@_0HA@OJHAGA@For?5information?5on?5how?5your?5prog@ 0059dc30     LIBCMTD:assert.obj
 0003:00027cb8       ??_C@_1BCK@FOGOPFPO@?$AAs?$AAt?$AAr?$AAc?$AAa?$AAt?$AA_?$AAs?$AA?$CI?$AAa?$AAs?$AAs?$AAe?$AAr?$AAt?$AAb?$AAu?$AAf?$AA?0?$AA?5?$AA?$CI?$AA6?$AA0?$AA?5?$AA?$CK?$AA?5?$AA9?$AA?$CJ?$AA?0?$AA?5?$AA?$CC?$AAF@ 0059dcb8     LIBCMTD:assert.obj
 0003:00027e20       ??_C@_1EM@ENNCDANH@?$AAs?$AAt?$AAr?$AAc?$AAa?$AAt?$AA_?$AAs?$AA?$CI?$AA?5?$AAa?$AAs?$AAs?$AAe?$AAr?$AAt?$AAb?$AAu?$AAf?$AA?0?$AA?5?$AA?$CI?$AA6?$AA0?$AA?5?$AA?$CK?$AA?5?$AA9?$AA?$CJ?$AA?0?$AA?5?$AAe@ 0059de20     LIBCMTD:assert.obj
 0003:00027e80       ??_C@_1CHK@HNOMNMBD@?$AA_?$AAm?$AAb?$AAs?$AAn?$AAb?$AAc?$AAa?$AAt?$AA_?$AAs?$AA?$CI?$AA?5?$AAa?$AAs?$AAs?$AAe?$AAr?$AAt?$AAb?$AAu?$AAf?$AA?0?$AA?5?$AA?$CI?$AA6?$AA0?$AA?5?$AA?$CK?$AA?5?$AA9?$AA?$CJ@ 0059de80     LIBCMTD:assert.obj
 0003:00028178       ??_C@_0N@MEECIJGN@Expression?3?5?$AA@ 0059e178     LIBCMTD:assert.obj
 0003:00028188       ??_C@_1GA@GHECLIPG@?$AAs?$AAt?$AAr?$AAc?$AAa?$AAt?$AA_?$AAs?$AA?$CI?$AA?5?$AAa?$AAs?$AAs?$AAe?$AAr?$AAt?$AAb?$AAu?$AAf?$AA?0?$AA?5?$AA?$CI?$AA6?$AA0?$AA?5?$AA?$CK?$AA?5?$AA9?$AA?$CJ?$AA?0?$AA?5?$AA?$CC@ 0059e188     LIBCMTD:assert.obj
 0003:00028200       ??_C@_1KG@MJEHKFDP@?$AA_?$AAi?$AAt?$AAo?$AAa?$AA_?$AAs?$AA?$CI?$AA?5?$AAl?$AAi?$AAn?$AAe?$AAn?$AAo?$AA?0?$AA?5?$AAa?$AAs?$AAs?$AAe?$AAr?$AAt?$AAb?$AAu?$AAf?$AA?5?$AA?$CL?$AA?5?$AAs?$AAt?$AAr@ 0059e200     LIBCMTD:assert.obj
 0003:000282c8       ??_C@_06FIEBOLOH@Line?3?5?$AA@ 0059e2c8     LIBCMTD:assert.obj
 0003:000282d0       ??_C@_1FE@EHMPHKDB@?$AAs?$AAt?$AAr?$AAc?$AAa?$AAt?$AA_?$AAs?$AA?$CI?$AA?5?$AAa?$AAs?$AAs?$AAe?$AAr?$AAt?$AAb?$AAu?$AAf?$AA?0?$AA?5?$AA?$CI?$AA6?$AA0?$AA?5?$AA?$CK?$AA?5?$AA9?$AA?$CJ?$AA?0?$AA?5?$AA?$CC@ 0059e2d0     LIBCMTD:assert.obj
 0003:00028338       ??_C@_1FE@BELKICLD@?$AAs?$AAt?$AAr?$AAc?$AAa?$AAt?$AA_?$AAs?$AA?$CI?$AA?5?$AAa?$AAs?$AAs?$AAe?$AAr?$AAt?$AAb?$AAu?$AAf?$AA?0?$AA?5?$AA?$CI?$AA6?$AA0?$AA?5?$AA?$CK?$AA?5?$AA9?$AA?$CJ?$AA?0?$AA?5?$AAf@ 0059e338     LIBCMTD:assert.obj
 0003:000283a0       ??_C@_1IC@IABENIAD@?$AAs?$AAt?$AAr?$AAc?$AAa?$AAt?$AA_?$AAs?$AA?$CI?$AA?5?$AAa?$AAs?$AAs?$AAe?$AAr?$AAt?$AAb?$AAu?$AAf?$AA?0?$AA?5?$AA?$CI?$AA6?$AA0?$AA?5?$AA?$CK?$AA?5?$AA9?$AA?$CJ?$AA?0?$AA?5?$AAp@ 0059e3a0     LIBCMTD:assert.obj
 0003:00028440       ??_C@_1HK@LJCIAEID@?$AA_?$AAm?$AAb?$AAs?$AAn?$AAb?$AAc?$AAa?$AAt?$AA_?$AAs?$AA?$CI?$AA?5?$AAa?$AAs?$AAs?$AAe?$AAr?$AAt?$AAb?$AAu?$AAf?$AA?0?$AA?5?$AA?$CI?$AA6?$AA0?$AA?5?$AA?$CK?$AA?5?$AA9?$AA?$CJ@ 0059e440     LIBCMTD:assert.obj
 0003:000284d8       ??_C@_1HC@NNJOOJHD@?$AA_?$AAm?$AAb?$AAs?$AAn?$AAb?$AAc?$AAa?$AAt?$AA_?$AAs?$AA?$CI?$AA?5?$AAa?$AAs?$AAs?$AAe?$AAr?$AAt?$AAb?$AAu?$AAf?$AA?0?$AA?5?$AA?$CI?$AA6?$AA0?$AA?5?$AA?$CK?$AA?5?$AA9?$AA?$CJ@ 0059e4d8     LIBCMTD:assert.obj
 0003:00028560       ??_C@_1FO@ILLBEHNB@?$AAs?$AAt?$AAr?$AAc?$AAa?$AAt?$AA_?$AAs?$AA?$CI?$AA?5?$AAa?$AAs?$AAs?$AAe?$AAr?$AAt?$AAb?$AAu?$AAf?$AA?0?$AA?5?$AA?$CI?$AA6?$AA0?$AA?5?$AA?$CK?$AA?5?$AA9?$AA?$CJ?$AA?0?$AA?5?$AAp@ 0059e560     LIBCMTD:assert.obj
 0003:000285d0       ??_C@_1FG@BIHAHDLM@?$AAs?$AAt?$AAr?$AAc?$AAa?$AAt?$AA_?$AAs?$AA?$CI?$AA?5?$AAa?$AAs?$AAs?$AAe?$AAr?$AAt?$AAb?$AAu?$AAf?$AA?0?$AA?5?$AA?$CI?$AA6?$AA0?$AA?5?$AA?$CK?$AA?5?$AA9?$AA?$CJ?$AA?0?$AA?5?$AAd@ 0059e5d0     LIBCMTD:assert.obj
 0003:00028638       ??_C@_1GK@LELDAJFN@?$AA_?$AAm?$AAb?$AAs?$AAn?$AAb?$AAc?$AAa?$AAt?$AA_?$AAs?$AA?$CI?$AA?5?$AAa?$AAs?$AAs?$AAe?$AAr?$AAt?$AAb?$AAu?$AAf?$AA?0?$AA?5?$AA?$CI?$AA6?$AA0?$AA?5?$AA?$CK?$AA?5?$AA9?$AA?$CJ@ 0059e638     LIBCMTD:assert.obj
 0003:000286b8       ??_C@_06IGPBOHMJ@File?3?5?$AA@ 0059e6b8     LIBCMTD:assert.obj
 0003:000286c0       ??_C@_1FE@JHHKPPGM@?$AAs?$AAt?$AAr?$AAc?$AAa?$AAt?$AA_?$AAs?$AA?$CI?$AA?5?$AAa?$AAs?$AAs?$AAe?$AAr?$AAt?$AAb?$AAu?$AAf?$AA?0?$AA?5?$AA?$CI?$AA6?$AA0?$AA?5?$AA?$CK?$AA?5?$AA9?$AA?$CJ?$AA?0?$AA?5?$AA?$CC@ 0059e6c0     LIBCMTD:assert.obj
 0003:00028728       ??_C@_1FC@HGJOLIGH@?$AAs?$AAt?$AAr?$AAc?$AAa?$AAt?$AA_?$AAs?$AA?$CI?$AA?5?$AAa?$AAs?$AAs?$AAe?$AAr?$AAt?$AAb?$AAu?$AAf?$AA?0?$AA?5?$AA?$CI?$AA6?$AA0?$AA?5?$AA?$CK?$AA?5?$AA9?$AA?$CJ?$AA?0?$AA?5?$AAn@ 0059e728     LIBCMTD:assert.obj
 0003:00028790       ??_C@_1EK@HNKCAGGP@?$AAs?$AAt?$AAr?$AAc?$AAa?$AAt?$AA_?$AAs?$AA?$CI?$AA?5?$AAa?$AAs?$AAs?$AAe?$AAr?$AAt?$AAb?$AAu?$AAf?$AA?0?$AA?5?$AA?$CI?$AA6?$AA0?$AA?5?$AA?$CK?$AA?5?$AA9?$AA?$CJ?$AA?0?$AA?5?$AAp@ 0059e790     LIBCMTD:assert.obj
 0003:000287e8       ??_C@_1HO@DGLFHLNC@?$AA_?$AAm?$AAb?$AAs?$AAn?$AAb?$AAc?$AAp?$AAy?$AA_?$AAs?$AA?$CI?$AA?5?$AAp?$AAc?$AAh?$AA?0?$AA?5?$AA?$CI?$AA2?$AA6?$AA0?$AA?5?$AA?$CL?$AA?5?$AA1?$AA?$CJ?$AA?5?$AA?9?$AA?5?$AA?$CI?$AAp@ 0059e7e8     LIBCMTD:assert.obj
 0003:00028880       ??_C@_0BH@DNAGHKFM@?$DMprogram?5name?5unknown?$DO?$AA@ 0059e880     LIBCMTD:assert.obj
 0003:000288a0       ??_C@_1GO@MKBPHEIL@?$AAs?$AAt?$AAr?$AAc?$AAp?$AAy?$AA_?$AAs?$AA?$CI?$AA?5?$AAp?$AAr?$AAo?$AAg?$AAn?$AAa?$AAm?$AAe?$AA?0?$AA?5?$AA2?$AA6?$AA0?$AA?5?$AA?$CL?$AA?5?$AA1?$AA?0?$AA?5?$AA?$CC?$AA?$DM?$AAp@ 0059e8a0     LIBCMTD:assert.obj
 0003:00028924       ??_C@_09KLGCKDOD@Program?3?5?$AA@ 0059e924     LIBCMTD:assert.obj
 0003:00028930       ??_C@_1FK@JLNGAFHA@?$AAs?$AAt?$AAr?$AAc?$AAa?$AAt?$AA_?$AAs?$AA?$CI?$AA?5?$AAa?$AAs?$AAs?$AAe?$AAr?$AAt?$AAb?$AAu?$AAf?$AA?0?$AA?5?$AA?$CI?$AA6?$AA0?$AA?5?$AA?$CK?$AA?5?$AA9?$AA?$CJ?$AA?0?$AA?5?$AA?$CC@ 0059e930     LIBCMTD:assert.obj
 0003:000289a0       ??_C@_1FI@LABOHEIE@?$AAs?$AAt?$AAr?$AAc?$AAa?$AAt?$AA_?$AAs?$AA?$CI?$AA?5?$AAa?$AAs?$AAs?$AAe?$AAr?$AAt?$AAb?$AAu?$AAf?$AA?0?$AA?5?$AA?$CI?$AA6?$AA0?$AA?5?$AA?$CK?$AA?5?$AA9?$AA?$CJ?$AA?0?$AA?5?$AAd@ 0059e9a0     LIBCMTD:assert.obj
 0003:00028a0c       ??_C@_0BC@LAIDCHCH@Assertion?5failed?$CB?$AA@ 0059ea0c     LIBCMTD:assert.obj
 0003:00028a28       ??_C@_1GK@MEIIIEKC@?$AAs?$AAt?$AAr?$AAc?$AAp?$AAy?$AA_?$AAs?$AA?$CI?$AA?5?$AAa?$AAs?$AAs?$AAe?$AAr?$AAt?$AAb?$AAu?$AAf?$AA?0?$AA?5?$AA?$CI?$AA6?$AA0?$AA?5?$AA?$CK?$AA?5?$AA9?$AA?$CJ?$AA?0?$AA?5?$AA?$CC@ 0059ea28     LIBCMTD:assert.obj
 0003:00028aa8       ??_C@_1BA@DADDCNOK@?$AA_?$AAa?$AAs?$AAs?$AAe?$AAr?$AAt?$AA?$AA@ 0059eaa8     LIBCMTD:assert.obj
 0003:00028abc       ??_C@_1BC@IOLPDCAK@?$AAa?$AAs?$AAs?$AAe?$AAr?$AAt?$AA?4?$AAc?$AA?$AA@ 0059eabc     LIBCMTD:assert.obj
 0003:00028ad4       ??_C@_1BC@CFJEPFGF@?$AAs?$AAt?$AAr?$AAc?$AAp?$AAy?$AA_?$AAs?$AA?$AA@ 0059ead4     LIBCMTD:strcpy_s.obj
 0003:00028af0       ??_C@_1FC@NCPEPIBI@?$AA?$CI?$AA?$CI?$AA_?$AAD?$AAs?$AAt?$AA?$CJ?$AA?$CJ?$AA?5?$AA?$CB?$AA?$DN?$AA?5?$AAN?$AAU?$AAL?$AAL?$AA?5?$AA?$CG?$AA?$CG?$AA?5?$AA?$CI?$AA?$CI?$AA_?$AAS?$AAi?$AAz?$AAe?$AAI?$AAn?$AAB?$AAy?$AAt@ 0059eaf0     LIBCMTD:strcpy_s.obj
 0003:00028b54       ??_C@_1BC@HGPNAKGC@?$AAs?$AAt?$AAr?$AAc?$AAa?$AAt?$AA_?$AAs?$AA?$AA@ 0059eb54     LIBCMTD:strcat_s.obj
 0003:00028b6c       ??_C@_1BK@CMPKHPEC@?$AAn?$AA?5?$AA?$DM?$AA?$DN?$AA?5?$AAI?$AAN?$AAT?$AA_?$AAM?$AAA?$AAX?$AA?$AA@ 0059eb6c     LIBCMTD:wcstombs.obj
 0003:00028b8c       ??_C@_1CG@LLJCAOHF@?$AA_?$AAw?$AAc?$AAs?$AAt?$AAo?$AAm?$AAb?$AAs?$AA_?$AAl?$AA_?$AAh?$AAe?$AAl?$AAp?$AAe?$AAr?$AA?$AA@ 0059eb8c     LIBCMTD:wcstombs.obj
 0003:00028bbc       ??_C@_1BG@POHBKINF@?$AAw?$AAc?$AAs?$AAt?$AAo?$AAm?$AAb?$AAs?$AA?4?$AAc?$AA?$AA@ 0059ebbc     LIBCMTD:wcstombs.obj
 0003:00028bd8       ??_C@_1BK@OIBENBPM@?$AAp?$AAw?$AAc?$AAs?$AA?5?$AA?$CB?$AA?$DN?$AA?5?$AAN?$AAU?$AAL?$AAL?$AA?$AA@ 0059ebd8     LIBCMTD:wcstombs.obj
 0003:00028bf8       ??_C@_1CM@KEOGBFLI@?$AAs?$AAi?$AAz?$AAe?$AAI?$AAn?$AAB?$AAy?$AAt?$AAe?$AAs?$AA?5?$AA?$DO?$AA?5?$AAr?$AAe?$AAt?$AAs?$AAi?$AAz?$AAe?$AA?$AA@ 0059ebf8     LIBCMTD:wcstombs.obj
 0003:00028c2c       ??_C@_1BM@BDMCLLDL@?$AA_?$AAw?$AAc?$AAs?$AAt?$AAo?$AAm?$AAb?$AAs?$AA_?$AAs?$AA_?$AAl?$AA?$AA@ 0059ec2c     LIBCMTD:wcstombs.obj
 0003:00028c50       ??_C@_1IM@MFGKHGBP@?$AA?$CI?$AAd?$AAs?$AAt?$AA?5?$AA?$CB?$AA?$DN?$AA?5?$AAN?$AAU?$AAL?$AAL?$AA?5?$AA?$CG?$AA?$CG?$AA?5?$AAs?$AAi?$AAz?$AAe?$AAI?$AAn?$AAB?$AAy?$AAt?$AAe?$AAs?$AA?5?$AA?$DO?$AA?5?$AA0?$AA?$CJ@ 0059ec50     LIBCMTD:wcstombs.obj
 0003:00028cf8       ??_C@_1CE@IGKFIJFD@?$AA_?$AAv?$AAs?$AAw?$AAp?$AAr?$AAi?$AAn?$AAt?$AAf?$AA_?$AAh?$AAe?$AAl?$AAp?$AAe?$AAr?$AA?$AA@ 0059ecf8     LIBCMTD:vswprnc.obj
 0003:00028d28       ??_C@_1GE@ICPDLGGP@?$AAf?$AA?3?$AA?2?$AAs?$AAp?$AA?2?$AAv?$AAc?$AAt?$AAo?$AAo?$AAl?$AAs?$AA?2?$AAc?$AAr?$AAt?$AA_?$AAb?$AAl?$AAd?$AA?2?$AAs?$AAe?$AAl?$AAf?$AA_?$AAx?$AA8?$AA6?$AA?2?$AAc@ 0059ed28     LIBCMTD:vswprnc.obj
 0003:00028da0       ??_C@_1DA@HPBFKMEB@?$AA?$CI?$AA?$CC?$AAB?$AAu?$AAf?$AAf?$AAe?$AAr?$AA?5?$AAt?$AAo?$AAo?$AA?5?$AAs?$AAm?$AAa?$AAl?$AAl?$AA?$CC?$AA?0?$AA?5?$AA0?$AA?$CJ?$AA?$AA@ 0059eda0     LIBCMTD:vswprnc.obj
 0003:00028de0       ??_C@_1EE@MPCHJFGP@?$AAs?$AAt?$AAr?$AAi?$AAn?$AAg?$AA?5?$AA?$CB?$AA?$DN?$AA?5?$AAN?$AAU?$AAL?$AAL?$AA?5?$AA?$CG?$AA?$CG?$AA?5?$AAs?$AAi?$AAz?$AAe?$AAI?$AAn?$AAW?$AAo?$AAr?$AAd?$AAs?$AA?5?$AA?$DO?$AA?5@ 0059ede0     LIBCMTD:vswprnc.obj
 0003:00028e34       ??_C@_1BO@OALHJLCI@?$AA_?$AAv?$AAs?$AAw?$AAp?$AAr?$AAi?$AAn?$AAt?$AAf?$AA_?$AAs?$AA_?$AAl?$AA?$AA@ 0059ee34     LIBCMTD:vswprnc.obj
 0003:00028e58       ??_C@_1BO@MLMCMBKN@?$AAf?$AAo?$AAr?$AAm?$AAa?$AAt?$AA?5?$AA?$CB?$AA?$DN?$AA?5?$AAN?$AAU?$AAL?$AAL?$AA?$AA@ 0059ee58     LIBCMTD:vswprnc.obj
 0003:00028e7c       ??_C@_1CA@BKFKMJFF@?$AA_?$AAv?$AAs?$AAn?$AAw?$AAp?$AAr?$AAi?$AAn?$AAt?$AAf?$AA_?$AAs?$AA_?$AAl?$AA?$AA@ 0059ee7c     LIBCMTD:vswprnc.obj
 0003:00028eb0       ??_C@_1HO@MLMGPAFH@?$AA?$CI?$AA?$CC?$AAi?$AAn?$AAc?$AAo?$AAn?$AAs?$AAi?$AAs?$AAt?$AAe?$AAn?$AAt?$AA?5?$AAI?$AAO?$AAB?$AA?5?$AAf?$AAi?$AAe?$AAl?$AAd?$AAs?$AA?$CC?$AA?0?$AA?5?$AAs?$AAt?$AAr?$AAe@ 0059eeb0     LIBCMTD:_flsbuf.obj
 0003:00028f48       ??_C@_1BE@GOOJIKLI@?$AA_?$AAf?$AAl?$AAs?$AAb?$AAu?$AAf?$AA?4?$AAc?$AA?$AA@ 0059ef48     LIBCMTD:_flsbuf.obj
 0003:00028f60       ??_C@_1BI@MFCLPIBM@?$AAs?$AAt?$AAr?$AA?5?$AA?$CB?$AA?$DN?$AA?5?$AAN?$AAU?$AAL?$AAL?$AA?$AA@ 0059ef60     LIBCMTD:_flsbuf.obj
 0003:00028f7c       ??_C@_1O@CEDCILHN@?$AA?$CI?$AAn?$AAu?$AAl?$AAl?$AA?$CJ?$AA?$AA@ 0059ef7c     LIBCMTD:output.obj
 0003:00028f8c       ??_C@_06OJHGLDPL@?$CInull?$CJ?$AA@ 0059ef8c     LIBCMTD:output.obj
 0003:00028f98       ___lookuptable             0059ef98     LIBCMTD:output.obj
 0003:00029004       ??_C@_08MEPFMIND@output?4c?$AA@ 0059f004     LIBCMTD:output.obj
 0003:00029010       ??_C@_1EK@PNGFDECN@?$AA?$CI?$AA?$CC?$AA?8?$AAn?$AA?8?$AA?5?$AAf?$AAo?$AAr?$AAm?$AAa?$AAt?$AA?5?$AAs?$AAp?$AAe?$AAc?$AAi?$AAf?$AAi?$AAe?$AAr?$AA?5?$AAd?$AAi?$AAs?$AAa?$AAb?$AAl?$AAe?$AAd?$AA?$CC@ 0059f010     LIBCMTD:output.obj
 0003:00029068       ??_C@_1CC@IFFHEMNF@?$AA?$CI?$AAc?$AAh?$AA?5?$AA?$CB?$AA?$DN?$AA?5?$AA_?$AAT?$AA?$CI?$AA?8?$AA?2?$AA0?$AA?8?$AA?$CJ?$AA?$CJ?$AA?$AA@ 0059f068     LIBCMTD:output.obj
 0003:00029090       ??_C@_1BE@IONLIDNC@?$AA_?$AAo?$AAu?$AAt?$AAp?$AAu?$AAt?$AA_?$AAl?$AA?$AA@ 0059f090     LIBCMTD:output.obj
 0003:000290a8       ??_C@_1BC@NHKJGCDC@?$AAo?$AAu?$AAt?$AAp?$AAu?$AAt?$AA?4?$AAc?$AA?$AA@ 0059f0a8     LIBCMTD:output.obj
 0003:000290c0       ??_C@_1BG@KCMPBBDK@?$AA_?$AAg?$AAe?$AAt?$AA_?$AAe?$AAr?$AAr?$AAn?$AAo?$AA?$AA@ 0059f0c0     LIBCMTD:dosmap.obj
 0003:000290dc       ??_C@_1BC@GFJPPMFE@?$AAd?$AAo?$AAs?$AAm?$AAa?$AAp?$AA?4?$AAc?$AA?$AA@ 0059f0dc     LIBCMTD:dosmap.obj
 0003:000290f4       ??_C@_1BM@INIPHHDD@?$AA_?$AAg?$AAe?$AAt?$AA_?$AAd?$AAo?$AAs?$AAe?$AAr?$AAr?$AAn?$AAo?$AA?$AA@ 0059f0f4     LIBCMTD:dosmap.obj
 0003:00029118       ??_C@_1CC@CGHMNGDG@?$AAA?$AAs?$AAs?$AAe?$AAr?$AAt?$AAi?$AAo?$AAn?$AA?5?$AAF?$AAa?$AAi?$AAl?$AAe?$AAd?$AA?$AA@ 0059f118     LIBCMTD:dbgrptw.obj
 0003:00029140       ??_C@_1M@ILHOPKA@?$AAE?$AAr?$AAr?$AAo?$AAr?$AA?$AA@ 0059f140     LIBCMTD:dbgrptw.obj
 0003:00029150       ??_C@_1BA@GLMCNLEM@?$AAW?$AAa?$AAr?$AAn?$AAi?$AAn?$AAg?$AA?$AA@ 0059f150     LIBCMTD:dbgrptw.obj
 0003:00029164       ??_C@_0DA@HAFNAKMA@f?3?2sp?2vctools?2crt_bld?2self_x86?2c@ 0059f164     LIBCMTD:dbgrptw.obj
 0003:000291a0       ??_C@_1FI@PHIAFFHM@?$AA?$CI?$AA?$CC?$AAT?$AAh?$AAe?$AA?5?$AAh?$AAo?$AAo?$AAk?$AA?5?$AAf?$AAu?$AAn?$AAc?$AAt?$AAi?$AAo?$AAn?$AA?5?$AAi?$AAs?$AA?5?$AAn?$AAo?$AAt?$AA?5?$AAi?$AAn?$AA?5?$AAt?$AAh@ 0059f1a0     LIBCMTD:dbgrptw.obj
 0003:0002920c       ??_C@_1CG@JBJEFOCM@?$AAp?$AAf?$AAn?$AAN?$AAe?$AAw?$AAH?$AAo?$AAo?$AAk?$AA?5?$AA?$CB?$AA?$DN?$AA?5?$AAN?$AAU?$AAL?$AAL?$AA?$AA@ 0059f20c     LIBCMTD:dbgrptw.obj
 0003:0002923c       ??_C@_1CI@IIHEAKEI@?$AA_?$AAC?$AAr?$AAt?$AAS?$AAe?$AAt?$AAR?$AAe?$AAp?$AAo?$AAr?$AAt?$AAH?$AAo?$AAo?$AAk?$AAW?$AA2?$AA?$AA@ 0059f23c     LIBCMTD:dbgrptw.obj
 0003:00029270       ??_C@_1GA@FGIMNHGA@?$AAf?$AA?3?$AA?2?$AAs?$AAp?$AA?2?$AAv?$AAc?$AAt?$AAo?$AAo?$AAl?$AAs?$AA?2?$AAc?$AAr?$AAt?$AA_?$AAb?$AAl?$AAd?$AA?2?$AAs?$AAe?$AAl?$AAf?$AA_?$AAx?$AA8?$AA6?$AA?2?$AAc@ 0059f270     LIBCMTD:dbgrptw.obj
 0003:000292e8       ??_C@_1HI@OFEHGPPC@?$AAm?$AAo?$AAd?$AAe?$AA?5?$AA?$DN?$AA?$DN?$AA?5?$AA_?$AAC?$AAR?$AAT?$AA_?$AAR?$AAP?$AAT?$AAH?$AAO?$AAO?$AAK?$AA_?$AAI?$AAN?$AAS?$AAT?$AAA?$AAL?$AAL?$AA?5?$AA?$HM?$AA?$HM?$AA?5@ 0059f2e8     LIBCMTD:dbgrptw.obj
 0003:00029378       ??_C@_0DP@GNPEPHJD@_CrtDbgReport?3?5String?5too?5long?5o@ 0059f378     LIBCMTD:dbgrptw.obj
 0003:000293c8       ??_C@_1LI@CIHKNEBA@?$AAs?$AAt?$AAr?$AAc?$AAp?$AAy?$AA_?$AAs?$AA?$CI?$AAs?$AAz?$AAa?$AAF?$AAo?$AAr?$AAm?$AAa?$AAt?$AA?0?$AA?5?$AA4?$AA0?$AA9?$AA6?$AA?0?$AA?5?$AA?$CC?$AA_?$AAC?$AAr?$AAt?$AAD@ 0059f3c8     LIBCMTD:dbgrptw.obj
 0003:000294a8       ??_C@_1GO@BIBJILHL@?$AAw?$AAc?$AAs?$AAt?$AAo?$AAm?$AAb?$AAs?$AA_?$AAs?$AA?$CI?$AA0?$AA?0?$AA?5?$AAs?$AAz?$AAa?$AAF?$AAo?$AAr?$AAm?$AAa?$AAt?$AA?0?$AA?5?$AA4?$AA0?$AA9?$AA6?$AA?0?$AA?5?$AAs@ 0059f4a8     LIBCMTD:dbgrptw.obj
 0003:00029530       ??_C@_1IK@NOIOPCJD@?$AAs?$AAt?$AAr?$AAc?$AAp?$AAy?$AA_?$AAs?$AA?$CI?$AAs?$AAz?$AAa?$AAM?$AAo?$AAd?$AAu?$AAl?$AAe?$AA?0?$AA?5?$AA4?$AA0?$AA9?$AA6?$AA?0?$AA?5?$AA?$CC?$AAE?$AAx?$AAp?$AAr?$AAe@ 0059f530     LIBCMTD:dbgrptw.obj
 0003:000295d8       ??_C@_1GO@EIJIKMJN@?$AAw?$AAc?$AAs?$AAt?$AAo?$AAm?$AAb?$AAs?$AA_?$AAs?$AA?$CI?$AA0?$AA?0?$AA?5?$AAs?$AAz?$AAa?$AAM?$AAo?$AAd?$AAu?$AAl?$AAe?$AA?0?$AA?5?$AA4?$AA0?$AA9?$AA6?$AA?0?$AA?5?$AAs@ 0059f5d8     LIBCMTD:dbgrptw.obj
 0003:00029660       ??_C@_1IG@KNLLJKPP@?$AAs?$AAt?$AAr?$AAc?$AAp?$AAy?$AA_?$AAs?$AA?$CI?$AAs?$AAz?$AAa?$AAF?$AAi?$AAl?$AAe?$AA?0?$AA?5?$AA4?$AA0?$AA9?$AA6?$AA?0?$AA?5?$AA?$CC?$AAE?$AAx?$AAp?$AAr?$AAe?$AAs?$AAs@ 0059f660     LIBCMTD:dbgrptw.obj
 0003:00029700       ??_C@_1DO@CNMELOIB@?$AAs?$AAt?$AAr?$AAc?$AAa?$AAt?$AA_?$AAs?$AA?$CI?$AAs?$AAz?$AAa?$AAF?$AAi?$AAl?$AAe?$AA?0?$AA?5?$AA4?$AA0?$AA9?$AA6?$AA?0?$AA?5?$AA?$CC?$AA?4?$AA?4?$AA?4?$AA?$CC?$AA?$CJ?$AA?$AA@ 0059f700     LIBCMTD:dbgrptw.obj
 0003:00029750       ??_C@_1GG@OHDJJHOI@?$AAw?$AAc?$AAs?$AAt?$AAo?$AAm?$AAb?$AAs?$AA_?$AAs?$AA?$CI?$AA0?$AA?0?$AA?5?$AAs?$AAz?$AAa?$AAF?$AAi?$AAl?$AAe?$AA?0?$AA?5?$AA4?$AA0?$AA9?$AA6?$AA?0?$AA?5?$AAs?$AAz?$AAF@ 0059f750     LIBCMTD:dbgrptw.obj
 0003:000297cc       ??_C@_1CA@KLAOOAPJ@?$AA_?$AAC?$AAr?$AAt?$AAD?$AAb?$AAg?$AAR?$AAe?$AAp?$AAo?$AAr?$AAt?$AAW?$AAV?$AA?$AA@ 0059f7cc     LIBCMTD:dbgrptw.obj
 0003:000297f8       ??_C@_1EG@PEOEAKBB@?$AAM?$AAi?$AAc?$AAr?$AAo?$AAs?$AAo?$AAf?$AAt?$AA?5?$AAV?$AAi?$AAs?$AAu?$AAa?$AAl?$AA?5?$AAC?$AA?$CL?$AA?$CL?$AA?5?$AAD?$AAe?$AAb?$AAu?$AAg?$AA?5?$AAL?$AAi?$AAb?$AAr?$AAa@ 0059f7f8     LIBCMTD:dbgrptw.obj
 0003:00029850       ??_C@_1FG@BBOLDHGF@?$AA_?$AAC?$AAr?$AAt?$AAD?$AAb?$AAg?$AAR?$AAe?$AAp?$AAo?$AAr?$AAt?$AA?3?$AA?5?$AAS?$AAt?$AAr?$AAi?$AAn?$AAg?$AA?5?$AAt?$AAo?$AAo?$AA?5?$AAl?$AAo?$AAn?$AAg?$AA?5?$AAo@ 0059f850     LIBCMTD:dbgrptw.obj
 0003:000298b8       ??_C@_1JI@EACPGHID@?$AAw?$AAc?$AAs?$AAc?$AAp?$AAy?$AA_?$AAs?$AA?$CI?$AAs?$AAz?$AAO?$AAu?$AAt?$AAM?$AAe?$AAs?$AAs?$AAa?$AAg?$AAe?$AA?0?$AA?5?$AA4?$AA0?$AA9?$AA6?$AA?0?$AA?5?$AAL?$AA?$CC?$AA_@ 0059f8b8     LIBCMTD:dbgrptw.obj
 0003:00029970       ??_C@_1KK@MEFMPOLM@?$AAD?$AAe?$AAb?$AAu?$AAg?$AA?5?$AA?$CF?$AAs?$AA?$CB?$AA?6?$AA?6?$AAP?$AAr?$AAo?$AAg?$AAr?$AAa?$AAm?$AA?3?$AA?5?$AA?$CF?$AAs?$AA?$CF?$AAs?$AA?$CF?$AAs?$AA?$CF?$AAs?$AA?$CF?$AAs?$AA?$CF?$AAs@ 0059f970     LIBCMTD:dbgrptw.obj
 0003:00029a3c       ??_C@_1BE@CGCJKGHI@?$AA?6?$AAM?$AAo?$AAd?$AAu?$AAl?$AAe?$AA?3?$AA?5?$AA?$AA@ 0059fa3c     LIBCMTD:dbgrptw.obj
 0003:00029a54       ??_C@_1BA@LNHECFIM@?$AA?6?$AAF?$AAi?$AAl?$AAe?$AA?3?$AA?5?$AA?$AA@ 0059fa54     LIBCMTD:dbgrptw.obj
 0003:00029a68       ??_C@_1BA@GLLGCPCK@?$AA?6?$AAL?$AAi?$AAn?$AAe?$AA?3?$AA?5?$AA?$AA@ 0059fa68     LIBCMTD:dbgrptw.obj
 0003:00029a7c       ??_C@_11LOCGONAA@?$AA?$AA@ 0059fa7c     LIBCMTD:dbgrptw.obj
 0003:00029a80       ??_C@_1OG@PMPPFHAF@?$AA?6?$AA?6?$AAF?$AAo?$AAr?$AA?5?$AAi?$AAn?$AAf?$AAo?$AAr?$AAm?$AAa?$AAt?$AAi?$AAo?$AAn?$AA?5?$AAo?$AAn?$AA?5?$AAh?$AAo?$AAw?$AA?5?$AAy?$AAo?$AAu?$AAr?$AA?5?$AAp?$AAr@ 0059fa80     LIBCMTD:dbgrptw.obj
 0003:00029b98       ??_C@_1JM@GKDPCMEA@?$AAw?$AAc?$AAs?$AAn?$AAc?$AAp?$AAy?$AA_?$AAs?$AA?$CI?$AAs?$AAz?$AAS?$AAh?$AAo?$AAr?$AAt?$AAP?$AAr?$AAo?$AAg?$AAN?$AAa?$AAm?$AAe?$AA?0?$AA?5?$AA2?$AA6?$AA0?$AA?5?$AA?9@ 0059fb98     LIBCMTD:dbgrptw.obj
 0003:00029c58       ??_C@_1GI@DEDNNLCI@?$AAw?$AAc?$AAs?$AAc?$AAp?$AAy?$AA_?$AAs?$AA?$CI?$AAs?$AAz?$AAE?$AAx?$AAe?$AAN?$AAa?$AAm?$AAe?$AA?0?$AA?5?$AA2?$AA6?$AA0?$AA?0?$AA?5?$AAL?$AA?$CC?$AA?$DM?$AAp?$AAr?$AAo?$AAg@ 0059fc58     LIBCMTD:dbgrptw.obj
 0003:00029cd4       ??_C@_1CI@PGJIFDEK@?$AA_?$AA_?$AAc?$AAr?$AAt?$AAM?$AAe?$AAs?$AAs?$AAa?$AAg?$AAe?$AAW?$AAi?$AAn?$AAd?$AAo?$AAw?$AAW?$AA?$AA@ 0059fcd4     LIBCMTD:dbgrptw.obj
 0003:00029d04       ??_C@_1BI@IGILPKD@?$AA_?$AAv?$AAs?$AAp?$AAr?$AAi?$AAn?$AAt?$AAf?$AA_?$AAl?$AA?$AA@ 0059fd04     LIBCMTD:vsprintf.obj
 0003:00029d20       ??_C@_1BG@CBDPIEBA@?$AAv?$AAs?$AAp?$AAr?$AAi?$AAn?$AAt?$AAf?$AA?4?$AAc?$AA?$AA@ 0059fd20     LIBCMTD:vsprintf.obj
 0003:00029d3c       ??_C@_1CE@HMKDJHB@?$AA_?$AAv?$AAs?$AAc?$AAp?$AAr?$AAi?$AAn?$AAt?$AAf?$AA_?$AAh?$AAe?$AAl?$AAp?$AAe?$AAr?$AA?$AA@ 0059fd3c     LIBCMTD:vsprintf.obj
 0003:00029d68       ??_C@_1CE@PCFPEIFI@?$AA_?$AAv?$AAs?$AAn?$AAp?$AAr?$AAi?$AAn?$AAt?$AAf?$AA_?$AAh?$AAe?$AAl?$AAp?$AAe?$AAr?$AA?$AA@ 0059fd68     LIBCMTD:vsnprnc.obj
 0003:00029d98       ??_C@_1EE@OKCKIGFK@?$AAs?$AAt?$AAr?$AAi?$AAn?$AAg?$AA?5?$AA?$CB?$AA?$DN?$AA?5?$AAN?$AAU?$AAL?$AAL?$AA?5?$AA?$CG?$AA?$CG?$AA?5?$AAs?$AAi?$AAz?$AAe?$AAI?$AAn?$AAB?$AAy?$AAt?$AAe?$AAs?$AA?5?$AA?$DO?$AA?5@ 0059fd98     LIBCMTD:vsnprnc.obj
 0003:00029dec       ??_C@_1BM@BLJALHEF@?$AA_?$AAv?$AAs?$AAp?$AAr?$AAi?$AAn?$AAt?$AAf?$AA_?$AAs?$AA_?$AAl?$AA?$AA@ 0059fdec     LIBCMTD:vsnprnc.obj
 0003:00029e10       ??_C@_1BO@MMPELNIM@?$AA_?$AAv?$AAs?$AAn?$AAp?$AAr?$AAi?$AAn?$AAt?$AAf?$AA_?$AAs?$AA_?$AAl?$AA?$AA@ 0059fe10     LIBCMTD:vsnprnc.obj
 0003:00029e60       ??_C@_1CI@KEDPFCAL@?$AA?$CI?$AA?$CK?$AAm?$AAo?$AAd?$AAe?$AA?5?$AA?$DN?$AA?$DN?$AA?5?$AA_?$AAT?$AA?$CI?$AA?8?$AA?2?$AA0?$AA?8?$AA?$CJ?$AA?$CJ?$AA?$AA@ 0059fe60     LIBCMTD:_open.obj
 0003:00029e90       ??_C@_1BE@DONHJJKE@?$AA_?$AAo?$AAp?$AAe?$AAn?$AAf?$AAi?$AAl?$AAe?$AA?$AA@ 0059fe90     LIBCMTD:_open.obj
 0003:00029ea8       ??_C@_1DK@PKMJBLLN@?$AA?$CI?$AA?$CC?$AAI?$AAn?$AAv?$AAa?$AAl?$AAi?$AAd?$AA?5?$AAf?$AAi?$AAl?$AAe?$AA?5?$AAo?$AAp?$AAe?$AAn?$AA?5?$AAm?$AAo?$AAd?$AAe?$AA?$CC?$AA?0?$AA0?$AA?$CJ?$AA?$AA@ 0059fea8     LIBCMTD:_open.obj
 0003:00029ef0       ??_C@_1BK@HGLMNMEC@?$AAm?$AAo?$AAd?$AAe?$AA?5?$AA?$CB?$AA?$DN?$AA?5?$AAN?$AAU?$AAL?$AAL?$AA?$AA@ 0059fef0     LIBCMTD:_open.obj
 0003:00029f10       ??_C@_1BA@ENGOOAMJ@?$AA_?$AAo?$AAp?$AAe?$AAn?$AA?4?$AAc?$AA?$AA@ 0059ff10     LIBCMTD:_open.obj
 0003:00029f24       ??_C@_1CC@JBMDNKJP@?$AAf?$AAi?$AAl?$AAe?$AAn?$AAa?$AAm?$AAe?$AA?5?$AA?$CB?$AA?$DN?$AA?5?$AAN?$AAU?$AAL?$AAL?$AA?$AA@ 0059ff24     LIBCMTD:_open.obj
 0003:00029f50       ??_C@_1JE@ECKHFIFP@?$AA?$CI?$AA?$CC?$AAI?$AAn?$AAv?$AAa?$AAl?$AAi?$AAd?$AA?5?$AAf?$AAi?$AAl?$AAe?$AA?5?$AAd?$AAe?$AAs?$AAc?$AAr?$AAi?$AAp?$AAt?$AAo?$AAr?$AA?4?$AA?5?$AAF?$AAi?$AAl?$AAe?$AA?5@ 0059ff50     LIBCMTD:commit.obj
 0003:0002a004       ??_C@_1DG@LNNHNFHJ@?$AA?$CI?$AA_?$AAo?$AAs?$AAf?$AAi?$AAl?$AAe?$AA?$CI?$AAf?$AAi?$AAl?$AAe?$AAd?$AAe?$AAs?$AA?$CJ?$AA?5?$AA?$CG?$AA?5?$AAF?$AAO?$AAP?$AAE?$AAN?$AA?$CJ?$AA?$AA@ 005a0004     LIBCMTD:commit.obj
 0003:0002a044       ??_C@_1BA@FLNMBBIM@?$AA_?$AAc?$AAo?$AAm?$AAm?$AAi?$AAt?$AA?$AA@ 005a0044     LIBCMTD:commit.obj
 0003:0002a058       ??_C@_1BC@LOAFNBNC@?$AAc?$AAo?$AAm?$AAm?$AAi?$AAt?$AA?4?$AAc?$AA?$AA@ 005a0058     LIBCMTD:commit.obj
 0003:0002a070       ??_C@_1HC@KFLBHHBC@?$AA?$CI?$AAf?$AAi?$AAl?$AAe?$AAd?$AAe?$AAs?$AA?5?$AA?$DO?$AA?$DN?$AA?5?$AA0?$AA?5?$AA?$CG?$AA?$CG?$AA?5?$AA?$CI?$AAu?$AAn?$AAs?$AAi?$AAg?$AAn?$AAe?$AAd?$AA?$CJ?$AAf?$AAi?$AAl?$AAe?$AAd@ 005a0070     LIBCMTD:commit.obj
 0003:0002a0f8       ??_C@_1BA@JGHIEKKM@?$AA_?$AAf?$AAi?$AAl?$AAe?$AAn?$AAo?$AA?$AA@ 005a00f8     LIBCMTD:fileno.obj
 0003:0002a10c       ??_C@_1BC@FBGAHIFN@?$AAf?$AAi?$AAl?$AAe?$AAn?$AAo?$AA?4?$AAc?$AA?$AA@ 005a010c     LIBCMTD:fileno.obj
 0003:0002a124       ??_C@_1CM@OKGMMMDH@?$AA?$CI?$AA_?$AAo?$AAs?$AAf?$AAi?$AAl?$AAe?$AA?$CI?$AAf?$AAh?$AA?$CJ?$AA?5?$AA?$CG?$AA?5?$AAF?$AAO?$AAP?$AAE?$AAN?$AA?$CJ?$AA?$AA@ 005a0124     LIBCMTD:write.obj
 0003:0002a158       ??_C@_1O@KOFKDHPL@?$AA_?$AAw?$AAr?$AAi?$AAt?$AAe?$AA?$AA@ 005a0158     LIBCMTD:write.obj
 0003:0002a168       ??_C@_1BA@PMLNGJCB@?$AAw?$AAr?$AAi?$AAt?$AAe?$AA?4?$AAc?$AA?$AA@ 005a0168     LIBCMTD:write.obj
 0003:0002a180       ??_C@_1FO@LPCLHKGE@?$AA?$CI?$AAf?$AAh?$AA?5?$AA?$DO?$AA?$DN?$AA?5?$AA0?$AA?5?$AA?$CG?$AA?$CG?$AA?5?$AA?$CI?$AAu?$AAn?$AAs?$AAi?$AAg?$AAn?$AAe?$AAd?$AA?$CJ?$AAf?$AAh?$AA?5?$AA?$DM?$AA?5?$AA?$CI?$AAu?$AAn?$AAs?$AAi@ 005a0180     LIBCMTD:write.obj
 0003:0002a1f0       ??_C@_1CC@EEOLPHGO@?$AA?$CI?$AA?$CI?$AAc?$AAn?$AAt?$AA?5?$AA?$CG?$AA?5?$AA1?$AA?$CJ?$AA?5?$AA?$DN?$AA?$DN?$AA?5?$AA0?$AA?$CJ?$AA?$AA@ 005a01f0     LIBCMTD:write.obj
 0003:0002a218       ??_C@_1BM@NCANHCIP@?$AA_?$AAw?$AAr?$AAi?$AAt?$AAe?$AA_?$AAn?$AAo?$AAl?$AAo?$AAc?$AAk?$AA?$AA@ 005a0218     LIBCMTD:write.obj
 0003:0002a23c       ??_C@_1BM@KFJLMBPG@?$AA?$CI?$AAb?$AAu?$AAf?$AA?5?$AA?$CB?$AA?$DN?$AA?5?$AAN?$AAU?$AAL?$AAL?$AA?$CJ?$AA?$AA@ 005a023c     LIBCMTD:write.obj
 0003:0002a260       ??_C@_07CKDBCAPD@mlock?4c?$AA@ 005a0260     LIBCMTD:mlock.obj
 0003:0002a26c       ??_C@_1O@EDEJGJBM@?$AA_?$AAc?$AAl?$AAo?$AAs?$AAe?$AA?$AA@ 005a026c     LIBCMTD:close.obj
 0003:0002a27c       ??_C@_1BA@GOGDMMEN@?$AAc?$AAl?$AAo?$AAs?$AAe?$AA?4?$AAc?$AA?$AA@ 005a027c     LIBCMTD:close.obj
 0003:0002a290       ??_C@_1BG@BCLADFND@?$AA_?$AAf?$AAr?$AAe?$AAe?$AAb?$AAu?$AAf?$AA?4?$AAc?$AA?$AA@ 005a0290     LIBCMTD:_freebuf.obj
 0003:0002a2ac       ??_C@_1BO@KIJENGPH@?$AAs?$AAt?$AAr?$AAe?$AAa?$AAm?$AA?5?$AA?$CB?$AA?$DN?$AA?5?$AAN?$AAU?$AAL?$AAL?$AA?$AA@ 005a02ac     LIBCMTD:_freebuf.obj
 0003:0002a2d0       ??_C@_09IFKHNCOH@_sftbuf?4c?$AA@ 005a02d0     LIBCMTD:_sftbuf.obj
 0003:0002a2dc       ??_C@_1BE@DFMOKHKL@?$AA_?$AAs?$AAf?$AAt?$AAb?$AAu?$AAf?$AA?4?$AAc?$AA?$AA@ 005a02dc     LIBCMTD:_sftbuf.obj
 0003:0002a2f4       ??_C@_1CO@KCKAACMI@?$AAf?$AAl?$AAa?$AAg?$AA?5?$AA?$DN?$AA?$DN?$AA?5?$AA0?$AA?5?$AA?$HM?$AA?$HM?$AA?5?$AAf?$AAl?$AAa?$AAg?$AA?5?$AA?$DN?$AA?$DN?$AA?5?$AA1?$AA?$AA@ 005a02f4     LIBCMTD:_sftbuf.obj
 0003:0002a32c       ??_C@_1BO@JGFPDJCP@?$AAv?$AAp?$AAr?$AAi?$AAn?$AAt?$AAf?$AA_?$AAh?$AAe?$AAl?$AAp?$AAe?$AAr?$AA?$AA@ 005a032c     LIBCMTD:vprintf.obj
 0003:0002a350       ??_C@_1BE@DEJONPKH@?$AAv?$AAp?$AAr?$AAi?$AAn?$AAt?$AAf?$AA?4?$AAc?$AA?$AA@ 005a0350     LIBCMTD:vprintf.obj
 0003:0002a368       ??_C@_08MAFBHINM@ioinit?4c?$AA@ 005a0368     LIBCMTD:ioinit.obj
 0003:0002a378       ??_C@_1FE@CEHLKAHD@?$AAi?$AAb?$AAa?$AAs?$AAe?$AA?5?$AA?$DN?$AA?$DN?$AA?5?$AA0?$AA?5?$AA?$HM?$AA?$HM?$AA?5?$AA?$CI?$AA2?$AA?5?$AA?$DM?$AA?$DN?$AA?5?$AAi?$AAb?$AAa?$AAs?$AAe?$AA?5?$AA?$CG?$AA?$CG?$AA?5?$AAi?$AAb?$AAa@ 005a0378     LIBCMTD:strtol.obj
 0003:0002a3dc       ??_C@_1BA@LOLAMAJG@?$AAs?$AAt?$AAr?$AAt?$AAo?$AAx?$AAl?$AA?$AA@ 005a03dc     LIBCMTD:strtol.obj
 0003:0002a3f0       ??_C@_1BC@CPINJNMH@?$AAs?$AAt?$AAr?$AAt?$AAo?$AAl?$AA?4?$AAc?$AA?$AA@ 005a03f0     LIBCMTD:strtol.obj
 0003:0002a408       ??_C@_1BK@LAOAACLJ@?$AAn?$AAp?$AAt?$AAr?$AA?5?$AA?$CB?$AA?$DN?$AA?5?$AAN?$AAU?$AAL?$AAL?$AA?$AA@ 005a0408     LIBCMTD:strtol.obj
 0003:0002a428       ??_C@_1BA@BMMDEPNE@?$AAs?$AAt?$AAr?$AAt?$AAo?$AAx?$AAq?$AA?$AA@ 005a0428     LIBCMTD:strtoq.obj
 0003:0002a43c       ??_C@_1BC@MIDDLJDN@?$AAs?$AAt?$AAr?$AAt?$AAo?$AAq?$AA?4?$AAc?$AA?$AA@ 005a043c     LIBCMTD:strtoq.obj
 0003:0002a458       ??_C@_1GE@KOCFNGPB@?$AA_?$AAc?$AAo?$AAn?$AAt?$AAr?$AAo?$AAl?$AAf?$AAp?$AA_?$AAs?$AA?$CI?$AA?$CI?$AA?$CI?$AAv?$AAo?$AAi?$AAd?$AA?5?$AA?$CK?$AA?$CJ?$AA0?$AA?$CJ?$AA?0?$AA?5?$AA0?$AAx?$AA0?$AA0?$AA0?$AA1@ 005a0458     LIBCMTD:fp8.obj
 0003:0002a4d0       ??_C@_1CK@JMKHCBEI@?$AA_?$AAs?$AAe?$AAt?$AAd?$AAe?$AAf?$AAa?$AAu?$AAl?$AAt?$AAp?$AAr?$AAe?$AAc?$AAi?$AAs?$AAi?$AAo?$AAn?$AA?$AA@ 005a04d0     LIBCMTD:fp8.obj
 0003:0002a504       ??_C@_1BI@DMMHIADH@?$AAi?$AAn?$AAt?$AAe?$AAl?$AA?2?$AAf?$AAp?$AA8?$AA?4?$AAc?$AA?$AA@ 005a0504     LIBCMTD:fp8.obj
 0003:0002a520       __real@4150017ec0000000    005a0520     LIBCMTD:testfdiv.obj
 0003:0002a530       __real@4147ffff80000000    005a0530     LIBCMTD:testfdiv.obj
 0003:0002a53c       ??_C@_0BK@NHEOCAHP@IsProcessorFeaturePresent?$AA@ 005a053c     LIBCMTD:testfdiv.obj
 0003:0002a55c       ??_C@_08CPNIBGIE@KERNEL32?$AA@ 005a055c     LIBCMTD:testfdiv.obj
 0003:0002a568       ??_C@_1CA@CBMNPEO@?$AAs?$AAi?$AAz?$AAe?$AAI?$AAn?$AAB?$AAy?$AAt?$AAe?$AAs?$AA?5?$AA?$DO?$AA?5?$AA0?$AA?$AA@ 005a0568     LIBCMTD:cvt.obj
 0003:0002a590       ??_C@_1BC@INKAPMHI@?$AA_?$AAc?$AAf?$AAt?$AAo?$AAe?$AA_?$AAl?$AA?$AA@ 005a0590     LIBCMTD:cvt.obj
 0003:0002a5a8       ??_C@_1M@BMJONBHG@?$AAc?$AAv?$AAt?$AA?4?$AAc?$AA?$AA@ 005a05a8     LIBCMTD:cvt.obj
 0003:0002a5b8       ??_C@_05KLBDPFGC@e?$CL000?$AA@ 005a05b8     LIBCMTD:cvt.obj
 0003:0002a5c0       ??_C@_1LE@EOIFGNCJ@?$AAs?$AAt?$AAr?$AAc?$AAp?$AAy?$AA_?$AAs?$AA?$CI?$AAp?$AA?0?$AA?5?$AA?$CI?$AAs?$AAi?$AAz?$AAe?$AAI?$AAn?$AAB?$AAy?$AAt?$AAe?$AAs?$AA?5?$AA?$DN?$AA?$DN?$AA?5?$AA?$CI?$AAs?$AAi?$AAz@ 005a05c0     LIBCMTD:cvt.obj
 0003:0002a698       ??_C@_1HE@NACBNDPP@?$AAs?$AAi?$AAz?$AAe?$AAI?$AAn?$AAB?$AAy?$AAt?$AAe?$AAs?$AA?5?$AA?$DO?$AA?5?$AA?$CI?$AAs?$AAi?$AAz?$AAe?$AA_?$AAt?$AA?$CJ?$AA?$CI?$AA3?$AA?5?$AA?$CL?$AA?5?$AA?$CI?$AAn?$AAd?$AAe?$AAc@ 005a0698     LIBCMTD:cvt.obj
 0003:0002a724       ??_C@_1BE@OLBNEILL@?$AA_?$AAc?$AAf?$AAt?$AAo?$AAe?$AA2?$AA_?$AAl?$AA?$AA@ 005a0724     LIBCMTD:cvt.obj
 0003:0002a740       ??_C@_1FC@IKIMAMJB@?$AAs?$AAi?$AAz?$AAe?$AAI?$AAn?$AAB?$AAy?$AAt?$AAe?$AAs?$AA?5?$AA?$DO?$AA?5?$AA?$CI?$AAs?$AAi?$AAz?$AAe?$AA_?$AAt?$AA?$CJ?$AA?$CI?$AA1?$AA?5?$AA?$CL?$AA?5?$AA4?$AA?5?$AA?$CL?$AA?5?$AAn@ 005a0740     LIBCMTD:cvt.obj
 0003:0002a7a4       ??_C@_1BC@JOKPCIC@?$AA_?$AAc?$AAf?$AAt?$AAo?$AAa?$AA_?$AAl?$AA?$AA@ 005a07a4     LIBCMTD:cvt.obj
 0003:0002a7bc       ??_C@_1BC@DCPPLJL@?$AA_?$AAc?$AAf?$AAt?$AAo?$AAf?$AA_?$AAl?$AA?$AA@ 005a07bc     LIBCMTD:cvt.obj
 0003:0002a7d4       ??_C@_1BE@CKPDLI@?$AA_?$AAc?$AAf?$AAt?$AAo?$AAf?$AA2?$AA_?$AAl?$AA?$AA@ 005a07d4     LIBCMTD:cvt.obj
 0003:0002a7ec       ??_C@_1BC@MPIFPLAF@?$AA_?$AAc?$AAf?$AAt?$AAo?$AAg?$AA_?$AAl?$AA?$AA@ 005a07ec     LIBCMTD:cvt.obj
 0003:0002a804       ??_C@_1BA@IIKEPOGH@?$AA_?$AAf?$AAi?$AAl?$AAb?$AAu?$AAf?$AA?$AA@ 005a0804     LIBCMTD:_filbuf.obj
 0003:0002a818       ??_C@_1BE@CEJGNPDE@?$AA_?$AAf?$AAi?$AAl?$AAb?$AAu?$AAf?$AA?4?$AAc?$AA?$AA@ 005a0818     LIBCMTD:_filbuf.obj
 0003:0002a830       ??_C@_1DE@MMOGFGHF@?$AAs?$AAt?$AAr?$AAc?$AAp?$AAy?$AA_?$AAs?$AA?$CI?$AA?$CK?$AAe?$AAn?$AAv?$AA?0?$AA?5?$AAc?$AAc?$AAh?$AAa?$AAr?$AAs?$AA?0?$AA?5?$AAp?$AA?$CJ?$AA?$AA@ 005a0830     LIBCMTD:stdenvp.obj
 0003:0002a870       ??_C@_1BC@GHMCNHHL@?$AA_?$AAs?$AAe?$AAt?$AAe?$AAn?$AAv?$AAp?$AA?$AA@ 005a0870     LIBCMTD:stdenvp.obj
 0003:0002a888       ??_C@_1BE@DFNOPGHI@?$AAs?$AAt?$AAd?$AAe?$AAn?$AAv?$AAp?$AA?4?$AAc?$AA?$AA@ 005a0888     LIBCMTD:stdenvp.obj
 0003:0002a8a0       ??_C@_09HCDLHOJP@stdenvp?4c?$AA@ 005a08a0     LIBCMTD:stdenvp.obj
 0003:0002a8ac       ??_C@_09IKILHJIC@stdargv?4c?$AA@ 005a08ac     LIBCMTD:stdargv.obj
 0003:0002a8b8       ??_C@_07BPGNOCOG@a_env?4c?$AA@ 005a08b8     LIBCMTD:a_env.obj
 0003:0002a8c4       ??_C@_0O@NLDKAIKN@EncodePointer?$AA@ 005a08c4     LIBCMTD:tidtable.obj
 0003:0002a8d4       ??_C@_0N@NHGLKGEC@KERNEL32?4DLL?$AA@ 005a08d4     LIBCMTD:tidtable.obj
 0003:0002a8e4       ??_C@_07EPKMNAGK@?4mixcrt?$AA@ 005a08e4     LIBCMTD:tidtable.obj
 0003:0002a8f0       ??_C@_0O@KBPMFGHI@DecodePointer?$AA@ 005a08f0     LIBCMTD:tidtable.obj
 0003:0002a900       ??_C@_0L@JKCACIOJ@tidtable?4c?$AA@ 005a0900     LIBCMTD:tidtable.obj
 0003:0002a910       ??_C@_07PEJMOBNF@FlsFree?$AA@ 005a0910     LIBCMTD:tidtable.obj
 0003:0002a91c       ??_C@_0M@JCPCPOEF@FlsSetValue?$AA@ 005a091c     LIBCMTD:tidtable.obj
 0003:0002a92c       ??_C@_0M@GDNOONDI@FlsGetValue?$AA@ 005a092c     LIBCMTD:tidtable.obj
 0003:0002a93c       ??_C@_08KNHFBNJ@FlsAlloc?$AA@ 005a093c     LIBCMTD:tidtable.obj
 0003:0002a948       ??_C@_1BM@DKJOGMJM@?$AA_?$AA_?$AAh?$AAe?$AAa?$AAp?$AA_?$AAs?$AAe?$AAl?$AAe?$AAc?$AAt?$AA?$AA@ 005a0948     LIBCMTD:heapinit.obj
 0003:0002a96c       ??_C@_1BG@INAAHHLF@?$AAh?$AAe?$AAa?$AAp?$AAi?$AAn?$AAi?$AAt?$AA?4?$AAc?$AA?$AA@ 005a096c     LIBCMTD:heapinit.obj
 0003:0002a988       ??_C@_1BC@DENNNKIM@?$AA_?$AAc?$AAr?$AAt?$AAh?$AAe?$AAa?$AAp?$AA?$AA@ 005a0988     LIBCMTD:heapinit.obj
 0003:0002a9a0       ??_C@_0P@GGKDKEEG@runtime?5error?5?$AA@ 005a09a0     LIBCMTD:crt0msg.obj
 0003:0002a9b4       ??_C@_0O@MJNIPGOH@TLOSS?5error?$AN?6?$AA@ 005a09b4     LIBCMTD:crt0msg.obj
 0003:0002a9c4       ??_C@_0N@BONNPDHF@SING?5error?$AN?6?$AA@ 005a09c4     LIBCMTD:crt0msg.obj
 0003:0002a9d4       ??_C@_0P@MBDAJNE@DOMAIN?5error?$AN?6?$AA@ 005a09d4     LIBCMTD:crt0msg.obj
 0003:0002a9e8       ??_C@_0BFB@HKKMCDOL@R6034?$AN?6An?5application?5has?5made?5a@ 005a09e8     LIBCMTD:crt0msg.obj
 0003:0002ab80       ??_C@_0PH@EPAFIJ@R6033?$AN?6?9?5Attempt?5to?5use?5MSIL?5cod@ 005a0b80     LIBCMTD:crt0msg.obj
 0003:0002aca8       ??_C@_0DD@BKEEABMM@R6032?$AN?6?9?5not?5enough?5space?5for?5lo@ 005a0ca8     LIBCMTD:crt0msg.obj
 0003:0002ace8       ??_C@_0GD@OFKILIED@R6031?$AN?6?9?5Attempt?5to?5initialize?5t@ 005a0ce8     LIBCMTD:crt0msg.obj
 0003:0002ad60       ??_C@_0BP@LPMHJOKI@R6030?$AN?6?9?5CRT?5not?5initialized?$AN?6?$AA@ 005a0d60     LIBCMTD:crt0msg.obj
 0003:0002ad88       ??_C@_0CF@KJDAIALP@R6028?$AN?6?9?5unable?5to?5initialize?5he@ 005a0d88     LIBCMTD:crt0msg.obj
 0003:0002adb4       ??_C@_0DF@GAKBPDFP@R6027?$AN?6?9?5not?5enough?5space?5for?5lo@ 005a0db4     LIBCMTD:crt0msg.obj
 0003:0002adf4       ??_C@_0DF@IBLNNAIG@R6026?$AN?6?9?5not?5enough?5space?5for?5st@ 005a0df4     LIBCMTD:crt0msg.obj
 0003:0002ae34       ??_C@_0CG@IOHKGFNJ@R6025?$AN?6?9?5pure?5virtual?5function?5c@ 005a0e34     LIBCMTD:crt0msg.obj
 0003:0002ae64       ??_C@_0DF@JIJJFJDC@R6024?$AN?6?9?5not?5enough?5space?5for?5_o@ 005a0e64     LIBCMTD:crt0msg.obj
 0003:0002aea4       ??_C@_0CJ@EGEJHFME@R6019?$AN?6?9?5unable?5to?5open?5console?5@ 005a0ea4     LIBCMTD:crt0msg.obj
 0003:0002aed8       ??_C@_0CB@GNHNIELH@R6018?$AN?6?9?5unexpected?5heap?5error?$AN?6@ 005a0ed8     LIBCMTD:crt0msg.obj
 0003:0002af00       ??_C@_0CN@FOLDKNG@R6017?$AN?6?9?5unexpected?5multithread?5@ 005a0f00     LIBCMTD:crt0msg.obj
 0003:0002af38       ??_C@_0CM@FAHFJNHO@R6016?$AN?6?9?5not?5enough?5space?5for?5th@ 005a0f38     LIBCMTD:crt0msg.obj
 0003:0002af70       ??_C@_0JG@LBKMGKLD@?$AN?6This?5application?5has?5requested@ 005a0f70     LIBCMTD:crt0msg.obj
 0003:0002b024       ??_C@_0CM@FLCNIPKK@R6009?$AN?6?9?5not?5enough?5space?5for?5en@ 005a1024     LIBCMTD:crt0msg.obj
 0003:0002b058       ??_C@_0CK@KMMJOAPP@R6008?$AN?6?9?5not?5enough?5space?5for?5ar@ 005a1058     LIBCMTD:crt0msg.obj
 0003:0002b08c       ??_C@_0CN@LEKKICBM@R6002?$AN?6?9?5floating?5point?5support?5@ 005a108c     LIBCMTD:crt0msg.obj
 0003:0002b0c8       ??_C@_1KC@JBIKIPNF@?$AAs?$AAt?$AAr?$AAc?$AAa?$AAt?$AA_?$AAs?$AA?$CI?$AAo?$AAu?$AAt?$AAm?$AAs?$AAg?$AA?0?$AA?5?$AA?$CI?$AAs?$AAi?$AAz?$AAe?$AAo?$AAf?$AA?$CI?$AAo?$AAu?$AAt?$AAm?$AAs?$AAg?$AA?$CJ@ 005a10c8     LIBCMTD:crt0msg.obj
 0003:0002b190       ??_C@_1HO@POLIDBMF@?$AAs?$AAt?$AAr?$AAc?$AAa?$AAt?$AA_?$AAs?$AA?$CI?$AAo?$AAu?$AAt?$AAm?$AAs?$AAg?$AA?0?$AA?5?$AA?$CI?$AAs?$AAi?$AAz?$AAe?$AAo?$AAf?$AA?$CI?$AAo?$AAu?$AAt?$AAm?$AAs?$AAg?$AA?$CJ@ 005a1190     LIBCMTD:crt0msg.obj
 0003:0002b228       ??_C@_1HG@CJJGKFHK@?$AAs?$AAt?$AAr?$AAn?$AAc?$AAp?$AAy?$AA_?$AAs?$AA?$CI?$AAp?$AAc?$AAh?$AA?0?$AA?5?$AAp?$AAr?$AAo?$AAg?$AAn?$AAa?$AAm?$AAe?$AA_?$AAs?$AAi?$AAz?$AAe?$AA?5?$AA?9?$AA?5?$AA?$CI@ 005a1228     LIBCMTD:crt0msg.obj
 0003:0002b2b8       ??_C@_1HI@FOOPEDMH@?$AAs?$AAt?$AAr?$AAc?$AAp?$AAy?$AA_?$AAs?$AA?$CI?$AAp?$AAr?$AAo?$AAg?$AAn?$AAa?$AAm?$AAe?$AA?0?$AA?5?$AAp?$AAr?$AAo?$AAg?$AAn?$AAa?$AAm?$AAe?$AA_?$AAs?$AAi?$AAz?$AAe@ 005a12b8     LIBCMTD:crt0msg.obj
 0003:0002b348       ??_C@_0BK@OFGJDLJJ@Runtime?5Error?$CB?6?6Program?3?5?$AA@ 005a1348     LIBCMTD:crt0msg.obj
 0003:0002b368       ??_C@_1KM@NKKPELHG@?$AAs?$AAt?$AAr?$AAc?$AAp?$AAy?$AA_?$AAs?$AA?$CI?$AAo?$AAu?$AAt?$AAm?$AAs?$AAg?$AA?0?$AA?5?$AA?$CI?$AAs?$AAi?$AAz?$AAe?$AAo?$AAf?$AA?$CI?$AAo?$AAu?$AAt?$AAm?$AAs?$AAg?$AA?$CJ@ 005a1368     LIBCMTD:crt0msg.obj
 0003:0002b438       ??_C@_1BI@EAHMBMEC@?$AA_?$AAN?$AAM?$AAS?$AAG?$AA_?$AAW?$AAR?$AAI?$AAT?$AAE?$AA?$AA@ 005a1438     LIBCMTD:crt0msg.obj
 0003:0002b454       ??_C@_1BE@HJCCFLDA@?$AAc?$AAr?$AAt?$AA0?$AAm?$AAs?$AAg?$AA?4?$AAc?$AA?$AA@ 005a1454     LIBCMTD:crt0msg.obj
 0003:0002b46c       ??_C@_1BE@CEKCJJBD@?$AAi?$AAs?$AAc?$AAt?$AAy?$AAp?$AAe?$AA?4?$AAc?$AA?$AA@ 005a146c     LIBCMTD:isctype.obj
 0003:0002b484       ??_C@_1DC@BPLPALML@?$AA?$CI?$AAu?$AAn?$AAs?$AAi?$AAg?$AAn?$AAe?$AAd?$AA?$CJ?$AA?$CI?$AAc?$AA?5?$AA?$CL?$AA?5?$AA1?$AA?$CJ?$AA?5?$AA?$DM?$AA?$DN?$AA?5?$AA2?$AA5?$AA6?$AA?$AA@ 005a1484     LIBCMTD:isctype.obj
 0003:0002b4c0       ??_C@_09KJLOAKHC@mbctype?4c?$AA@ 005a14c0     LIBCMTD:mbctype.obj
 0003:0002b4cc       ??_C@_07LCBHPJJN@LC_TIME?$AA@ 005a14cc     LIBCMTD:setlocal.obj
 0003:0002b4d8       ??_C@_0L@DLHIECNL@LC_NUMERIC?$AA@ 005a14d8     LIBCMTD:setlocal.obj
 0003:0002b4e8       ??_C@_0M@MIENIKLA@LC_MONETARY?$AA@ 005a14e8     LIBCMTD:setlocal.obj
 0003:0002b4f8       ??_C@_08EADHIDAD@LC_CTYPE?$AA@ 005a14f8     LIBCMTD:setlocal.obj
 0003:0002b504       ??_C@_0L@KFJHEKIK@LC_COLLATE?$AA@ 005a1504     LIBCMTD:setlocal.obj
 0003:0002b514       ??_C@_06NEFDFEKB@LC_ALL?$AA@ 005a1514     LIBCMTD:setlocal.obj
 0003:0002b520       ___lc_category             005a1520     LIBCMTD:setlocal.obj
 0003:0002b610       ??_C@_1BG@PFHEEGCP@?$AAs?$AAe?$AAt?$AAl?$AAo?$AAc?$AAa?$AAl?$AA?4?$AAc?$AA?$AA@ 005a1610     LIBCMTD:setlocal.obj
 0003:0002b630       ??_C@_1BKC@GGIENNAK@?$AA?$CI?$AA?$CI?$AAp?$AAt?$AAl?$AAo?$AAc?$AAi?$AA?9?$AA?$DO?$AAl?$AAc?$AA_?$AAc?$AAa?$AAt?$AAe?$AAg?$AAo?$AAr?$AAy?$AA?$FL?$AAc?$AAa?$AAt?$AAe?$AAg?$AAo?$AAr?$AAy?$AA?$FN?$AA?4@ 005a1630     LIBCMTD:setlocal.obj
 0003:0002b828       ??_C@_1CI@FGIONOJM@?$AA_?$AAc?$AAo?$AAn?$AAf?$AAi?$AAg?$AAt?$AAh?$AAr?$AAe?$AAa?$AAd?$AAl?$AAo?$AAc?$AAa?$AAl?$AAe?$AA?$AA@ 005a1828     LIBCMTD:setlocal.obj
 0003:0002b858       ??_C@_1GA@LDEGDKD@?$AA?$CI?$AA?$CC?$AAI?$AAn?$AAv?$AAa?$AAl?$AAi?$AAd?$AA?5?$AAp?$AAa?$AAr?$AAa?$AAm?$AAe?$AAt?$AAe?$AAr?$AA?5?$AAf?$AAo?$AAr?$AA?5?$AA_?$AAc?$AAo?$AAn?$AAf?$AAi?$AAg?$AAt@ 005a1858     LIBCMTD:setlocal.obj
 0003:0002b8cc       ??_C@_0L@LEECJGMI@setlocal?4c?$AA@ 005a18cc     LIBCMTD:setlocal.obj
 0003:0002b8dc       ??_C@_1BE@DBJGBOJC@?$AAs?$AAe?$AAt?$AAl?$AAo?$AAc?$AAa?$AAl?$AAe?$AA?$AA@ 005a18dc     LIBCMTD:setlocal.obj
 0003:0002b8f8       ??_C@_1FG@OHLFEKMC@?$AAL?$AAC?$AA_?$AAM?$AAI?$AAN?$AA?5?$AA?$DM?$AA?$DN?$AA?5?$AA_?$AAc?$AAa?$AAt?$AAe?$AAg?$AAo?$AAr?$AAy?$AA?5?$AA?$CG?$AA?$CG?$AA?5?$AA_?$AAc?$AAa?$AAt?$AAe?$AAg?$AAo?$AAr?$AAy@ 005a18f8     LIBCMTD:setlocal.obj
 0003:0002b960       ??_C@_1IA@PFIKKKFB@?$AAs?$AAt?$AAr?$AAn?$AAc?$AAp?$AAy?$AA_?$AAs?$AA?$CI?$AAl?$AAc?$AAt?$AAe?$AAm?$AAp?$AA?0?$AA?5?$AA?$CI?$AAs?$AAi?$AAz?$AAe?$AAo?$AAf?$AA?$CI?$AAl?$AAc?$AAt?$AAe?$AAm?$AAp@ 005a1960     LIBCMTD:setlocal.obj
 0003:0002b9fc       ??_C@_1CE@OFNHIOO@?$AA_?$AAs?$AAe?$AAt?$AAl?$AAo?$AAc?$AAa?$AAl?$AAe?$AA_?$AAn?$AAo?$AAl?$AAo?$AAc?$AAk?$AA?$AA@ 005a19fc     LIBCMTD:setlocal.obj
 0003:0002ba28       ??_C@_02BALPLPBG@?$DN?$DL?$AA@ 005a1a28     LIBCMTD:setlocal.obj
 0003:0002ba30       ??_C@_1GO@JALHLJEH@?$AAs?$AAt?$AAr?$AAc?$AAp?$AAy?$AA_?$AAs?$AA?$CI?$AAp?$AAc?$AAh?$AA?5?$AA?$CL?$AA?5?$AAs?$AAi?$AAz?$AAe?$AAo?$AAf?$AA?$CI?$AAi?$AAn?$AAt?$AA?$CJ?$AA?0?$AA?5?$AAc?$AAc?$AAh?$AA?5@ 005a1a30     LIBCMTD:setlocal.obj
 0003:0002bab4       ??_C@_1CG@IEFIICPK@?$AA_?$AAs?$AAe?$AAt?$AAl?$AAo?$AAc?$AAa?$AAl?$AAe?$AA_?$AAs?$AAe?$AAt?$AA_?$AAc?$AAa?$AAt?$AA?$AA@ 005a1ab4     LIBCMTD:setlocal.obj
 0003:0002bae4       ??_C@_1DA@GDKKLCLM@?$AAs?$AAt?$AAr?$AAc?$AAa?$AAt?$AA_?$AAs?$AA?$CI?$AAp?$AAc?$AAh?$AA?0?$AA?5?$AAc?$AAc?$AAh?$AA?0?$AA?5?$AA?$CC?$AA?$DL?$AA?$CC?$AA?$CJ?$AA?$AA@ 005a1ae4     LIBCMTD:setlocal.obj
 0003:0002bb20       ??_C@_1CG@NNFIJLDA@?$AA_?$AAs?$AAe?$AAt?$AAl?$AAo?$AAc?$AAa?$AAl?$AAe?$AA_?$AAg?$AAe?$AAt?$AA_?$AAa?$AAl?$AAl?$AA?$AA@ 005a1b20     LIBCMTD:setlocal.obj
 0003:0002bb50       ??_C@_1FA@MHAOOIBO@?$AAs?$AAt?$AAr?$AAc?$AAp?$AAy?$AA_?$AAs?$AA?$CI?$AAo?$AAu?$AAt?$AAp?$AAu?$AAt?$AA?0?$AA?5?$AAs?$AAi?$AAz?$AAe?$AAI?$AAn?$AAC?$AAh?$AAa?$AAr?$AAs?$AA?0?$AA?5?$AAc?$AAa@ 005a1b50     LIBCMTD:setlocal.obj
 0003:0002bbb0       ??_C@_1IA@ONNFOEDA@?$AAs?$AAt?$AAr?$AAn?$AAc?$AAp?$AAy?$AA_?$AAs?$AA?$CI?$AAc?$AAa?$AAc?$AAh?$AAe?$AAi?$AAn?$AA?0?$AA?5?$AAc?$AAa?$AAc?$AAh?$AAe?$AAi?$AAn?$AAS?$AAi?$AAz?$AAe?$AA?0?$AA?5@ 005a1bb0     LIBCMTD:setlocal.obj
 0003:0002bc4c       ??_C@_01GFHCPBMG@C?$AA@    005a1c4c     LIBCMTD:setlocal.obj
 0003:0002bc50       ??_C@_1EG@MOMHKOD@?$AAs?$AAt?$AAr?$AAc?$AAp?$AAy?$AA_?$AAs?$AA?$CI?$AAo?$AAu?$AAt?$AAp?$AAu?$AAt?$AA?0?$AA?5?$AAs?$AAi?$AAz?$AAe?$AAI?$AAn?$AAC?$AAh?$AAa?$AAr?$AAs?$AA?0?$AA?5?$AA?$CC?$AAC@ 005a1c50     LIBCMTD:setlocal.obj
 0003:0002bca4       ??_C@_1BM@OIIBLEFG@?$AA_?$AAe?$AAx?$AAp?$AAa?$AAn?$AAd?$AAl?$AAo?$AAc?$AAa?$AAl?$AAe?$AA?$AA@ 005a1ca4     LIBCMTD:setlocal.obj
 0003:0002bcc8       ??_C@_1BGM@IJDLABMC@?$AAs?$AAt?$AAr?$AAc?$AAa?$AAt?$AA_?$AAs?$AA?$CI?$AAo?$AAu?$AAt?$AAs?$AAt?$AAr?$AA?0?$AA?5?$AAs?$AAi?$AAz?$AAe?$AAI?$AAn?$AAB?$AAy?$AAt?$AAe?$AAs?$AA?0?$AA?5?$AA?$CI?$AA?5@ 005a1cc8     LIBCMTD:setlocal.obj
 0003:0002be7c       ??_C@_1BC@PIABMDIP@?$AA_?$AAs?$AAt?$AAr?$AAc?$AAa?$AAt?$AAs?$AA?$AA@ 005a1e7c     LIBCMTD:setlocal.obj
 0003:0002be98       ??_C@_1MM@NOPMGFHF@?$AAs?$AAt?$AAr?$AAn?$AAc?$AAp?$AAy?$AA_?$AAs?$AA?$CI?$AAn?$AAa?$AAm?$AAe?$AAs?$AA?9?$AA?$DO?$AAs?$AAz?$AAC?$AAo?$AAd?$AAe?$AAP?$AAa?$AAg?$AAe?$AA?0?$AA?5?$AA?$CI?$AAs?$AAi@ 005a1e98     LIBCMTD:setlocal.obj
 0003:0002bf90       ??_C@_1MG@PHNILIAG@?$AAs?$AAt?$AAr?$AAn?$AAc?$AAp?$AAy?$AA_?$AAs?$AA?$CI?$AAn?$AAa?$AAm?$AAe?$AAs?$AA?9?$AA?$DO?$AAs?$AAz?$AAC?$AAo?$AAu?$AAn?$AAt?$AAr?$AAy?$AA?0?$AA?5?$AA?$CI?$AAs?$AAi?$AAz@ 005a1f90     LIBCMTD:setlocal.obj
 0003:0002c080       ??_C@_1MM@BFEECMAF@?$AAs?$AAt?$AAr?$AAn?$AAc?$AAp?$AAy?$AA_?$AAs?$AA?$CI?$AAn?$AAa?$AAm?$AAe?$AAs?$AA?9?$AA?$DO?$AAs?$AAz?$AAL?$AAa?$AAn?$AAg?$AAu?$AAa?$AAg?$AAe?$AA?0?$AA?5?$AA?$CI?$AAs?$AAi@ 005a2080     LIBCMTD:setlocal.obj
 0003:0002c174       ??_C@_03EGDHDPFD@_?4?0?$AA@ 005a2174     LIBCMTD:setlocal.obj
 0003:0002c178       ??_C@_1NG@FMOPGKGG@?$AAs?$AAt?$AAr?$AAn?$AAc?$AAp?$AAy?$AA_?$AAs?$AA?$CI?$AAn?$AAa?$AAm?$AAe?$AAs?$AA?9?$AA?$DO?$AAs?$AAz?$AAC?$AAo?$AAd?$AAe?$AAP?$AAa?$AAg?$AAe?$AA?0?$AA?5?$AA?$CI?$AAs?$AAi@ 005a2178     LIBCMTD:setlocal.obj
 0003:0002c278       ??_C@_1BK@CBMMLAGJ@?$AA_?$AA_?$AAl?$AAc?$AA_?$AAs?$AAt?$AAr?$AAt?$AAo?$AAl?$AAc?$AA?$AA@ 005a2278     LIBCMTD:setlocal.obj
 0003:0002c298       ??_C@_01IDAFKMJL@_?$AA@    005a2298     LIBCMTD:setlocal.obj
 0003:0002c2a0       ??_C@_1HC@IBDBLKCB@?$AAs?$AAt?$AAr?$AAc?$AAp?$AAy?$AA_?$AAs?$AA?$CI?$AAl?$AAo?$AAc?$AAa?$AAl?$AAe?$AA?0?$AA?5?$AAs?$AAi?$AAz?$AAe?$AAI?$AAn?$AAB?$AAy?$AAt?$AAe?$AAs?$AA?0?$AA?5?$AA?$CI?$AAc@ 005a22a0     LIBCMTD:setlocal.obj
 0003:0002c328       ??_C@_1BK@FGDJDEPG@?$AA_?$AA_?$AAl?$AAc?$AA_?$AAl?$AAc?$AAt?$AAo?$AAs?$AAt?$AAr?$AA?$AA@ 005a2328     LIBCMTD:setlocal.obj
 0003:0002c348       ??_C@_13NOLLCAOD@?$AA?$AA?$AA?$AA@ 005a2348     LIBCMTD:a_map.obj
 0003:0002c350       ??_C@_1GA@EDILLMMN@?$AAF?$AA?3?$AA?2?$AAS?$AAP?$AA?2?$AAv?$AAc?$AAt?$AAo?$AAo?$AAl?$AAs?$AA?2?$AAc?$AAr?$AAt?$AA_?$AAb?$AAl?$AAd?$AA?2?$AAS?$AAE?$AAL?$AAF?$AA_?$AAX?$AA8?$AA6?$AA?2?$AAc@ 005a2350     LIBCMTD:a_map.obj
 0003:0002c3c8       ??_C@_1FE@KNPCCODH@?$AA?$CI?$AA?$CC?$AAC?$AAo?$AAr?$AAr?$AAu?$AAp?$AAt?$AAe?$AAd?$AA?5?$AAp?$AAo?$AAi?$AAn?$AAt?$AAe?$AAr?$AA?5?$AAp?$AAa?$AAs?$AAs?$AAe?$AAd?$AA?5?$AAt?$AAo?$AA?5?$AA_?$AAf@ 005a23c8     LIBCMTD:a_map.obj
 0003:0002c42c       ??_C@_1BI@OINOOFEA@?$AAh?$AAa?$AAn?$AAd?$AAl?$AAe?$AAr?$AA?4?$AAc?$AAp?$AAp?$AA?$AA@ 005a242c     LIBCMTD:handler.obj
 0003:0002c448       ??_C@_1BC@JLLICHIC@?$AAp?$AAn?$AAh?$AA?5?$AA?$DN?$AA?$DN?$AA?5?$AA0?$AA?$AA@ 005a2448     LIBCMTD:handler.obj
 0003:0002c460       ??_C@_0BB@NAGLCMLI@Assertion?5Failed?$AA@ 005a2460     LIBCMTD:dbgrpt.obj
 0003:0002c474       ??_C@_08ODMAMGBE@dbgrpt?4c?$AA@ 005a2474     LIBCMTD:dbgrpt.obj
 0003:0002c480       ??_C@_1CG@GNMJDMIO@?$AA_?$AAC?$AAr?$AAt?$AAS?$AAe?$AAt?$AAR?$AAe?$AAp?$AAo?$AAr?$AAt?$AAH?$AAo?$AAo?$AAk?$AA2?$AA?$AA@ 005a2480     LIBCMTD:dbgrpt.obj
 0003:0002c4b0       ??_C@_1BC@CBGBJLNL@?$AAd?$AAb?$AAg?$AAr?$AAp?$AAt?$AA?4?$AAc?$AA?$AA@ 005a24b0     LIBCMTD:dbgrpt.obj
 0003:0002c4c8       ??_C@_0CD@EBCGLDDL@Microsoft?5Visual?5C?$CL?$CL?5Debug?5Libra@ 005a24c8     LIBCMTD:dbgrpt.obj
 0003:0002c4f4       ??_C@_0CL@EACFGMNB@_CrtDbgReport?3?5String?5too?5long?5o@ 005a24f4     LIBCMTD:dbgrpt.obj
 0003:0002c528       ??_C@_1JG@CPKCIOEE@?$AAs?$AAt?$AAr?$AAc?$AAp?$AAy?$AA_?$AAs?$AA?$CI?$AAs?$AAz?$AAO?$AAu?$AAt?$AAM?$AAe?$AAs?$AAs?$AAa?$AAg?$AAe?$AA?0?$AA?5?$AA4?$AA0?$AA9?$AA6?$AA?0?$AA?5?$AA?$CC?$AA_?$AAC@ 005a2528     LIBCMTD:dbgrpt.obj
 0003:0002c5e0       ??_C@_0FF@CCONDJCB@Debug?5?$CFs?$CB?6?6Program?3?5?$CFs?$CFs?$CFs?$CFs?$CFs?$CFs@ 005a25e0     LIBCMTD:dbgrpt.obj
 0003:0002c648       ??_C@_09OFBFHMBK@?6Module?3?5?$AA@ 005a2648     LIBCMTD:dbgrpt.obj
 0003:0002c654       ??_C@_07OPHPPLBG@?6File?3?5?$AA@ 005a2654     LIBCMTD:dbgrpt.obj
 0003:0002c660       ??_C@_07DBMPPHDI@?6Line?3?5?$AA@ 005a2660     LIBCMTD:dbgrpt.obj
 0003:0002c670       ??_C@_0HD@GNBNFCCL@?6?6For?5information?5on?5how?5your?5pr@ 005a2670     LIBCMTD:dbgrpt.obj
 0003:0002c700       ??_C@_1KA@GHPEDBGI@?$AA_?$AAm?$AAb?$AAs?$AAn?$AAb?$AAc?$AAp?$AAy?$AA_?$AAs?$AA?$CI?$AAs?$AAz?$AAS?$AAh?$AAo?$AAr?$AAt?$AAP?$AAr?$AAo?$AAg?$AAN?$AAa?$AAm?$AAe?$AA?0?$AA?5?$AA2?$AA6?$AA0@ 005a2700     LIBCMTD:dbgrpt.obj
 0003:0002c7c0       ??_C@_1GG@DLDHOIGE@?$AAs?$AAt?$AAr?$AAc?$AAp?$AAy?$AA_?$AAs?$AA?$CI?$AAs?$AAz?$AAE?$AAx?$AAe?$AAN?$AAa?$AAm?$AAe?$AA?0?$AA?5?$AA2?$AA6?$AA0?$AA?0?$AA?5?$AA?$CC?$AA?$DM?$AAp?$AAr?$AAo?$AAg?$AAr@ 005a27c0     LIBCMTD:dbgrpt.obj
 0003:0002c83c       ??_C@_1CI@IDOKFLAJ@?$AA_?$AA_?$AAc?$AAr?$AAt?$AAM?$AAe?$AAs?$AAs?$AAa?$AAg?$AAe?$AAW?$AAi?$AAn?$AAd?$AAo?$AAw?$AAA?$AA?$AA@ 005a283c     LIBCMTD:dbgrpt.obj
 0003:0002c86c       ??_C@_1BK@JMCGJOCC@?$AA_?$AAe?$AAx?$AAp?$AAa?$AAn?$AAd?$AA_?$AAb?$AAa?$AAs?$AAe?$AA?$AA@ 005a286c     LIBCMTD:expand.obj
 0003:0002c88c       ??_C@_1BC@OBICIAFI@?$AAe?$AAx?$AAp?$AAa?$AAn?$AAd?$AA?4?$AAc?$AA?$AA@ 005a288c     LIBCMTD:expand.obj
 0003:0002c8a4       ??_C@_1BO@KFIJIAEA@?$AAp?$AAB?$AAl?$AAo?$AAc?$AAk?$AA?5?$AA?$CB?$AA?$DN?$AA?5?$AAN?$AAU?$AAL?$AAL?$AA?$AA@ 005a28a4     LIBCMTD:expand.obj
 0003:0002c8c8       ??_C@_1BO@EMPIBJGC@?$AA_?$AAr?$AAe?$AAc?$AAa?$AAl?$AAl?$AAo?$AAc?$AA_?$AAb?$AAa?$AAs?$AAe?$AA?$AA@ 005a28c8     LIBCMTD:realloc.obj
 0003:0002c8ec       ??_C@_1BE@IAPDAHOE@?$AAr?$AAe?$AAa?$AAl?$AAl?$AAo?$AAc?$AA?4?$AAc?$AA?$AA@ 005a28ec     LIBCMTD:realloc.obj
 0003:0002c904       ??_C@_1BC@IMNOJJAO@?$AAs?$AAb?$AAh?$AAe?$AAa?$AAp?$AA?4?$AAc?$AA?$AA@ 005a2904     LIBCMTD:sbheap.obj
 0003:0002c920       ??_C@_1IC@MOGBEBCE@?$AA?$CI?$AAt?$AAh?$AAr?$AAe?$AAs?$AAh?$AAo?$AAl?$AAd?$AA?5?$AA?$DM?$AA?$DN?$AA?5?$AAM?$AAA?$AAX?$AA_?$AAA?$AAL?$AAL?$AAO?$AAC?$AA_?$AAD?$AAA?$AAT?$AAA?$AA_?$AAS?$AAI?$AAZ@ 005a2920     LIBCMTD:sbheap.obj
 0003:0002c9bc       ??_C@_1CG@BBFCGKBK@?$AA_?$AAs?$AAe?$AAt?$AA_?$AAs?$AAb?$AAh?$AA_?$AAt?$AAh?$AAr?$AAe?$AAs?$AAh?$AAo?$AAl?$AAd?$AA?$AA@ 005a29bc     LIBCMTD:sbheap.obj
 0003:0002c9f0       ??_C@_1EC@DACAONFE@?$AAt?$AAh?$AAr?$AAe?$AAs?$AAh?$AAo?$AAl?$AAd?$AA?5?$AA?$DM?$AA?$DN?$AA?5?$AAM?$AAA?$AAX?$AA_?$AAA?$AAL?$AAL?$AAO?$AAC?$AA_?$AAD?$AAA?$AAT?$AAA?$AA_?$AAS?$AAI?$AAZ?$AAE@ 005a29f0     LIBCMTD:sbheap.obj
 0003:0002ca40       ??_C@_1BM@GFNECEDD@?$AA_?$AAs?$AAe?$AAt?$AA_?$AAa?$AAm?$AAb?$AAl?$AAk?$AAs?$AAi?$AAz?$AA?$AA@ 005a2a40     LIBCMTD:sbheap.obj
 0003:0002ca64       ??_C@_1DK@BKLENMLC@?$AA0?$AA?5?$AA?$DM?$AA?5?$AAs?$AAi?$AAz?$AAe?$AA?5?$AA?$CG?$AA?$CG?$AA?5?$AAs?$AAi?$AAz?$AAe?$AA?5?$AA?$DM?$AA?$DN?$AA?5?$AAU?$AAI?$AAN?$AAT?$AA_?$AAM?$AAA?$AAX?$AA?$AA@ 005a2a64     LIBCMTD:sbheap.obj
 0003:0002caac       ??_C@_1BM@OFBCOJJF@?$AA_?$AAg?$AAe?$AAt?$AA_?$AAa?$AAm?$AAb?$AAl?$AAk?$AAs?$AAi?$AAz?$AA?$AA@ 005a2aac     LIBCMTD:sbheap.obj
 0003:0002cad0       ??_C@_1BM@IELHFPPM@?$AAp?$AAS?$AAi?$AAz?$AAe?$AA?5?$AA?$CB?$AA?$DN?$AA?5?$AAN?$AAU?$AAL?$AAL?$AA?$AA@ 005a2ad0     LIBCMTD:sbheap.obj
 0003:0002d578       __DEFAULT_CW_in_mem        005a3578     LIBCMTD:common.obj
 0003:0002d57a       __pi_by_2_to_61            005a357a     LIBCMTD:common.obj
 0003:0002d5c4       ??_C@_08GNMOIKDK@onexit?4c?$AA@ 005a35c4     LIBCMTD:onexit.obj
 0003:0002d5d0       ??_C@_0BC@JEAENNKH@SystemFunction036?$AA@ 005a35d0     LIBCMTD:rand_s.obj
 0003:0002d5e8       ??_C@_1GA@EBEDGGGB@?$AA?$CI?$AA?$CC?$AAr?$AAa?$AAn?$AAd?$AA_?$AAs?$AA?5?$AAi?$AAs?$AA?5?$AAn?$AAo?$AAt?$AA?5?$AAa?$AAv?$AAa?$AAi?$AAl?$AAa?$AAb?$AAl?$AAe?$AA?5?$AAo?$AAn?$AA?5?$AAt?$AAh?$AAi@ 005a35e8     LIBCMTD:rand_s.obj
 0003:0002d65c       ??_C@_0N@JJPEKNFO@ADVAPI32?4DLL?$AA@ 005a365c     LIBCMTD:rand_s.obj
 0003:0002d66c       ??_C@_1O@IJGPPOGF@?$AAr?$AAa?$AAn?$AAd?$AA_?$AAs?$AA?$AA@ 005a366c     LIBCMTD:rand_s.obj
 0003:0002d67c       ??_C@_1BC@NBJGCJKM@?$AAr?$AAa?$AAn?$AAd?$AA_?$AAs?$AA?4?$AAc?$AA?$AA@ 005a367c     LIBCMTD:rand_s.obj
 0003:0002d694       ??_C@_1CK@GFDNDKK@?$AA_?$AAR?$AAa?$AAn?$AAd?$AAo?$AAm?$AAV?$AAa?$AAl?$AAu?$AAe?$AA?5?$AA?$CB?$AA?$DN?$AA?5?$AAN?$AAU?$AAL?$AAL?$AA?$AA@ 005a3694     LIBCMTD:rand_s.obj
 0003:0002d6c8       ??_C@_1GO@NGIGJNHH@?$AAs?$AAt?$AAr?$AAn?$AAc?$AAp?$AAy?$AA_?$AAs?$AA?$CI?$AA?$CK?$AAs?$AAt?$AAr?$AAa?$AAd?$AAd?$AAr?$AAe?$AAs?$AAs?$AA?0?$AA?5?$AAo?$AAu?$AAt?$AAs?$AAi?$AAz?$AAe?$AA?0?$AA?5@ 005a36c8     LIBCMTD:inithelp.obj
 0003:0002d74c       ??_C@_1CA@KHHCPEI@?$AA_?$AA_?$AAg?$AAe?$AAt?$AAl?$AAo?$AAc?$AAa?$AAl?$AAe?$AAi?$AAn?$AAf?$AAo?$AA?$AA@ 005a374c     LIBCMTD:inithelp.obj
 0003:0002d774       ??_C@_1BG@OFMEOKEA@?$AAi?$AAn?$AAi?$AAt?$AAh?$AAe?$AAl?$AAp?$AA?4?$AAc?$AA?$AA@ 005a3774     LIBCMTD:inithelp.obj
 0003:0002d790       ??_C@_0L@DILIPMN@inithelp?4c?$AA@ 005a3790     LIBCMTD:inithelp.obj
 0003:0002d7a0       ??_C@_0CG@PKBDLMEO@InitializeCriticalSectionAndSpin@ 005a37a0     LIBCMTD:initcrit.obj
 0003:0002d7d0       ??_C@_0N@MDJJJHMB@kernel32?4dll?$AA@ 005a37d0     LIBCMTD:initcrit.obj
 0003:0002d7e0       ??_C@_1DK@EGKDBLND@?$AA_?$AA_?$AAc?$AAr?$AAt?$AAI?$AAn?$AAi?$AAt?$AAC?$AAr?$AAi?$AAt?$AAS?$AAe?$AAc?$AAA?$AAn?$AAd?$AAS?$AAp?$AAi?$AAn?$AAC?$AAo?$AAu?$AAn?$AAt?$AA?$AA@ 005a37e0     LIBCMTD:initcrit.obj
 0003:0002d828       ??_C@_1BG@LABPBAGA@?$AAi?$AAn?$AAi?$AAt?$AAc?$AAr?$AAi?$AAt?$AA?4?$AAc?$AA?$AA@ 005a3828     LIBCMTD:initcrit.obj
 0003:0002d844       ??_C@_0DA@FHGIAEAH@f?3?2sp?2vctools?2crt_bld?2self_x86?2c@ 005a3844     LIBCMTD:woutput.obj
 0003:0002d880       ??_C@_1BG@BBCDFOMA@?$AA_?$AAw?$AAo?$AAu?$AAt?$AAp?$AAu?$AAt?$AA_?$AAl?$AA?$AA@ 005a3880     LIBCMTD:woutput.obj
 0003:0002d8a0       ??_C@_1GA@KAEECOIJ@?$AAf?$AA?3?$AA?2?$AAs?$AAp?$AA?2?$AAv?$AAc?$AAt?$AAo?$AAo?$AAl?$AAs?$AA?2?$AAc?$AAr?$AAt?$AA_?$AAb?$AAl?$AAd?$AA?2?$AAs?$AAe?$AAl?$AAf?$AA_?$AAx?$AA8?$AA6?$AA?2?$AAc@ 005a38a0     LIBCMTD:woutput.obj
 0003:0002d914       ??_C@_1CC@MONNFDCM@?$AAv?$AAf?$AAw?$AAp?$AAr?$AAi?$AAn?$AAt?$AAf?$AA_?$AAh?$AAe?$AAl?$AAp?$AAe?$AAr?$AA?$AA@ 005a3914     LIBCMTD:vfwprint.obj
 0003:0002d93c       ??_C@_1BG@NPPNBJFE@?$AAv?$AAf?$AAw?$AAp?$AAr?$AAi?$AAn?$AAt?$AA?4?$AAc?$AA?$AA@ 005a393c     LIBCMTD:vfwprint.obj
 0003:0002d958       ??_C@_0BK@CIDNPOGP@GetUserObjectInformationA?$AA@ 005a3958     LIBCMTD:crtmbox.obj
 0003:0002d978       ??_C@_1CC@MEIOIKJI@?$AA_?$AA_?$AAc?$AAr?$AAt?$AAM?$AAe?$AAs?$AAs?$AAa?$AAg?$AAe?$AAB?$AAo?$AAx?$AAA?$AA?$AA@ 005a3978     LIBCMTD:crtmbox.obj
 0003:0002d9a0       ??_C@_1BE@DEODNGG@?$AAc?$AAr?$AAt?$AAm?$AAb?$AAo?$AAx?$AA?4?$AAc?$AA?$AA@ 005a39a0     LIBCMTD:crtmbox.obj
 0003:0002d9b8       ??_C@_0M@CHKKJDAI@MessageBoxA?$AA@ 005a39b8     LIBCMTD:crtmbox.obj
 0003:0002d9c8       ??_C@_0L@NDEGIDAG@USER32?4DLL?$AA@ 005a39c8     LIBCMTD:crtmbox.obj
 0003:0002d9d8       ??_C@_1O@GIMBNLEI@?$AAx?$AAt?$AAo?$AAa?$AA_?$AAs?$AA?$AA@ 005a39d8     LIBCMTD:xtoas.obj
 0003:0002d9e8       ??_C@_1BC@MJJNBNFN@?$AAx?$AA6?$AA4?$AAt?$AAo?$AAa?$AA_?$AAs?$AA?$AA@ 005a39e8     LIBCMTD:xtoas.obj
 0003:0002da00       ??_C@_1BA@DNOHIGNM@?$AAf?$AAp?$AAr?$AAi?$AAn?$AAt?$AAf?$AA?$AA@ 005a3a00     LIBCMTD:fprintf.obj
 0003:0002da14       ??_C@_1BE@NEFIHEIC@?$AAf?$AAp?$AAr?$AAi?$AAn?$AAt?$AAf?$AA?4?$AAc?$AA?$AA@ 005a3a14     LIBCMTD:fprintf.obj
 0003:0002da30       ??_C@_1FK@LNCFKALM@?$AA?$CI?$AA?$CI?$AAs?$AAt?$AAa?$AAt?$AAe?$AA?5?$AA?$DN?$AA?$DN?$AA?5?$AAS?$AAT?$AA_?$AAN?$AAO?$AAR?$AAM?$AAA?$AAL?$AA?$CJ?$AA?5?$AA?$HM?$AA?$HM?$AA?5?$AA?$CI?$AAs?$AAt?$AAa?$AAt?$AAe?$AA?5@ 005a3a30     LIBCMTD:woutputs.obj
 0003:0002daa0       ??_C@_1EE@DMAIGNBG@?$AA?$CI?$AA?$CC?$AAI?$AAn?$AAc?$AAo?$AAr?$AAr?$AAe?$AAc?$AAt?$AA?5?$AAf?$AAo?$AAr?$AAm?$AAa?$AAt?$AA?5?$AAs?$AAp?$AAe?$AAc?$AAi?$AAf?$AAi?$AAe?$AAr?$AA?$CC?$AA?0?$AA?5?$AA0@ 005a3aa0     LIBCMTD:woutputs.obj
 0003:0002daf4       ??_C@_1BK@ONMFGLDB@?$AA_?$AAw?$AAo?$AAu?$AAt?$AAp?$AAu?$AAt?$AA_?$AAs?$AA_?$AAl?$AA?$AA@ 005a3af4     LIBCMTD:woutputs.obj
 0003:0002db18       ??_C@_1FK@BCPANIEK@?$AA?$CI?$AA?$CC?$AAM?$AAi?$AAs?$AAs?$AAi?$AAn?$AAg?$AA?5?$AAp?$AAo?$AAs?$AAi?$AAt?$AAi?$AAo?$AAn?$AA?5?$AAi?$AAn?$AA?5?$AAt?$AAh?$AAe?$AA?5?$AAf?$AAo?$AAr?$AAm?$AAa?$AAt@ 005a3b18     LIBCMTD:woutputp.obj
 0003:0002db88       ??_C@_1JC@OACKELNN@?$AA_?$AAt?$AAv?$AAa?$AAl?$AAi?$AAd?$AAa?$AAt?$AAe?$AA_?$AAp?$AAa?$AAr?$AAa?$AAm?$AA_?$AAr?$AAe?$AAu?$AAs?$AAe?$AA?$CI?$AA?$CG?$AAp?$AAo?$AAs?$AA_?$AAv?$AAa?$AAl?$AAu@ 005a3b88     LIBCMTD:woutputp.obj
 0003:0002dc38       ??_C@_1IK@NBGDDCBN@?$AA_?$AAt?$AAv?$AAa?$AAl?$AAi?$AAd?$AAa?$AAt?$AAe?$AA_?$AAp?$AAa?$AAr?$AAa?$AAm?$AA_?$AAr?$AAe?$AAu?$AAs?$AAe?$AA?$CI?$AA?$CG?$AAp?$AAo?$AAs?$AA_?$AAv?$AAa?$AAl?$AAu@ 005a3c38     LIBCMTD:woutputp.obj
 0003:0002dce0       ??_C@_1DG@GOHGNKHE@?$AAp?$AAa?$AAs?$AAs?$AA?5?$AA?$DN?$AA?$DN?$AA?5?$AAF?$AAO?$AAR?$AAM?$AAA?$AAT?$AA_?$AAO?$AAU?$AAT?$AAP?$AAU?$AAT?$AA_?$AAP?$AAA?$AAS?$AAS?$AA?$AA@ 005a3ce0     LIBCMTD:woutputp.obj
 0003:0002dd20       ??_C@_1IM@DNGHAPLB@?$AA_?$AAt?$AAv?$AAa?$AAl?$AAi?$AAd?$AAa?$AAt?$AAe?$AA_?$AAp?$AAa?$AAr?$AAa?$AAm?$AA_?$AAr?$AAe?$AAu?$AAs?$AAe?$AA?$CI?$AA?$CG?$AAp?$AAo?$AAs?$AA_?$AAv?$AAa?$AAl?$AAu@ 005a3d20     LIBCMTD:woutputp.obj
 0003:0002ddc8       ??_C@_1IG@HJIMKDHC@?$AA_?$AAt?$AAv?$AAa?$AAl?$AAi?$AAd?$AAa?$AAt?$AAe?$AA_?$AAp?$AAa?$AAr?$AAa?$AAm?$AA_?$AAr?$AAe?$AAu?$AAs?$AAe?$AA?$CI?$AA?$CG?$AAp?$AAo?$AAs?$AA_?$AAv?$AAa?$AAl?$AAu@ 005a3dc8     LIBCMTD:woutputp.obj
 0003:0002de68       ??_C@_1IG@FDCPLALG@?$AA_?$AAt?$AAv?$AAa?$AAl?$AAi?$AAd?$AAa?$AAt?$AAe?$AA_?$AAp?$AAa?$AAr?$AAa?$AAm?$AA_?$AAr?$AAe?$AAu?$AAs?$AAe?$AA?$CI?$AA?$CG?$AAp?$AAo?$AAs?$AA_?$AAv?$AAa?$AAl?$AAu@ 005a3e68     LIBCMTD:woutputp.obj
 0003:0002df08       ??_C@_1EM@BNPHBBIA@?$AA?$CI?$AA?$CI?$AAt?$AAy?$AAp?$AAe?$AA_?$AAp?$AAo?$AAs?$AA?$DO?$AA?$DN?$AA0?$AA?$CJ?$AA?5?$AA?$CG?$AA?$CG?$AA?5?$AA?$CI?$AAt?$AAy?$AAp?$AAe?$AA_?$AAp?$AAo?$AAs?$AA?$DM?$AA_?$AAA?$AAR?$AAG@ 005a3f08     LIBCMTD:woutputp.obj
 0003:0002df68       ??_C@_1IK@EIEPDKHJ@?$AA_?$AAt?$AAv?$AAa?$AAl?$AAi?$AAd?$AAa?$AAt?$AAe?$AA_?$AAp?$AAa?$AAr?$AAa?$AAm?$AA_?$AAr?$AAe?$AAu?$AAs?$AAe?$AA?$CI?$AA?$CG?$AAp?$AAo?$AAs?$AA_?$AAv?$AAa?$AAl?$AAu@ 005a3f68     LIBCMTD:woutputp.obj
 0003:0002e010       ??_C@_1JG@JBJBOCFB@?$AA?$CI?$AA?$CI?$AAp?$AAr?$AAe?$AAc?$AAi?$AAs?$AA_?$AAp?$AAo?$AAs?$AA?5?$AA?$DO?$AA?$DN?$AA?5?$AA0?$AA?$CJ?$AA?5?$AA?$CG?$AA?$CG?$AA?5?$AA?$CI?$AA?$CK?$AAe?$AAn?$AAd?$AA_?$AAp?$AAo?$AAs?$AA?5@ 005a4010     LIBCMTD:woutputp.obj
 0003:0002e0c8       ??_C@_1II@PIPIMLPF@?$AA_?$AAt?$AAv?$AAa?$AAl?$AAi?$AAd?$AAa?$AAt?$AAe?$AA_?$AAp?$AAa?$AAr?$AAa?$AAm?$AA_?$AAr?$AAe?$AAu?$AAs?$AAe?$AA?$CI?$AA?$CG?$AAp?$AAo?$AAs?$AA_?$AAv?$AAa?$AAl?$AAu@ 005a40c8     LIBCMTD:woutputp.obj
 0003:0002e170       ??_C@_1JE@NMBHOLFI@?$AA?$CI?$AA?$CI?$AAw?$AAi?$AAd?$AAt?$AAh?$AA_?$AAp?$AAo?$AAs?$AA?5?$AA?$DO?$AA?$DN?$AA?5?$AA0?$AA?$CJ?$AA?5?$AA?$CG?$AA?$CG?$AA?5?$AA?$CI?$AA?$CK?$AAe?$AAn?$AAd?$AA_?$AAp?$AAo?$AAs?$AA?5?$AA?$DN@ 005a4170     LIBCMTD:woutputp.obj
 0003:0002e228       ??_C@_1JC@PFJNKEIO@?$AA?$CI?$AA?$CI?$AAt?$AAy?$AAp?$AAe?$AA_?$AAp?$AAo?$AAs?$AA?5?$AA?$DO?$AA?$DN?$AA?5?$AA0?$AA?$CJ?$AA?5?$AA?$CG?$AA?$CG?$AA?5?$AA?$CI?$AA?$CK?$AAe?$AAn?$AAd?$AA_?$AAp?$AAo?$AAs?$AA?5?$AA?$DN?$AA?$DN@ 005a4228     LIBCMTD:woutputp.obj
 0003:0002e2d8       ??_C@_1BK@GDEKGMNC@?$AA_?$AAw?$AAo?$AAu?$AAt?$AAp?$AAu?$AAt?$AA_?$AAp?$AA_?$AAl?$AA?$AA@ 005a42d8     LIBCMTD:woutputp.obj
 0003:0002e2f8       ??_C@_1BE@KHFBJMNM@?$AA_?$AAl?$AAs?$AAe?$AAe?$AAk?$AAi?$AA6?$AA4?$AA?$AA@ 005a42f8     LIBCMTD:lseeki64.obj
 0003:0002e310       ??_C@_1BG@NGOGNEMB@?$AAl?$AAs?$AAe?$AAe?$AAk?$AAi?$AA6?$AA4?$AA?4?$AAc?$AA?$AA@ 005a4310     LIBCMTD:lseeki64.obj
 0003:0002e32c       ??_C@_09PKAEMGHJ@_getbuf?4c?$AA@ 005a432c     LIBCMTD:_getbuf.obj
 0003:0002e338       ??_C@_1BE@DJANJIEH@?$AA_?$AAg?$AAe?$AAt?$AAb?$AAu?$AAf?$AA?4?$AAc?$AA?$AA@ 005a4338     LIBCMTD:_getbuf.obj
 0003:0002e350       ??_C@_1BA@LEBDGIHM@?$AA_?$AAi?$AAs?$AAa?$AAt?$AAt?$AAy?$AA?$AA@ 005a4350     LIBCMTD:isatty.obj
 0003:0002e364       ??_C@_1BC@BPJEKAMC@?$AAi?$AAs?$AAa?$AAt?$AAt?$AAy?$AA?4?$AAc?$AA?$AA@ 005a4364     LIBCMTD:isatty.obj
 0003:0002e37c       ??_C@_1BI@IEADNOHF@?$AA_?$AAw?$AAc?$AAt?$AAo?$AAm?$AAb?$AA_?$AAs?$AA_?$AAl?$AA?$AA@ 005a437c     LIBCMTD:wctomb.obj
 0003:0002e398       ??_C@_1BC@KLMMEMGB@?$AAw?$AAc?$AAt?$AAo?$AAm?$AAb?$AA?4?$AAc?$AA?$AA@ 005a4398     LIBCMTD:wctomb.obj
 0003:0002e3b0       ??_C@_1CO@HFMIILNF@?$AAs?$AAi?$AAz?$AAe?$AAI?$AAn?$AAB?$AAy?$AAt?$AAe?$AAs?$AA?5?$AA?$DM?$AA?$DN?$AA?5?$AAI?$AAN?$AAT?$AA_?$AAM?$AAA?$AAX?$AA?$AA@ 005a43b0     LIBCMTD:wctomb.obj
 0003:0002e3e8       ??_C@_1NK@LOFHIHFC@?$AAf?$AAM?$AAo?$AAd?$AAe?$AA?5?$AA?$DN?$AA?$DN?$AA?5?$AA_?$AAC?$AAR?$AAT?$AAD?$AAB?$AAG?$AA_?$AAR?$AAE?$AAP?$AAO?$AAR?$AAT?$AA_?$AAM?$AAO?$AAD?$AAE?$AA?5?$AA?$HM?$AA?$HM?$AA?5@ 005a43e8     LIBCMTD:dbgrptt.obj
 0003:0002e4f0       ??_C@_1CE@FIHIECNJ@?$AA_?$AAC?$AAr?$AAt?$AAS?$AAe?$AAt?$AAR?$AAe?$AAp?$AAo?$AAr?$AAt?$AAM?$AAo?$AAd?$AAe?$AA?$AA@ 005a44f0     LIBCMTD:dbgrptt.obj
 0003:0002e51c       ??_C@_1BE@FLKCNJCI@?$AAd?$AAb?$AAg?$AAr?$AAp?$AAt?$AAt?$AA?4?$AAc?$AA?$AA@ 005a451c     LIBCMTD:dbgrptt.obj
 0003:0002e538       ??_C@_1FA@IFFFOLDJ@?$AAn?$AAR?$AAp?$AAt?$AAT?$AAy?$AAp?$AAe?$AA?5?$AA?$DO?$AA?$DN?$AA?5?$AA0?$AA?5?$AA?$CG?$AA?$CG?$AA?5?$AAn?$AAR?$AAp?$AAt?$AAT?$AAy?$AAp?$AAe?$AA?5?$AA?$DM?$AA?5?$AA_?$AAC?$AAR?$AAT@ 005a4538     LIBCMTD:dbgrptt.obj
 0003:0002e598       ??_C@_1CE@IKKEDCME@?$AA_?$AAC?$AAr?$AAt?$AAS?$AAe?$AAt?$AAR?$AAe?$AAp?$AAo?$AAr?$AAt?$AAF?$AAi?$AAl?$AAe?$AA?$AA@ 005a4598     LIBCMTD:dbgrptt.obj
 0003:0002e5c8       ??_C@_1HO@PJOFIKFE@?$AA_?$AAC?$AAr?$AAt?$AAD?$AAb?$AAg?$AAR?$AAe?$AAp?$AAo?$AAr?$AAt?$AA?3?$AA?5?$AAS?$AAt?$AAr?$AAi?$AAn?$AAg?$AA?5?$AAt?$AAo?$AAo?$AA?5?$AAl?$AAo?$AAn?$AAg?$AA?5?$AAo@ 005a45c8     LIBCMTD:dbgrptt.obj
 0003:0002e660       ??_C@_1MC@IGEECMDB@?$AAw?$AAc?$AAs?$AAc?$AAp?$AAy?$AA_?$AAs?$AA?$CI?$AAs?$AAz?$AAO?$AAu?$AAt?$AAM?$AAe?$AAs?$AAs?$AAa?$AAg?$AAe?$AA2?$AA?0?$AA?5?$AA4?$AA0?$AA9?$AA6?$AA?0?$AA?5?$AAL?$AA?$CC@ 005a4660     LIBCMTD:dbgrptt.obj
 0003:0002e748       ??_C@_1IM@OOKIFKOH@?$AAe?$AA?5?$AA?$DN?$AA?5?$AAm?$AAb?$AAs?$AAt?$AAo?$AAw?$AAc?$AAs?$AA_?$AAs?$AA?$CI?$AA?$CG?$AAr?$AAe?$AAt?$AA?0?$AA?5?$AAs?$AAz?$AAO?$AAu?$AAt?$AAM?$AAe?$AAs?$AAs?$AAa?$AAg@ 005a4748     LIBCMTD:dbgrptt.obj
 0003:0002e7f0       ??_C@_1FI@IBIOIHEG@?$AAs?$AAt?$AAr?$AAc?$AAp?$AAy?$AA_?$AAs?$AA?$CI?$AAs?$AAz?$AAO?$AAu?$AAt?$AAM?$AAe?$AAs?$AAs?$AAa?$AAg?$AAe?$AA?0?$AA?5?$AA4?$AA0?$AA9?$AA6?$AA?0?$AA?5?$AAs?$AAz?$AAL@ 005a47f0     LIBCMTD:dbgrptt.obj
 0003:0002e85c       ??_C@_0M@IPILFDFN@?$CFs?$CI?$CFd?$CJ?5?3?5?$CFs?$AA@ 005a485c     LIBCMTD:dbgrptt.obj
 0003:0002e870       ??_C@_1EI@LDHJEDO@?$AAs?$AAt?$AAr?$AAc?$AAa?$AAt?$AA_?$AAs?$AA?$CI?$AAs?$AAz?$AAL?$AAi?$AAn?$AAe?$AAM?$AAe?$AAs?$AAs?$AAa?$AAg?$AAe?$AA?0?$AA?5?$AA4?$AA0?$AA9?$AA6?$AA?0?$AA?5?$AA?$CC?$AA?2@ 005a4870     LIBCMTD:dbgrptt.obj
 0003:0002e8c8       ??_C@_01LIIJDEN@?$AN?$AA@  005a48c8     LIBCMTD:dbgrptt.obj
 0003:0002e8d0       ??_C@_1EI@CACDLAFK@?$AAs?$AAt?$AAr?$AAc?$AAa?$AAt?$AA_?$AAs?$AA?$CI?$AAs?$AAz?$AAL?$AAi?$AAn?$AAe?$AAM?$AAe?$AAs?$AAs?$AAa?$AAg?$AAe?$AA?0?$AA?5?$AA4?$AA0?$AA9?$AA6?$AA?0?$AA?5?$AA?$CC?$AA?2@ 005a48d0     LIBCMTD:dbgrptt.obj
 0003:0002e928       ??_C@_1FK@NPGBPOFO@?$AAs?$AAt?$AAr?$AAc?$AAa?$AAt?$AA_?$AAs?$AA?$CI?$AAs?$AAz?$AAL?$AAi?$AAn?$AAe?$AAM?$AAe?$AAs?$AAs?$AAa?$AAg?$AAe?$AA?0?$AA?5?$AA4?$AA0?$AA9?$AA6?$AA?0?$AA?5?$AAs?$AAz@ 005a4928     LIBCMTD:dbgrptt.obj
 0003:0002e998       ??_C@_1KK@GIGAEDMO@?$AAs?$AAt?$AAr?$AAc?$AAp?$AAy?$AA_?$AAs?$AA?$CI?$AAs?$AAz?$AAL?$AAi?$AAn?$AAe?$AAM?$AAe?$AAs?$AAs?$AAa?$AAg?$AAe?$AA?0?$AA?5?$AA4?$AA0?$AA9?$AA6?$AA?0?$AA?5?$AAs?$AAz@ 005a4998     LIBCMTD:dbgrptt.obj
 0003:0002ea64       ??_C@_0BD@CAENFOHP@Assertion?5failed?3?5?$AA@ 005a4a64     LIBCMTD:dbgrptt.obj
 0003:0002ea80       ??_C@_1JI@GAALPGBM@?$AAs?$AAt?$AAr?$AAc?$AAp?$AAy?$AA_?$AAs?$AA?$CI?$AAs?$AAz?$AAU?$AAs?$AAe?$AAr?$AAM?$AAe?$AAs?$AAs?$AAa?$AAg?$AAe?$AA?0?$AA?5?$AA4?$AA0?$AA9?$AA6?$AA?0?$AA?5?$AA?$CC?$AA_@ 005a4a80     LIBCMTD:dbgrptt.obj
 0003:0002eb38       ??_C@_07BHGABMGB@?0?5Line?5?$AA@ 005a4b38     LIBCMTD:dbgrptt.obj
 0003:0002eb44       ??_C@_0P@DFJNDPOP@?$DMfile?5unknown?$DO?$AA@ 005a4b44     LIBCMTD:dbgrptt.obj
 0003:0002eb58       ??_C@_0CG@BNGLOCEO@Second?5Chance?5Assertion?5Failed?3?5@ 005a4b58     LIBCMTD:dbgrptt.obj
 0003:0002eb88       ??_C@_1FA@JPHJBHEM@?$AA_?$AAi?$AAt?$AAo?$AAa?$AA_?$AAs?$AA?$CI?$AAn?$AAL?$AAi?$AAn?$AAe?$AA?0?$AA?5?$AAs?$AAz?$AAL?$AAi?$AAn?$AAe?$AAM?$AAe?$AAs?$AAs?$AAa?$AAg?$AAe?$AA?0?$AA?5?$AA4?$AA0@ 005a4b88     LIBCMTD:dbgrptt.obj
 0003:0002ebe8       ??_C@_1CA@KHJHLKA@?$AA_?$AAV?$AAC?$AAr?$AAt?$AAD?$AAb?$AAg?$AAR?$AAe?$AAp?$AAo?$AAr?$AAt?$AAA?$AA?$AA@ 005a4be8     LIBCMTD:dbgrptt.obj
 0003:0002ec10       ??_C@_1IE@CPGKIAGP@?$AAw?$AAc?$AAs?$AAt?$AAo?$AAm?$AAb?$AAs?$AA_?$AAs?$AA?$CI?$AA?$CG?$AAr?$AAe?$AAt?$AA?0?$AA?5?$AAs?$AAz?$AAa?$AAO?$AAu?$AAt?$AAM?$AAe?$AAs?$AAs?$AAa?$AAg?$AAe?$AA?0?$AA?5@ 005a4c10     LIBCMTD:dbgrptt.obj
 0003:0002ecb0       ??_C@_1MA@LBAMNNOB@?$AAs?$AAt?$AAr?$AAc?$AAp?$AAy?$AA_?$AAs?$AA?$CI?$AAs?$AAz?$AAO?$AAu?$AAt?$AAM?$AAe?$AAs?$AAs?$AAa?$AAg?$AAe?$AA2?$AA?0?$AA?5?$AA4?$AA0?$AA9?$AA6?$AA?0?$AA?5?$AA?$CC?$AA_@ 005a4cb0     LIBCMTD:dbgrptt.obj
 0003:0002ed98       ??_C@_1JC@EOAPFDLN@?$AAw?$AAc?$AAs?$AAt?$AAo?$AAm?$AAb?$AAs?$AA_?$AAs?$AA?$CI?$AA?$CI?$AA?$CI?$AAv?$AAo?$AAi?$AAd?$AA?5?$AA?$CK?$AA?$CJ?$AA0?$AA?$CJ?$AA?0?$AA?5?$AAs?$AAz?$AAO?$AAu?$AAt?$AAM?$AAe?$AAs@ 005a4d98     LIBCMTD:dbgrptt.obj
 0003:0002ee48       ??_C@_1FI@DBAIJPJE@?$AAw?$AAc?$AAs?$AAc?$AAp?$AAy?$AA_?$AAs?$AA?$CI?$AAs?$AAz?$AAO?$AAu?$AAt?$AAM?$AAe?$AAs?$AAs?$AAa?$AAg?$AAe?$AA?0?$AA?5?$AA4?$AA0?$AA9?$AA6?$AA?0?$AA?5?$AAs?$AAz?$AAL@ 005a4e48     LIBCMTD:dbgrptt.obj
 0003:0002eeb4       ??_C@_1BI@JIDBEPIG@?$AA?$CF?$AAs?$AA?$CI?$AA?$CF?$AAd?$AA?$CJ?$AA?5?$AA?3?$AA?5?$AA?$CF?$AAs?$AA?$AA@ 005a4eb4     LIBCMTD:dbgrptt.obj
 0003:0002eed0       ??_C@_1EK@PHCBEDKB@?$AAw?$AAc?$AAs?$AAc?$AAa?$AAt?$AA_?$AAs?$AA?$CI?$AAs?$AAz?$AAL?$AAi?$AAn?$AAe?$AAM?$AAe?$AAs?$AAs?$AAa?$AAg?$AAe?$AA?0?$AA?5?$AA4?$AA0?$AA9?$AA6?$AA?0?$AA?5?$AAL?$AA?$CC@ 005a4ed0     LIBCMTD:dbgrptt.obj
 0003:0002ef28       ??_C@_13CMNBPIDO@?$AA?$AN?$AA?$AA@ 005a4f28     LIBCMTD:dbgrptt.obj
 0003:0002ef30       ??_C@_1EK@NMDFGHMF@?$AAw?$AAc?$AAs?$AAc?$AAa?$AAt?$AA_?$AAs?$AA?$CI?$AAs?$AAz?$AAL?$AAi?$AAn?$AAe?$AAM?$AAe?$AAs?$AAs?$AAa?$AAg?$AAe?$AA?0?$AA?5?$AA4?$AA0?$AA9?$AA6?$AA?0?$AA?5?$AAL?$AA?$CC@ 005a4f30     LIBCMTD:dbgrptt.obj
 0003:0002ef88       ??_C@_1FK@HPADHBBD@?$AAw?$AAc?$AAs?$AAc?$AAa?$AAt?$AA_?$AAs?$AA?$CI?$AAs?$AAz?$AAL?$AAi?$AAn?$AAe?$AAM?$AAe?$AAs?$AAs?$AAa?$AAg?$AAe?$AA?0?$AA?5?$AA4?$AA0?$AA9?$AA6?$AA?0?$AA?5?$AAs?$AAz@ 005a4f88     LIBCMTD:dbgrptt.obj
 0003:0002eff8       ??_C@_1KO@DGAHENCH@?$AAw?$AAc?$AAs?$AAc?$AAp?$AAy?$AA_?$AAs?$AA?$CI?$AAs?$AAz?$AAL?$AAi?$AAn?$AAe?$AAM?$AAe?$AAs?$AAs?$AAa?$AAg?$AAe?$AA?0?$AA?5?$AA4?$AA0?$AA9?$AA6?$AA?0?$AA?5?$AAs?$AAz@ 005a4ff8     LIBCMTD:dbgrptt.obj
 0003:0002f0c8       ??_C@_1CG@FFFGGODN@?$AAA?$AAs?$AAs?$AAe?$AAr?$AAt?$AAi?$AAo?$AAn?$AA?5?$AAf?$AAa?$AAi?$AAl?$AAe?$AAd?$AA?3?$AA?5?$AA?$AA@ 005a50c8     LIBCMTD:dbgrptt.obj
 0003:0002f0f8       ??_C@_1JK@KHFABAEO@?$AAw?$AAc?$AAs?$AAc?$AAp?$AAy?$AA_?$AAs?$AA?$CI?$AAs?$AAz?$AAU?$AAs?$AAe?$AAr?$AAM?$AAe?$AAs?$AAs?$AAa?$AAg?$AAe?$AA?0?$AA?5?$AA4?$AA0?$AA9?$AA6?$AA?0?$AA?5?$AAL?$AA?$CC@ 005a50f8     LIBCMTD:dbgrptt.obj
 0003:0002f1b0       ??_C@_1BA@ELMMDCFC@?$AA?0?$AA?5?$AAL?$AAi?$AAn?$AAe?$AA?5?$AA?$AA@ 005a51b0     LIBCMTD:dbgrptt.obj
 0003:0002f1c4       ??_C@_1BO@OCHMLCAG@?$AA?$DM?$AAf?$AAi?$AAl?$AAe?$AA?5?$AAu?$AAn?$AAk?$AAn?$AAo?$AAw?$AAn?$AA?$DO?$AA?$AA@ 005a51c4     LIBCMTD:dbgrptt.obj
 0003:0002f1e8       ??_C@_1EM@MJFLEDMB@?$AAS?$AAe?$AAc?$AAo?$AAn?$AAd?$AA?5?$AAC?$AAh?$AAa?$AAn?$AAc?$AAe?$AA?5?$AAA?$AAs?$AAs?$AAe?$AAr?$AAt?$AAi?$AAo?$AAn?$AA?5?$AAF?$AAa?$AAi?$AAl?$AAe?$AAd?$AA?3?$AA?5@ 005a51e8     LIBCMTD:dbgrptt.obj
 0003:0002f248       ??_C@_1FA@CNLLOMHI@?$AA_?$AAi?$AAt?$AAo?$AAw?$AA_?$AAs?$AA?$CI?$AAn?$AAL?$AAi?$AAn?$AAe?$AA?0?$AA?5?$AAs?$AAz?$AAL?$AAi?$AAn?$AAe?$AAM?$AAe?$AAs?$AAs?$AAa?$AAg?$AAe?$AA?0?$AA?5?$AA4?$AA0@ 005a5248     LIBCMTD:dbgrptt.obj
 0003:0002f2a8       ??_C@_1CA@HPALHDOD@?$AA_?$AAV?$AAC?$AAr?$AAt?$AAD?$AAb?$AAg?$AAR?$AAe?$AAp?$AAo?$AAr?$AAt?$AAW?$AA?$AA@ 005a52a8     LIBCMTD:dbgrptt.obj
 0003:0002f2d0       ??_C@_1BE@BMIJMLDD@?$AA_?$AAs?$AAw?$AAp?$AAr?$AAi?$AAn?$AAt?$AAf?$AA?$AA@ 005a52d0     LIBCMTD:swprintf.obj
 0003:0002f2e8       ??_C@_1BG@CEFLJIIJ@?$AAs?$AAw?$AAp?$AAr?$AAi?$AAn?$AAt?$AAf?$AA?4?$AAc?$AA?$AA@ 005a52e8     LIBCMTD:swprintf.obj
 0003:0002f308       ??_C@_1IK@MHEDJAMK@?$AA_?$AAt?$AAv?$AAa?$AAl?$AAi?$AAd?$AAa?$AAt?$AAe?$AA_?$AAp?$AAa?$AAr?$AAa?$AAm?$AA_?$AAr?$AAe?$AAu?$AAs?$AAe?$AA?$CI?$AA?$CG?$AAp?$AAo?$AAs?$AA_?$AAv?$AAa?$AAl?$AAu@ 005a5308     LIBCMTD:outputp.obj
 0003:0002f3b0       ??_C@_1BI@KANOLAMF@?$AA_?$AAo?$AAu?$AAt?$AAp?$AAu?$AAt?$AA_?$AAp?$AA_?$AAl?$AA?$AA@ 005a53b0     LIBCMTD:outputp.obj
 0003:0002f3d0       ___lookuptable_s           005a53d0     LIBCMTD:outputs.obj
 0003:0002f43c       ??_C@_1BI@COFBLHCG@?$AA_?$AAo?$AAu?$AAt?$AAp?$AAu?$AAt?$AA_?$AAs?$AA_?$AAl?$AA?$AA@ 005a543c     LIBCMTD:outputs.obj
 0003:0002f458       ??_C@_1M@MFLJCMFJ@?$AA_?$AAo?$AAp?$AAe?$AAn?$AA?$AA@ 005a5458     LIBCMTD:open.obj
 0003:0002f468       ??_C@_1O@DGNNHNAF@?$AAo?$AAp?$AAe?$AAn?$AA?4?$AAc?$AA?$AA@ 005a5468     LIBCMTD:open.obj
 0003:0002f478       ??_C@_1BO@DPAOGEII@?$AA?$CI?$AAp?$AAa?$AAt?$AAh?$AA?5?$AA?$CB?$AA?$DN?$AA?5?$AAN?$AAU?$AAL?$AAL?$AA?$CJ?$AA?$AA@ 005a5478     LIBCMTD:open.obj
 0003:0002f4a0       ??_C@_1FG@NFINBJCM@?$AA?$CI?$AA?$CI?$AAp?$AAm?$AAo?$AAd?$AAe?$AA?5?$AA?$CG?$AA?5?$AA?$CI?$AA?$HO?$AA?$CI?$AA_?$AAS?$AA_?$AAI?$AAR?$AAE?$AAA?$AAD?$AA?5?$AA?$HM?$AA?5?$AA_?$AAS?$AA_?$AAI?$AAW?$AAR?$AAI?$AAT@ 005a54a0     LIBCMTD:open.obj
 0003:0002f508       ??_C@_1BM@IOBAMMHO@?$AA_?$AAs?$AAo?$AAp?$AAe?$AAn?$AA_?$AAh?$AAe?$AAl?$AAp?$AAe?$AAr?$AA?$AA@ 005a5508     LIBCMTD:open.obj
 0003:0002f52c       ??_C@_1BM@PGEEHLHE@?$AA?$CI?$AAp?$AAf?$AAh?$AA?5?$AA?$CB?$AA?$DN?$AA?5?$AAN?$AAU?$AAL?$AAL?$AA?$CJ?$AA?$AA@ 005a552c     LIBCMTD:open.obj
 0003:0002f550       ??_C@_1IA@IENOJNJF@?$AA0?$AA?5?$AA?$CG?$AA?$CG?$AA?5?$AA?$CC?$AAO?$AAn?$AAl?$AAy?$AA?5?$AAU?$AAT?$AAF?$AA?9?$AA1?$AA6?$AA?5?$AAl?$AAi?$AAt?$AAt?$AAl?$AAe?$AA?5?$AAe?$AAn?$AAd?$AAi?$AAa?$AAn?$AA?5@ 005a5550     LIBCMTD:open.obj
 0003:0002f5ec       ??_C@_1CM@IDLMKMPG@?$AA0?$AA?5?$AA?$CG?$AA?$CG?$AA?5?$AA?$CC?$AAI?$AAn?$AAt?$AAe?$AAr?$AAn?$AAa?$AAl?$AA?5?$AAE?$AAr?$AAr?$AAo?$AAr?$AA?$CC?$AA?$AA@ 005a55ec     LIBCMTD:open.obj
 0003:0002f620       ??_C@_1HM@GJANBLHJ@?$AA?$CI?$AAo?$AAf?$AAl?$AAa?$AAg?$AA?5?$AA?$CG?$AA?5?$AA?$CI?$AA_?$AAO?$AA_?$AAT?$AAE?$AAX?$AAT?$AA?5?$AA?$HM?$AA?5?$AA_?$AAO?$AA_?$AAW?$AAT?$AAE?$AAX?$AAT?$AA?5?$AA?$HM?$AA?5?$AA_@ 005a5620     LIBCMTD:open.obj
 0003:0002f6b4       ??_C@_1DO@PJLMOANO@?$AA?$CI?$AA?5?$AA?$CC?$AAI?$AAn?$AAv?$AAa?$AAl?$AAi?$AAd?$AA?5?$AAs?$AAh?$AAa?$AAr?$AAi?$AAn?$AAg?$AA?5?$AAf?$AAl?$AAa?$AAg?$AA?$CC?$AA?5?$AA?0?$AA?5?$AA0?$AA?5?$AA?$CJ?$AA?$AA@ 005a56b4     LIBCMTD:open.obj
 0003:0002f700       ??_C@_1DI@DGKIFCCE@?$AA?$CI?$AA?5?$AA?$CC?$AAI?$AAn?$AAv?$AAa?$AAl?$AAi?$AAd?$AA?5?$AAo?$AAp?$AAe?$AAn?$AA?5?$AAf?$AAl?$AAa?$AAg?$AA?$CC?$AA?5?$AA?0?$AA?5?$AA0?$AA?5?$AA?$CJ?$AA?$AA@ 005a5700     LIBCMTD:open.obj
 0003:0002f744       ??_C@_1CG@ICBEBDJJ@?$AA_?$AAg?$AAe?$AAt?$AA_?$AAf?$AAm?$AAo?$AAd?$AAe?$AA?$CI?$AA?$CG?$AAf?$AAm?$AAo?$AAd?$AAe?$AA?$CJ?$AA?$AA@ 005a5744     LIBCMTD:open.obj
 0003:0002f774       ??_C@_1BO@JOPFMPGH@?$AA_?$AAt?$AAs?$AAo?$AAp?$AAe?$AAn?$AA_?$AAn?$AAo?$AAl?$AAo?$AAc?$AAk?$AA?$AA@ 005a5774     LIBCMTD:open.obj
 0003:0002f798       ??_C@_1BG@GBJNMPFA@?$AAs?$AA2?$AA?5?$AA?$CB?$AA?$DN?$AA?5?$AAN?$AAU?$AAL?$AAL?$AA?$AA@ 005a5798     LIBCMTD:mbsicmp.obj
 0003:0002f7b4       ??_C@_1BG@BMDHEPAJ@?$AA_?$AAm?$AAb?$AAs?$AAi?$AAc?$AAm?$AAp?$AA_?$AAl?$AA?$AA@ 005a57b4     LIBCMTD:mbsicmp.obj
 0003:0002f7d0       ??_C@_1BE@JMPFNKJA@?$AAm?$AAb?$AAs?$AAi?$AAc?$AAm?$AAp?$AA?4?$AAc?$AA?$AA@ 005a57d0     LIBCMTD:mbsicmp.obj
 0003:0002f7e8       ??_C@_1BG@MODEICJK@?$AAs?$AA1?$AA?5?$AA?$CB?$AA?$DN?$AA?5?$AAN?$AAU?$AAL?$AAL?$AA?$AA@ 005a57e8     LIBCMTD:mbsicmp.obj
 0003:0002f804       ??_C@_1BI@LPHOHGHI@?$AA_?$AAm?$AAb?$AAs?$AAn?$AAb?$AAc?$AAm?$AAp?$AA_?$AAl?$AA?$AA@ 005a5804     LIBCMTD:mbsnbcmp.obj
 0003:0002f820       ??_C@_1BG@JGCJENML@?$AAm?$AAb?$AAs?$AAn?$AAb?$AAc?$AAm?$AAp?$AA?4?$AAc?$AA?$AA@ 005a5820     LIBCMTD:mbsnbcmp.obj
 0003:0002f83c       ??_C@_09MGNHMPHC@osfinfo?4c?$AA@ 005a583c     LIBCMTD:osfinfo.obj
 0003:0002f848       ??_C@_1BO@EMBOBGKE@?$AA_?$AAg?$AAe?$AAt?$AA_?$AAo?$AAs?$AAf?$AAh?$AAa?$AAn?$AAd?$AAl?$AAe?$AA?$AA@ 005a5848     LIBCMTD:osfinfo.obj
 0003:0002f86c       ??_C@_1BE@MIGAHMPD@?$AAo?$AAs?$AAf?$AAi?$AAn?$AAf?$AAo?$AA?4?$AAc?$AA?$AA@ 005a586c     LIBCMTD:osfinfo.obj
 0003:0002f884       ??_C@_1BA@NGNGNDEP@?$AA_?$AAc?$AAp?$AAu?$AAt?$AAw?$AAs?$AA?$AA@ 005a5884     LIBCMTD:putwch.obj
 0003:0002f898       ??_C@_1BC@HKEJKGAG@?$AAp?$AAu?$AAt?$AAw?$AAc?$AAh?$AA?4?$AAc?$AA?$AA@ 005a5898     LIBCMTD:putwch.obj
 0003:0002f8b0       ??_C@_1BC@MFKEFFNI@?$AAm?$AAb?$AAt?$AAo?$AAw?$AAc?$AA?4?$AAc?$AA?$AA@ 005a58b0     LIBCMTD:mbtowc.obj
 0003:0002f8c8       ??_C@_1NC@EINCOKCO@?$AA_?$AAl?$AAo?$AAc?$AA_?$AAu?$AAp?$AAd?$AAa?$AAt?$AAe?$AA?4?$AAG?$AAe?$AAt?$AAL?$AAo?$AAc?$AAa?$AAl?$AAe?$AAT?$AA?$CI?$AA?$CJ?$AA?9?$AA?$DO?$AAl?$AAo?$AAc?$AAi?$AAn?$AAf@ 005a58c8     LIBCMTD:mbtowc.obj
 0003:0002f9c4       ??_C@_1BK@CDOALEA@?$AA_?$AAc?$AAo?$AAn?$AAt?$AAr?$AAo?$AAl?$AAf?$AAp?$AA_?$AAs?$AA?$AA@ 005a59c4     LIBCMTD:contrlfp.obj
 0003:0002f9e4       ??_C@_1BG@MIJAHIEN@?$AAc?$AAo?$AAn?$AAt?$AAr?$AAl?$AAf?$AAp?$AA?4?$AAc?$AA?$AA@ 005a59e4     LIBCMTD:contrlfp.obj
 0003:0002fa00       ??_C@_1DG@JNDMIEJL@?$AA?$CI?$AA?$CC?$AAI?$AAn?$AAv?$AAa?$AAl?$AAi?$AAd?$AA?5?$AAi?$AAn?$AAp?$AAu?$AAt?$AA?5?$AAv?$AAa?$AAl?$AAu?$AAe?$AA?$CC?$AA?0?$AA?5?$AA0?$AA?$CJ?$AA?$AA@ 005a5a00     LIBCMTD:contrlfp.obj
 0003:0002fa40       ??_C@_1BK@CLIEHFDF@?$AAp?$AAf?$AAl?$AAt?$AA?5?$AA?$CB?$AA?$DN?$AA?5?$AAN?$AAU?$AAL?$AAL?$AA?$AA@ 005a5a40     LIBCMTD:_fptostr.obj
 0003:0002fa60       ??_C@_1GM@CEDLGDDI@?$AAs?$AAi?$AAz?$AAe?$AAI?$AAn?$AAB?$AAy?$AAt?$AAe?$AAs?$AA?5?$AA?$DO?$AA?5?$AA?$CI?$AAs?$AAi?$AAz?$AAe?$AA_?$AAt?$AA?$CJ?$AA?$CI?$AA?$CI?$AAd?$AAi?$AAg?$AAi?$AAt?$AAs?$AA?5?$AA?$DO@ 005a5a60     LIBCMTD:_fptostr.obj
 0003:0002fae4       ??_C@_1BC@OPALLEB@?$AA_?$AAf?$AAp?$AAt?$AAo?$AAs?$AAt?$AAr?$AA?$AA@ 005a5ae4     LIBCMTD:_fptostr.obj
 0003:0002fafc       ??_C@_1BG@NJCNOLI@?$AA_?$AAf?$AAp?$AAt?$AAo?$AAs?$AAt?$AAr?$AA?4?$AAc?$AA?$AA@ 005a5afc     LIBCMTD:_fptostr.obj
 0003:0002fb18       ??_C@_1FK@KODCOBKF@?$AAs?$AAt?$AAr?$AAc?$AAp?$AAy?$AA_?$AAs?$AA?$CI?$AAr?$AAe?$AAs?$AAu?$AAl?$AAt?$AAs?$AAt?$AAr?$AA?0?$AA?5?$AAr?$AAe?$AAs?$AAu?$AAl?$AAt?$AAs?$AAi?$AAz?$AAe?$AA?0?$AA?5@ 005a5b18     LIBCMTD:cfout.obj
 0003:0002fb84       ??_C@_1BC@BPMMEHLK@?$AA_?$AAf?$AAl?$AAt?$AAo?$AAu?$AAt?$AA2?$AA?$AA@ 005a5b84     LIBCMTD:cfout.obj
 0003:0002fb9c       ??_C@_1BA@BFLFHCE@?$AAc?$AAf?$AAo?$AAu?$AAt?$AA?4?$AAc?$AA?$AA@ 005a5b9c     LIBCMTD:cfout.obj
 0003:0002fbb0       ??_C@_1CG@EBJECAJM@?$AA_?$AAs?$AAe?$AAt?$AA_?$AAo?$AAu?$AAt?$AAp?$AAu?$AAt?$AA_?$AAf?$AAo?$AAr?$AAm?$AAa?$AAt?$AA?$AA@ 005a5bb0     LIBCMTD:outputformat.obj
 0003:0002fbe0       ??_C@_1BO@GAIJFBKM@?$AAo?$AAu?$AAt?$AAp?$AAu?$AAt?$AAf?$AAo?$AAr?$AAm?$AAa?$AAt?$AA?4?$AAc?$AA?$AA@ 005a5be0     LIBCMTD:outputformat.obj
 0003:0002fc08       ??_C@_1EM@EGEEBJLG@?$AA?$CI?$AAo?$AAp?$AAt?$AAi?$AAo?$AAn?$AAs?$AA?5?$AA?$CG?$AA?5?$AA?$HO?$AA_?$AAT?$AAW?$AAO?$AA_?$AAD?$AAI?$AAG?$AAI?$AAT?$AA_?$AAE?$AAX?$AAP?$AAO?$AAN?$AAE?$AAN?$AAT?$AA?$CJ@ 005a5c08     LIBCMTD:outputformat.obj
 0003:0002fc64       ??_C@_1CC@HBLPFNKH@?$AA?$CI?$AAc?$AAn?$AAt?$AA?5?$AA?$DM?$AA?$DN?$AA?5?$AAI?$AAN?$AAT?$AA_?$AAM?$AAA?$AAX?$AA?$CJ?$AA?$AA@ 005a5c64     LIBCMTD:read.obj
 0003:0002fc8c       ??_C@_1M@NHJOLLDM@?$AA_?$AAr?$AAe?$AAa?$AAd?$AA?$AA@ 005a5c8c     LIBCMTD:read.obj
 0003:0002fc9c       ??_C@_1O@OLAFBHGM@?$AAr?$AAe?$AAa?$AAd?$AA?4?$AAc?$AA?$AA@ 005a5c9c     LIBCMTD:read.obj
 0003:0002fcac       ??_C@_06CNEIBCEN@read?4c?$AA@ 005a5cac     LIBCMTD:read.obj
 0003:0002fcb4       ??_C@_1CG@OHLJHGGK@?$AA?$CI?$AAi?$AAn?$AAp?$AAu?$AAt?$AAb?$AAu?$AAf?$AA?5?$AA?$CB?$AA?$DN?$AA?5?$AAN?$AAU?$AAL?$AAL?$AA?$CJ?$AA?$AA@ 005a5cb4     LIBCMTD:read.obj
 0003:0002fce4       ??_C@_1BK@JJBHNDKJ@?$AA_?$AAr?$AAe?$AAa?$AAd?$AA_?$AAn?$AAo?$AAl?$AAo?$AAc?$AAk?$AA?$AA@ 005a5ce4     LIBCMTD:read.obj
 0003:0002fd04       ??_C@_1BE@NDMJHJJG@?$AAs?$AAt?$AAr?$AAn?$AAc?$AAp?$AAy?$AA_?$AAs?$AA?$AA@ 005a5d04     LIBCMTD:strncpy_s.obj
 0003:0002fd20       ___newctype                005a5d20     LIBCMTD:ctype.obj
 0003:00030020       __wctype                   005a6020     LIBCMTD:ctype.obj
 0003:00030228       ___newclmap                005a6228     LIBCMTD:ctype.obj
 0003:000303a8       ___newcumap                005a63a8     LIBCMTD:ctype.obj
 0003:000306c4       ??_C@_1BG@HHBAFOPB@?$AAi?$AAn?$AAi?$AAt?$AAt?$AAi?$AAm?$AAe?$AA?4?$AAc?$AA?$AA@ 005a66c4     LIBCMTD:inittime.obj
 0003:000306e0       ??_C@_1EE@FDHCFDHN@?$AAp?$AAl?$AAo?$AAc?$AAi?$AA?9?$AA?$DO?$AAl?$AAc?$AA_?$AAt?$AAi?$AAm?$AAe?$AA_?$AAc?$AAu?$AAr?$AAr?$AA?9?$AA?$DO?$AAr?$AAe?$AAf?$AAc?$AAo?$AAu?$AAn?$AAt?$AA?5?$AA?$DO?$AA?5@ 005a66e0     LIBCMTD:inittime.obj
 0003:00030734       ??_C@_0L@IOJADHBB@inittime?4c?$AA@ 005a6734     LIBCMTD:inittime.obj
 0003:00030744       ??_C@_1BE@EAFFGEEO@?$AAi?$AAn?$AAi?$AAt?$AAn?$AAu?$AAm?$AA?4?$AAc?$AA?$AA@ 005a6744     LIBCMTD:initnum.obj
 0003:0003075c       ??_C@_1DM@IFKAINNE@?$AAp?$AAl?$AAo?$AAc?$AAi?$AA?9?$AA?$DO?$AAl?$AAc?$AAo?$AAn?$AAv?$AA_?$AAn?$AAu?$AAm?$AA_?$AAr?$AAe?$AAf?$AAc?$AAo?$AAu?$AAn?$AAt?$AA?5?$AA?$DO?$AA?5?$AA0?$AA?$AA@ 005a675c     LIBCMTD:initnum.obj
 0003:000307a4       ??_C@_09MECGNAGI@initnum?4c?$AA@ 005a67a4     LIBCMTD:initnum.obj
 0003:000307b0       ??_C@_1BE@IJMIKAHM@?$AAi?$AAn?$AAi?$AAt?$AAm?$AAo?$AAn?$AA?4?$AAc?$AA?$AA@ 005a67b0     LIBCMTD:initmon.obj
 0003:000307c8       ??_C@_1DM@GKAPAMDO@?$AAp?$AAl?$AAo?$AAc?$AAi?$AA?9?$AA?$DO?$AAl?$AAc?$AAo?$AAn?$AAv?$AA_?$AAm?$AAo?$AAn?$AA_?$AAr?$AAe?$AAf?$AAc?$AAo?$AAu?$AAn?$AAt?$AA?5?$AA?$DO?$AA?5?$AA0?$AA?$AA@ 005a67c8     LIBCMTD:initmon.obj
 0003:00030810       ??_C@_09HKFHICAL@initmon?4c?$AA@ 005a6810     LIBCMTD:initmon.obj
 0003:0003081c       ??_C@_1DG@NMBGBDM@?$AAp?$AAl?$AAo?$AAc?$AAi?$AA?9?$AA?$DO?$AAc?$AAt?$AAy?$AAp?$AAe?$AA1?$AA_?$AAr?$AAe?$AAf?$AAc?$AAo?$AAu?$AAn?$AAt?$AA?5?$AA?$DO?$AA?5?$AA0?$AA?$AA@ 005a681c     LIBCMTD:initctyp.obj
 0003:0003085c       ??_C@_1BG@PMMGDKJC@?$AAi?$AAn?$AAi?$AAt?$AAc?$AAt?$AAy?$AAp?$AA?4?$AAc?$AA?$AA@ 005a685c     LIBCMTD:initctyp.obj
 0003:00030878       ??_C@_0L@GBAGBCPL@initctyp?4c?$AA@ 005a6878     LIBCMTD:initctyp.obj
 0003:00030888       ??_C@_08JCCMCCIL@HH?3mm?3ss?$AA@ 005a6888     LIBCMTD:strftime.obj
 0003:00030894       ??_C@_0BE@CKGJFCPC@dddd?0?5MMMM?5dd?0?5yyyy?$AA@ 005a6894     LIBCMTD:strftime.obj
 0003:000308ac       ??_C@_08BPBNCDIB@MM?1dd?1yy?$AA@ 005a68ac     LIBCMTD:strftime.obj
 0003:000308b8       ??_C@_02CJNFDJBF@PM?$AA@   005a68b8     LIBCMTD:strftime.obj
 0003:000308bc       ??_C@_02DEDBPAFC@AM?$AA@   005a68bc     LIBCMTD:strftime.obj
 0003:000308c0       ??_C@_08EDHMEBNP@December?$AA@ 005a68c0     LIBCMTD:strftime.obj
 0003:000308cc       ??_C@_08HCHEGEOA@November?$AA@ 005a68cc     LIBCMTD:strftime.obj
 0003:000308d8       ??_C@_07JJNFCEND@October?$AA@ 005a68d8     LIBCMTD:strftime.obj
 0003:000308e4       ??_C@_09BHHEALKD@September?$AA@ 005a68e4     LIBCMTD:strftime.obj
 0003:000308f0       ??_C@_06LBBHFDDG@August?$AA@ 005a68f0     LIBCMTD:strftime.obj
 0003:000308f8       ??_C@_04MIEPOIFP@July?$AA@ 005a68f8     LIBCMTD:strftime.obj
 0003:00030900       ??_C@_04CNLMGBGM@June?$AA@ 005a6900     LIBCMTD:strftime.obj
 0003:00030908       ??_C@_05DMJDNLEJ@April?$AA@ 005a6908     LIBCMTD:strftime.obj
 0003:00030910       ??_C@_05HPCKOFNC@March?$AA@ 005a6910     LIBCMTD:strftime.obj
 0003:00030918       ??_C@_08GNJGEPFN@February?$AA@ 005a6918     LIBCMTD:strftime.obj
 0003:00030924       ??_C@_07CGJPFGJA@January?$AA@ 005a6924     LIBCMTD:strftime.obj
 0003:00030930       ??_C@_03MKABNOCG@Dec?$AA@  005a6930     LIBCMTD:strftime.obj
 0003:00030934       ??_C@_03JPJOFNIA@Nov?$AA@  005a6934     LIBCMTD:strftime.obj
 0003:00030938       ??_C@_03BMAOKBAD@Oct?$AA@  005a6938     LIBCMTD:strftime.obj
 0003:0003093c       ??_C@_03GGCAPAJC@Sep?$AA@  005a693c     LIBCMTD:strftime.obj
 0003:00030940       ??_C@_03IFJFEIGA@Aug?$AA@  005a6940     LIBCMTD:strftime.obj
 0003:00030944       ??_C@_03LBGABGKK@Jul?$AA@  005a6944     LIBCMTD:strftime.obj
 0003:00030948       ??_C@_03IDFGHECI@Jun?$AA@  005a6948     LIBCMTD:strftime.obj
 0003:0003094c       ??_C@_03CNMDKL@May?$AA@    005a694c     LIBCMTD:strftime.obj
 0003:00030950       ??_C@_03LEOLGMJP@Apr?$AA@  005a6950     LIBCMTD:strftime.obj
 0003:00030954       ??_C@_03ODNJBKGA@Mar?$AA@  005a6954     LIBCMTD:strftime.obj
 0003:00030958       ??_C@_03HJBDCHOM@Feb?$AA@  005a6958     LIBCMTD:strftime.obj
 0003:0003095c       ??_C@_03JIHJHPIE@Jan?$AA@  005a695c     LIBCMTD:strftime.obj
 0003:00030960       ??_C@_08INBOOONO@Saturday?$AA@ 005a6960     LIBCMTD:strftime.obj
 0003:0003096c       ??_C@_06JECMNKMI@Friday?$AA@ 005a696c     LIBCMTD:strftime.obj
 0003:00030974       ??_C@_08HACCIKIA@Thursday?$AA@ 005a6974     LIBCMTD:strftime.obj
 0003:00030980       ??_C@_09DLIGFAKA@Wednesday?$AA@ 005a6980     LIBCMTD:strftime.obj
 0003:0003098c       ??_C@_07BAAGCFCM@Tuesday?$AA@ 005a698c     LIBCMTD:strftime.obj
 0003:00030998       ??_C@_06JLEDEDGH@Monday?$AA@ 005a6998     LIBCMTD:strftime.obj
 0003:000309a0       ??_C@_06OOPIFAJ@Sunday?$AA@ 005a69a0     LIBCMTD:strftime.obj
 0003:000309a8       ??_C@_1FM@LPEPDBJF@?$AAs?$AAt?$AAr?$AAc?$AAp?$AAy?$AA_?$AAs?$AA?$CI?$AAs?$AA?0?$AA?5?$AA?$CI?$AAl?$AAe?$AAn?$AA?5?$AA?$CL?$AA?5?$AA1?$AA?$CJ?$AA?5?$AA?9?$AA?5?$AA?$CI?$AAs?$AA?5?$AA?9?$AA?5?$AAp?$AA?$CJ?$AA?0@ 005a69a8     LIBCMTD:strftime.obj
 0003:00030a18       ??_C@_1GG@NAGHPCAA@?$AAs?$AAt?$AAr?$AAc?$AAp?$AAy?$AA_?$AAs?$AA?$CI?$AAs?$AA?0?$AA?5?$AA?$CI?$AAl?$AAe?$AAn?$AA?5?$AA?$CL?$AA?5?$AA1?$AA?$CJ?$AA?5?$AA?9?$AA?5?$AA?$CI?$AAs?$AA?5?$AA?9?$AA?5?$AAp?$AA?$CJ?$AA?0@ 005a6a18     LIBCMTD:strftime.obj
 0003:00030a94       ??_C@_1BG@LGACIFJI@?$AA_?$AAG?$AAe?$AAt?$AAd?$AAa?$AAy?$AAs?$AA_?$AAl?$AA?$AA@ 005a6a94     LIBCMTD:strftime.obj
 0003:00030ab0       ??_C@_1BG@EMNEMEKA@?$AAs?$AAt?$AAr?$AAf?$AAt?$AAi?$AAm?$AAe?$AA?4?$AAc?$AA?$AA@ 005a6ab0     LIBCMTD:strftime.obj
 0003:00030acc       ??_C@_0L@OCEOFAIF@strftime?4c?$AA@ 005a6acc     LIBCMTD:strftime.obj
 0003:00030ae0       ??_C@_1FO@IFFKPIEL@?$AAs?$AAt?$AAr?$AAc?$AAp?$AAy?$AA_?$AAs?$AA?$CI?$AAs?$AA?0?$AA?5?$AA?$CI?$AAl?$AAe?$AAn?$AA?5?$AA?$CL?$AA?5?$AA1?$AA?$CJ?$AA?5?$AA?9?$AA?5?$AA?$CI?$AAs?$AA?5?$AA?9?$AA?5?$AAp?$AA?$CJ?$AA?0@ 005a6ae0     LIBCMTD:strftime.obj
 0003:00030b50       ??_C@_1GI@LNJDDNLK@?$AAs?$AAt?$AAr?$AAc?$AAp?$AAy?$AA_?$AAs?$AA?$CI?$AAs?$AA?0?$AA?5?$AA?$CI?$AAl?$AAe?$AAn?$AA?5?$AA?$CL?$AA?5?$AA1?$AA?$CJ?$AA?5?$AA?9?$AA?5?$AA?$CI?$AAs?$AA?5?$AA?9?$AA?5?$AAp?$AA?$CJ?$AA?0@ 005a6b50     LIBCMTD:strftime.obj
 0003:00030bcc       ??_C@_1BK@IDMELNCB@?$AA_?$AAG?$AAe?$AAt?$AAm?$AAo?$AAn?$AAt?$AAh?$AAs?$AA_?$AAl?$AA?$AA@ 005a6bcc     LIBCMTD:strftime.obj
 0003:00030bf0       ??_C@_1FG@CJBIADLJ@?$AAs?$AAt?$AAr?$AAc?$AAp?$AAy?$AA_?$AAs?$AA?$CI?$AAs?$AA?0?$AA?5?$AAl?$AAe?$AAn?$AA?5?$AA?9?$AA?5?$AA?$CI?$AAs?$AA?5?$AA?9?$AA?5?$AAp?$AA?$CJ?$AA?0?$AA?5?$AAp?$AAt?$AA?9?$AA?$DO?$AAw@ 005a6bf0     LIBCMTD:strftime.obj
 0003:00030c58       ??_C@_1FI@PPIHCJGH@?$AAs?$AAt?$AAr?$AAc?$AAp?$AAy?$AA_?$AAs?$AA?$CI?$AAs?$AA?0?$AA?5?$AAl?$AAe?$AAn?$AA?5?$AA?9?$AA?5?$AA?$CI?$AAs?$AA?5?$AA?9?$AA?5?$AAp?$AA?$CJ?$AA?0?$AA?5?$AAp?$AAt?$AA?9?$AA?$DO?$AAw@ 005a6c58     LIBCMTD:strftime.obj
 0003:00030cc8       ??_C@_1FI@GDNOPCGD@?$AAs?$AAt?$AAr?$AAc?$AAp?$AAy?$AA_?$AAs?$AA?$CI?$AAs?$AA?0?$AA?5?$AAl?$AAe?$AAn?$AA?5?$AA?9?$AA?5?$AA?$CI?$AAs?$AA?5?$AA?9?$AA?5?$AAp?$AA?$CJ?$AA?0?$AA?5?$AAp?$AAt?$AA?9?$AA?$DO?$AAw@ 005a6cc8     LIBCMTD:strftime.obj
 0003:00030d38       ??_C@_1FA@MEHIJEIL@?$AAs?$AAt?$AAr?$AAc?$AAp?$AAy?$AA_?$AAs?$AA?$CI?$AAs?$AA?0?$AA?5?$AAl?$AAe?$AAn?$AA?5?$AA?9?$AA?5?$AA?$CI?$AAs?$AA?5?$AA?9?$AA?5?$AAp?$AA?$CJ?$AA?0?$AA?5?$AAp?$AAt?$AA?9?$AA?$DO?$AAa@ 005a6d38     LIBCMTD:strftime.obj
 0003:00030d98       ??_C@_1FA@INCJEBF@?$AAs?$AAt?$AAr?$AAc?$AAp?$AAy?$AA_?$AAs?$AA?$CI?$AAs?$AA?0?$AA?5?$AAl?$AAe?$AAn?$AA?5?$AA?9?$AA?5?$AA?$CI?$AAs?$AA?5?$AA?9?$AA?5?$AAp?$AA?$CJ?$AA?0?$AA?5?$AAp?$AAt?$AA?9?$AA?$DO?$AAa@ 005a6d98     LIBCMTD:strftime.obj
 0003:00030df8       ??_C@_1FC@BEAPAEGE@?$AAs?$AAt?$AAr?$AAc?$AAp?$AAy?$AA_?$AAs?$AA?$CI?$AAs?$AA?0?$AA?5?$AAl?$AAe?$AAn?$AA?5?$AA?9?$AA?5?$AA?$CI?$AAs?$AA?5?$AA?9?$AA?5?$AAp?$AA?$CJ?$AA?0?$AA?5?$AAp?$AAt?$AA?9?$AA?$DO?$AAm@ 005a6df8     LIBCMTD:strftime.obj
 0003:00030e60       ??_C@_1FM@CHHONFED@?$AAs?$AAt?$AAr?$AAc?$AAp?$AAy?$AA_?$AAs?$AA?$CI?$AAs?$AA?0?$AA?5?$AAl?$AAe?$AAn?$AA?5?$AA?9?$AA?5?$AA?$CI?$AAs?$AA?5?$AA?9?$AA?5?$AAp?$AA?$CJ?$AA?0?$AA?5?$AAp?$AAt?$AA?9?$AA?$DO?$AAm@ 005a6e60     LIBCMTD:strftime.obj
 0003:00030ed0       ??_C@_1FA@EBHJJADL@?$AAs?$AAt?$AAr?$AAc?$AAp?$AAy?$AA_?$AAs?$AA?$CI?$AAs?$AA?0?$AA?5?$AAl?$AAe?$AAn?$AA?5?$AA?9?$AA?5?$AA?$CI?$AAs?$AA?5?$AA?9?$AA?5?$AAp?$AA?$CJ?$AA?0?$AA?5?$AAp?$AAt?$AA?9?$AA?$DO?$AAw@ 005a6ed0     LIBCMTD:strftime.obj
 0003:00030f30       ??_C@_1FK@ODMKEFLD@?$AAs?$AAt?$AAr?$AAc?$AAp?$AAy?$AA_?$AAs?$AA?$CI?$AAs?$AA?0?$AA?5?$AAl?$AAe?$AAn?$AA?5?$AA?9?$AA?5?$AA?$CI?$AAs?$AA?5?$AA?9?$AA?5?$AAp?$AA?$CJ?$AA?0?$AA?5?$AAp?$AAt?$AA?9?$AA?$DO?$AAw@ 005a6f30     LIBCMTD:strftime.obj
 0003:00030f9c       ??_C@_1BK@MJNHIAGO@?$AA_?$AAG?$AAe?$AAt?$AAt?$AAn?$AAa?$AAm?$AAe?$AAs?$AA_?$AAl?$AA?$AA@ 005a6f9c     LIBCMTD:strftime.obj
 0003:00030fbc       ??_C@_1M@HCOOECOK@?$AAF?$AAA?$AAL?$AAS?$AAE?$AA?$AA@ 005a6fbc     LIBCMTD:strftime.obj
 0003:00030fd0       ??_C@_1HC@JGDOBCNK@?$AA?$CI?$AA?$CC?$AAI?$AAn?$AAv?$AAa?$AAl?$AAi?$AAd?$AA?5?$AAM?$AAB?$AAC?$AAS?$AA?5?$AAc?$AAh?$AAa?$AAr?$AAa?$AAc?$AAt?$AAe?$AAr?$AA?5?$AAs?$AAe?$AAq?$AAu?$AAe?$AAn?$AAc@ 005a6fd0     LIBCMTD:strftime.obj
 0003:00031058       ??_C@_1BG@CCBNLOOI@?$AAt?$AAi?$AAm?$AAe?$AAp?$AAt?$AAr?$AA?$CB?$AA?$DN?$AA0?$AA?$AA@ 005a7058     LIBCMTD:strftime.obj
 0003:00031074       ??_C@_1CG@MHIOFJLE@?$AA?$CI?$AA?5?$AAf?$AAo?$AAr?$AAm?$AAa?$AAt?$AA?5?$AA?$CB?$AA?$DN?$AA?5?$AAN?$AAU?$AAL?$AAL?$AA?5?$AA?$CJ?$AA?$AA@ 005a7074     LIBCMTD:strftime.obj
 0003:000310a4       ??_C@_1CC@IHEJKGMG@?$AA?$CI?$AA?5?$AAm?$AAa?$AAx?$AAs?$AAi?$AAz?$AAe?$AA?5?$AA?$CB?$AA?$DN?$AA?5?$AA0?$AA?5?$AA?$CJ?$AA?$AA@ 005a70a4     LIBCMTD:strftime.obj
 0003:000310cc       ??_C@_1BI@ONBMGNNA@?$AA_?$AAS?$AAt?$AAr?$AAf?$AAt?$AAi?$AAm?$AAe?$AA_?$AAl?$AA?$AA@ 005a70cc     LIBCMTD:strftime.obj
 0003:000310e8       ??_C@_1CG@MPKJHDAA@?$AA?$CI?$AA?5?$AAs?$AAt?$AAr?$AAi?$AAn?$AAg?$AA?5?$AA?$CB?$AA?$DN?$AA?5?$AAN?$AAU?$AAL?$AAL?$AA?5?$AA?$CJ?$AA?$AA@ 005a70e8     LIBCMTD:strftime.obj
 0003:00031118       ??_C@_1EG@JNJKHKFI@?$AA?$CI?$AA?5?$AA?$CC?$AAI?$AAn?$AAv?$AAa?$AAl?$AAi?$AAd?$AA?5?$AAf?$AAo?$AAr?$AAm?$AAa?$AAt?$AA?5?$AAd?$AAi?$AAr?$AAe?$AAc?$AAt?$AAi?$AAv?$AAe?$AA?$CC?$AA?5?$AA?0?$AA?5?$AA0@ 005a7118     LIBCMTD:strftime.obj
 0003:00031170       ??_C@_1HM@LBNGKIAD@?$AA?$CI?$AA?5?$AAt?$AAi?$AAm?$AAe?$AAp?$AAt?$AAr?$AA?9?$AA?$DO?$AAt?$AAm?$AA_?$AAy?$AAe?$AAa?$AAr?$AA?5?$AA?$DO?$AA?$DN?$AA?5?$AA?9?$AA1?$AA9?$AA0?$AA0?$AA?5?$AA?$CJ?$AA?5?$AA?$CG?$AA?$CG@ 005a7170     LIBCMTD:strftime.obj
 0003:00031204       ??_C@_1DC@NMCFBMJP@?$AA?$CI?$AA?5?$AAt?$AAi?$AAm?$AAe?$AAp?$AAt?$AAr?$AA?9?$AA?$DO?$AAt?$AAm?$AA_?$AAy?$AAe?$AAa?$AAr?$AA?5?$AA?$DO?$AA?$DN?$AA0?$AA?5?$AA?$CJ?$AA?$AA@ 005a7204     LIBCMTD:strftime.obj
 0003:00031240       ??_C@_1HC@HLKHIKOB@?$AA?$CI?$AA?5?$AA?$CI?$AA?5?$AAt?$AAi?$AAm?$AAe?$AAp?$AAt?$AAr?$AA?9?$AA?$DO?$AAt?$AAm?$AA_?$AAs?$AAe?$AAc?$AA?5?$AA?$DO?$AA?$DN?$AA0?$AA?5?$AA?$CJ?$AA?5?$AA?$CG?$AA?$CG?$AA?5?$AA?$CI?$AA?5?$AAt@ 005a7240     LIBCMTD:strftime.obj
 0003:000312c8       ??_C@_1HC@IGKDPPHL@?$AA?$CI?$AA?5?$AA?$CI?$AA?5?$AAt?$AAi?$AAm?$AAe?$AAp?$AAt?$AAr?$AA?9?$AA?$DO?$AAt?$AAm?$AA_?$AAm?$AAi?$AAn?$AA?5?$AA?$DO?$AA?$DN?$AA0?$AA?5?$AA?$CJ?$AA?5?$AA?$CG?$AA?$CG?$AA?5?$AA?$CI?$AA?5?$AAt@ 005a72c8     LIBCMTD:strftime.obj
 0003:00031350       ??_C@_1HI@HHCJCPE@?$AA?$CI?$AA?5?$AA?$CI?$AA?5?$AAt?$AAi?$AAm?$AAe?$AAp?$AAt?$AAr?$AA?9?$AA?$DO?$AAt?$AAm?$AA_?$AAy?$AAd?$AAa?$AAy?$AA?5?$AA?$DO?$AA?$DN?$AA0?$AA?5?$AA?$CJ?$AA?5?$AA?$CG?$AA?$CG?$AA?5?$AA?$CI?$AA?5@ 005a7350     LIBCMTD:strftime.obj
 0003:000313e0       ??_C@_1HG@KCGGFLNI@?$AA?$CI?$AA?5?$AA?$CI?$AA?5?$AAt?$AAi?$AAm?$AAe?$AAp?$AAt?$AAr?$AA?9?$AA?$DO?$AAt?$AAm?$AA_?$AAh?$AAo?$AAu?$AAr?$AA?5?$AA?$DO?$AA?$DN?$AA0?$AA?5?$AA?$CJ?$AA?5?$AA?$CG?$AA?$CG?$AA?5?$AA?$CI?$AA?5@ 005a73e0     LIBCMTD:strftime.obj
 0003:00031470       ??_C@_1HG@NFHHOAD@?$AA?$CI?$AA?5?$AA?$CI?$AA?5?$AAt?$AAi?$AAm?$AAe?$AAp?$AAt?$AAr?$AA?9?$AA?$DO?$AAt?$AAm?$AA_?$AAm?$AAd?$AAa?$AAy?$AA?5?$AA?$DO?$AA?$DN?$AA1?$AA?5?$AA?$CJ?$AA?5?$AA?$CG?$AA?$CG?$AA?5?$AA?$CI?$AA?5@ 005a7470     LIBCMTD:strftime.obj
 0003:00031500       ??_C@_1HC@OOAMILFB@?$AA?$CI?$AA?5?$AA?$CI?$AA?5?$AAt?$AAi?$AAm?$AAe?$AAp?$AAt?$AAr?$AA?9?$AA?$DO?$AAt?$AAm?$AA_?$AAm?$AAo?$AAn?$AA?5?$AA?$DO?$AA?$DN?$AA0?$AA?5?$AA?$CJ?$AA?5?$AA?$CG?$AA?$CG?$AA?5?$AA?$CI?$AA?5?$AAt@ 005a7500     LIBCMTD:strftime.obj
 0003:00031588       ??_C@_1BI@HBKPAJH@?$AA_?$AAe?$AAx?$AAp?$AAa?$AAn?$AAd?$AAt?$AAi?$AAm?$AAe?$AA?$AA@ 005a7588     LIBCMTD:strftime.obj
 0003:000315a8       ??_C@_1HE@BFLEOKFO@?$AA?$CI?$AA?5?$AA?$CI?$AA?5?$AAt?$AAi?$AAm?$AAe?$AAp?$AAt?$AAr?$AA?9?$AA?$DO?$AAt?$AAm?$AA_?$AAw?$AAd?$AAa?$AAy?$AA?5?$AA?$DO?$AA?$DN?$AA0?$AA?5?$AA?$CJ?$AA?5?$AA?$CG?$AA?$CG?$AA?5?$AA?$CI?$AA?5@ 005a75a8     LIBCMTD:strftime.obj
 0003:00031638       ??_C@_1HG@PAEENAPO@?$AA?$CI?$AA?$CC?$AAI?$AAn?$AAv?$AAa?$AAl?$AAi?$AAd?$AA?5?$AAM?$AAB?$AAC?$AAS?$AA?5?$AAc?$AAh?$AAa?$AAr?$AAa?$AAc?$AAt?$AAe?$AAr?$AA?5?$AAs?$AAe?$AAq?$AAu?$AAe?$AAn?$AAc@ 005a7638     LIBCMTD:strftime.obj
 0003:000316c8       ??_C@_1IE@EIDABBDG@?$AA?$CI?$AA?$CC?$AAI?$AAn?$AAv?$AAa?$AAl?$AAi?$AAd?$AA?5?$AAM?$AAB?$AAC?$AAS?$AA?5?$AAc?$AAh?$AAa?$AAr?$AAa?$AAc?$AAt?$AAe?$AAr?$AA?5?$AAs?$AAe?$AAq?$AAu?$AAe?$AAn?$AAc@ 005a76c8     LIBCMTD:strftime.obj
 0003:00031768       ??_C@_03EBAPMIKO@a?1p?$AA@ 005a7768     LIBCMTD:strftime.obj
 0003:0003176c       ??_C@_05JAMEPDIN@am?1pm?$AA@ 005a776c     LIBCMTD:strftime.obj
 0003:00031774       ??_C@_0O@FMJNFNKE@united?9states?$AA@ 005a7774     LIBCMTD:getqloc.obj
 0003:00031784       ??_C@_0P@NDHFFKCA@united?9kingdom?$AA@ 005a7784     LIBCMTD:getqloc.obj
 0003:00031798       ??_C@_0BC@HHDADLGF@trinidad?5?$CG?5tobago?$AA@ 005a7798     LIBCMTD:getqloc.obj
 0003:000317b0       ??_C@_0M@IOAEBDAC@south?9korea?$AA@ 005a77b0     LIBCMTD:getqloc.obj
 0003:000317c0       ??_C@_0N@FIELFKIJ@south?9africa?$AA@ 005a77c0     LIBCMTD:getqloc.obj
 0003:000317d0       ??_C@_0M@OPNDHCMC@south?5korea?$AA@ 005a77d0     LIBCMTD:getqloc.obj
 0003:000317e0       ??_C@_0N@MDEOEPFI@south?5africa?$AA@ 005a77e0     LIBCMTD:getqloc.obj
 0003:000317f0       ??_C@_06FKAPCJLB@slovak?$AA@ 005a77f0     LIBCMTD:getqloc.obj
 0003:000317f8       ??_C@_0M@EFJANOAL@puerto?9rico?$AA@ 005a77f8     LIBCMTD:getqloc.obj
 0003:00031808       ??_C@_08PGOJKDAI@pr?9china?$AA@ 005a7808     LIBCMTD:getqloc.obj
 0003:00031814       ??_C@_08JHDOMCMI@pr?5china?$AA@ 005a7814     LIBCMTD:getqloc.obj
 0003:00031820       ??_C@_02JHCHFBLL@nz?$AA@   005a7820     LIBCMTD:getqloc.obj
 0003:00031824       ??_C@_0M@LINHDHKP@new?9zealand?$AA@ 005a7824     LIBCMTD:getqloc.obj
 0003:00031834       ??_C@_09IIIPPBDB@hong?9kong?$AA@ 005a7834     LIBCMTD:getqloc.obj
 0003:00031840       ??_C@_07HJLCKBG@holland?$AA@ 005a7840     LIBCMTD:getqloc.obj
 0003:0003184c       ??_C@_0O@LEHGMHAG@great?5britain?$AA@ 005a784c     LIBCMTD:getqloc.obj
 0003:0003185c       ??_C@_07FACOMELA@england?$AA@ 005a785c     LIBCMTD:getqloc.obj
 0003:00031868       ??_C@_05JIHCEICB@czech?$AA@ 005a7868     LIBCMTD:getqloc.obj
 0003:00031870       ??_C@_05BBJOBLGB@china?$AA@ 005a7870     LIBCMTD:getqloc.obj
 0003:00031878       ??_C@_07GPKPHICP@britain?$AA@ 005a7878     LIBCMTD:getqloc.obj
 0003:00031884       ??_C@_07MHIPBHMG@america?$AA@ 005a7884     LIBCMTD:getqloc.obj
 0003:00031890       ??_C@_03KIALPMKC@usa?$AA@  005a7890     LIBCMTD:getqloc.obj
 0003:00031894       ??_C@_02FGJGKGGD@us?$AA@   005a7894     LIBCMTD:getqloc.obj
 0003:00031898       ??_C@_02NEINDODK@uk?$AA@   005a7898     LIBCMTD:getqloc.obj
 0003:0003189c       ??_C@_05JMPCFJFJ@swiss?$AA@ 005a789c     LIBCMTD:getqloc.obj
 0003:000318a4       ??_C@_0BA@HLOCPIOD@swedish?9finland?$AA@ 005a78a4     LIBCMTD:getqloc.obj
 0003:000318b8       ??_C@_0BC@PKCNIABK@spanish?9venezuela?$AA@ 005a78b8     LIBCMTD:getqloc.obj
 0003:000318d0       ??_C@_0BA@GBHHMIJI@spanish?9uruguay?$AA@ 005a78d0     LIBCMTD:getqloc.obj
 0003:000318e4       ??_C@_0BE@BHDOHPMC@spanish?9puerto?5rico?$AA@ 005a78e4     LIBCMTD:getqloc.obj
 0003:000318fc       ??_C@_0N@KMOIDGGN@spanish?9peru?$AA@ 005a78fc     LIBCMTD:getqloc.obj
 0003:0003190c       ??_C@_0BB@HMHLPGPH@spanish?9paraguay?$AA@ 005a790c     LIBCMTD:getqloc.obj
 0003:00031920       ??_C@_0P@MCPKNGFD@spanish?9panama?$AA@ 005a7920     LIBCMTD:getqloc.obj
 0003:00031934       ??_C@_0BC@IHOHGAIL@spanish?9nicaragua?$AA@ 005a7934     LIBCMTD:getqloc.obj
 0003:0003194c       ??_C@_0P@KLMJDNFJ@spanish?9modern?$AA@ 005a794c     LIBCMTD:getqloc.obj
 0003:00031960       ??_C@_0BA@BPAPGBCM@spanish?9mexican?$AA@ 005a7960     LIBCMTD:getqloc.obj
 0003:00031974       ??_C@_0BB@PDECHHHE@spanish?9honduras?$AA@ 005a7974     LIBCMTD:getqloc.obj
 0003:00031988       ??_C@_0BC@KLHKFGDB@spanish?9guatemala?$AA@ 005a7988     LIBCMTD:getqloc.obj
 0003:000319a0       ??_C@_0BE@MFOOKJAI@spanish?9el?5salvador?$AA@ 005a79a0     LIBCMTD:getqloc.obj
 0003:000319b8       ??_C@_0BA@FCOKFPFC@spanish?9ecuador?$AA@ 005a79b8     LIBCMTD:getqloc.obj
 0003:000319cc       ??_C@_0BL@PLMGIMOO@spanish?9dominican?5republic?$AA@ 005a79cc     LIBCMTD:getqloc.obj
 0003:000319ec       ??_C@_0BD@HLGDNMHB@spanish?9costa?5rica?$AA@ 005a79ec     LIBCMTD:getqloc.obj
 0003:00031a04       ??_C@_0BB@PKCBKCPE@spanish?9colombia?$AA@ 005a7a04     LIBCMTD:getqloc.obj
 0003:00031a18       ??_C@_0O@MCBIJGNE@spanish?9chile?$AA@ 005a7a18     LIBCMTD:getqloc.obj
 0003:00031a28       ??_C@_0BA@BEFEIGJJ@spanish?9bolivia?$AA@ 005a7a28     LIBCMTD:getqloc.obj
 0003:00031a3c       ??_C@_0BC@EMECMPD@spanish?9argentina?$AA@ 005a7a3c     LIBCMTD:getqloc.obj
 0003:00031a54       ??_C@_0BF@EALFLENP@portuguese?9brazilian?$AA@ 005a7a54     LIBCMTD:getqloc.obj
 0003:00031a70       ??_C@_0BC@HBLEBLNN@norwegian?9nynorsk?$AA@ 005a7a70     LIBCMTD:getqloc.obj
 0003:00031a88       ??_C@_0BB@HMACDDCK@norwegian?9bokmal?$AA@ 005a7a88     LIBCMTD:getqloc.obj
 0003:00031a9c       ??_C@_09BAFFPPHE@norwegian?$AA@ 005a7a9c     LIBCMTD:getqloc.obj
 0003:00031aa8       ??_C@_0O@EAJFJDFG@italian?9swiss?$AA@ 005a7aa8     LIBCMTD:getqloc.obj
 0003:00031ab8       ??_C@_0O@CNOMPGD@irish?9english?$AA@ 005a7ab8     LIBCMTD:getqloc.obj
 0003:00031ac8       ??_C@_0N@EDHBGCKG@german?9swiss?$AA@ 005a7ac8     LIBCMTD:getqloc.obj
 0003:00031ad8       ??_C@_0BC@JACMHNBP@german?9luxembourg?$AA@ 005a7ad8     LIBCMTD:getqloc.obj
 0003:00031af0       ??_C@_0BE@HBGMGFEG@german?9lichtenstein?$AA@ 005a7af0     LIBCMTD:getqloc.obj
 0003:00031b08       ??_C@_0BA@HKKBIBKL@german?9austrian?$AA@ 005a7b08     LIBCMTD:getqloc.obj
 0003:00031b1c       ??_C@_0N@GCAEPEBK@french?9swiss?$AA@ 005a7b1c     LIBCMTD:getqloc.obj
 0003:00031b2c       ??_C@_0BC@DJFJJCK@french?9luxembourg?$AA@ 005a7b2c     LIBCMTD:getqloc.obj
 0003:00031b44       ??_C@_0BA@NNCEDFIC@french?9canadian?$AA@ 005a7b44     LIBCMTD:getqloc.obj
 0003:00031b58       ??_C@_0P@CMPOCLM@french?9belgian?$AA@ 005a7b58     LIBCMTD:getqloc.obj
 0003:00031b6c       ??_C@_0M@GHHDJOK@english?9usa?$AA@ 005a7b6c     LIBCMTD:getqloc.obj
 0003:00031b7c       ??_C@_0L@PLDJKEIL@english?9us?$AA@ 005a7b7c     LIBCMTD:getqloc.obj
 0003:00031b8c       ??_C@_0L@HJCCDMNC@english?9uk?$AA@ 005a7b8c     LIBCMTD:getqloc.obj
 0003:00031b9c       ??_C@_0BK@CKLIAGJB@english?9trinidad?5y?5tobago?$AA@ 005a7b9c     LIBCMTD:getqloc.obj
 0003:00031bbc       ??_C@_0BF@JMJMGNNF@english?9south?5africa?$AA@ 005a7bbc     LIBCMTD:getqloc.obj
 0003:00031bd8       ??_C@_0L@DKIIFDFD@english?9nz?$AA@ 005a7bd8     LIBCMTD:getqloc.obj
 0003:00031be8       ??_C@_0BA@ONHGJCLH@english?9jamaica?$AA@ 005a7be8     LIBCMTD:getqloc.obj
 0003:00031bfc       ??_C@_0M@HJBGHOPO@english?9ire?$AA@ 005a7bfc     LIBCMTD:getqloc.obj
 0003:00031c0c       ??_C@_0BC@LFEKMIFB@english?9caribbean?$AA@ 005a7c0c     LIBCMTD:getqloc.obj
 0003:00031c24       ??_C@_0M@OLDPFKHI@english?9can?$AA@ 005a7c24     LIBCMTD:getqloc.obj
 0003:00031c34       ??_C@_0P@OMDEHBMP@english?9belize?$AA@ 005a7c34     LIBCMTD:getqloc.obj
 0003:00031c48       ??_C@_0M@KFHFPFED@english?9aus?$AA@ 005a7c48     LIBCMTD:getqloc.obj
 0003:00031c58       ??_C@_0BB@MNMBKDFE@english?9american?$AA@ 005a7c58     LIBCMTD:getqloc.obj
 0003:00031c6c       ??_C@_0O@KIDLNNBA@dutch?9belgian?$AA@ 005a7c6c     LIBCMTD:getqloc.obj
 0003:00031c7c       ??_C@_0BE@JBKABBMH@chinese?9traditional?$AA@ 005a7c7c     LIBCMTD:getqloc.obj
 0003:00031c94       ??_C@_0BC@MJJMPKCG@chinese?9singapore?$AA@ 005a7c94     LIBCMTD:getqloc.obj
 0003:00031cac       ??_C@_0BD@FDKADDCP@chinese?9simplified?$AA@ 005a7cac     LIBCMTD:getqloc.obj
 0003:00031cc4       ??_C@_0BB@DBEFDDME@chinese?9hongkong?$AA@ 005a7cc4     LIBCMTD:getqloc.obj
 0003:00031cd8       ??_C@_07DHNMFMCI@chinese?$AA@ 005a7cd8     LIBCMTD:getqloc.obj
 0003:00031ce4       ??_C@_03FNDDCHI@chi?$AA@   005a7ce4     LIBCMTD:getqloc.obj
 0003:00031ce8       ??_C@_03BMMIADDJ@chh?$AA@  005a7ce8     LIBCMTD:getqloc.obj
 0003:00031cec       ??_C@_08OAIPJDGI@canadian?$AA@ 005a7cec     LIBCMTD:getqloc.obj
 0003:00031cf8       ??_C@_07HBPMNPNJ@belgian?$AA@ 005a7cf8     LIBCMTD:getqloc.obj
 0003:00031d04       ??_C@_0L@OEKOPBEL@australian?$AA@ 005a7d04     LIBCMTD:getqloc.obj
 0003:00031d14       ??_C@_0BB@MEIMBEDG@american?9english?$AA@ 005a7d14     LIBCMTD:getqloc.obj
 0003:00031d28       ??_C@_0BB@DFMDPDGB@american?5english?$AA@ 005a7d28     LIBCMTD:getqloc.obj
 0003:00031d3c       ??_C@_08IJLOKOLL@american?$AA@ 005a7d3c     LIBCMTD:getqloc.obj
 0003:00031d48       ___rg_language             005a7d48     LIBCMTD:getqloc.obj
 0003:00031fb8       ___rg_country              005a7fb8     LIBCMTD:getqloc.obj
 0003:00032094       ___rglangidNotDefault      005a8094     LIBCMTD:getqloc.obj
 0003:000320ac       ??_C@_0BC@NFIEMBLL@Norwegian?9Nynorsk?$AA@ 005a80ac     LIBCMTD:getqloc.obj
 0003:000320c8       ??_C@_1OM@OECHDGCF@?$AAs?$AAt?$AAr?$AAc?$AAp?$AAy?$AA_?$AAs?$AA?$CI?$AAl?$AAp?$AAO?$AAu?$AAt?$AAS?$AAt?$AAr?$AA?9?$AA?$DO?$AAs?$AAz?$AAL?$AAa?$AAn?$AAg?$AAu?$AAa?$AAg?$AAe?$AA?0?$AA?5?$AA?$CI@ 005a80c8     LIBCMTD:getqloc.obj
 0003:000321e4       ??_C@_1CO@NJACLALJ@?$AA_?$AA_?$AAg?$AAe?$AAt?$AA_?$AAq?$AAu?$AAa?$AAl?$AAi?$AAf?$AAi?$AAe?$AAd?$AA_?$AAl?$AAo?$AAc?$AAa?$AAl?$AAe?$AA?$AA@ 005a81e4     LIBCMTD:getqloc.obj
 0003:0003221c       ??_C@_1BE@GIJNDGB@?$AAg?$AAe?$AAt?$AAq?$AAl?$AAo?$AAc?$AA?4?$AAc?$AA?$AA@ 005a821c     LIBCMTD:getqloc.obj
 0003:00032234       ??_C@_03NFKLAGEF@OCP?$AA@  005a8234     LIBCMTD:getqloc.obj
 0003:00032238       ??_C@_03DFHEHBHG@ACP?$AA@  005a8238     LIBCMTD:getqloc.obj
 0003:0003223c       ??_C@_0L@KBNGFDKM@convrtcp?4c?$AA@ 005a823c     LIBCMTD:convrtcp.obj
 0003:0003224c       ??_C@_1O@HJNPHHHB@?$AAf?$AAp?$AAu?$AAt?$AAw?$AAc?$AA?$AA@ 005a824c     LIBCMTD:fputwc.obj
 0003:0003225c       ??_C@_1BC@LJHBJFMP@?$AAf?$AAp?$AAu?$AAt?$AAw?$AAc?$AA?4?$AAc?$AA?$AA@ 005a825c     LIBCMTD:fputwc.obj
 0003:00032274       ??_C@_1BM@BENFBNLI@?$AA_?$AAm?$AAb?$AAs?$AAn?$AAb?$AAc?$AAa?$AAt?$AA_?$AAs?$AA_?$AAl?$AA?$AA@ 005a8274     LIBCMTD:mbsnbcat_s_l.obj
 0003:00032298       ??_C@_1GK@LCCDCHEO@?$AAF?$AA?3?$AA?2?$AAS?$AAP?$AA?2?$AAv?$AAc?$AAt?$AAo?$AAo?$AAl?$AAs?$AA?2?$AAc?$AAr?$AAt?$AA_?$AAb?$AAl?$AAd?$AA?2?$AAS?$AAE?$AAL?$AAF?$AA_?$AAX?$AA8?$AA6?$AA?2?$AAc@ 005a8298     LIBCMTD:mbsnbcat_s_l.obj
 0003:00032318       ??_C@_1BM@HBMHMBEM@?$AA_?$AAm?$AAb?$AAs?$AAn?$AAb?$AAc?$AAp?$AAy?$AA_?$AAs?$AA_?$AAl?$AA?$AA@ 005a8318     LIBCMTD:mbsnbcpy_s_l.obj
 0003:00032340       ??_C@_1GK@HKJIIPOO@?$AAF?$AA?3?$AA?2?$AAS?$AAP?$AA?2?$AAv?$AAc?$AAt?$AAo?$AAo?$AAl?$AAs?$AA?2?$AAc?$AAr?$AAt?$AA_?$AAb?$AAl?$AAd?$AA?2?$AAS?$AAE?$AAL?$AAF?$AA_?$AAX?$AA8?$AA6?$AA?2?$AAc@ 005a8340     LIBCMTD:mbsnbcpy_s_l.obj
 0003:000323c0       ??_C@_1CA@OEHMHBJF@?$AAv?$AAf?$AAp?$AAr?$AAi?$AAn?$AAt?$AAf?$AA_?$AAh?$AAe?$AAl?$AAp?$AAe?$AAr?$AA?$AA@ 005a83c0     LIBCMTD:vfprintf.obj
 0003:000323e8       ??_C@_1BG@OKHDPPCK@?$AAv?$AAf?$AAp?$AAr?$AAi?$AAn?$AAt?$AAf?$AA?4?$AAc?$AA?$AA@ 005a83e8     LIBCMTD:vfprintf.obj
 0003:00032404       ??_C@_1BA@PCFLFGNC@?$AAw?$AAc?$AAs?$AAt?$AAo?$AAx?$AAl?$AA?$AA@ 005a8404     LIBCMTD:wcstol.obj
 0003:00032418       ??_C@_1BC@KCPEGNFM@?$AAw?$AAc?$AAs?$AAt?$AAo?$AAl?$AA?4?$AAc?$AA?$AA@ 005a8418     LIBCMTD:wcstol.obj
 0003:00032430       ??_C@_0BO@GNIAFIKK@Unknown?5Runtime?5Check?5Error?6?$AN?$AA@ 005a8430     LIBCMTD:error.obj
 0003:00032454       ??_C@_0CM@NGINOKPC@Stack?5memory?5around?5_alloca?5was?5@ 005a8454     LIBCMTD:error.obj
 0003:00032488       ??_C@_0DG@HKJMLLLP@A?5local?5variable?5was?5used?5before@ 005a8488     LIBCMTD:error.obj
 0003:000324c8       ??_C@_0BN@FFOINMNJ@Stack?5memory?5was?5corrupted?6?$AN?$AA@ 005a84c8     LIBCMTD:error.obj
 0003:000324f0       ??_C@_0BBN@GPMLNJCF@A?5cast?5to?5a?5smaller?5data?5type?5ha@ 005a84f0     LIBCMTD:error.obj
 0003:00032648       ??_C@_0NN@NGPKDKPD@The?5value?5of?5ESP?5was?5not?5properl@ 005a8648     LIBCMTD:error.obj
 0003:000327f4       ??_C@_0CA@IODNCDPG@Run?9Time?5Check?5Failure?5?$CD?$CFd?5?9?5?$CFs?$AA@ 005a87f4     LIBCMTD:error.obj
 0003:0003281c       ??_C@_0BE@GNBOBNCK@Unknown?5Module?5Name?$AA@ 005a881c     LIBCMTD:error.obj
 0003:00032834       ??_C@_0BB@PFFGGCJP@Unknown?5Filename?$AA@ 005a8834     LIBCMTD:error.obj
 0003:00032848       ??_C@_1EA@NFKNIFJP@?$AAR?$AAu?$AAn?$AA?9?$AAT?$AAi?$AAm?$AAe?$AA?5?$AAC?$AAh?$AAe?$AAc?$AAk?$AA?5?$AAF?$AAa?$AAi?$AAl?$AAu?$AAr?$AAe?$AA?5?$AA?$CD?$AA?$CF?$AAd?$AA?5?$AA?9?$AA?5?$AA?$CF?$AAs?$AA?$AA@ 005a8848     LIBCMTD:error.obj
 0003:00032898       ??_C@_1GM@OLMCBDMB@?$AAR?$AAu?$AAn?$AAt?$AAi?$AAm?$AAe?$AA?5?$AAC?$AAh?$AAe?$AAc?$AAk?$AA?5?$AAE?$AAr?$AAr?$AAo?$AAr?$AA?4?$AA?6?$AA?$AN?$AA?5?$AAU?$AAn?$AAa?$AAb?$AAl?$AAe?$AA?5?$AAt?$AAo@ 005a8898     LIBCMTD:error.obj
 0003:0003291c       ??_C@_0CG@IAFNJNEE@Stack?5corrupted?5near?5unknown?5var@ 005a891c     LIBCMTD:error.obj
 0003:00032950       ??_C@_0EJ@LJKNEOLN@Stack?5area?5around?5_alloca?5memory@ 005a8950     LIBCMTD:error.obj
 0003:000329a8       ??_C@_02LLMPMKNF@?$DO?5?$AA@ 005a89a8     LIBCMTD:error.obj
 0003:000329ac       ??_C@_0BC@KIBAILCI@?$CFs?$CFs?$CFp?$CFs?$CFld?$CFs?$CFd?$CFs?$AA@ 005a89ac     LIBCMTD:error.obj
 0003:000329c8       ??_C@_0EI@CLEPFNGI@Stack?5area?5around?5_alloca?5memory@ 005a89c8     LIBCMTD:error.obj
 0003:00032a20       ??_C@_0N@MHFFIMFG@?6Address?3?50x?$AA@ 005a8a20     LIBCMTD:error.obj
 0003:00032a30       ??_C@_07DFDJCKFN@?6Size?3?5?$AA@ 005a8a30     LIBCMTD:error.obj
 0003:00032a3c       ??_C@_0CK@DKGBICFE@?6Allocation?5number?5within?5this?5f@ 005a8a3c     LIBCMTD:error.obj
 0003:00032a70       ??_C@_08OMAHNMHJ@?6Data?3?5?$DM?$AA@ 005a8a70     LIBCMTD:error.obj
 0003:00032a7c       ??_C@_09FOPFMPEJ@wsprintfA?$AA@ 005a8a7c     LIBCMTD:error.obj
 0003:00032a88       ??_C@_0L@GMPLCCII@user32?4dll?$AA@ 005a8a88     LIBCMTD:error.obj
 0003:00032a98       ??_C@_0DE@OHJBPMBP@A?5variable?5is?5being?5used?5without@ 005a8a98     LIBCMTD:error.obj
 0003:00032ad8       ??_C@_1CG@JEHFHLNG@?$AA_?$AAm?$AAb?$AAs?$AAt?$AAo?$AAw?$AAc?$AAs?$AA_?$AAl?$AA_?$AAh?$AAe?$AAl?$AAp?$AAe?$AAr?$AA?$AA@ 005a8ad8     LIBCMTD:mbstowcs.obj
 0003:00032b08       ??_C@_1BG@KMBPFIPB@?$AAm?$AAb?$AAs?$AAt?$AAo?$AAw?$AAc?$AAs?$AA?4?$AAc?$AA?$AA@ 005a8b08     LIBCMTD:mbstowcs.obj
 0003:00032b24       ??_C@_1BE@EEKACIGI@?$AAs?$AA?5?$AA?$CB?$AA?$DN?$AA?5?$AAN?$AAU?$AAL?$AAL?$AA?$AA@ 005a8b24     LIBCMTD:mbstowcs.obj
 0003:00032b3c       ??_C@_1CO@JNPEPJAL@?$AAr?$AAe?$AAt?$AAs?$AAi?$AAz?$AAe?$AA?5?$AA?$DM?$AA?$DN?$AA?5?$AAs?$AAi?$AAz?$AAe?$AAI?$AAn?$AAW?$AAo?$AAr?$AAd?$AAs?$AA?$AA@ 005a8b3c     LIBCMTD:mbstowcs.obj
 0003:00032b74       ??_C@_1BM@PHENIGHD@?$AA_?$AAm?$AAb?$AAs?$AAt?$AAo?$AAw?$AAc?$AAs?$AA_?$AAs?$AA_?$AAl?$AA?$AA@ 005a8b74     LIBCMTD:mbstowcs.obj
 0003:00032b98       ??_C@_1JA@JKDFMOPO@?$AA?$CI?$AAp?$AAw?$AAc?$AAs?$AA?5?$AA?$DN?$AA?$DN?$AA?5?$AAN?$AAU?$AAL?$AAL?$AA?5?$AA?$CG?$AA?$CG?$AA?5?$AAs?$AAi?$AAz?$AAe?$AAI?$AAn?$AAW?$AAo?$AAr?$AAd?$AAs?$AA?5?$AA?$DN?$AA?$DN?$AA?5@ 005a8b98     LIBCMTD:mbstowcs.obj
 0003:00032c44       ??_C@_1BK@EPLNBKAK@?$AA_?$AAv?$AAs?$AAw?$AAp?$AAr?$AAi?$AAn?$AAt?$AAf?$AA_?$AAl?$AA?$AA@ 005a8c44     LIBCMTD:vswprint.obj
 0003:00032c64       ??_C@_1BG@BELBGCGO@?$AAv?$AAs?$AAw?$AAp?$AAr?$AAi?$AAn?$AAt?$AA?4?$AAc?$AA?$AA@ 005a8c64     LIBCMTD:vswprint.obj
 0003:00032c80       ??_C@_1CG@IMMIEPNA@?$AA_?$AAv?$AAs?$AAc?$AAw?$AAp?$AAr?$AAi?$AAn?$AAt?$AAf?$AA_?$AAh?$AAe?$AAl?$AAp?$AAe?$AAr?$AA?$AA@ 005a8c80     LIBCMTD:vswprint.obj
 0003:00032cb0       ??_C@_1BI@GALBKMKE@?$AA?$CI?$AAs?$AAi?$AAz?$AAe?$AA?5?$AA?$DO?$AA?$DN?$AA?5?$AA0?$AA?$CJ?$AA?$AA@ 005a8cb0     LIBCMTD:chsize.obj
 0003:00032ccc       ??_C@_1BE@MAFDNGED@?$AA_?$AAc?$AAh?$AAs?$AAi?$AAz?$AAe?$AA_?$AAs?$AA?$AA@ 005a8ccc     LIBCMTD:chsize.obj
 0003:00032ce4       ??_C@_1BC@JBFLHAGK@?$AAc?$AAh?$AAs?$AAi?$AAz?$AAe?$AA?4?$AAc?$AA?$AA@ 005a8ce4     LIBCMTD:chsize.obj
 0003:00032cfc       ??_C@_1O@EDOIKGHF@?$AA_?$AAl?$AAs?$AAe?$AAe?$AAk?$AA?$AA@ 005a8cfc     LIBCMTD:lseek.obj
 0003:00032d0c       ??_C@_1BA@FKCCIBB@?$AAl?$AAs?$AAe?$AAe?$AAk?$AA?4?$AAc?$AA?$AA@ 005a8d0c     LIBCMTD:lseek.obj
 0003:00032d20       ??_C@_1DM@LMLOLGJ@?$AA?$CI?$AA?$CC?$AAI?$AAn?$AAv?$AAa?$AAl?$AAi?$AAd?$AA?5?$AAf?$AAi?$AAl?$AAe?$AA?5?$AAd?$AAe?$AAs?$AAc?$AAr?$AAi?$AAp?$AAt?$AAo?$AAr?$AA?$CC?$AA?0?$AA0?$AA?$CJ?$AA?$AA@ 005a8d20     LIBCMTD:lseek.obj
 0003:00032d68       ??_C@_1BC@JBGGJDCM@?$AA_?$AAs?$AAe?$AAt?$AAm?$AAo?$AAd?$AAe?$AA?$AA@ 005a8d68     LIBCMTD:setmode.obj
 0003:00032d80       ??_C@_1BE@KNPEBONM@?$AAs?$AAe?$AAt?$AAm?$AAo?$AAd?$AAe?$AA?4?$AAc?$AA?$AA@ 005a8d80     LIBCMTD:setmode.obj
 0003:00032d98       ??_C@_1OA@HGPJIFPM@?$AA?$CI?$AA?$CI?$AAm?$AAo?$AAd?$AAe?$AA?5?$AA?$DN?$AA?$DN?$AA?5?$AA_?$AAO?$AA_?$AAT?$AAE?$AAX?$AAT?$AA?$CJ?$AA?5?$AA?$HM?$AA?$HM?$AA?5?$AA?$CI?$AAm?$AAo?$AAd?$AAe?$AA?5?$AA?$DN?$AA?$DN?$AA?5?$AA_@ 005a8d98     LIBCMTD:setmode.obj
 0003:00032ea4       ??_C@_1BG@IEEHLOCL@?$AA_?$AAs?$AAe?$AAt?$AA_?$AAf?$AAm?$AAo?$AAd?$AAe?$AA?$AA@ 005a8ea4     LIBCMTD:setmode.obj
 0003:00032ec0       ??_C@_1IC@NDCJMLB@?$AA?$CI?$AA?$CI?$AAm?$AAo?$AAd?$AAe?$AA?5?$AA?$DN?$AA?$DN?$AA?5?$AA_?$AAO?$AA_?$AAT?$AAE?$AAX?$AAT?$AA?$CJ?$AA?5?$AA?$HM?$AA?$HM?$AA?5?$AA?$CI?$AAm?$AAo?$AAd?$AAe?$AA?5?$AA?$DN?$AA?$DN?$AA?5?$AA_@ 005a8ec0     LIBCMTD:setmode.obj
 0003:00032f5c       ??_C@_1BG@CKGMPOFH@?$AA_?$AAg?$AAe?$AAt?$AA_?$AAf?$AAm?$AAo?$AAd?$AAe?$AA?$AA@ 005a8f5c     LIBCMTD:setmode.obj
 0003:00032f78       ??_C@_1CA@GPIGPPFN@?$AA?$CI?$AAp?$AAM?$AAo?$AAd?$AAe?$AA?5?$AA?$CB?$AA?$DN?$AA?5?$AAN?$AAU?$AAL?$AAL?$AA?$CJ?$AA?$AA@ 005a8f78     LIBCMTD:setmode.obj
 0003:00032fa0       ??_C@_06GDENEHCP@CONIN$?$AA@ 005a8fa0     LIBCMTD:initcon.obj
 0003:00032fa8       ??_C@_07GPDNMNG@CONOUT$?$AA@ 005a8fa8     LIBCMTD:initcon.obj
 0003:00032fb4       ??_C@_0P@GHFPNOJB@bad?5allocation?$AA@ 005a8fb4     LIBCMTD:frame.obj
 0003:00032fc8       __pDestructExceptionObject 005a8fc8     LIBCMTD:frame.obj
 0003:00032fcc       ??_C@_0O@DPKOEFFH@bad?5exception?$AA@ 005a8fcc     LIBCMTD:frame.obj
 0003:00032fe0       ??_7bad_exception@std@@6B@ 005a8fe0     LIBCMTD:frame.obj
 0003:00032fec       ?commonFlags@?1??_control87@@9@9 005a8fec     LIBCMTD:ieee87.obj
 0003:00032ff0       ??_C@_1GO@OKJGOMCB@?$AA_?$AAc?$AAo?$AAn?$AAt?$AAr?$AAo?$AAl?$AAf?$AAp?$AA_?$AAs?$AA?$CI?$AA?$CI?$AA?$CI?$AAv?$AAo?$AAi?$AAd?$AA?5?$AA?$CK?$AA?$CJ?$AA0?$AA?$CJ?$AA?0?$AA?5?$AAn?$AAe?$AAw?$AAc?$AAt?$AAr@ 005a8ff0     LIBCMTD:ieee87.obj
 0003:00033074       ??_C@_1BO@OFDNCLL@?$AA_?$AAs?$AAe?$AAt?$AA_?$AAc?$AAo?$AAn?$AAt?$AAr?$AAo?$AAl?$AAf?$AAp?$AA?$AA@ 005a9074     LIBCMTD:ieee87.obj
 0003:00033098       ??_C@_1BM@PNOCKIGC@?$AAi?$AA3?$AA8?$AA6?$AA?2?$AAi?$AAe?$AAe?$AAe?$AA8?$AA7?$AA?4?$AAc?$AA?$AA@ 005a9098     LIBCMTD:ieee87.obj
 0003:000330bc       ??_C@_1BO@IHLJHOPI@?$AA_?$AA_?$AAs?$AAt?$AAr?$AAg?$AAt?$AAo?$AAl?$AAd?$AA1?$AA2?$AA_?$AAl?$AA?$AA@ 005a90bc     LIBCMTD:strgtold.obj
 0003:000330e0       ??_C@_1DE@JLGAJID@?$AA?4?$AA?4?$AA?1?$AAi?$AAn?$AAc?$AAl?$AAu?$AAd?$AAe?$AA?2?$AAs?$AAt?$AAr?$AAg?$AAt?$AAo?$AAl?$AAd?$AA1?$AA2?$AA?4?$AAi?$AAn?$AAl?$AA?$AA@ 005a90e0     LIBCMTD:strgtold.obj
 0003:00033120       ??_C@_1CA@MBDBOHIB@?$AA_?$AAL?$AAo?$AAc?$AAa?$AAl?$AAe?$AA?5?$AA?$CB?$AA?$DN?$AA?5?$AAN?$AAU?$AAL?$AAL?$AA?$AA@ 005a9120     LIBCMTD:strgtold.obj
 0003:00033148       ??_C@_06IMKFLFPG@1?$CDQNAN?$AA@ 005a9148     LIBCMTD:x10fout.obj
 0003:00033150       ??_C@_1EG@MCFPJJEM@?$AAs?$AAt?$AAr?$AAc?$AAp?$AAy?$AA_?$AAs?$AA?$CI?$AAf?$AAo?$AAs?$AA?9?$AA?$DO?$AAm?$AAa?$AAn?$AA?0?$AA?5?$AA2?$AA1?$AA?$CL?$AA1?$AA?0?$AA?5?$AA?$CC?$AA1?$AA?$CD?$AAQ?$AAN?$AAA?$AAN@ 005a9150     LIBCMTD:x10fout.obj
 0003:000331a4       ??_C@_05DNEBIAHO@1?$CDINF?$AA@ 005a91a4     LIBCMTD:x10fout.obj
 0003:000331b0       ??_C@_1EE@ICBBBPAI@?$AAs?$AAt?$AAr?$AAc?$AAp?$AAy?$AA_?$AAs?$AA?$CI?$AAf?$AAo?$AAs?$AA?9?$AA?$DO?$AAm?$AAa?$AAn?$AA?0?$AA?5?$AA2?$AA1?$AA?$CL?$AA1?$AA?0?$AA?5?$AA?$CC?$AA1?$AA?$CD?$AAI?$AAN?$AAF?$AA?$CC@ 005a91b0     LIBCMTD:x10fout.obj
 0003:00033204       ??_C@_05PHHOCPM@1?$CDIND?$AA@ 005a9204     LIBCMTD:x10fout.obj
 0003:00033210       ??_C@_1EE@MADEBIHF@?$AAs?$AAt?$AAr?$AAc?$AAp?$AAy?$AA_?$AAs?$AA?$CI?$AAf?$AAo?$AAs?$AA?9?$AA?$DO?$AAm?$AAa?$AAn?$AA?0?$AA?5?$AA2?$AA1?$AA?$CL?$AA1?$AA?0?$AA?5?$AA?$CC?$AA1?$AA?$CD?$AAI?$AAN?$AAD?$AA?$CC@ 005a9210     LIBCMTD:x10fout.obj
 0003:00033264       ??_C@_06PGGFOGJG@1?$CDSNAN?$AA@ 005a9264     LIBCMTD:x10fout.obj
 0003:00033270       ??_C@_1EG@CDDBFNOB@?$AAs?$AAt?$AAr?$AAc?$AAp?$AAy?$AA_?$AAs?$AA?$CI?$AAf?$AAo?$AAs?$AA?9?$AA?$DO?$AAm?$AAa?$AAn?$AA?0?$AA?5?$AA2?$AA1?$AA?$CL?$AA1?$AA?0?$AA?5?$AA?$CC?$AA1?$AA?$CD?$AAS?$AAN?$AAA?$AAN@ 005a9270     LIBCMTD:x10fout.obj
 0003:000332c4       ??_C@_1BI@ELMAAFLN@?$AA$?$AAI?$AA1?$AA0?$AA_?$AAO?$AAU?$AAT?$AAP?$AAU?$AAT?$AA?$AA@ 005a92c4     LIBCMTD:x10fout.obj
 0003:000332e0       ??_C@_1BE@MNAKCECJ@?$AAx?$AA1?$AA0?$AAf?$AAo?$AAu?$AAt?$AA?4?$AAc?$AA?$AA@ 005a92e0     LIBCMTD:x10fout.obj
 0003:000332f8       ___dnames                  005a92f8     LIBCMTD:timeset.obj
 0003:00033310       ___mnames                  005a9310     LIBCMTD:timeset.obj
 0003:00033344       ??_C@_1BM@FIMHBHEB@?$AA_?$AAg?$AAe?$AAt?$AA_?$AAd?$AAa?$AAy?$AAl?$AAi?$AAg?$AAh?$AAt?$AA?$AA@ 005a9344     LIBCMTD:timeset.obj
 0003:00033368       ??_C@_1BE@OINBFMF@?$AAt?$AAi?$AAm?$AAe?$AAs?$AAe?$AAt?$AA?4?$AAc?$AA?$AA@ 005a9368     LIBCMTD:timeset.obj
 0003:00033380       ??_C@_1CI@MKJEHFPG@?$AA?$CI?$AA_?$AAD?$AAa?$AAy?$AAl?$AAi?$AAg?$AAh?$AAt?$AA?5?$AA?$CB?$AA?$DN?$AA?5?$AAN?$AAU?$AAL?$AAL?$AA?$CJ?$AA?$AA@ 005a9380     LIBCMTD:timeset.obj
 0003:000333b0       ??_C@_1BK@EMODDHEE@?$AA_?$AAg?$AAe?$AAt?$AA_?$AAd?$AAs?$AAt?$AAb?$AAi?$AAa?$AAs?$AA?$AA@ 005a93b0     LIBCMTD:timeset.obj
 0003:000333d0       ??_C@_1EC@PKDJPAAB@?$AA?$CI?$AA_?$AAD?$AAa?$AAy?$AAl?$AAi?$AAg?$AAh?$AAt?$AA_?$AAs?$AAa?$AAv?$AAi?$AAn?$AAg?$AAs?$AA_?$AAb?$AAi?$AAa?$AAs?$AA?5?$AA?$CB?$AA?$DN?$AA?5?$AAN?$AAU?$AAL?$AAL?$AA?$CJ@ 005a93d0     LIBCMTD:timeset.obj
 0003:00033420       ??_C@_1BM@MGEAKPEJ@?$AA_?$AAg?$AAe?$AAt?$AA_?$AAt?$AAi?$AAm?$AAe?$AAz?$AAo?$AAn?$AAe?$AA?$AA@ 005a9420     LIBCMTD:timeset.obj
 0003:00033444       ??_C@_1CI@PODJJGAL@?$AA?$CI?$AA_?$AAT?$AAi?$AAm?$AAe?$AAz?$AAo?$AAn?$AAe?$AA?5?$AA?$CB?$AA?$DN?$AA?5?$AAN?$AAU?$AAL?$AAL?$AA?$CJ?$AA?$AA@ 005a9444     LIBCMTD:timeset.obj
 0003:00033474       ??_C@_1DG@HLGKANIP@?$AA_?$AAI?$AAn?$AAd?$AAe?$AAx?$AA?5?$AA?$DN?$AA?$DN?$AA?5?$AA0?$AA?5?$AA?$HM?$AA?$HM?$AA?5?$AA_?$AAI?$AAn?$AAd?$AAe?$AAx?$AA?5?$AA?$DN?$AA?$DN?$AA?5?$AA1?$AA?$AA@ 005a9474     LIBCMTD:timeset.obj
 0003:000334b4       ??_C@_1CK@GBKHKEI@?$AA_?$AAR?$AAe?$AAt?$AAu?$AAr?$AAn?$AAV?$AAa?$AAl?$AAu?$AAe?$AA?5?$AA?$CB?$AA?$DN?$AA?5?$AAN?$AAU?$AAL?$AAL?$AA?$AA@ 005a94b4     LIBCMTD:timeset.obj
 0003:000334e8       ??_C@_1BI@BHCKCCFA@?$AA_?$AAg?$AAe?$AAt?$AA_?$AAt?$AAz?$AAn?$AAa?$AAm?$AAe?$AA?$AA@ 005a94e8     LIBCMTD:timeset.obj
 0003:00033508       ??_C@_1KA@POFLNEC@?$AA?$CI?$AA_?$AAB?$AAu?$AAf?$AAf?$AAe?$AAr?$AA?5?$AA?$CB?$AA?$DN?$AA?5?$AAN?$AAU?$AAL?$AAL?$AA?5?$AA?$CG?$AA?$CG?$AA?5?$AA_?$AAS?$AAi?$AAz?$AAe?$AAI?$AAn?$AAB?$AAy?$AAt?$AAe?$AAs@ 005a9508     LIBCMTD:timeset.obj
 0003:000335c8       ??_C@_1EA@GEPBEDLJ@?$AAs?$AAt?$AAr?$AAn?$AAc?$AAp?$AAy?$AA_?$AAs?$AA?$CI?$AAt?$AAz?$AAn?$AAa?$AAm?$AAe?$AA?$FL?$AA1?$AA?$FN?$AA?0?$AA?5?$AA6?$AA4?$AA?0?$AA?5?$AAT?$AAZ?$AA?0?$AA?5?$AA3?$AA?$CJ?$AA?$AA@ 005a95c8     LIBCMTD:tzset.obj
 0003:00033618       ??_C@_1EA@FIJBKALB@?$AAs?$AAt?$AAr?$AAn?$AAc?$AAp?$AAy?$AA_?$AAs?$AA?$CI?$AAt?$AAz?$AAn?$AAa?$AAm?$AAe?$AA?$FL?$AA0?$AA?$FN?$AA?0?$AA?5?$AA6?$AA4?$AA?0?$AA?5?$AAT?$AAZ?$AA?0?$AA?5?$AA3?$AA?$CJ?$AA?$AA@ 005a9618     LIBCMTD:tzset.obj
 0003:00033668       ??_C@_1EK@MCAIMDPB@?$AAs?$AAt?$AAr?$AAc?$AAp?$AAy?$AA_?$AAs?$AA?$CI?$AAl?$AAa?$AAs?$AAt?$AAT?$AAZ?$AA?0?$AA?5?$AAs?$AAt?$AAr?$AAl?$AAe?$AAn?$AA?$CI?$AAT?$AAZ?$AA?$CJ?$AA?5?$AA?$CL?$AA?5?$AA1?$AA?0@ 005a9668     LIBCMTD:tzset.obj
 0003:000336c0       ??_C@_07LOOFNDIO@tzset?4c?$AA@ 005a96c0     LIBCMTD:tzset.obj
 0003:000336cc       ??_C@_02CLFPBFFP@TZ?$AA@   005a96cc     LIBCMTD:tzset.obj
 0003:000336d0       ??_C@_1CO@IMMOMMCB@?$AA_?$AAg?$AAe?$AAt?$AA_?$AAd?$AAs?$AAt?$AAb?$AAi?$AAa?$AAs?$AA?$CI?$AA?$CG?$AAd?$AAs?$AAt?$AAb?$AAi?$AAa?$AAs?$AA?$CJ?$AA?$AA@ 005a96d0     LIBCMTD:tzset.obj
 0003:00033708       ??_C@_1DC@MEHEMOPB@?$AA_?$AAg?$AAe?$AAt?$AA_?$AAd?$AAa?$AAy?$AAl?$AAi?$AAg?$AAh?$AAt?$AA?$CI?$AA?$CG?$AAd?$AAa?$AAy?$AAl?$AAi?$AAg?$AAh?$AAt?$AA?$CJ?$AA?$AA@ 005a9708     LIBCMTD:tzset.obj
 0003:00033744       ??_C@_1DC@CMKCHHFC@?$AA_?$AAg?$AAe?$AAt?$AA_?$AAt?$AAi?$AAm?$AAe?$AAz?$AAo?$AAn?$AAe?$AA?$CI?$AA?$CG?$AAt?$AAi?$AAm?$AAe?$AAz?$AAo?$AAn?$AAe?$AA?$CJ?$AA?$AA@ 005a9744     LIBCMTD:tzset.obj
 0003:00033780       ??_C@_1BM@IIODHMJC@?$AA_?$AAt?$AAz?$AAs?$AAe?$AAt?$AA_?$AAn?$AAo?$AAl?$AAo?$AAc?$AAk?$AA?$AA@ 005a9780     LIBCMTD:tzset.obj
 0003:000337a4       ??_C@_1BA@HIHOBNBL@?$AAt?$AAz?$AAs?$AAe?$AAt?$AA?4?$AAc?$AA?$AA@ 005a97a4     LIBCMTD:tzset.obj
 0003:000337b8       ??_C@_1CA@GOLIIEDM@?$AA_?$AAi?$AAs?$AAi?$AAn?$AAd?$AAs?$AAt?$AA_?$AAn?$AAo?$AAl?$AAo?$AAc?$AAk?$AA?$AA@ 005a97b8     LIBCMTD:tzset.obj
 0003:000337e0       ??_C@_1BA@GOCKIDGO@?$AAc?$AAv?$AAt?$AAd?$AAa?$AAt?$AAe?$AA?$AA@ 005a97e0     LIBCMTD:tzset.obj
 0003:000337f4       ??_C@_0L@KDOEJCKC@_nextafter?$AA@ 005a97f4     LIBCMTD:fpexcept.obj
 0003:00033804       ??_C@_05JGDBENOH@_logb?$AA@ 005a9804     LIBCMTD:fpexcept.obj
 0003:0003380c       ??_C@_03ONILCKOB@_yn?$AA@  005a980c     LIBCMTD:fpexcept.obj
 0003:00033810       ??_C@_03NAKIGLHK@_y1?$AA@  005a9810     LIBCMTD:fpexcept.obj
 0003:00033814       ??_C@_03MJLDFKDL@_y0?$AA@  005a9814     LIBCMTD:fpexcept.obj
 0003:00033818       ??_C@_05GKKHEGJL@frexp?$AA@ 005a9818     LIBCMTD:fpexcept.obj
 0003:00033820       ??_C@_04KEPJIHGP@fmod?$AA@ 005a9820     LIBCMTD:fpexcept.obj
 0003:00033828       ??_C@_06MEIMCGCF@_hypot?$AA@ 005a9828     LIBCMTD:fpexcept.obj
 0003:00033830       ??_C@_05KBKMEMPO@_cabs?$AA@ 005a9830     LIBCMTD:fpexcept.obj
 0003:00033838       ??_C@_05CEJMAHNP@ldexp?$AA@ 005a9838     LIBCMTD:fpexcept.obj
 0003:00033840       ??_C@_04EHEDPDJG@modf?$AA@ 005a9840     LIBCMTD:fpexcept.obj
 0003:00033848       ??_C@_04ODHECPBC@fabs?$AA@ 005a9848     LIBCMTD:fpexcept.obj
 0003:00033850       ??_C@_05PBJFFIGL@floor?$AA@ 005a9850     LIBCMTD:fpexcept.obj
 0003:00033858       ??_C@_04GFPJNGEK@ceil?$AA@ 005a9858     LIBCMTD:fpexcept.obj
 0003:00033860       ??_C@_03IIINPABG@tan?$AA@  005a9860     LIBCMTD:fpexcept.obj
 0003:00033864       ??_C@_03LALBNOCG@cos?$AA@  005a9864     LIBCMTD:fpexcept.obj
 0003:00033868       ??_C@_03BLEJJJBH@sin?$AA@  005a9868     LIBCMTD:fpexcept.obj
 0003:0003386c       ??_C@_04EIAKFFMI@sqrt?$AA@ 005a986c     LIBCMTD:fpexcept.obj
 0003:00033874       ??_C@_05KNGEOGJB@atan2?$AA@ 005a9874     LIBCMTD:fpexcept.obj
 0003:0003387c       ??_C@_04MLLJIGOK@atan?$AA@ 005a987c     LIBCMTD:fpexcept.obj
 0003:00033884       ??_C@_04PDIFKINK@acos?$AA@ 005a9884     LIBCMTD:fpexcept.obj
 0003:0003388c       ??_C@_04FIHNOPOL@asin?$AA@ 005a988c     LIBCMTD:fpexcept.obj
 0003:00033894       ??_C@_04FJHINJAO@tanh?$AA@ 005a9894     LIBCMTD:fpexcept.obj
 0003:0003389c       ??_C@_04HPJJNFIM@cosh?$AA@ 005a989c     LIBCMTD:fpexcept.obj
 0003:000338a4       ??_C@_04COOMCNPB@sinh?$AA@ 005a98a4     LIBCMTD:fpexcept.obj
 0003:000338ac       ??_C@_05HGHHAHAP@log10?$AA@ 005a98ac     LIBCMTD:fpexcept.obj
 0003:000338b4       ??_C@_03MGHMBJCF@log?$AA@  005a98b4     LIBCMTD:fpexcept.obj
 0003:000338b8       ??_C@_03JGHBODFD@pow?$AA@  005a98b8     LIBCMTD:fpexcept.obj
 0003:000338bc       ??_C@_03KHJOGHMM@exp?$AA@  005a98bc     LIBCMTD:fpexcept.obj
 0003:000338c0       ??_C@_1GC@BGLCIHJN@?$AAf?$AA?3?$AA?2?$AAs?$AAp?$AA?2?$AAv?$AAc?$AAt?$AAo?$AAo?$AAl?$AAs?$AA?2?$AAc?$AAr?$AAt?$AA_?$AAb?$AAl?$AAd?$AA?2?$AAs?$AAe?$AAl?$AAf?$AA_?$AAx?$AA8?$AA6?$AA?2?$AAc@ 005a98c0     LIBCMTD:_flswbuf.obj
 0003:00033938       ??_C@_1BE@IAKAIGJB@?$AAs?$AAt?$AAr?$AAn?$AAc?$AAa?$AAt?$AA_?$AAs?$AA?$AA@ 005a9938     LIBCMTD:strncat_s.obj
 0003:00033950       ??_C@_0M@EKFFODEC@MSPDB80?4DLL?$AA@ 005a9950     LIBCMTD:pdblkup.obj
 0003:00033960       ??_C@_01KDCPPGHE@r?$AA@    005a9960     LIBCMTD:pdblkup.obj
 0003:00033964       ??_C@_0BB@KCIACLNC@PDBOpenValidate5?$AA@ 005a9964     LIBCMTD:pdblkup.obj
 0003:00033978       ??_C@_0BF@BMIHBHCA@EnvironmentDirectory?$AA@ 005a9978     LIBCMTD:pdblkup.obj
 0003:00033994       ??_C@_0CN@EAEOKKOC@SOFTWARE?2Microsoft?2VisualStudio?2@ 005a9994     LIBCMTD:pdblkup.obj
 0003:000339cc       ??_C@_0M@HLOHPNFA@RegCloseKey?$AA@ 005a99cc     LIBCMTD:pdblkup.obj
 0003:000339dc       ??_C@_0BB@HHEIPGME@RegQueryValueExA?$AA@ 005a99dc     LIBCMTD:pdblkup.obj
 0003:000339f0       ??_C@_0O@DCOGKJGG@RegOpenKeyExA?$AA@ 005a99f0     LIBCMTD:pdblkup.obj
 0003:00033a00       ??_C@_0BP@OGBCLIBO@Stack?5around?5_alloca?5corrupted?$AA@ 005a9a00     LIBCMTD:userapi.obj
 0003:00033a28       ??_C@_0CK@CNLNOEPB@Local?5variable?5used?5before?5initi@ 005a9a28     LIBCMTD:userapi.obj
 0003:00033a5c       ??_C@_0BI@CIGMDCBH@Stack?5memory?5corruption?$AA@ 005a9a5c     LIBCMTD:userapi.obj
 0003:00033a78       ??_C@_0CK@FEGOIOPB@Cast?5to?5smaller?5type?5causing?5los@ 005a9a78     LIBCMTD:userapi.obj
 0003:00033aac       ??_C@_0BJ@HEGAHDFO@Stack?5pointer?5corruption?$AA@ 005a9aac     LIBCMTD:userapi.obj
 0003:00033b10       ??_7type_info@@6B@         005a9b10     LIBCMTD:typinfo.obj
 0003:00033b1c       ??_7exception@std@@6B@     005a9b1c     LIBCMTD:stdexcpt.obj
 0003:00033b28       ??_C@_0BC@EOODALEL@Unknown?5exception?$AA@ 005a9b28     LIBCMTD:stdexcpt.obj
 0003:00033b44       ??_7bad_cast@std@@6B@      005a9b44     LIBCMTD:stdexcpt.obj
 0003:00033b54       ??_7bad_typeid@std@@6B@    005a9b54     LIBCMTD:stdexcpt.obj
 0003:00033b64       ??_7__non_rtti_object@std@@6B@ 005a9b64     LIBCMTD:stdexcpt.obj
 0003:00033b70       ??_C@_1BG@NDCBABF@?$AAd?$AAb?$AAg?$AAd?$AAe?$AAl?$AA?4?$AAc?$AAp?$AAp?$AA?$AA@ 005a9b70     LIBCMTD:dbgdel.obj
 0003:00033b90       ??_C@_1FA@HILOOCMA@?$AA?$CI?$AA_?$AAt?$AAc?$AAs?$AAn?$AAl?$AAe?$AAn?$AA?$CI?$AAo?$AAp?$AAt?$AAi?$AAo?$AAn?$AA?0?$AA?5?$AA_?$AAM?$AAA?$AAX?$AA_?$AAE?$AAN?$AAV?$AA?$CJ?$AA?5?$AA?$DM?$AA?5?$AA_?$AAM@ 005a9b90     LIBCMTD:getenv.obj
 0003:00033bf0       ??_C@_1O@GMKGKCJO@?$AAg?$AAe?$AAt?$AAe?$AAn?$AAv?$AA?$AA@ 005a9bf0     LIBCMTD:getenv.obj
 0003:00033c00       ??_C@_1BC@CPAPBFCO@?$AAg?$AAe?$AAt?$AAe?$AAn?$AAv?$AA?4?$AAc?$AA?$AA@ 005a9c00     LIBCMTD:getenv.obj
 0003:00033c18       ??_C@_1CC@FKAOHHLO@?$AA?$CI?$AAo?$AAp?$AAt?$AAi?$AAo?$AAn?$AA?5?$AA?$CB?$AA?$DN?$AA?5?$AAN?$AAU?$AAL?$AAL?$AA?$CJ?$AA?$AA@ 005a9c18     LIBCMTD:getenv.obj
 0003:00033c40       ??_C@_1GI@JBIFPFJH@?$AA_?$AAt?$AAc?$AAs?$AAn?$AAl?$AAe?$AAn?$AA?$CI?$AA?$CK?$AAs?$AAe?$AAa?$AAr?$AAc?$AAh?$AA?5?$AA?$CL?$AA?5?$AAl?$AAe?$AAn?$AAg?$AAt?$AAh?$AA?5?$AA?$CL?$AA?5?$AA1?$AA?0?$AA?5?$AA_@ 005a9c40     LIBCMTD:getenv.obj
 0003:00033cc0       ??_C@_1EI@HHOBPCFK@?$AAs?$AAt?$AAr?$AAc?$AAp?$AAy?$AA_?$AAs?$AA?$CI?$AAb?$AAu?$AAf?$AAf?$AAe?$AAr?$AA?0?$AA?5?$AAs?$AAi?$AAz?$AAe?$AAI?$AAn?$AAT?$AAC?$AAh?$AAa?$AAr?$AAs?$AA?0?$AA?5?$AAs@ 005a9cc0     LIBCMTD:getenv.obj
 0003:00033d18       ??_C@_1JM@NLPGJJPH@?$AA?$CI?$AAb?$AAu?$AAf?$AAf?$AAe?$AAr?$AA?5?$AA?$CB?$AA?$DN?$AA?5?$AAN?$AAU?$AAL?$AAL?$AA?5?$AA?$CG?$AA?$CG?$AA?5?$AAs?$AAi?$AAz?$AAe?$AAI?$AAn?$AAT?$AAC?$AAh?$AAa?$AAr?$AAs?$AA?5@ 005a9d18     LIBCMTD:getenv.obj
 0003:00033dd4       ??_C@_1CC@BAJKDIIF@?$AA_?$AAg?$AAe?$AAt?$AAe?$AAn?$AAv?$AA_?$AAs?$AA_?$AAh?$AAe?$AAl?$AAp?$AAe?$AAr?$AA?$AA@ 005a9dd4     LIBCMTD:getenv.obj
 0003:00033dfc       ??_C@_1CK@PIKDAOCL@?$AAp?$AAR?$AAe?$AAt?$AAu?$AAr?$AAn?$AAV?$AAa?$AAl?$AAu?$AAe?$AA?5?$AA?$CB?$AA?$DN?$AA?5?$AAN?$AAU?$AAL?$AAL?$AA?$AA@ 005a9dfc     LIBCMTD:getenv.obj
 0003:00033e30       ??_C@_1DM@GNKNEGJO@?$AAs?$AAt?$AAr?$AAc?$AAp?$AAy?$AA_?$AAs?$AA?$CI?$AA?$CK?$AAp?$AAB?$AAu?$AAf?$AAf?$AAe?$AAr?$AA?0?$AA?5?$AAs?$AAi?$AAz?$AAe?$AA?0?$AA?5?$AAs?$AAt?$AAr?$AA?$CJ?$AA?$AA@ 005a9e30     LIBCMTD:getenv.obj
 0003:00033e78       ??_C@_1CA@GDBKELOE@?$AAv?$AAa?$AAr?$AAn?$AAa?$AAm?$AAe?$AA?5?$AA?$CB?$AA?$DN?$AA?5?$AAN?$AAU?$AAL?$AAL?$AA?$AA@ 005a9e78     LIBCMTD:getenv.obj
 0003:00033ea0       ??_C@_1CC@KPLOPIEM@?$AA_?$AAd?$AAu?$AAp?$AAe?$AAn?$AAv?$AA_?$AAs?$AA_?$AAh?$AAe?$AAl?$AAp?$AAe?$AAr?$AA?$AA@ 005a9ea0     LIBCMTD:getenv.obj
 0003:00033ec8       ??_C@_1CA@FHNFMDOJ@?$AAp?$AAB?$AAu?$AAf?$AAf?$AAe?$AAr?$AA?5?$AA?$CB?$AA?$DN?$AA?5?$AAN?$AAU?$AAL?$AAL?$AA?$AA@ 005a9ec8     LIBCMTD:getenv.obj
 0003:00033ef0       ??_C@_1BI@JFCCCJAM@?$AAt?$AAy?$AAp?$AAn?$AAa?$AAm?$AAe?$AA?4?$AAc?$AAp?$AAp?$AA?$AA@ 005a9ef0     LIBCMTD:typname.obj
 0003:00033f0c       ??_C@_1CI@IDCGDBOP@?$AAp?$AAN?$AAo?$AAd?$AAe?$AA?9?$AA?$DO?$AAn?$AAe?$AAx?$AAt?$AA?5?$AA?$CB?$AA?$DN?$AA?5?$AAN?$AAU?$AAL?$AAL?$AA?$AA@ 005a9f0c     LIBCMTD:typname.obj
 0003:00033f40       ??_C@_1JK@MLBKHELP@?$AAs?$AAt?$AAr?$AAc?$AAp?$AAy?$AA_?$AAs?$AA?5?$AA?$CI?$AA?$CI?$AAc?$AAh?$AAa?$AAr?$AA?5?$AA?$CK?$AA?$CJ?$AA?$CI?$AA?$CI?$AAt?$AAy?$AAp?$AAe?$AA_?$AAi?$AAn?$AAf?$AAo?$AA?5?$AA?$CK?$AA?$CJ@ 005a9f40     LIBCMTD:typname.obj
 0003:00033ff8       ??_C@_1CM@OOICDMK@?$AAt?$AAy?$AAp?$AAe?$AA_?$AAi?$AAn?$AAf?$AAo?$AA?3?$AA?3?$AA_?$AAN?$AAa?$AAm?$AAe?$AA_?$AAb?$AAa?$AAs?$AAe?$AA?$AA@ 005a9ff8     LIBCMTD:typname.obj
 0003:0003402c       ??_C@_1DO@OJJLFJPE@?$AAt?$AAy?$AAp?$AAe?$AA_?$AAi?$AAn?$AAf?$AAo?$AA?3?$AA?3?$AA_?$AAN?$AAa?$AAm?$AAe?$AA_?$AAb?$AAa?$AAs?$AAe?$AA_?$AAi?$AAn?$AAt?$AAe?$AAr?$AAn?$AAa?$AAl?$AA?$AA@ 005aa02c     LIBCMTD:typname.obj
 0003:00034078       ??_C@_1BM@FKNNDAHH@?$AA_?$AAm?$AAb?$AAs?$AAn?$AAb?$AAi?$AAc?$AAo?$AAl?$AAl?$AA_?$AAl?$AA?$AA@ 005aa078     LIBCMTD:mbsnbico.obj
 0003:0003409c       ??_C@_1BG@MHEMLGJO@?$AAm?$AAb?$AAs?$AAn?$AAb?$AAi?$AAc?$AAo?$AA?4?$AAc?$AA?$AA@ 005aa09c     LIBCMTD:mbsnbico.obj
 0003:000340b8       ??_C@_0L@CELCHBFJ@wtombenv?4c?$AA@ 005aa0b8     LIBCMTD:wtombenv.obj
 0003:000340c8       ??_C@_0BK@CFCOFLF@?5Complete?5Object?5Locator?8?$AA@ 005aa0c8     LIBCMTD:undname.obj
 0003:000340e8       ??_C@_0BN@MECKDCOJ@?5Class?5Hierarchy?5Descriptor?8?$AA@ 005aa0e8     LIBCMTD:undname.obj
 0003:0003410c       ??_C@_0BD@LGICGFMM@?5Base?5Class?5Array?8?$AA@ 005aa10c     LIBCMTD:undname.obj
 0003:00034124       ??_C@_0BM@LDKODKLH@?5Base?5Class?5Descriptor?5at?5?$CI?$AA@ 005aa124     LIBCMTD:undname.obj
 0003:00034148       ??_C@_0BC@DAFEJGAK@?5Type?5Descriptor?8?$AA@ 005aa148     LIBCMTD:undname.obj
 0003:00034160       ??_C@_0BM@PMGGMLDN@?$GAlocal?5static?5thread?5guard?8?$AA@ 005aa160     LIBCMTD:undname.obj
 0003:00034184       ??_C@_0CL@FGIJHLCE@?$GAmanaged?5vector?5copy?5constructor@ 005aa184     LIBCMTD:undname.obj
 0003:000341b8       ??_C@_0CJ@GJELGAMM@?$GAvector?5vbase?5copy?5constructor?5i@ 005aa1b8     LIBCMTD:undname.obj
 0003:000341ec       ??_C@_0CD@CGAJBKEJ@?$GAvector?5copy?5constructor?5iterato@ 005aa1ec     LIBCMTD:undname.obj
 0003:00034218       ??_C@_0CB@PDBIFEP@?$GAdynamic?5atexit?5destructor?5for?5?8@ 005aa218     LIBCMTD:undname.obj
 0003:00034240       ??_C@_0BL@CLIPGLGB@?$GAdynamic?5initializer?5for?5?8?$AA@ 005aa240     LIBCMTD:undname.obj
 0003:00034260       ??_C@_0CM@FCBBDIGB@?$GAeh?5vector?5vbase?5copy?5constructo@ 005aa260     LIBCMTD:undname.obj
 0003:00034294       ??_C@_0CG@HLDDJMAG@?$GAeh?5vector?5copy?5constructor?5iter@ 005aa294     LIBCMTD:undname.obj
 0003:000342c4       ??_C@_0CF@IMGKMJNO@?$GAmanaged?5vector?5destructor?5itera@ 005aa2c4     LIBCMTD:undname.obj
 0003:000342f0       ??_C@_0CG@CFDHKGGD@?$GAmanaged?5vector?5constructor?5iter@ 005aa2f0     LIBCMTD:undname.obj
 0003:00034320       ??_C@_0BN@CKNJLHMB@?$GAplacement?5delete?$FL?$FN?5closure?8?$AA@ 005aa320     LIBCMTD:undname.obj
 0003:00034344       ??_C@_0BL@CNOONJFP@?$GAplacement?5delete?5closure?8?$AA@ 005aa344     LIBCMTD:undname.obj
 0003:00034364       ??_C@_0P@HJKNJFNN@?$GAomni?5callsig?8?$AA@ 005aa364     LIBCMTD:undname.obj
 0003:00034378       ??_C@_09LBNFPBCA@?5delete?$FL?$FN?$AA@ 005aa378     LIBCMTD:undname.obj
 0003:00034384       ??_C@_06FHBGPFGH@?5new?$FL?$FN?$AA@ 005aa384     LIBCMTD:undname.obj
 0003:0003438c       ??_C@_0CE@IIHCMGGL@?$GAlocal?5vftable?5constructor?5closu@ 005aa38c     LIBCMTD:undname.obj
 0003:000343b8       ??_C@_0BA@KKLDJDLB@?$GAlocal?5vftable?8?$AA@ 005aa3b8     LIBCMTD:undname.obj
 0003:000343cc       ??_C@_05KHLCHHI@?$GARTTI?$AA@ 005aa3cc     LIBCMTD:undname.obj
 0003:000343d4       ??_C@_03KLGMFNMG@?$GAEH?$AA@ 005aa3d4     LIBCMTD:undname.obj
 0003:000343d8       ??_C@_0BA@KBCDOMBN@?$GAudt?5returning?8?$AA@ 005aa3d8     LIBCMTD:undname.obj
 0003:000343ec       ??_C@_0BL@LLKPOHJI@?$GAcopy?5constructor?5closure?8?$AA@ 005aa3ec     LIBCMTD:undname.obj
 0003:0003440c       ??_C@_0CH@OOJPLCPH@?$GAeh?5vector?5vbase?5constructor?5ite@ 005aa40c     LIBCMTD:undname.obj
 0003:0003443c       ??_C@_0CA@GCEOPDGL@?$GAeh?5vector?5destructor?5iterator?8?$AA@ 005aa43c     LIBCMTD:undname.obj
 0003:00034464       ??_C@_0CB@JONCMFFK@?$GAeh?5vector?5constructor?5iterator?8@ 005aa464     LIBCMTD:undname.obj
 0003:0003448c       ??_C@_0BL@NILFHHPC@?$GAvirtual?5displacement?5map?8?$AA@ 005aa48c     LIBCMTD:undname.obj
 0003:000344ac       ??_C@_0CE@IKBNEHA@?$GAvector?5vbase?5constructor?5iterat@ 005aa4ac     LIBCMTD:undname.obj
 0003:000344d8       ??_C@_0BN@LFPFMEDL@?$GAvector?5destructor?5iterator?8?$AA@ 005aa4d8     LIBCMTD:undname.obj
 0003:000344fc       ??_C@_0BO@PFGOCPJJ@?$GAvector?5constructor?5iterator?8?$AA@ 005aa4fc     LIBCMTD:undname.obj
 0003:00034520       ??_C@_0BN@IMDCHIKM@?$GAscalar?5deleting?5destructor?8?$AA@ 005aa520     LIBCMTD:undname.obj
 0003:00034544       ??_C@_0BO@OBMKPJIG@?$GAdefault?5constructor?5closure?8?$AA@ 005aa544     LIBCMTD:undname.obj
 0003:00034568       ??_C@_0BN@DEGPLNFK@?$GAvector?5deleting?5destructor?8?$AA@ 005aa568     LIBCMTD:undname.obj
 0003:0003458c       ??_C@_0BD@JDLKDPAB@?$GAvbase?5destructor?8?$AA@ 005aa58c     LIBCMTD:undname.obj
 0003:000345a4       ??_C@_08OBABFOLI@?$GAstring?8?$AA@ 005aa5a4     LIBCMTD:undname.obj
 0003:000345b0       ??_C@_0BF@KDPPACIK@?$GAlocal?5static?5guard?8?$AA@ 005aa5b0     LIBCMTD:undname.obj
 0003:000345cc       ??_C@_08LLFFHHDJ@?$GAtypeof?8?$AA@ 005aa5cc     LIBCMTD:undname.obj
 0003:000345d8       ??_C@_07FEEIOKP@?$GAvcall?8?$AA@ 005aa5d8     LIBCMTD:undname.obj
 0003:000345e4       ??_C@_09BLBHBJP@?$GAvbtable?8?$AA@ 005aa5e4     LIBCMTD:undname.obj
 0003:000345f0       ??_C@_09IFPLHPGF@?$GAvftable?8?$AA@ 005aa5f0     LIBCMTD:undname.obj
 0003:000345fc       ??_C@_02MHEGNOJ@?$FO?$DN?$AA@ 005aa5fc     LIBCMTD:undname.obj
 0003:00034600       ??_C@_02DHLNPPGH@?$HM?$DN?$AA@ 005aa600     LIBCMTD:undname.obj
 0003:00034604       ??_C@_02FGJGFEAB@?$CG?$DN?$AA@ 005aa604     LIBCMTD:undname.obj
 0003:00034608       ??_C@_03CDNPDDLA@?$DM?$DM?$DN?$AA@ 005aa608     LIBCMTD:undname.obj
 0003:0003460c       ??_C@_03IKFCCPFF@?$DO?$DO?$DN?$AA@ 005aa60c     LIBCMTD:undname.obj
 0003:00034610       ??_C@_02FENAOKFI@?$CF?$DN?$AA@ 005aa610     LIBCMTD:undname.obj
 0003:00034614       ??_C@_02FJEHGPIO@?1?$DN?$AA@ 005aa614     LIBCMTD:undname.obj
 0003:00034618       ??_C@_02FKMDLLOA@?9?$DN?$AA@ 005aa618     LIBCMTD:undname.obj
 0003:0003461c       ??_C@_02FOEOMHFC@?$CL?$DN?$AA@ 005aa61c     LIBCMTD:undname.obj
 0003:00034620       ??_C@_02FPIMKNGF@?$CK?$DN?$AA@ 005aa620     LIBCMTD:undname.obj
 0003:00034624       ??_C@_02NONPIBCD@?$HM?$HM?$AA@ 005aa624     LIBCMTD:undname.obj
 0003:00034628       ??_C@_02PPKAJPJL@?$CG?$CG?$AA@ 005aa628     LIBCMTD:undname.obj
 0003:0003462c       ??_C@_01DNKMNLPK@?$HM?$AA@ 005aa62c     LIBCMTD:undname.obj
 0003:00034630       ??_C@_01JKBOJNNK@?$FO?$AA@ 005aa630     LIBCMTD:undname.obj
 0003:00034634       ??_C@_01PJKLJHI@?$HO?$AA@  005aa634     LIBCMTD:undname.obj
 0003:00034638       ??_C@_02HCKGKOFO@?$CI?$CJ?$AA@ 005aa638     LIBCMTD:undname.obj
 0003:0003463c       ??_C@_01IHBHIGKO@?0?$AA@   005aa63c     LIBCMTD:undname.obj
 0003:00034640       ??_C@_02EEKDKGMJ@?$DO?$DN?$AA@ 005aa640     LIBCMTD:undname.obj
 0003:00034644       ??_C@_01PPODPGHN@?$DO?$AA@ 005aa644     LIBCMTD:undname.obj
 0003:00034648       ??_C@_02EHCHHCKH@?$DM?$DN?$AA@ 005aa648     LIBCMTD:undname.obj
 0003:0003464c       ??_C@_01MNNFJEPP@?$DM?$AA@ 005aa64c     LIBCMTD:undname.obj
 0003:00034650       ??_C@_03MNHNFDLC@?9?$DO?$CK?$AA@ 005aa650     LIBCMTD:undname.obj
 0003:00034654       ??_C@_01HNPIGOCE@?$CG?$AA@ 005aa654     LIBCMTD:undname.obj
 0003:00034658       ??_C@_01MIFGBAGJ@?$CL?$AA@ 005aa658     LIBCMTD:undname.obj
 0003:0003465c       ??_C@_02ECNGHCIF@?$CL?$CL?$AA@ 005aa65c     LIBCMTD:undname.obj
 0003:00034660       ??_C@_01NBENCBCI@?$CK?$AA@ 005aa660     LIBCMTD:undname.obj
 0003:00034664       ??_C@_02HBOOOICD@?9?$DO?$AA@ 005aa664     LIBCMTD:undname.obj
 0003:00034668       ??_C@_08LHJFAFGD@operator?$AA@ 005aa668     LIBCMTD:undname.obj
 0003:00034674       ??_C@_02GPECMEKF@?$FL?$FN?$AA@ 005aa674     LIBCMTD:undname.obj
 0003:00034678       ??_C@_02FDNJECIE@?$CB?$DN?$AA@ 005aa678     LIBCMTD:undname.obj
 0003:0003467c       ??_C@_02EGOFBIJA@?$DN?$DN?$AA@ 005aa67c     LIBCMTD:undname.obj
 0003:00034680       ??_C@_01DCLJPIOD@?$CB?$AA@ 005aa680     LIBCMTD:undname.obj
 0003:00034684       ??_C@_02FODMEDOG@?$DM?$DM?$AA@ 005aa684     LIBCMTD:undname.obj
 0003:00034688       ??_C@_02GPIOPFAK@?$DO?$DO?$AA@ 005aa688     LIBCMTD:undname.obj
 0003:0003468c       ??_C@_07FPCDHGMM@?5delete?$AA@ 005aa68c     LIBCMTD:undname.obj
 0003:00034698       ??_C@_04NIHEBCM@?5new?$AA@ 005aa698     LIBCMTD:undname.obj
 0003:000346a0       ??_C@_0M@GFIIJFMG@__unaligned?$AA@ 005aa6a0     LIBCMTD:undname.obj
 0003:000346b0       ??_C@_0L@PILCLIHE@__restrict?$AA@ 005aa6b0     LIBCMTD:undname.obj
 0003:000346c0       ??_C@_07JOMMBBKO@__ptr64?$AA@ 005aa6c0     LIBCMTD:undname.obj
 0003:000346cc       ??_C@_09HIJEGCPM@__clrcall?$AA@ 005aa6cc     LIBCMTD:undname.obj
 0003:000346d8       ??_C@_0L@JMKHOMEK@__fastcall?$AA@ 005aa6d8     LIBCMTD:undname.obj
 0003:000346e8       ??_C@_0L@NPHFGOKO@__thiscall?$AA@ 005aa6e8     LIBCMTD:undname.obj
 0003:000346f8       ??_C@_09IFJBGAPI@__stdcall?$AA@ 005aa6f8     LIBCMTD:undname.obj
 0003:00034704       ??_C@_08GHMPAG@__pascal?$AA@ 005aa704     LIBCMTD:undname.obj
 0003:00034710       ??_C@_07KOLFKCDI@__cdecl?$AA@ 005aa710     LIBCMTD:undname.obj
 0003:0003471c       ??_C@_08EHJDFFNH@__based?$CI?$AA@ 005aa71c     LIBCMTD:undname.obj
 0003:000348f4       ??_C@_04HEJADOOB@CV?3?5?$AA@ 005aa8f4     LIBCMTD:undname.obj
 0003:000348fc       ??_C@_02MOLJINC@?3?3?$AA@  005aa8fc     LIBCMTD:undname.obj
 0003:00034900       ??_C@_01GEODFPGF@?8?$AA@   005aa900     LIBCMTD:undname.obj
 0003:00034904       ??_C@_01NLNLIGKH@?$GA?$AA@ 005aa904     LIBCMTD:undname.obj
 0003:00034908       ??_C@_0O@KHGCOMHP@generic?9type?9?$AA@ 005aa908     LIBCMTD:undname.obj
 0003:00034918       ??_C@_0BE@JAEOCHPE@template?9parameter?9?$AA@ 005aa918     LIBCMTD:undname.obj
 0003:00034930       ??_C@_02OHHJMEON@?8?8?$AA@ 005aa930     LIBCMTD:undname.obj
 0003:00034934       ??_C@_0BG@JNJLAMPM@?$GAanonymous?5namespace?8?$AA@ 005aa934     LIBCMTD:undname.obj
 0003:00034950       ??_C@_0BN@IBLMMFAP@?$GAnon?9type?9template?9parameter?$AA@ 005aa950     LIBCMTD:undname.obj
 0003:00034974       ??_C@_0BE@EODMJLIF@?$GAtemplate?9parameter?$AA@ 005aa974     LIBCMTD:undname.obj
 0003:0003498c       ??_C@_04GKJNKENE@void?$AA@ 005aa98c     LIBCMTD:undname.obj
 0003:00034994       ??_C@_0M@DHNBOJMP@extern?5?$CCC?$CC?5?$AA@ 005aa994     LIBCMTD:undname.obj
 0003:000349a4       ??_C@_08KJLFOPNE@?$FLthunk?$FN?3?$AA@ 005aa9a4     LIBCMTD:undname.obj
 0003:000349b0       ??_C@_08GPDDCMKI@public?3?5?$AA@ 005aa9b0     LIBCMTD:undname.obj
 0003:000349bc       ??_C@_0M@GAIFPFIP@protected?3?5?$AA@ 005aa9bc     LIBCMTD:undname.obj
 0003:000349cc       ??_C@_09LAPHOOG@private?3?5?$AA@ 005aa9cc     LIBCMTD:undname.obj
 0003:000349d8       ??_C@_08NIEOINHE@virtual?5?$AA@ 005aa9d8     LIBCMTD:undname.obj
 0003:000349e4       ??_C@_07PGOEDBHP@static?5?$AA@ 005aa9e4     LIBCMTD:undname.obj
 0003:000349f0       ??_C@_0DA@HGFJFBBE@?$GAtemplate?5static?5data?5member?5des@ 005aa9f0     LIBCMTD:undname.obj
 0003:00034a2c       ??_C@_0DB@ILEFOCIJ@?$GAtemplate?5static?5data?5member?5con@ 005aaa2c     LIBCMTD:undname.obj
 0003:00034a68       ??_C@_0CB@KJDOOODE@?$GAlocal?5static?5destructor?5helper?8@ 005aaa68     LIBCMTD:undname.obj
 0003:00034a90       ??_C@_0L@HNGCOGAE@?$GAadjustor?$HL?$AA@ 005aaa90     LIBCMTD:undname.obj
 0003:00034aa0       ??_C@_0L@GHPFDFH@?$GAvtordisp?$HL?$AA@ 005aaaa0     LIBCMTD:undname.obj
 0003:00034ab0       ??_C@_0N@CBHHHENL@?$GAvtordispex?$HL?$AA@ 005aaab0     LIBCMTD:undname.obj
 0003:00034ac0       ??_C@_02IGFCGPIL@?$HN?8?$AA@ 005aaac0     LIBCMTD:undname.obj
 0003:00034ac4       ??_C@_03OPGICMGF@?$HN?8?5?$AA@ 005aaac4     LIBCMTD:undname.obj
 0003:00034ac8       ??_C@_02KCKGHPCA@?$CJ?5?$AA@ 005aaac8     LIBCMTD:undname.obj
 0003:00034acc       ??_C@_05BEFAKPML@void?5?$AA@ 005aaacc     LIBCMTD:undname.obj
 0003:00034ad4       ??_C@_08PABEKFH@volatile?$AA@ 005aaad4     LIBCMTD:undname.obj
 0003:00034ae0       ??_C@_0M@ELJOJFFH@?0?$DMellipsis?$DO?$AA@ 005aaae0     LIBCMTD:undname.obj
 0003:00034af0       ??_C@_04EENFHACM@?0?4?4?4?$AA@ 005aaaf0     LIBCMTD:undname.obj
 0003:00034af8       ??_C@_0L@EGPHHEKN@?$DMellipsis?$DO?$AA@ 005aaaf8     LIBCMTD:undname.obj
 0003:00034b08       ??_C@_07HDJPLPEK@?5throw?$CI?$AA@ 005aab08     LIBCMTD:undname.obj
 0003:00034b14       ??_C@_09EFNPDFFP@?5volatile?$AA@ 005aab14     LIBCMTD:undname.obj
 0003:00034b20       ??_C@_05BNCCCJPP@const?$AA@ 005aab20     LIBCMTD:undname.obj
 0003:00034b28       ??_C@_07EDHNAJHC@signed?5?$AA@ 005aab28     LIBCMTD:undname.obj
 0003:00034b34       ??_C@_09EBBEKKIH@unsigned?5?$AA@ 005aab34     LIBCMTD:undname.obj
 0003:00034b40       ??_C@_07NFANNNEC@UNKNOWN?$AA@ 005aab40     LIBCMTD:undname.obj
 0003:00034b4c       ??_C@_06GCICPBLB@__w64?5?$AA@ 005aab4c     LIBCMTD:undname.obj
 0003:00034b54       ??_C@_07CLGGIAMF@wchar_t?$AA@ 005aab54     LIBCMTD:undname.obj
 0003:00034b60       ??_C@_08GAHOLHEO@__int128?$AA@ 005aab60     LIBCMTD:undname.obj
 0003:00034b6c       ??_C@_07LFCOJCAC@__int64?$AA@ 005aab6c     LIBCMTD:undname.obj
 0003:00034b78       ??_C@_07OFLPPHGP@__int32?$AA@ 005aab78     LIBCMTD:undname.obj
 0003:00034b84       ??_C@_07ICFHOGAF@__int16?$AA@ 005aab84     LIBCMTD:undname.obj
 0003:00034b90       ??_C@_06EBGKOKIG@__int8?$AA@ 005aab90     LIBCMTD:undname.obj
 0003:00034b98       ??_C@_04DDKJGDCM@bool?$AA@ 005aab98     LIBCMTD:undname.obj
 0003:00034ba0       ??_C@_06BNJCAIGJ@double?$AA@ 005aaba0     LIBCMTD:undname.obj
 0003:00034ba8       ??_C@_05CJIMAING@long?5?$AA@ 005aaba8     LIBCMTD:undname.obj
 0003:00034bb0       ??_C@_05KNFBNCOH@float?$AA@ 005aabb0     LIBCMTD:undname.obj
 0003:00034bb8       ??_C@_04GOKPGOLB@long?$AA@ 005aabb8     LIBCMTD:undname.obj
 0003:00034bc0       ??_C@_03JBIPMCLC@int?$AA@  005aabc0     LIBCMTD:undname.obj
 0003:00034bc4       ??_C@_05BFKKPKCG@short?$AA@ 005aabc4     LIBCMTD:undname.obj
 0003:00034bcc       ??_C@_04ENMBGAPA@char?$AA@ 005aabcc     LIBCMTD:undname.obj
 0003:00034bd4       ??_C@_05LJGMCFOG@enum?5?$AA@ 005aabd4     LIBCMTD:undname.obj
 0003:00034bdc       ??_C@_0N@DLIEFKNA@cointerface?5?$AA@ 005aabdc     LIBCMTD:undname.obj
 0003:00034bec       ??_C@_08KOFANOFK@coclass?5?$AA@ 005aabec     LIBCMTD:undname.obj
 0003:00034bf8       ??_C@_06LJBABKPM@class?5?$AA@ 005aabf8     LIBCMTD:undname.obj
 0003:00034c00       ??_C@_07DIBCDNGL@struct?5?$AA@ 005aac00     LIBCMTD:undname.obj
 0003:00034c0c       ??_C@_06MOJHIBMG@union?5?$AA@ 005aac0c     LIBCMTD:undname.obj
 0003:00034c14       ??_C@_0P@GCIFDJCJ@?$GAunknown?5ecsu?8?$AA@ 005aac14     LIBCMTD:undname.obj
 0003:00034c28       ??_C@_04LAHKHJMA@int?5?$AA@ 005aac28     LIBCMTD:undname.obj
 0003:00034c30       ??_C@_06EHJMALKF@short?5?$AA@ 005aac30     LIBCMTD:undname.obj
 0003:00034c38       ??_C@_05CIHEBHNO@char?5?$AA@ 005aac38     LIBCMTD:undname.obj
 0003:00034c40       ??_C@_06LIJLOJAG@const?5?$AA@ 005aac40     LIBCMTD:undname.obj
 0003:00034c48       ??_C@_09GAIEOBLP@volatile?5?$AA@ 005aac48     LIBCMTD:undname.obj
 0003:00034c54       ??_C@_0O@GKABPPIF@cli?3?3pin_ptr?$DM?$AA@ 005aac54     LIBCMTD:undname.obj
 0003:00034c64       ??_C@_0M@EALIELKG@cli?3?3array?$DM?$AA@ 005aac64     LIBCMTD:undname.obj
 0003:00034c74       ??_C@_02GOGNNPBN@?$CJ?$FL?$AA@ 005aac74     LIBCMTD:undname.obj
 0003:00034c78       ??_C@_06EEGAIFAK@?$HLflat?$HN?$AA@ 005aac78     LIBCMTD:undname.obj
 0003:00034c80       ??_C@_02MDINNEEG@s?5?$AA@  005aac80     LIBCMTD:undname.obj
 0003:00034c84       ??_C@_05JIBOFOHK@?$HLfor?5?$AA@ 005aac84     LIBCMTD:undname.obj
 0003:00034c90       ??_7DNameNode@@6B@         005aac90     LIBCMTD:undname.obj
 0003:00034ca4       ??_7charNode@@6B@          005aaca4     LIBCMTD:undname.obj
 0003:00034cb8       ??_7pcharNode@@6B@         005aacb8     LIBCMTD:undname.obj
 0003:00034ccc       ??_7pDNameNode@@6B@        005aaccc     LIBCMTD:undname.obj
 0003:00034ce0       ??_7DNameStatusNode@@6B@   005aace0     LIBCMTD:undname.obj
 0003:00034cf0       ??_C@_04OKOHEJBO@?5?$DP?$DP?5?$AA@ 005aacf0     LIBCMTD:undname.obj
 0003:00034cf8       ??_C@_1BA@DGECELNE@?$AAa?$AA_?$AAc?$AAm?$AAp?$AA?4?$AAc?$AA?$AA@ 005aacf8     LIBCMTD:a_cmp.obj
 0003:00034d10       ??_C@_1HK@ELDMAMK@?$AAc?$AAc?$AAh?$AAC?$AAo?$AAu?$AAn?$AAt?$AA1?$AA?$DN?$AA?$DN?$AA0?$AA?5?$AA?$CG?$AA?$CG?$AA?5?$AAc?$AAc?$AAh?$AAC?$AAo?$AAu?$AAn?$AAt?$AA2?$AA?$DN?$AA?$DN?$AA1?$AA?5?$AA?$HM?$AA?$HM?$AA?5@ 005aad10     LIBCMTD:a_cmp.obj
 0003:00034da4       ??_C@_1CC@CNADELFK@?$AA_?$AAs?$AAt?$AAr?$AAi?$AAn?$AAg?$AA2?$AA?5?$AA?$CB?$AA?$DN?$AA?5?$AAN?$AAU?$AAL?$AAL?$AA?$AA@ 005aada4     LIBCMTD:strnicol.obj
 0003:00034dcc       ??_C@_1BK@IOJEBPLP@?$AA_?$AAs?$AAt?$AAr?$AAn?$AAi?$AAc?$AAo?$AAl?$AAl?$AA_?$AAl?$AA?$AA@ 005aadcc     LIBCMTD:strnicol.obj
 0003:00034dec       ??_C@_1BG@BPACDEKP@?$AAs?$AAt?$AAr?$AAn?$AAi?$AAc?$AAo?$AAl?$AA?4?$AAc?$AA?$AA@ 005aadec     LIBCMTD:strnicol.obj
 0003:00034e08       ??_C@_1CC@ICKKAGJA@?$AA_?$AAs?$AAt?$AAr?$AAi?$AAn?$AAg?$AA1?$AA?5?$AA?$CB?$AA?$DN?$AA?5?$AAN?$AAU?$AAL?$AAL?$AA?$AA@ 005aae08     LIBCMTD:strnicol.obj
 0003:00034e30       ??_C@_1FG@OKIAKKPK@?$AAs?$AAt?$AAr?$AAc?$AAp?$AAy?$AA_?$AAs?$AA?$CI?$AAn?$AAa?$AAm?$AAe?$AA?0?$AA?5?$AAs?$AAt?$AAr?$AAl?$AAe?$AAn?$AA?$CI?$AAo?$AAp?$AAt?$AAi?$AAo?$AAn?$AA?$CJ?$AA?5?$AA?$CL?$AA?5@ 005aae30     LIBCMTD:setenv.obj
 0003:00034e98       ??_C@_1EI@GHDNAPMG@?$AA?$CI?$AA?$CC?$AAC?$AAR?$AAT?$AA?5?$AAL?$AAo?$AAg?$AAi?$AAc?$AA?5?$AAe?$AAr?$AAr?$AAo?$AAr?$AA?5?$AAd?$AAu?$AAr?$AAi?$AAn?$AAg?$AA?5?$AAs?$AAe?$AAt?$AAe?$AAn?$AAv?$AA?$CC@ 005aae98     LIBCMTD:setenv.obj
 0003:00034ef0       ??_C@_08BMJILFKN@setenv?4c?$AA@ 005aaef0     LIBCMTD:setenv.obj
 0003:00034f00       ??_C@_1FC@EEJIEIDF@?$AA_?$AAt?$AAc?$AAs?$AAn?$AAl?$AAe?$AAn?$AA?$CI?$AAe?$AAq?$AAu?$AAa?$AAl?$AA?5?$AA?$CL?$AA?5?$AA1?$AA?0?$AA?5?$AA_?$AAM?$AAA?$AAX?$AA_?$AAE?$AAN?$AAV?$AA?$CJ?$AA?5?$AA?$DM?$AA?5@ 005aaf00     LIBCMTD:setenv.obj
 0003:00034f64       ??_C@_1DE@EEHFNNGH@?$AAe?$AAq?$AAu?$AAa?$AAl?$AA?5?$AA?9?$AA?5?$AAo?$AAp?$AAt?$AAi?$AAo?$AAn?$AA?5?$AA?$DM?$AA?5?$AA_?$AAM?$AAA?$AAX?$AA_?$AAE?$AAN?$AAV?$AA?$AA@ 005aaf64     LIBCMTD:setenv.obj
 0003:00034fa4       ??_C@_1BI@CDAFOAAL@?$AA_?$AA_?$AAc?$AAr?$AAt?$AAs?$AAe?$AAt?$AAe?$AAn?$AAv?$AA?$AA@ 005aafa4     LIBCMTD:setenv.obj
 0003:00034fc0       ??_C@_1BC@KAEJODA@?$AAs?$AAe?$AAt?$AAe?$AAn?$AAv?$AA?4?$AAc?$AA?$AA@ 005aafc0     LIBCMTD:setenv.obj
 0003:00034fd8       ??_C@_1CA@LMBEKBDN@?$AAp?$AAo?$AAp?$AAt?$AAi?$AAo?$AAn?$AA?5?$AA?$CB?$AA?$DN?$AA?5?$AAN?$AAU?$AAL?$AAL?$AA?$AA@ 005aafd8     LIBCMTD:setenv.obj
 0003:00035000       ??_C@_1FK@DNFLNPD@?$AAs?$AAt?$AAr?$AAc?$AAp?$AAy?$AA_?$AAs?$AA?$CI?$AA?$CK?$AAn?$AAe?$AAw?$AAe?$AAn?$AAv?$AAp?$AAt?$AAr?$AA?0?$AA?5?$AAe?$AAn?$AAv?$AAp?$AAt?$AAr?$AAS?$AAi?$AAz?$AAe?$AA?0@ 005ab000     LIBCMTD:setenv.obj
 0003:0003506c       ??_C@_1BK@ECKIJLPM@?$AAc?$AAo?$AAp?$AAy?$AA_?$AAe?$AAn?$AAv?$AAi?$AAr?$AAo?$AAn?$AA?$AA@ 005ab06c     LIBCMTD:setenv.obj
 0003:0003508c       ??_C@_1BE@JKKFLIKJ@?$AA_?$AAm?$AAb?$AAs?$AAc?$AAh?$AAr?$AA_?$AAl?$AA?$AA@ 005ab08c     LIBCMTD:mbschr.obj
 0003:000350a4       ??_C@_1BC@MDNHFJEJ@?$AAm?$AAb?$AAs?$AAc?$AAh?$AAr?$AA?4?$AAc?$AA?$AA@ 005ab0a4     LIBCMTD:mbschr.obj
 0003:000350bc       ??_C@_1BO@JIBAMMGI@?$AAs?$AAt?$AAr?$AAi?$AAn?$AAg?$AA?5?$AA?$CB?$AA?$DN?$AA?5?$AAN?$AAU?$AAL?$AAL?$AA?$AA@ 005ab0bc     LIBCMTD:mbschr.obj
 0003:000350e0       ??_C@_0BI@OMEMKBHH@Packet?5loss?5concealment?$AA@ 005ab0e0     pjmedia-audiodev-i386-win32-vc8-debug:audiodev.obj
 0003:000350fc       ??_C@_03NOPFEPFL@plg?$AA@  005ab0fc     pjmedia-audiodev-i386-win32-vc8-debug:audiodev.obj
 0003:00035100       ??_C@_0BJ@MNDOFJGN@Comfort?5noise?5generation?$AA@ 005ab100     pjmedia-audiodev-i386-win32-vc8-debug:audiodev.obj
 0003:00035120       ??_C@_03JPNNGDEE@cng?$AA@  005ab120     pjmedia-audiodev-i386-win32-vc8-debug:audiodev.obj
 0003:00035124       ??_C@_0BJ@PEELNNPF@Voice?5activity?5detection?$AA@ 005ab124     pjmedia-audiodev-i386-win32-vc8-debug:audiodev.obj
 0003:00035144       ??_C@_03NIGLNABH@vad?$AA@  005ab144     pjmedia-audiodev-i386-win32-vc8-debug:audiodev.obj
 0003:00035148       ??_C@_0BM@PBLLADJD@Tail?5length?5setting?5for?5AEC?$AA@ 005ab148     pjmedia-audiodev-i386-win32-vc8-debug:audiodev.obj
 0003:0003516c       ??_C@_08MKAPJCJE@aec?9tail?$AA@ 005ab16c     pjmedia-audiodev-i386-win32-vc8-debug:audiodev.obj
 0003:00035178       ??_C@_0BM@HPDLGLFJ@Accoustic?5echo?5cancellation?$AA@ 005ab178     pjmedia-audiodev-i386-win32-vc8-debug:audiodev.obj
 0003:0003519c       ??_C@_03FNONIBCK@aec?$AA@  005ab19c     pjmedia-audiodev-i386-win32-vc8-debug:audiodev.obj
 0003:000351a0       ??_C@_0P@JOFPIEJJ@Output?5routing?$AA@ 005ab1a0     pjmedia-audiodev-i386-win32-vc8-debug:audiodev.obj
 0003:000351b4       ??_C@_09IKMAGDNF@route?9out?$AA@ 005ab1b4     pjmedia-audiodev-i386-win32-vc8-debug:audiodev.obj
 0003:000351c0       ??_C@_0O@JDPFDDM@Input?5routing?$AA@ 005ab1c0     pjmedia-audiodev-i386-win32-vc8-debug:audiodev.obj
 0003:000351d0       ??_C@_08FPHJDLBG@route?9in?$AA@ 005ab1d0     pjmedia-audiodev-i386-win32-vc8-debug:audiodev.obj
 0003:000351dc       ??_C@_0N@GBEOEOEP@Output?5meter?$AA@ 005ab1dc     pjmedia-audiodev-i386-win32-vc8-debug:audiodev.obj
 0003:000351ec       ??_C@_09NKJLJGOJ@meter?9out?$AA@ 005ab1ec     pjmedia-audiodev-i386-win32-vc8-debug:audiodev.obj
 0003:000351f8       ??_C@_0M@NCGIGNPG@Input?5meter?$AA@ 005ab1f8     pjmedia-audiodev-i386-win32-vc8-debug:audiodev.obj
 0003:00035208       ??_C@_08BPNDLGG@meter?9in?$AA@ 005ab208     pjmedia-audiodev-i386-win32-vc8-debug:audiodev.obj
 0003:00035214       ??_C@_0BG@IBEHJHAD@Output?5volume?5setting?$AA@ 005ab214     pjmedia-audiodev-i386-win32-vc8-debug:audiodev.obj
 0003:00035230       ??_C@_07LBFHFBAF@vol?9out?$AA@ 005ab230     pjmedia-audiodev-i386-win32-vc8-debug:audiodev.obj
 0003:0003523c       ??_C@_0BF@CCEKOJAN@Input?5volume?5setting?$AA@ 005ab23c     pjmedia-audiodev-i386-win32-vc8-debug:audiodev.obj
 0003:00035258       ??_C@_06KGGLCDDG@vol?9in?$AA@ 005ab258     pjmedia-audiodev-i386-win32-vc8-debug:audiodev.obj
 0003:00035260       ??_C@_0CD@GAINMBC@Output?5latency?1buffer?5size?5setti@ 005ab260     pjmedia-audiodev-i386-win32-vc8-debug:audiodev.obj
 0003:0003528c       ??_C@_0M@MBBBBCLJ@latency?9out?$AA@ 005ab28c     pjmedia-audiodev-i386-win32-vc8-debug:audiodev.obj
 0003:0003529c       ??_C@_0CC@LIGOHOJN@Input?5latency?1buffer?5size?5settin@ 005ab29c     pjmedia-audiodev-i386-win32-vc8-debug:audiodev.obj
 0003:000352c4       ??_C@_0L@IKNMBADD@latency?9in?$AA@ 005ab2c4     pjmedia-audiodev-i386-win32-vc8-debug:audiodev.obj
 0003:000352d4       ??_C@_0BI@GGHCECPI@Extended?1non?9PCM?5format?$AA@ 005ab2d4     pjmedia-audiodev-i386-win32-vc8-debug:audiodev.obj
 0003:000352f0       ??_C@_07GBKCPIDJ@ext?9fmt?$AA@ 005ab2f0     pjmedia-audiodev-i386-win32-vc8-debug:audiodev.obj
 0003:000352fc       ??_C@_0L@FGHHAHLM@audiodev?4c?$AA@ 005ab2fc     pjmedia-audiodev-i386-win32-vc8-debug:audiodev.obj
 0003:00035310       ??_C@_0EF@NLCNMHAD@?$CFd?5device?$CIs?$CJ?5cannot?5be?5registere@ 005ab310     pjmedia-audiodev-i386-win32-vc8-debug:audiodev.obj
 0003:00035364       ??_C@_1BM@DPBJELLN@?$AAa?$AAu?$AAd?$AA_?$AAs?$AAu?$AAb?$AAs?$AAy?$AAs?$AA?4?$AAp?$AAf?$AA?$AA@ 005ab364     pjmedia-audiodev-i386-win32-vc8-debug:audiodev.obj
 0003:00035388       ??_C@_1EI@NEALAIDF@?$AAi?$AAn?$AAf?$AAo?$AA?5?$AA?$CG?$AA?$CG?$AA?5?$AAi?$AAd?$AA?$CB?$AA?$DN?$AAP?$AAJ?$AAM?$AAE?$AAD?$AAI?$AAA?$AA_?$AAA?$AAU?$AAD?$AA_?$AAI?$AAN?$AAV?$AAA?$AAL?$AAI?$AAD?$AA_@ 005ab388     pjmedia-audiodev-i386-win32-vc8-debug:audiodev.obj
 0003:000353e0       ??_C@_1HO@JDLGFBMB@?$AAd?$AA?3?$AA?2?$AAm?$AAy?$AAg?$AAi?$AAt?$AA?2?$AAp?$AAj?$AAp?$AAr?$AAo?$AAj?$AAe?$AAc?$AAt?$AA?9?$AA1?$AA?4?$AA4?$AA?2?$AAp?$AAj?$AAm?$AAe?$AAd?$AAi?$AAa?$AA?2?$AAs@ 005ab3e0     pjmedia-audiodev-i386-win32-vc8-debug:audiodev.obj
 0003:00035478       ??_C@_1GG@CMJIPMBM@?$AA?$CK?$AAi?$AAd?$AA?$DO?$AA?$DN?$AA0?$AA?5?$AA?$CG?$AA?$CG?$AA?5?$AA?$CK?$AAi?$AAd?$AA?$DM?$AA?$CI?$AAi?$AAn?$AAt?$AA?$CJ?$AAa?$AAu?$AAd?$AA_?$AAs?$AAu?$AAb?$AAs?$AAy?$AAs?$AA?4?$AAd?$AAr@ 005ab478     pjmedia-audiodev-i386-win32-vc8-debug:audiodev.obj
 0003:000354f4       ??_C@_1DE@BIILPEEH@?$AAa?$AAu?$AAd?$AA_?$AAs?$AAu?$AAb?$AAs?$AAy?$AAs?$AA?4?$AAd?$AAr?$AAv?$AA?$FL?$AAd?$AAr?$AAv?$AA_?$AAi?$AAd?$AAx?$AA?$FN?$AA?4?$AAf?$AA?$AA@ 005ab4f4     pjmedia-audiodev-i386-win32-vc8-debug:audiodev.obj
 0003:00035534       ??_C@_1DG@KGHCCJGJ@?$AAd?$AAr?$AAv?$AA_?$AAn?$AAa?$AAm?$AAe?$AA?5?$AA?$CG?$AA?$CG?$AA?5?$AAd?$AAe?$AAv?$AA_?$AAn?$AAa?$AAm?$AAe?$AA?5?$AA?$CG?$AA?$CG?$AA?5?$AAi?$AAd?$AA?$AA@ 005ab534     pjmedia-audiodev-i386-win32-vc8-debug:audiodev.obj
 0003:00035578       ??_C@_1EK@DJOOKBNF@?$AAp?$AAa?$AAr?$AAa?$AAm?$AA?5?$AA?$CG?$AA?$CG?$AA?5?$AAi?$AAd?$AA?$CB?$AA?$DN?$AAP?$AAJ?$AAM?$AAE?$AAD?$AAI?$AAA?$AA_?$AAA?$AAU?$AAD?$AA_?$AAI?$AAN?$AAV?$AAA?$AAL?$AAI?$AAD@ 005ab578     pjmedia-audiodev-i386-win32-vc8-debug:audiodev.obj
 0003:000355d0       ??_C@_1IE@FJNJJMDO@?$AA?$CI?$AAp?$AAa?$AAr?$AAa?$AAm?$AA?4?$AAd?$AAi?$AAr?$AA?5?$AA?$CB?$AA?$DN?$AA?5?$AAP?$AAJ?$AAM?$AAE?$AAD?$AAI?$AAA?$AA_?$AAD?$AAI?$AAR?$AA_?$AAE?$AAN?$AAC?$AAO?$AAD?$AAI@ 005ab5d0     pjmedia-audiodev-i386-win32-vc8-debug:audiodev.obj
 0003:00035670       ??_C@_1CC@LOOLMMAJ@?$AAf?$AA?5?$AA?$CB?$AA?$DN?$AA?5?$AA?$CI?$AA?$CI?$AAv?$AAo?$AAi?$AAd?$AA?5?$AA?$CK?$AA?$CJ?$AA0?$AA?$CJ?$AA?$AA@ 005ab670     pjmedia-audiodev-i386-win32-vc8-debug:audiodev.obj
 0003:00035698       ??_C@_1NI@MGDONOEB@?$AAp?$AAr?$AAm?$AA?9?$AA?$DO?$AAd?$AAi?$AAr?$AA?$DN?$AA?$DN?$AAP?$AAJ?$AAM?$AAE?$AAD?$AAI?$AAA?$AA_?$AAD?$AAI?$AAR?$AA_?$AAE?$AAN?$AAC?$AAO?$AAD?$AAI?$AAN?$AAG?$AA?5?$AA?$HM@ 005ab698     pjmedia-audiodev-i386-win32-vc8-debug:audiodev.obj
 0003:0003579c       ??_C@_1DM@JABAMPOD@?$AAp?$AAr?$AAm?$AA?5?$AA?$CG?$AA?$CG?$AA?5?$AAp?$AAr?$AAm?$AA?9?$AA?$DO?$AAd?$AAi?$AAr?$AA?5?$AA?$CG?$AA?$CG?$AA?5?$AAp?$AA_?$AAa?$AAu?$AAd?$AA_?$AAs?$AAt?$AAr?$AAm?$AA?$AA@ 005ab79c     pjmedia-audiodev-i386-win32-vc8-debug:audiodev.obj
 0003:000357e4       ??_C@_1BM@GLEMCIF@?$AAs?$AAt?$AAr?$AAm?$AA?5?$AA?$CG?$AA?$CG?$AA?5?$AAp?$AAa?$AAr?$AAa?$AAm?$AA?$AA@ 005ab7e4     pjmedia-audiodev-i386-win32-vc8-debug:audiodev.obj
 0003:00035808       ??_C@_04CPNMDOAK@WMME?$AA@ 005ab808     pjmedia-audiodev-i386-win32-vc8-debug:wmme_dev.obj
 0003:00035810       ??_C@_0CA@NLJGEGOG@?5dev_id?5?$CFd?3?5?$CFs?5?5?$CIin?$DN?$CFd?0?5out?$DN?$CFd?$CJ?$AA@ 005ab810     pjmedia-audiodev-i386-win32-vc8-debug:wmme_dev.obj
 0003:00035838       ??_C@_0CE@ELPIODDO@WMME?5initialized?0?5found?5?$CFd?5devic@ 005ab838     pjmedia-audiodev-i386-win32-vc8-debug:wmme_dev.obj
 0003:00035864       ??_C@_0L@HHCCMOGO@wmme_dev?4c?$AA@ 005ab864     pjmedia-audiodev-i386-win32-vc8-debug:wmme_dev.obj
 0003:00035874       ??_C@_0BM@OMJMEAMB@WMME?5found?5no?5sound?5devices?$AA@ 005ab874     pjmedia-audiodev-i386-win32-vc8-debug:wmme_dev.obj
 0003:00035898       ??_C@_0M@KBHHDDLP@Wave?5mapper?$AA@ 005ab898     pjmedia-audiodev-i386-win32-vc8-debug:wmme_dev.obj
 0003:000358a8       ??_C@_1CM@DCIMFEME@?$AAi?$AAn?$AAd?$AAe?$AAx?$AA?5?$AA?$DM?$AA?5?$AAw?$AAf?$AA?9?$AA?$DO?$AAd?$AAe?$AAv?$AA_?$AAc?$AAo?$AAu?$AAn?$AAt?$AA?$AA@ 005ab8a8     pjmedia-audiodev-i386-win32-vc8-debug:wmme_dev.obj
 0003:000358e0       ??_C@_1HO@MBFKLDAG@?$AAd?$AA?3?$AA?2?$AAm?$AAy?$AAg?$AAi?$AAt?$AA?2?$AAp?$AAj?$AAp?$AAr?$AAo?$AAj?$AAe?$AAc?$AAt?$AA?9?$AA1?$AA?4?$AA4?$AA?2?$AAp?$AAj?$AAm?$AAe?$AAd?$AAi?$AAa?$AA?2?$AAs@ 005ab8e0     pjmedia-audiodev-i386-win32-vc8-debug:wmme_dev.obj
 0003:00035978       ??_C@_04ODOGNMHC@wmme?$AA@ 005ab978     pjmedia-audiodev-i386-win32-vc8-debug:wmme_dev.obj
 0003:00035980       ??_C@_08MOOOBPLB@wmme?9dev?$AA@ 005ab980     pjmedia-audiodev-i386-win32-vc8-debug:wmme_dev.obj
 0003:00035990       ??_C@_0HB@MKIBCFPJ@?5WaveAPI?5Sound?5player?5?$CC?$CFs?$CC?5initi@ 005ab990     pjmedia-audiodev-i386-win32-vc8-debug:wmme_dev.obj
 0003:00035a18       ??_C@_1EE@KABDJHEG@?$AAp?$AAr?$AAm?$AA?9?$AA?$DO?$AAp?$AAl?$AAa?$AAy?$AA_?$AAi?$AAd?$AA?5?$AA?$DM?$AA?5?$AA?$CI?$AAi?$AAn?$AAt?$AA?$CJ?$AAw?$AAf?$AA?9?$AA?$DO?$AAd?$AAe?$AAv?$AA_?$AAc?$AAo?$AAu?$AAn@ 005aba18     pjmedia-audiodev-i386-win32-vc8-debug:wmme_dev.obj
 0003:00035a6c       ??_C@_03CCLNCNJA@PCM?$AA@  005aba6c     pjmedia-audiodev-i386-win32-vc8-debug:wmme_dev.obj
 0003:00035a70       ??_C@_0HD@PIICIPL@?5WaveAPI?5Sound?5recorder?5?$CC?$CFs?$CC?5ini@ 005aba70     pjmedia-audiodev-i386-win32-vc8-debug:wmme_dev.obj
 0003:00035b00       ??_C@_1EC@CICBGNKJ@?$AAp?$AAr?$AAm?$AA?9?$AA?$DO?$AAr?$AAe?$AAc?$AA_?$AAi?$AAd?$AA?5?$AA?$DM?$AA?5?$AA?$CI?$AAi?$AAn?$AAt?$AA?$CJ?$AAw?$AAf?$AA?9?$AA?$DO?$AAd?$AAe?$AAv?$AA_?$AAc?$AAo?$AAu?$AAn?$AAt@ 005abb00     pjmedia-audiodev-i386-win32-vc8-debug:wmme_dev.obj
 0003:00035b50       ??_C@_0BI@BEJPJEBJ@WMME?3?5thread?5stopping?4?4?$AA@ 005abb50     pjmedia-audiodev-i386-win32-vc8-debug:wmme_dev.obj
 0003:00035b6c       ??_C@_1DI@LANCDOGM@?$AA?$CB?$AA?$CC?$AAF?$AAr?$AAa?$AAm?$AAe?$AA?5?$AAt?$AAy?$AAp?$AAe?$AA?5?$AAn?$AAo?$AAt?$AA?5?$AAs?$AAu?$AAp?$AAp?$AAo?$AAr?$AAt?$AAe?$AAd?$AA?$CC?$AA?$AA@ 005abb6c     pjmedia-audiodev-i386-win32-vc8-debug:wmme_dev.obj
 0003:00035bb0       ??_C@_0BJ@JGIOJGMH@Frame?5type?5not?5supported?$AA@ 005abbb0     pjmedia-audiodev-i386-win32-vc8-debug:wmme_dev.obj
 0003:00035bd0       ??_C@_1BG@DEEBDKCH@?$AAs?$AAt?$AAr?$AAm?$AA?5?$AA?$CG?$AA?$CG?$AA?5?$AAp?$AAi?$AA?$AA@ 005abbd0     pjmedia-audiodev-i386-win32-vc8-debug:wmme_dev.obj
 0003:00035bec       ??_C@_1BE@IKBALJHE@?$AAs?$AA?5?$AA?$CG?$AA?$CG?$AA?5?$AAp?$AAv?$AAa?$AAl?$AA?$AA@ 005abbec     pjmedia-audiodev-i386-win32-vc8-debug:wmme_dev.obj
 0003:00035c04       ??_C@_0BM@NKDLICNM@WMME?5capture?5stream?5started?$AA@ 005abc04     pjmedia-audiodev-i386-win32-vc8-debug:wmme_dev.obj
 0003:00035c28       ??_C@_0BN@MNACKNIN@WMME?5playback?5stream?5started?$AA@ 005abc28     pjmedia-audiodev-i386-win32-vc8-debug:wmme_dev.obj
 0003:00035c4c       ??_C@_0BM@KCHDOGNE@Stopped?5WMME?5capture?5stream?$AA@ 005abc4c     pjmedia-audiodev-i386-win32-vc8-debug:wmme_dev.obj
 0003:00035c70       ??_C@_0BN@FMJNHCPG@Stopped?5WMME?5playback?5stream?$AA@ 005abc70     pjmedia-audiodev-i386-win32-vc8-debug:wmme_dev.obj
 0003:00035c94       ??_C@_0DE@LJJGJIEF@Bad?5audio?5latency?5setting?5?$CIPJMED@ 005abc94     pjmedia-audiodev-i386-win32-vc8-debug:errno.obj
 0003:00035cd4       ??_C@_0DN@BLAJILEA@Invalid?5audio?5device?5sample?5form@ 005abcd4     pjmedia-audiodev-i386-win32-vc8-debug:errno.obj
 0003:00035d20       ??_C@_0DM@JKDJGBNG@Bad?5or?5invalid?5audio?5device?5form@ 005abd20     pjmedia-audiodev-i386-win32-vc8-debug:errno.obj
 0003:00035d68       ??_C@_0ED@PLJALPOA@Invalid?5or?5unsupported?5audio?5dev@ 005abd68     pjmedia-audiodev-i386-win32-vc8-debug:errno.obj
 0003:00035db8       ??_C@_0DO@NMIGLFFA@Invalid?5or?5unsupported?5audio?5cap@ 005abdb8     pjmedia-audiodev-i386-win32-vc8-debug:errno.obj
 0003:00035e04       ??_C@_0CP@JIPJOIMB@Audio?5device?5not?5ready?5?$CIPJMEDIA_@ 005abe04     pjmedia-audiodev-i386-win32-vc8-debug:errno.obj
 0003:00035e3c       ??_C@_0DM@DPDKGMIE@Unable?5to?5find?5default?5audio?5dev@ 005abe3c     pjmedia-audiodev-i386-win32-vc8-debug:errno.obj
 0003:00035e84       ??_C@_0CM@LOPLLMHO@Found?5no?5audio?5devices?5?$CIPJMEDIA_@ 005abe84     pjmedia-audiodev-i386-win32-vc8-debug:errno.obj
 0003:00035eb8       ??_C@_0CL@NCBJPCNF@Invalid?5audio?5device?5?$CIPJMEDIA_EA@ 005abeb8     pjmedia-audiodev-i386-win32-vc8-debug:errno.obj
 0003:00035eec       ??_C@_0DE@DOHCBKFK@Audio?5subsystem?5not?5initialized?5@ 005abeec     pjmedia-audiodev-i386-win32-vc8-debug:errno.obj
 0003:00035f2c       ??_C@_0DG@FEDKLOFB@Unknown?5error?5from?5audio?5driver?5@ 005abf2c     pjmedia-audiodev-i386-win32-vc8-debug:errno.obj
 0003:00035f6c       ??_C@_0DC@MHBBCDGM@Unspecified?5audio?5device?5error?5?$CI@ 005abf6c     pjmedia-audiodev-i386-win32-vc8-debug:errno.obj
 0003:0003601c       ??_C@_0CC@MFOJNIAN@Unknown?5pjmedia?9audiodev?5error?5?$CF@ 005ac01c     pjmedia-audiodev-i386-win32-vc8-debug:errno.obj
 0003:00036044       ??_C@_0BJ@GMHLEOAL@MMSYSTEM?5native?5error?5?$CFd?$AA@ 005ac044     pjmedia-audiodev-i386-win32-vc8-debug:errno.obj
 0003:00036ca8       ??_R4bad_exception@std@@6B@ 005acca8     LIBCMTD:frame.obj
 0003:00036cc0       ??_R3bad_exception@std@@8  005accc0     LIBCMTD:frame.obj
 0003:00036cd4       ??_R2bad_exception@std@@8  005accd4     LIBCMTD:frame.obj
 0003:00036ce0       ??_R1A@?0A@EA@bad_exception@std@@8 005acce0     LIBCMTD:frame.obj
 0003:00036d04       ??_R1A@?0A@EA@exception@std@@8 005acd04     LIBCMTD:frame.obj
 0003:00036d28       ??_R3exception@std@@8      005acd28     LIBCMTD:frame.obj
 0003:00036d3c       ??_R2exception@std@@8      005acd3c     LIBCMTD:frame.obj
 0003:00036d44       ??_R4type_info@@6B@        005acd44     LIBCMTD:typinfo.obj
 0003:00036d5c       ??_R3type_info@@8          005acd5c     LIBCMTD:typinfo.obj
 0003:00036d70       ??_R2type_info@@8          005acd70     LIBCMTD:typinfo.obj
 0003:00036d78       ??_R1A@?0A@EA@type_info@@8 005acd78     LIBCMTD:typinfo.obj
 0003:00036d9c       ??_R4exception@std@@6B@    005acd9c     LIBCMTD:stdexcpt.obj
 0003:00036db4       ??_R4bad_cast@std@@6B@     005acdb4     LIBCMTD:stdexcpt.obj
 0003:00036dcc       ??_R3bad_cast@std@@8       005acdcc     LIBCMTD:stdexcpt.obj
 0003:00036de0       ??_R2bad_cast@std@@8       005acde0     LIBCMTD:stdexcpt.obj
 0003:00036dec       ??_R1A@?0A@EA@bad_cast@std@@8 005acdec     LIBCMTD:stdexcpt.obj
 0003:00036e10       ??_R4bad_typeid@std@@6B@   005ace10     LIBCMTD:stdexcpt.obj
 0003:00036e28       ??_R3bad_typeid@std@@8     005ace28     LIBCMTD:stdexcpt.obj
 0003:00036e3c       ??_R2bad_typeid@std@@8     005ace3c     LIBCMTD:stdexcpt.obj
 0003:00036e48       ??_R1A@?0A@EA@bad_typeid@std@@8 005ace48     LIBCMTD:stdexcpt.obj
 0003:00036e6c       ??_R4__non_rtti_object@std@@6B@ 005ace6c     LIBCMTD:stdexcpt.obj
 0003:00036e84       ??_R3__non_rtti_object@std@@8 005ace84     LIBCMTD:stdexcpt.obj
 0003:00036e98       ??_R2__non_rtti_object@std@@8 005ace98     LIBCMTD:stdexcpt.obj
 0003:00036ea8       ??_R1A@?0A@EA@__non_rtti_object@std@@8 005acea8     LIBCMTD:stdexcpt.obj
 0003:00036ecc       ??_R4DNameNode@@6B@        005acecc     LIBCMTD:undname.obj
 0003:00036ee4       ??_R3DNameNode@@8          005acee4     LIBCMTD:undname.obj
 0003:00036ef8       ??_R2DNameNode@@8          005acef8     LIBCMTD:undname.obj
 0003:00036f00       ??_R1A@?0A@EA@DNameNode@@8 005acf00     LIBCMTD:undname.obj
 0003:00036f24       ??_R4charNode@@6B@         005acf24     LIBCMTD:undname.obj
 0003:00036f3c       ??_R3charNode@@8           005acf3c     LIBCMTD:undname.obj
 0003:00036f50       ??_R2charNode@@8           005acf50     LIBCMTD:undname.obj
 0003:00036f5c       ??_R1A@?0A@EA@charNode@@8  005acf5c     LIBCMTD:undname.obj
 0003:00036f80       ??_R4pcharNode@@6B@        005acf80     LIBCMTD:undname.obj
 0003:00036f98       ??_R3pcharNode@@8          005acf98     LIBCMTD:undname.obj
 0003:00036fac       ??_R2pcharNode@@8          005acfac     LIBCMTD:undname.obj
 0003:00036fb8       ??_R1A@?0A@EA@pcharNode@@8 005acfb8     LIBCMTD:undname.obj
 0003:00036fdc       ??_R4pDNameNode@@6B@       005acfdc     LIBCMTD:undname.obj
 0003:00036ff4       ??_R3pDNameNode@@8         005acff4     LIBCMTD:undname.obj
 0003:00037008       ??_R2pDNameNode@@8         005ad008     LIBCMTD:undname.obj
 0003:00037014       ??_R1A@?0A@EA@pDNameNode@@8 005ad014     LIBCMTD:undname.obj
 0003:00037038       ??_R4DNameStatusNode@@6B@  005ad038     LIBCMTD:undname.obj
 0003:00037050       ??_R3DNameStatusNode@@8    005ad050     LIBCMTD:undname.obj
 0003:00037064       ??_R2DNameStatusNode@@8    005ad064     LIBCMTD:undname.obj
 0003:00037070       ??_R1A@?0A@EA@DNameStatusNode@@8 005ad070     LIBCMTD:undname.obj
 0003:000371ac       ___rtc_iaa                 005ad1ac     LIBCMTD:initsect.obj
 0003:000372b0       ___rtc_izz                 005ad2b0     LIBCMTD:initsect.obj
 0003:000373b4       ___rtc_taa                 005ad3b4     LIBCMTD:initsect.obj
 0003:000374b8       ___rtc_tzz                 005ad4b8     LIBCMTD:initsect.obj
 0003:000380e0       __TI2?AVbad_exception@std@@ 005ae0e0     LIBCMTD:frame.obj
 0003:000380f4       __CTA2?AVbad_exception@std@@ 005ae0f4     LIBCMTD:frame.obj
 0003:00038104       __CT??_R0?AVbad_exception@std@@@8??0bad_exception@std@@QAE@ABV01@@Z12 005ae104     LIBCMTD:frame.obj
 0003:00038124       __CT??_R0?AVexception@std@@@8??0exception@std@@QAE@ABV01@@Z12 005ae124     LIBCMTD:frame.obj
 0004:000009d0       _audio_codecs              005af9d0     siprtp.obj
 0004:000024b8       ?__LINE__Var@?1??inv_set_state@@9@9 005b14b8     pjsip-ua-i386-win32-vc8-debug:sip_inv.obj
 0004:000024bc       ?__LINE__Var@?1??mod_inv_on_rx_request@@9@9@bcd1b825 005b14bc     pjsip-ua-i386-win32-vc8-debug:sip_inv.obj
 0004:000024c0       ?__LINE__Var@?1??inv_send_ack@@9@9@bcd1b825 005b14c0     pjsip-ua-i386-win32-vc8-debug:sip_inv.obj
 0004:000024c4       ?__LINE__Var@?1??pjsip_inv_usage_init@@9@9 005b14c4     pjsip-ua-i386-win32-vc8-debug:sip_inv.obj
 0004:000024c8       ?__LINE__Var@?1??pjsip_inv_state_name@@9@9 005b14c8     pjsip-ua-i386-win32-vc8-debug:sip_inv.obj
 0004:000024cc       ?__LINE__Var@?1??pjsip_inv_create_uac@@9@9 005b14cc     pjsip-ua-i386-win32-vc8-debug:sip_inv.obj
 0004:000024d0       ?__LINE__Var@?1??pjsip_inv_verify_request2@@9@9 005b14d0     pjsip-ua-i386-win32-vc8-debug:sip_inv.obj
 0004:000024d4       ?__LINE__Var@?1??pjsip_inv_create_uas@@9@9 005b14d4     pjsip-ua-i386-win32-vc8-debug:sip_inv.obj
 0004:000024d8       ?__LINE__Var@?1??pjsip_inv_terminate@@9@9 005b14d8     pjsip-ua-i386-win32-vc8-debug:sip_inv.obj
 0004:000024dc       ?__LINE__Var@?1??pjsip_inv_uac_restart@@9@9 005b14dc     pjsip-ua-i386-win32-vc8-debug:sip_inv.obj
 0004:000024e0       ?__LINE__Var@?1??pjsip_create_sdp_body@@9@9 005b14e0     pjsip-ua-i386-win32-vc8-debug:sip_inv.obj
 0004:000024e4       ?__LINE__Var@?1??pjsip_inv_invite@@9@9 005b14e4     pjsip-ua-i386-win32-vc8-debug:sip_inv.obj
 0004:000024e8       ?__LINE__Var@?1??inv_negotiate_sdp@@9@9@bcd1b825 005b14e8     pjsip-ua-i386-win32-vc8-debug:sip_inv.obj
 0004:000024ec       ?__LINE__Var@?1??pjsip_inv_initial_answer@@9@9 005b14ec     pjsip-ua-i386-win32-vc8-debug:sip_inv.obj
 0004:000024f0       ?__LINE__Var@?1??process_answer@@9@9@bcd1b825 005b14f0     pjsip-ua-i386-win32-vc8-debug:sip_inv.obj
 0004:000024f4       ?__LINE__Var@?1??pjsip_inv_answer@@9@9 005b14f4     pjsip-ua-i386-win32-vc8-debug:sip_inv.obj
 0004:000024f8       ?__LINE__Var@?1??pjsip_inv_set_sdp_answer@@9@9 005b14f8     pjsip-ua-i386-win32-vc8-debug:sip_inv.obj
 0004:000024fc       ?__LINE__Var@?1??pjsip_inv_end_session@@9@9 005b14fc     pjsip-ua-i386-win32-vc8-debug:sip_inv.obj
 0004:00002500       ?__LINE__Var@?1??pjsip_inv_process_redirect@@9@9 005b1500     pjsip-ua-i386-win32-vc8-debug:sip_inv.obj
 0004:00002504       ?__LINE__Var@?1??inv_uac_recurse@@9@9@bcd1b825 005b1504     pjsip-ua-i386-win32-vc8-debug:sip_inv.obj
 0004:00002508       ?__LINE__Var@?1??pjsip_inv_reinvite@@9@9 005b1508     pjsip-ua-i386-win32-vc8-debug:sip_inv.obj
 0004:0000250c       ?__LINE__Var@?1??pjsip_inv_update@@9@9 005b150c     pjsip-ua-i386-win32-vc8-debug:sip_inv.obj
 0004:00002510       ?__LINE__Var@?1??pjsip_inv_create_ack@@9@9 005b1510     pjsip-ua-i386-win32-vc8-debug:sip_inv.obj
 0004:00002514       ?__LINE__Var@?1??pjsip_inv_send_msg@@9@9 005b1514     pjsip-ua-i386-win32-vc8-debug:sip_inv.obj
 0004:00002518       ?__LINE__Var@?1??inv_on_state_null@@9@9@bcd1b825 005b1518     pjsip-ua-i386-win32-vc8-debug:sip_inv.obj
 0004:0000251c       ?__LINE__Var@?1??inv_on_state_calling@@9@9@bcd1b825 005b151c     pjsip-ua-i386-win32-vc8-debug:sip_inv.obj
 0004:00002520       ?__LINE__Var@?1??inv_on_state_incoming@@9@9@bcd1b825 005b1520     pjsip-ua-i386-win32-vc8-debug:sip_inv.obj
 0004:00002524       ?__LINE__Var@?1??inv_respond_incoming_cancel@@9@9@bcd1b825 005b1524     pjsip-ua-i386-win32-vc8-debug:sip_inv.obj
 0004:00002528       ?__LINE__Var@?1??inv_on_state_early@@9@9@bcd1b825 005b1528     pjsip-ua-i386-win32-vc8-debug:sip_inv.obj
 0004:0000252c       ?__LINE__Var@?1??handle_uac_tsx_response@@9@9@bcd1b825 005b152c     pjsip-ua-i386-win32-vc8-debug:sip_inv.obj
 0004:00002530       ?__LINE__Var@?1??inv_on_state_connecting@@9@9@bcd1b825 005b1530     pjsip-ua-i386-win32-vc8-debug:sip_inv.obj
 0004:00002534       ?__LINE__Var@?1??inv_on_state_confirmed@@9@9@bcd1b825 005b1534     pjsip-ua-i386-win32-vc8-debug:sip_inv.obj
 0004:00002538       ?__LINE__Var@?1??inv_on_state_disconnected@@9@9@bcd1b825 005b1538     pjsip-ua-i386-win32-vc8-debug:sip_inv.obj
 0004:0000258c       ?__LINE__Var@?1??pjsip_100rel_attach@@9@9 005b158c     pjsip-ua-i386-win32-vc8-debug:sip_100rel.obj
 0004:00002590       ?__LINE__Var@?1??pjsip_100rel_is_reliable@@9@9 005b1590     pjsip-ua-i386-win32-vc8-debug:sip_100rel.obj
 0004:00002594       ?__LINE__Var@?1??pjsip_100rel_create_prack@@9@9 005b1594     pjsip-ua-i386-win32-vc8-debug:sip_100rel.obj
 0004:00002598       ?__LINE__Var@?1??pjsip_100rel_send_prack@@9@9 005b1598     pjsip-ua-i386-win32-vc8-debug:sip_100rel.obj
 0004:0000259c       ?__LINE__Var@?1??pjsip_100rel_end_session@@9@9 005b159c     pjsip-ua-i386-win32-vc8-debug:sip_100rel.obj
 0004:000025a0       ?__LINE__Var@?1??pjsip_100rel_on_rx_prack@@9@9 005b15a0     pjsip-ua-i386-win32-vc8-debug:sip_100rel.obj
 0004:000025a4       ?__LINE__Var@?1??on_retransmit@@9@9@899fa731 005b15a4     pjsip-ua-i386-win32-vc8-debug:sip_100rel.obj
 0004:000025a8       ?__LINE__Var@?1??pjsip_100rel_tx_response@@9@9 005b15a8     pjsip-ua-i386-win32-vc8-debug:sip_100rel.obj
 0004:000025c8       ?__LINE__Var@?1??pjsip_timer_init_module@@9@9 005b15c8     pjsip-ua-i386-win32-vc8-debug:sip_timer.obj
 0004:000025cc       ?__LINE__Var@?1??pjsip_timer_init_session@@9@9 005b15cc     pjsip-ua-i386-win32-vc8-debug:sip_timer.obj
 0004:000025d0       ?__LINE__Var@?1??pjsip_sess_expires_hdr_create@@9@9 005b15d0     pjsip-ua-i386-win32-vc8-debug:sip_timer.obj
 0004:000025d4       ?__LINE__Var@?1??pjsip_min_se_hdr_create@@9@9 005b15d4     pjsip-ua-i386-win32-vc8-debug:sip_timer.obj
 0004:000025d8       ?__LINE__Var@?1??pjsip_timer_update_req@@9@9 005b15d8     pjsip-ua-i386-win32-vc8-debug:sip_timer.obj
 0004:000025dc       ?__LINE__Var@?1??pjsip_timer_process_resp@@9@9 005b15dc     pjsip-ua-i386-win32-vc8-debug:sip_timer.obj
 0004:000025e0       ?__LINE__Var@?1??timer_cb@@9@9@af381318 005b15e0     pjsip-ua-i386-win32-vc8-debug:sip_timer.obj
 0004:000025e4       ?__LINE__Var@?1??start_timer@@9@9@af381318 005b15e4     pjsip-ua-i386-win32-vc8-debug:sip_timer.obj
 0004:000025e8       ?__LINE__Var@?1??pjsip_timer_process_req@@9@9 005b15e8     pjsip-ua-i386-win32-vc8-debug:sip_timer.obj
 0004:000025ec       ?__LINE__Var@?1??pjsip_timer_update_resp@@9@9 005b15ec     pjsip-ua-i386-win32-vc8-debug:sip_timer.obj
 0004:000025f0       ?__LINE__Var@?1??pjsip_timer_end_session@@9@9 005b15f0     pjsip-ua-i386-win32-vc8-debug:sip_timer.obj
 0004:00002628       ?__LINE__Var@?1??pjsip_target_set_add_uri@@9@9 005b1628     pjsip-core-i386-win32-vc8-debug:sip_util.obj
 0004:0000262c       ?__LINE__Var@?1??pjsip_target_set_add_from_msg@@9@9 005b162c     pjsip-core-i386-win32-vc8-debug:sip_util.obj
 0004:00002630       ?__LINE__Var@?1??pjsip_target_set_set_current@@9@9 005b1630     pjsip-core-i386-win32-vc8-debug:sip_util.obj
 0004:00002634       ?__LINE__Var@?1??pjsip_target_assign_status@@9@9 005b1634     pjsip-core-i386-win32-vc8-debug:sip_util.obj
 0004:00002638       ?__LINE__Var@?1??pjsip_endpt_create_request_from_hdr@@9@9 005b1638     pjsip-core-i386-win32-vc8-debug:sip_util.obj
 0004:0000263c       ?__LINE__Var@?1??pjsip_endpt_create_response@@9@9 005b163c     pjsip-core-i386-win32-vc8-debug:sip_util.obj
 0004:00002640       ?__LINE__Var@?1??pjsip_endpt_create_ack@@9@9 005b1640     pjsip-core-i386-win32-vc8-debug:sip_util.obj
 0004:00002644       ?__LINE__Var@?1??pjsip_endpt_create_cancel@@9@9 005b1644     pjsip-core-i386-win32-vc8-debug:sip_util.obj
 0004:00002648       ?__LINE__Var@?1??pjsip_get_request_dest@@9@9 005b1648     pjsip-core-i386-win32-vc8-debug:sip_util.obj
 0004:0000264c       ?__LINE__Var@?1??get_dest_info@@9@9@66763895 005b164c     pjsip-core-i386-win32-vc8-debug:sip_util.obj
 0004:00002650       ?__LINE__Var@?1??pjsip_process_route_set@@9@9 005b1650     pjsip-core-i386-win32-vc8-debug:sip_util.obj
 0004:00002654       ?__LINE__Var@?1??pjsip_restore_strict_route_set@@9@9 005b1654     pjsip-core-i386-win32-vc8-debug:sip_util.obj
 0004:00002658       ?__LINE__Var@?1??pjsip_endpt_send_request_stateless@@9@9 005b1658     pjsip-core-i386-win32-vc8-debug:sip_util.obj
 0004:0000265c       ?__LINE__Var@?1??stateless_send_resolver_callback@@9@9@66763895 005b165c     pjsip-core-i386-win32-vc8-debug:sip_util.obj
 0004:00002660       ?__LINE__Var@?1??stateless_send_transport_cb@@9@9@66763895 005b1660     pjsip-core-i386-win32-vc8-debug:sip_util.obj
 0004:00002664       ?__LINE__Var@?1??send_raw_resolver_callback@@9@9@66763895 005b1664     pjsip-core-i386-win32-vc8-debug:sip_util.obj
 0004:00002668       ?__LINE__Var@?1??pjsip_get_response_addr@@9@9 005b1668     pjsip-core-i386-win32-vc8-debug:sip_util.obj
 0004:0000266c       ?__LINE__Var@?1??pjsip_endpt_respond_stateless@@9@9 005b166c     pjsip-core-i386-win32-vc8-debug:sip_util.obj
 0004:00002670       _pjsip_include_allow_hdr_in_dlg 005b1670     pjsip-core-i386-win32-vc8-debug:sip_dialog.obj
 0004:00002674       ?__LINE__Var@?1??pjsip_dlg_create_uac@@9@9 005b1674     pjsip-core-i386-win32-vc8-debug:sip_dialog.obj
 0004:00002678       ?__LINE__Var@?1??create_dialog@@9@9@8562402b 005b1678     pjsip-core-i386-win32-vc8-debug:sip_dialog.obj
 0004:0000267c       ?__LINE__Var@?1??pjsip_dlg_create_uas@@9@9 005b167c     pjsip-core-i386-win32-vc8-debug:sip_dialog.obj
 0004:00002680       ?__LINE__Var@?1??pjsip_dlg_set_transport@@9@9 005b1680     pjsip-core-i386-win32-vc8-debug:sip_dialog.obj
 0004:00002684       ?__LINE__Var@?1??pjsip_dlg_fork@@9@9 005b1684     pjsip-core-i386-win32-vc8-debug:sip_dialog.obj
 0004:00002688       ?__LINE__Var@?1??pjsip_dlg_terminate@@9@9 005b1688     pjsip-core-i386-win32-vc8-debug:sip_dialog.obj
 0004:0000268c       ?__LINE__Var@?1??unregister_and_destroy_dialog@@9@9@8562402b 005b168c     pjsip-core-i386-win32-vc8-debug:sip_dialog.obj
 0004:00002690       ?__LINE__Var@?1??pjsip_dlg_set_route_set@@9@9 005b1690     pjsip-core-i386-win32-vc8-debug:sip_dialog.obj
 0004:00002694       ?__LINE__Var@?1??pjsip_dlg_inc_session@@9@9 005b1694     pjsip-core-i386-win32-vc8-debug:sip_dialog.obj
 0004:00002698       ?__LINE__Var@?1??pjsip_dlg_dec_lock@@9@9 005b1698     pjsip-core-i386-win32-vc8-debug:sip_dialog.obj
 0004:0000269c       ?__LINE__Var@?1??pjsip_dlg_dec_session@@9@9 005b169c     pjsip-core-i386-win32-vc8-debug:sip_dialog.obj
 0004:000026a0       ?__LINE__Var@?1??pjsip_dlg_add_usage@@9@9 005b16a0     pjsip-core-i386-win32-vc8-debug:sip_dialog.obj
 0004:000026a4       ?__LINE__Var@?1??pjsip_dlg_set_mod_data@@9@9 005b16a4     pjsip-core-i386-win32-vc8-debug:sip_dialog.obj
 0004:000026a8       ?__LINE__Var@?1??pjsip_dlg_get_mod_data@@9@9 005b16a8     pjsip-core-i386-win32-vc8-debug:sip_dialog.obj
 0004:000026ac       ?__LINE__Var@?1??pjsip_dlg_create_request@@9@9 005b16ac     pjsip-core-i386-win32-vc8-debug:sip_dialog.obj
 0004:000026b0       ?__LINE__Var@?1??pjsip_dlg_send_request@@9@9 005b16b0     pjsip-core-i386-win32-vc8-debug:sip_dialog.obj
 0004:000026b4       ?__LINE__Var@?1??dlg_beautify_response@@9@9@8562402b 005b16b4     pjsip-core-i386-win32-vc8-debug:sip_dialog.obj
 0004:000026b8       ?__LINE__Var@?1??pjsip_dlg_modify_response@@9@9 005b16b8     pjsip-core-i386-win32-vc8-debug:sip_dialog.obj
 0004:000026bc       ?__LINE__Var@?1??pjsip_dlg_send_response@@9@9 005b16bc     pjsip-core-i386-win32-vc8-debug:sip_dialog.obj
 0004:000026c0       ?__LINE__Var@?1??pjsip_dlg_respond@@9@9 005b16c0     pjsip-core-i386-win32-vc8-debug:sip_dialog.obj
 0004:000026c4       ?__LINE__Var@?1??pjsip_dlg_on_rx_request@@9@9 005b16c4     pjsip-core-i386-win32-vc8-debug:sip_dialog.obj
 0004:000026c8       ?__LINE__Var@?1??pjsip_dlg_on_rx_response@@9@9 005b16c8     pjsip-core-i386-win32-vc8-debug:sip_dialog.obj
 0004:000026cc       ?__LINE__Var@?1??dlg_update_routeset@@9@9@8562402b 005b16cc     pjsip-core-i386-win32-vc8-debug:sip_dialog.obj
 0004:000026d0       ?__LINE__Var@?1??pjsip_dlg_on_tsx_state@@9@9 005b16d0     pjsip-core-i386-win32-vc8-debug:sip_dialog.obj
 0004:000026d4       ?__LINE__Var@?1??pjsip_dlg_remote_has_cap@@9@9 005b16d4     pjsip-core-i386-win32-vc8-debug:sip_dialog.obj
 0004:000026d8       ?__LINE__Var@?1??pjsip_dlg_update_remote_cap@@9@9 005b16d8     pjsip-core-i386-win32-vc8-debug:sip_dialog.obj
 0004:000026dc       ?__LINE__Var@?1??pjsip_dlg_get_remote_cap_hdr@@9@9 005b16dc     pjsip-core-i386-win32-vc8-debug:sip_dialog.obj
 0004:000026e0       ?__LINE__Var@?1??pjsip_dlg_set_remote_cap_hdr@@9@9 005b16e0     pjsip-core-i386-win32-vc8-debug:sip_dialog.obj
 0004:000026e4       ?__LINE__Var@?1??pjsip_dlg_remove_remote_cap_hdr@@9@9 005b16e4     pjsip-core-i386-win32-vc8-debug:sip_dialog.obj
 0004:000027f0       ?__LINE__Var@?1??create_tsx_key_2543@@9@9@30dcb988 005b17f0     pjsip-core-i386-win32-vc8-debug:sip_transaction.obj
 0004:000027f4       ?__LINE__Var@?1??create_tsx_key_3261@@9@9@30dcb988 005b17f4     pjsip-core-i386-win32-vc8-debug:sip_transaction.obj
 0004:000027f8       ?__LINE__Var@?1??pjsip_tsx_layer_init_module@@9@9 005b17f8     pjsip-core-i386-win32-vc8-debug:sip_transaction.obj
 0004:000027fc       ?__LINE__Var@?1??pjsip_tsx_layer_destroy@@9@9 005b17fc     pjsip-core-i386-win32-vc8-debug:sip_transaction.obj
 0004:00002800       ?__LINE__Var@?1??pjsip_tsx_layer_get_tsx_count@@9@9 005b1800     pjsip-core-i386-win32-vc8-debug:sip_transaction.obj
 0004:00002804       ?__LINE__Var@?1??mod_tsx_layer_unregister_tsx@@9@9@30dcb988 005b1804     pjsip-core-i386-win32-vc8-debug:sip_transaction.obj
 0004:00002808       ?__LINE__Var@?1??pjsip_tsx_create_uac@@9@9 005b1808     pjsip-core-i386-win32-vc8-debug:sip_transaction.obj
 0004:0000280c       ?__LINE__Var@?1??mod_tsx_layer_register_tsx@@9@9@30dcb988 005b180c     pjsip-core-i386-win32-vc8-debug:sip_transaction.obj
 0004:00002810       ?__LINE__Var@?1??unlock_tsx@@9@9@30dcb988 005b1810     pjsip-core-i386-win32-vc8-debug:sip_transaction.obj
 0004:00002814       ?__LINE__Var@?1??pjsip_tsx_create_uas@@9@9 005b1814     pjsip-core-i386-win32-vc8-debug:sip_transaction.obj
 0004:00002818       ?__LINE__Var@?1??pjsip_tsx_set_transport@@9@9 005b1818     pjsip-core-i386-win32-vc8-debug:sip_transaction.obj
 0004:0000281c       ?__LINE__Var@?1??pjsip_tsx_terminate@@9@9 005b181c     pjsip-core-i386-win32-vc8-debug:sip_transaction.obj
 0004:00002820       ?__LINE__Var@?1??tsx_set_state@@9@9@30dcb988 005b1820     pjsip-core-i386-win32-vc8-debug:sip_transaction.obj
 0004:00002824       ?__LINE__Var@?1??pjsip_tsx_stop_retransmit@@9@9 005b1824     pjsip-core-i386-win32-vc8-debug:sip_transaction.obj
 0004:00002828       ?__LINE__Var@?1??pjsip_tsx_set_timeout@@9@9 005b1828     pjsip-core-i386-win32-vc8-debug:sip_transaction.obj
 0004:0000282c       ?__LINE__Var@?1??pjsip_tsx_send_msg@@9@9 005b182c     pjsip-core-i386-win32-vc8-debug:sip_transaction.obj
 0004:00002830       ?__LINE__Var@?1??tsx_send_msg@@9@9@30dcb988 005b1830     pjsip-core-i386-win32-vc8-debug:sip_transaction.obj
 0004:00002834       ?__LINE__Var@?1??send_msg_callback@@9@9@30dcb988 005b1834     pjsip-core-i386-win32-vc8-debug:sip_transaction.obj
 0004:00002838       ?__LINE__Var@?1??tsx_resched_retransmission@@9@9@30dcb988 005b1838     pjsip-core-i386-win32-vc8-debug:sip_transaction.obj
 0004:0000283c       ?__LINE__Var@?1??tsx_update_transport@@9@9@30dcb988 005b183c     pjsip-core-i386-win32-vc8-debug:sip_transaction.obj
 0004:00002840       ?__LINE__Var@?1??tsx_tp_state_callback@@9@9@30dcb988 005b1840     pjsip-core-i386-win32-vc8-debug:sip_transaction.obj
 0004:00002844       ?__LINE__Var@?1??tsx_on_state_null@@9@9@30dcb988 005b1844     pjsip-core-i386-win32-vc8-debug:sip_transaction.obj
 0004:00002848       ?__LINE__Var@?1??tsx_on_state_calling@@9@9@30dcb988 005b1848     pjsip-core-i386-win32-vc8-debug:sip_transaction.obj
 0004:0000284c       ?__LINE__Var@?1??tsx_retransmit@@9@9@30dcb988 005b184c     pjsip-core-i386-win32-vc8-debug:sip_transaction.obj
 0004:00002850       ?__LINE__Var@?1??tsx_on_state_trying@@9@9@30dcb988 005b1850     pjsip-core-i386-win32-vc8-debug:sip_transaction.obj
 0004:00002854       ?__LINE__Var@?1??tsx_on_state_proceeding_uas@@9@9@30dcb988 005b1854     pjsip-core-i386-win32-vc8-debug:sip_transaction.obj
 0004:00002858       ?__LINE__Var@?1??tsx_on_state_proceeding_uac@@9@9@30dcb988 005b1858     pjsip-core-i386-win32-vc8-debug:sip_transaction.obj
 0004:0000285c       ?__LINE__Var@?1??tsx_on_state_completed_uas@@9@9@30dcb988 005b185c     pjsip-core-i386-win32-vc8-debug:sip_transaction.obj
 0004:00002860       ?__LINE__Var@?1??tsx_on_state_completed_uac@@9@9@30dcb988 005b1860     pjsip-core-i386-win32-vc8-debug:sip_transaction.obj
 0004:00002864       ?__LINE__Var@?1??tsx_on_state_confirmed@@9@9@30dcb988 005b1864     pjsip-core-i386-win32-vc8-debug:sip_transaction.obj
 0004:00002868       ?__LINE__Var@?1??tsx_on_state_terminated@@9@9@30dcb988 005b1868     pjsip-core-i386-win32-vc8-debug:sip_transaction.obj
 0004:0000286c       ?__LINE__Var@?1??tsx_on_state_destroyed@@9@9@30dcb988 005b186c     pjsip-core-i386-win32-vc8-debug:sip_transaction.obj
 0004:000028fc       ?__LINE__Var@?1??pjsip_ua_init_module@@9@9 005b18fc     pjsip-core-i386-win32-vc8-debug:sip_ua_layer.obj
 0004:00002900       ?__LINE__Var@?1??pjsip_ua_get_endpt@@9@9 005b1900     pjsip-core-i386-win32-vc8-debug:sip_ua_layer.obj
 0004:00002904       ?__LINE__Var@?1??pjsip_ua_destroy@@9@9 005b1904     pjsip-core-i386-win32-vc8-debug:sip_ua_layer.obj
 0004:00002908       ?__LINE__Var@?1??pjsip_ua_register_dlg@@9@9 005b1908     pjsip-core-i386-win32-vc8-debug:sip_ua_layer.obj
 0004:0000290c       ?__LINE__Var@?1??pjsip_ua_unregister_dlg@@9@9 005b190c     pjsip-core-i386-win32-vc8-debug:sip_ua_layer.obj
 0004:00002910       ?__LINE__Var@?1??pjsip_ua_get_dlg_set_count@@9@9 005b1910     pjsip-core-i386-win32-vc8-debug:sip_ua_layer.obj
 0004:00002914       ?__LINE__Var@?1??pjsip_ua_find_dialog@@9@9 005b1914     pjsip-core-i386-win32-vc8-debug:sip_ua_layer.obj
 0004:00002918       ?__LINE__Var@?1??mod_ua_on_rx_response@@9@9@88c8573c 005b1918     pjsip-core-i386-win32-vc8-debug:sip_ua_layer.obj
 0004:00002960       _transport_names           005b1960     pjsip-core-i386-win32-vc8-debug:sip_transport.obj
 0004:00002c6c       ?__LINE__Var@?1??get_tpname@@9@9 005b1c6c     pjsip-core-i386-win32-vc8-debug:sip_transport.obj
 0004:00002c70       ?__LINE__Var@?1??pjsip_transport_register_type@@9@9 005b1c70     pjsip-core-i386-win32-vc8-debug:sip_transport.obj
 0004:00002c74       ?__LINE__Var@?1??pjsip_transport_get_type_from_name@@9@9 005b1c74     pjsip-core-i386-win32-vc8-debug:sip_transport.obj
 0004:00002c78       ?__LINE__Var@?1??pjsip_transport_get_type_from_flag@@9@9 005b1c78     pjsip-core-i386-win32-vc8-debug:sip_transport.obj
 0004:00002c7c       ?__LINE__Var@?1??pjsip_tx_data_create@@9@9 005b1c7c     pjsip-core-i386-win32-vc8-debug:sip_transport.obj
 0004:00002c80       ?__LINE__Var@?1??pjsip_tx_data_dec_ref@@9@9 005b1c80     pjsip-core-i386-win32-vc8-debug:sip_transport.obj
 0004:00002c84       ?__LINE__Var@?1??pjsip_tx_data_encode@@9@9 005b1c84     pjsip-core-i386-win32-vc8-debug:sip_transport.obj
 0004:00002c88       ?__LINE__Var@?1??get_msg_info@@9@9@eb9f2384 005b1c88     pjsip-core-i386-win32-vc8-debug:sip_transport.obj
 0004:00002c8c       ?__LINE__Var@?1??pjsip_tx_data_set_transport@@9@9 005b1c8c     pjsip-core-i386-win32-vc8-debug:sip_transport.obj
 0004:00002c90       ?__LINE__Var@?1??pjsip_rx_data_get_info@@9@9 005b1c90     pjsip-core-i386-win32-vc8-debug:sip_transport.obj
 0004:00002c94       ?__LINE__Var@?1??pjsip_transport_send@@9@9 005b1c94     pjsip-core-i386-win32-vc8-debug:sip_transport.obj
 0004:00002c98       ?__LINE__Var@?1??pjsip_transport_add_ref@@9@9 005b1c98     pjsip-core-i386-win32-vc8-debug:sip_transport.obj
 0004:00002c9c       ?__LINE__Var@?1??pjsip_transport_dec_ref@@9@9 005b1c9c     pjsip-core-i386-win32-vc8-debug:sip_transport.obj
 0004:00002ca0       ?__LINE__Var@?1??transport_idle_callback@@9@9@eb9f2384 005b1ca0     pjsip-core-i386-win32-vc8-debug:sip_transport.obj
 0004:00002ca4       ?__LINE__Var@?1??pjsip_transport_destroy@@9@9 005b1ca4     pjsip-core-i386-win32-vc8-debug:sip_transport.obj
 0004:00002ca8       ?__LINE__Var@?1??pjsip_tpmgr_unregister_tpfactory@@9@9 005b1ca8     pjsip-core-i386-win32-vc8-debug:sip_transport.obj
 0004:00002cac       ?__LINE__Var@?1??pjsip_tpmgr_create@@9@9 005b1cac     pjsip-core-i386-win32-vc8-debug:sip_transport.obj
 0004:00002cb0       ?__LINE__Var@?1??pjsip_tpmgr_find_local_addr@@9@9 005b1cb0     pjsip-core-i386-win32-vc8-debug:sip_transport.obj
 0004:00002cb4       ?__LINE__Var@?1??pjsip_tpmgr_receive_packet@@9@9 005b1cb4     pjsip-core-i386-win32-vc8-debug:sip_transport.obj
 0004:00002cb8       ?__LINE__Var@?1??pjsip_tpmgr_acquire_transport2@@9@9 005b1cb8     pjsip-core-i386-win32-vc8-debug:sip_transport.obj
 0004:00002cbc       ?__LINE__Var@?1??pjsip_tpmgr_set_state_cb@@9@9 005b1cbc     pjsip-core-i386-win32-vc8-debug:sip_transport.obj
 0004:00002cc0       ?__LINE__Var@?1??pjsip_tpmgr_get_state_cb@@9@9 005b1cc0     pjsip-core-i386-win32-vc8-debug:sip_transport.obj
 0004:00002cc4       ?__LINE__Var@?1??pjsip_transport_add_state_listener@@9@9 005b1cc4     pjsip-core-i386-win32-vc8-debug:sip_transport.obj
 0004:00002cc8       ?__LINE__Var@?1??init_tp_data@@9@9@eb9f2384 005b1cc8     pjsip-core-i386-win32-vc8-debug:sip_transport.obj
 0004:00002ccc       ?__LINE__Var@?1??pjsip_transport_remove_state_listener@@9@9 005b1ccc     pjsip-core-i386-win32-vc8-debug:sip_transport.obj
 0004:00002cd0       ?__LINE__Var@?1??pjsip_endpt_register_module@@9@9 005b1cd0     pjsip-core-i386-win32-vc8-debug:sip_endpoint.obj
 0004:00002cd4       ?__LINE__Var@?1??pjsip_endpt_unregister_module@@9@9 005b1cd4     pjsip-core-i386-win32-vc8-debug:sip_endpoint.obj
 0004:00002cd8       ?__LINE__Var@?1??unload_module@@9@9@8160add5 005b1cd8     pjsip-core-i386-win32-vc8-debug:sip_endpoint.obj
 0004:00002cdc       ?__LINE__Var@?1??pjsip_endpt_get_capability@@9@9 005b1cdc     pjsip-core-i386-win32-vc8-debug:sip_endpoint.obj
 0004:00002ce0       ?__LINE__Var@?1??pjsip_endpt_has_capability@@9@9 005b1ce0     pjsip-core-i386-win32-vc8-debug:sip_endpoint.obj
 0004:00002ce4       ?__LINE__Var@?1??pjsip_endpt_add_capability@@9@9 005b1ce4     pjsip-core-i386-win32-vc8-debug:sip_endpoint.obj
 0004:00002ce8       ?__LINE__Var@?1??pjsip_endpt_handle_events2@@9@9 005b1ce8     pjsip-core-i386-win32-vc8-debug:sip_endpoint.obj
 0004:00002cec       ?__LINE__Var@?1??pjsip_endpt_create_resolver@@9@9 005b1cec     pjsip-core-i386-win32-vc8-debug:sip_endpoint.obj
 0004:00002cf0       ?__LINE__Var@?1??pjsip_endpt_get_resolver@@9@9 005b1cf0     pjsip-core-i386-win32-vc8-debug:sip_endpoint.obj
 0004:00002cf4       ?__LINE__Var@?1??transport_attach@@9@9@89e6f97c 005b1cf4     pjsip-core-i386-win32-vc8-debug:sip_transport_udp.obj
 0004:00002cf8       ?__LINE__Var@?1??udp_send_msg@@9@9@89e6f97c 005b1cf8     pjsip-core-i386-win32-vc8-debug:sip_transport_udp.obj
 0004:00002cfc       ?__LINE__Var@?1??udp_set_pub_name@@9@9@89e6f97c 005b1cfc     pjsip-core-i386-win32-vc8-debug:sip_transport_udp.obj
 0004:00002d00       ?__LINE__Var@?1??udp_on_read_complete@@9@9@89e6f97c 005b1d00     pjsip-core-i386-win32-vc8-debug:sip_transport_udp.obj
 0004:00002d04       ?__LINE__Var@?1??start_async_read@@9@9@89e6f97c 005b1d04     pjsip-core-i386-win32-vc8-debug:sip_transport_udp.obj
 0004:00002d08       ?__LINE__Var@?1??pjsip_udp_transport_start@@9@9 005b1d08     pjsip-core-i386-win32-vc8-debug:sip_transport_udp.obj
 0004:00002d0c       ?__LINE__Var@?1??pjsip_udp_transport_start6@@9@9 005b1d0c     pjsip-core-i386-win32-vc8-debug:sip_transport_udp.obj
 0004:00002d10       ?__LINE__Var@?1??pjsip_udp_transport_get_socket@@9@9 005b1d10     pjsip-core-i386-win32-vc8-debug:sip_transport_udp.obj
 0004:00002d14       ?__LINE__Var@?1??pjsip_udp_transport_pause@@9@9 005b1d14     pjsip-core-i386-win32-vc8-debug:sip_transport_udp.obj
 0004:00002d18       ?__LINE__Var@?1??pjsip_udp_transport_restart@@9@9 005b1d18     pjsip-core-i386-win32-vc8-debug:sip_transport_udp.obj
 0004:00002dd8       ?__LINE__Var@?1??pjsip_method_set@@9@9 005b1dd8     pjsip-core-i386-win32-vc8-debug:sip_msg.obj
 0004:00002ddc       ?__LINE__Var@?1??pjsip_media_type_cp@@9@9 005b1ddc     pjsip-core-i386-win32-vc8-debug:sip_msg.obj
 0004:00002de0       ?__LINE__Var@?1??pjsip_routing_hdr_print@@9@9@7df886e3 005b1de0     pjsip-core-i386-win32-vc8-debug:sip_msg.obj
 0004:00002de4       ?__LINE__Var@?1??pjsip_msg_body_copy@@9@9 005b1de4     pjsip-core-i386-win32-vc8-debug:sip_msg.obj
 0004:00002de8       ?__LINE__Var@?1??pjsip_msg_body_clone@@9@9 005b1de8     pjsip-core-i386-win32-vc8-debug:sip_msg.obj
 0004:00002dec       ?__LINE__Var@?1??pjsip_msg_body_create@@9@9 005b1dec     pjsip-core-i386-win32-vc8-debug:sip_msg.obj
 0004:00002df0       _pjsip_sip_cfg_var         005b1df0     pjsip-core-i386-win32-vc8-debug:sip_config.obj
 0004:00002e18       _PJSIP_SYN_ERR_EXCEPTION   005b1e18     pjsip-core-i386-win32-vc8-debug:sip_parser.obj
 0004:00002f98       ?__LINE__Var@?1??init_parser@@9@9@5cdec004 005b1f98     pjsip-core-i386-win32-vc8-debug:sip_parser.obj
 0004:00002f9c       ?__LINE__Var@?1??pjsip_register_hdr_parser@@9@9 005b1f9c     pjsip-core-i386-win32-vc8-debug:sip_parser.obj
 0004:00002fa0       ?__LINE__Var@?1??int_register_parser@@9@9@5cdec004 005b1fa0     pjsip-core-i386-win32-vc8-debug:sip_parser.obj
 0004:00002fa4       ?__LINE__Var@?1??pjsip_auth_create_digest@@9@9 005b1fa4     pjsip-core-i386-win32-vc8-debug:sip_auth_client.obj
 0004:00002fa8       ?__LINE__Var@?1??pjsip_auth_clt_init@@9@9 005b1fa8     pjsip-core-i386-win32-vc8-debug:sip_auth_client.obj
 0004:00002fac       ?__LINE__Var@?1??pjsip_auth_clt_clone@@9@9 005b1fac     pjsip-core-i386-win32-vc8-debug:sip_auth_client.obj
 0004:00002fb0       ?__LINE__Var@?1??pjsip_auth_clt_set_credentials@@9@9 005b1fb0     pjsip-core-i386-win32-vc8-debug:sip_auth_client.obj
 0004:00002fb4       ?__LINE__Var@?1??pjsip_auth_clt_set_prefs@@9@9 005b1fb4     pjsip-core-i386-win32-vc8-debug:sip_auth_client.obj
 0004:00002fb8       ?__LINE__Var@?1??pjsip_auth_clt_get_prefs@@9@9 005b1fb8     pjsip-core-i386-win32-vc8-debug:sip_auth_client.obj
 0004:00002fbc       ?__LINE__Var@?1??pjsip_auth_clt_init_req@@9@9 005b1fbc     pjsip-core-i386-win32-vc8-debug:sip_auth_client.obj
 0004:00002fc0       ?__LINE__Var@?1??pjsip_auth_clt_reinit_req@@9@9 005b1fc0     pjsip-core-i386-win32-vc8-debug:sip_auth_client.obj
 0004:00002fc4       ?__LINE__Var@?1??auth_respond@@9@9@3ccee6a4 005b1fc4     pjsip-core-i386-win32-vc8-debug:sip_auth_client.obj
 0004:0000303c       ?__LINE__Var@?1??pjsip_url_print@@9@9@9f4a10cf 005b203c     pjsip-core-i386-win32-vc8-debug:sip_uri.obj
 0004:00003040       ?__LINE__Var@?1??pjsip_name_addr_get_scheme@@9@9@9f4a10cf 005b2040     pjsip-core-i386-win32-vc8-debug:sip_uri.obj
 0004:00003044       ?__LINE__Var@?1??pjsip_name_addr_print@@9@9@9f4a10cf 005b2044     pjsip-core-i386-win32-vc8-debug:sip_uri.obj
 0004:00003048       ?__LINE__Var@?1??pjsip_name_addr_compare@@9@9@9f4a10cf 005b2048     pjsip-core-i386-win32-vc8-debug:sip_uri.obj
 0004:0000304c       _mod_stateful_util         005b204c     pjsip-core-i386-win32-vc8-debug:sip_util_statefull.obj
 0004:00003094       ?__LINE__Var@?1??pjsip_endpt_send_request@@9@9 005b2094     pjsip-core-i386-win32-vc8-debug:sip_util_statefull.obj
 0004:00003098       ?__LINE__Var@?1??pjsip_endpt_respond@@9@9 005b2098     pjsip-core-i386-win32-vc8-debug:sip_util_statefull.obj
 0004:0000309c       ?__LINE__Var@?1??pjsip_resolver_create@@9@9 005b209c     pjsip-core-i386-win32-vc8-debug:sip_resolve.obj
 0004:000030a0       ?__LINE__Var@?1??pjsip_resolve@@9@9 005b20a0     pjsip-core-i386-win32-vc8-debug:sip_resolve.obj
 0004:000030d8       ?__LINE__Var@?1??pjsip_tel_uri_subsys_init@@9@9 005b20d8     pjsip-core-i386-win32-vc8-debug:sip_tel_uri.obj
 0004:000030dc       ?__LINE__Var@?1??pjsip_auth_init_parser@@9@9 005b20dc     pjsip-core-i386-win32-vc8-debug:sip_auth_parser.obj
 0004:000030fc       ?__LINE__Var@?1??pjsip_authorization_hdr_print@@9@9@c37d0187 005b20fc     pjsip-core-i386-win32-vc8-debug:sip_auth_msg.obj
 0004:00003100       ?__LINE__Var@?1??pjsip_authorization_hdr_clone@@9@9@c37d0187 005b2100     pjsip-core-i386-win32-vc8-debug:sip_auth_msg.obj
 0004:00003104       ?__LINE__Var@?1??pjsip_www_authenticate_hdr_print@@9@9@c37d0187 005b2104     pjsip-core-i386-win32-vc8-debug:sip_auth_msg.obj
 0004:00003108       ?__LINE__Var@?1??pjsip_www_authenticate_hdr_clone@@9@9@c37d0187 005b2108     pjsip-core-i386-win32-vc8-debug:sip_auth_msg.obj
 0004:0000310c       ?__LINE__Var@?1??pjmedia_sdp_attr_create@@9@9 005b210c     pjmedia-i386-win32-vc8-debug:sdp.obj
 0004:00003110       ?__LINE__Var@?1??pjmedia_sdp_attr_clone@@9@9 005b2110     pjmedia-i386-win32-vc8-debug:sdp.obj
 0004:00003114       ?__LINE__Var@?1??pjmedia_sdp_attr_add@@9@9 005b2114     pjmedia-i386-win32-vc8-debug:sdp.obj
 0004:00003118       ?__LINE__Var@?1??pjmedia_sdp_attr_remove_all@@9@9 005b2118     pjmedia-i386-win32-vc8-debug:sdp.obj
 0004:0000311c       ?__LINE__Var@?1??pjmedia_sdp_attr_remove@@9@9 005b211c     pjmedia-i386-win32-vc8-debug:sdp.obj
 0004:00003120       ?__LINE__Var@?1??pjmedia_sdp_attr_get_rtpmap@@9@9 005b2120     pjmedia-i386-win32-vc8-debug:sdp.obj
 0004:00003124       ?__LINE__Var@?1??pjmedia_sdp_attr_get_fmtp@@9@9 005b2124     pjmedia-i386-win32-vc8-debug:sdp.obj
 0004:00003128       ?__LINE__Var@?1??pjmedia_sdp_attr_get_rtcp@@9@9 005b2128     pjmedia-i386-win32-vc8-debug:sdp.obj
 0004:0000312c       ?__LINE__Var@?1??pjmedia_sdp_attr_create_rtcp@@9@9 005b212c     pjmedia-i386-win32-vc8-debug:sdp.obj
 0004:00003130       ?__LINE__Var@?1??pjmedia_sdp_attr_to_rtpmap@@9@9 005b2130     pjmedia-i386-win32-vc8-debug:sdp.obj
 0004:00003134       ?__LINE__Var@?1??pjmedia_sdp_rtpmap_to_attr@@9@9 005b2134     pjmedia-i386-win32-vc8-debug:sdp.obj
 0004:00003138       ?__LINE__Var@?1??pjmedia_sdp_media_clone@@9@9 005b2138     pjmedia-i386-win32-vc8-debug:sdp.obj
 0004:0000313c       ?__LINE__Var@?1??pjmedia_sdp_media_find_attr@@9@9 005b213c     pjmedia-i386-win32-vc8-debug:sdp.obj
 0004:00003140       ?__LINE__Var@?1??pjmedia_sdp_media_find_attr2@@9@9 005b2140     pjmedia-i386-win32-vc8-debug:sdp.obj
 0004:00003144       ?__LINE__Var@?1??pjmedia_sdp_parse@@9@9 005b2144     pjmedia-i386-win32-vc8-debug:sdp.obj
 0004:00003148       ?__LINE__Var@?1??pjmedia_sdp_session_clone@@9@9 005b2148     pjmedia-i386-win32-vc8-debug:sdp.obj
 0004:0000314c       ?__LINE__Var@?1??pjmedia_sdp_media_deactivate@@9@9 005b214c     pjmedia-i386-win32-vc8-debug:sdp.obj
 0004:00003150       ?__LINE__Var@?1??pjmedia_sdp_media_clone_deactivate@@9@9 005b2150     pjmedia-i386-win32-vc8-debug:sdp.obj
 0004:00003190       ?__LINE__Var@?1??pjmedia_transport_udp_create3@@9@9 005b2190     pjmedia-i386-win32-vc8-debug:transport_udp.obj
 0004:00003194       ?__LINE__Var@?1??pjmedia_transport_udp_attach@@9@9 005b2194     pjmedia-i386-win32-vc8-debug:transport_udp.obj
 0004:00003198       ?__LINE__Var@?1??transport_destroy@@9@9@4665a924 005b2198     pjmedia-i386-win32-vc8-debug:transport_udp.obj
 0004:0000319c       ?__LINE__Var@?1??transport_get_info@@9@9@4665a924 005b219c     pjmedia-i386-win32-vc8-debug:transport_udp.obj
 0004:000031a0       ?__LINE__Var@?1??transport_attach@@9@9@4665a924 005b21a0     pjmedia-i386-win32-vc8-debug:transport_udp.obj
 0004:000031a4       ?__LINE__Var@?1??transport_detach@@9@9@4665a924 005b21a4     pjmedia-i386-win32-vc8-debug:transport_udp.obj
 0004:000031a8       ?__LINE__Var@?1??transport_send_rtp@@9@9@4665a924 005b21a8     pjmedia-i386-win32-vc8-debug:transport_udp.obj
 0004:000031ac       ?__LINE__Var@?1??transport_send_rtcp2@@9@9@4665a924 005b21ac     pjmedia-i386-win32-vc8-debug:transport_udp.obj
 0004:000031b0       ?__LINE__Var@?1??transport_media_create@@9@9@4665a924 005b21b0     pjmedia-i386-win32-vc8-debug:transport_udp.obj
 0004:000031b4       ?__LINE__Var@?1??transport_media_start@@9@9@4665a924 005b21b4     pjmedia-i386-win32-vc8-debug:transport_udp.obj
 0004:000031b8       ?__LINE__Var@?1??transport_simulate_lost@@9@9@4665a924 005b21b8     pjmedia-i386-win32-vc8-debug:transport_udp.obj
 0004:000031fc       ?__LINE__Var@?1??g711_alloc_codec@@9@9@58d60c33 005b21fc     pjmedia-i386-win32-vc8-debug:g711.obj
 0004:00003200       ?__LINE__Var@?1??g711_dealloc_codec@@9@9@58d60c33 005b2200     pjmedia-i386-win32-vc8-debug:g711.obj
 0004:00003204       ?__LINE__Var@?1??g711_parse@@9@9@58d60c33 005b2204     pjmedia-i386-win32-vc8-debug:g711.obj
 0004:00003208       ?__LINE__Var@?1??g711_decode@@9@9@58d60c33 005b2208     pjmedia-i386-win32-vc8-debug:g711.obj
 0004:0000320c       ?__LINE__Var@?1??g711_recover@@9@9@58d60c33 005b220c     pjmedia-i386-win32-vc8-debug:g711.obj
 0004:00003210       _pjmedia_add_rtpmap_for_static_pt 005b2210     pjmedia-i386-win32-vc8-debug:endpoint.obj
 0004:00003214       ?__LINE__Var@?1??pjmedia_endpt_create@@9@9 005b2214     pjmedia-i386-win32-vc8-debug:endpoint.obj
 0004:00003218       ?__LINE__Var@?1??pjmedia_endpt_destroy@@9@9 005b2218     pjmedia-i386-win32-vc8-debug:endpoint.obj
 0004:0000321c       ?__LINE__Var@?1??pjmedia_endpt_get_ioqueue@@9@9 005b221c     pjmedia-i386-win32-vc8-debug:endpoint.obj
 0004:00003220       ?__LINE__Var@?1??pjmedia_endpt_get_thread_count@@9@9 005b2220     pjmedia-i386-win32-vc8-debug:endpoint.obj
 0004:00003224       ?__LINE__Var@?1??pjmedia_endpt_get_thread@@9@9 005b2224     pjmedia-i386-win32-vc8-debug:endpoint.obj
 0004:00003228       ?__LINE__Var@?1??pjmedia_endpt_create_pool@@9@9 005b2228     pjmedia-i386-win32-vc8-debug:endpoint.obj
 0004:0000322c       ?__LINE__Var@?1??pjmedia_endpt_create_sdp@@9@9 005b222c     pjmedia-i386-win32-vc8-debug:endpoint.obj
 0004:00003230       ?__LINE__Var@?1??pjmedia_rtcp_get_ntp_time@@9@9 005b2230     pjmedia-i386-win32-vc8-debug:rtcp.obj
 0004:00003234       ?__LINE__Var@?1??pjmedia_rtp_session_init@@9@9 005b2234     pjmedia-i386-win32-vc8-debug:rtp.obj
 0004:00003238       ?__LINE__Var@?1??pjmedia_rtp_session_update2@@9@9 005b2238     pjmedia-i386-win32-vc8-debug:rtp.obj
 0004:0000323c       ?__LINE__Var@?1??pjmedia_stream_info_from_sdp@@9@9 005b223c     pjmedia-i386-win32-vc8-debug:session.obj
 0004:00003240       ?__LINE__Var@?1??parse_fmtp@@9@9@aff3af88 005b2240     pjmedia-i386-win32-vc8-debug:session.obj
 0004:00003244       ?__LINE__Var@?1??pjmedia_session_info_from_sdp@@9@9 005b2244     pjmedia-i386-win32-vc8-debug:session.obj
 0004:00003248       ?__LINE__Var@?1??pjmedia_session_create@@9@9 005b2248     pjmedia-i386-win32-vc8-debug:session.obj
 0004:0000324c       ?__LINE__Var@?1??pjmedia_session_get_info@@9@9 005b224c     pjmedia-i386-win32-vc8-debug:session.obj
 0004:00003250       ?__LINE__Var@?1??pjmedia_session_destroy@@9@9 005b2250     pjmedia-i386-win32-vc8-debug:session.obj
 0004:00003254       ?__LINE__Var@?1??pjmedia_session_resume@@9@9 005b2254     pjmedia-i386-win32-vc8-debug:session.obj
 0004:00003258       ?__LINE__Var@?1??pjmedia_session_pause@@9@9 005b2258     pjmedia-i386-win32-vc8-debug:session.obj
 0004:0000325c       ?__LINE__Var@?1??pjmedia_session_pause_stream@@9@9 005b225c     pjmedia-i386-win32-vc8-debug:session.obj
 0004:00003260       ?__LINE__Var@?1??pjmedia_session_resume_stream@@9@9 005b2260     pjmedia-i386-win32-vc8-debug:session.obj
 0004:00003264       ?__LINE__Var@?1??pjmedia_session_enum_streams@@9@9 005b2264     pjmedia-i386-win32-vc8-debug:session.obj
 0004:00003268       ?__LINE__Var@?1??pjmedia_session_get_stream_stat@@9@9 005b2268     pjmedia-i386-win32-vc8-debug:session.obj
 0004:0000326c       ?__LINE__Var@?1??pjmedia_session_get_stream_stat_jbuf@@9@9 005b226c     pjmedia-i386-win32-vc8-debug:session.obj
 0004:00003270       ?__LINE__Var@?1??pjmedia_session_dial_dtmf@@9@9 005b2270     pjmedia-i386-win32-vc8-debug:session.obj
 0004:00003274       ?__LINE__Var@?1??pjmedia_session_check_dtmf@@9@9 005b2274     pjmedia-i386-win32-vc8-debug:session.obj
 0004:00003278       ?__LINE__Var@?1??pjmedia_session_get_dtmf@@9@9 005b2278     pjmedia-i386-win32-vc8-debug:session.obj
 0004:0000327c       ?__LINE__Var@?1??pjmedia_session_set_dtmf_callback@@9@9 005b227c     pjmedia-i386-win32-vc8-debug:session.obj
 0004:00003298       ?__LINE__Var@?1??pjmedia_sdp_neg_create_w_local_offer@@9@9 005b2298     pjmedia-i386-win32-vc8-debug:sdp_neg.obj
 0004:0000329c       ?__LINE__Var@?1??pjmedia_sdp_neg_create_w_remote_offer@@9@9 005b229c     pjmedia-i386-win32-vc8-debug:sdp_neg.obj
 0004:000032a0       ?__LINE__Var@?1??pjmedia_sdp_neg_set_prefer_remote_codec_order@@9@9 005b22a0     pjmedia-i386-win32-vc8-debug:sdp_neg.obj
 0004:000032a4       ?__LINE__Var@?1??pjmedia_sdp_neg_get_state@@9@9 005b22a4     pjmedia-i386-win32-vc8-debug:sdp_neg.obj
 0004:000032a8       ?__LINE__Var@?1??pjmedia_sdp_neg_get_active_local@@9@9 005b22a8     pjmedia-i386-win32-vc8-debug:sdp_neg.obj
 0004:000032ac       ?__LINE__Var@?1??pjmedia_sdp_neg_get_active_remote@@9@9 005b22ac     pjmedia-i386-win32-vc8-debug:sdp_neg.obj
 0004:000032b0       ?__LINE__Var@?1??pjmedia_sdp_neg_was_answer_remote@@9@9 005b22b0     pjmedia-i386-win32-vc8-debug:sdp_neg.obj
 0004:000032b4       ?__LINE__Var@?1??pjmedia_sdp_neg_get_neg_remote@@9@9 005b22b4     pjmedia-i386-win32-vc8-debug:sdp_neg.obj
 0004:000032b8       ?__LINE__Var@?1??pjmedia_sdp_neg_get_neg_local@@9@9 005b22b8     pjmedia-i386-win32-vc8-debug:sdp_neg.obj
 0004:000032bc       ?__LINE__Var@?1??pjmedia_sdp_neg_modify_local_offer@@9@9 005b22bc     pjmedia-i386-win32-vc8-debug:sdp_neg.obj
 0004:000032c0       ?__LINE__Var@?1??pjmedia_sdp_neg_send_local_offer@@9@9 005b22c0     pjmedia-i386-win32-vc8-debug:sdp_neg.obj
 0004:000032c4       ?__LINE__Var@?1??pjmedia_sdp_neg_set_remote_answer@@9@9 005b22c4     pjmedia-i386-win32-vc8-debug:sdp_neg.obj
 0004:000032c8       ?__LINE__Var@?1??pjmedia_sdp_neg_set_remote_offer@@9@9 005b22c8     pjmedia-i386-win32-vc8-debug:sdp_neg.obj
 0004:000032cc       ?__LINE__Var@?1??pjmedia_sdp_neg_set_local_answer@@9@9 005b22cc     pjmedia-i386-win32-vc8-debug:sdp_neg.obj
 0004:000032d0       ?__LINE__Var@?1??pjmedia_sdp_neg_has_local_answer@@9@9 005b22d0     pjmedia-i386-win32-vc8-debug:sdp_neg.obj
 0004:000032d4       ?__LINE__Var@?1??pjmedia_sdp_neg_cancel_offer@@9@9 005b22d4     pjmedia-i386-win32-vc8-debug:sdp_neg.obj
 0004:000032d8       ?__LINE__Var@?1??pjmedia_sdp_neg_negotiate@@9@9 005b22d8     pjmedia-i386-win32-vc8-debug:sdp_neg.obj
 0004:000032dc       ?__LINE__Var@?1??process_answer@@9@9@f093773d 005b22dc     pjmedia-i386-win32-vc8-debug:sdp_neg.obj
 0004:000032e0       ?__LINE__Var@?1??process_m_answer@@9@9@f093773d 005b22e0     pjmedia-i386-win32-vc8-debug:sdp_neg.obj
 0004:000032e4       ?__LINE__Var@?1??match_amr@@9@9@f093773d 005b22e4     pjmedia-i386-win32-vc8-debug:sdp_neg.obj
 0004:000032e8       ?__LINE__Var@?1??create_answer@@9@9@f093773d 005b22e8     pjmedia-i386-win32-vc8-debug:sdp_neg.obj
 0004:000032ec       ?__LINE__Var@?1??match_offer@@9@9@f093773d 005b22ec     pjmedia-i386-win32-vc8-debug:sdp_neg.obj
 0004:000032f0       ?__LINE__Var@?1??pjmedia_codec_mgr_init@@9@9 005b22f0     pjmedia-i386-win32-vc8-debug:codec.obj
 0004:000032f4       ?__LINE__Var@?1??pjmedia_codec_mgr_destroy@@9@9 005b22f4     pjmedia-i386-win32-vc8-debug:codec.obj
 0004:000032f8       ?__LINE__Var@?1??pjmedia_codec_mgr_register_factory@@9@9 005b22f8     pjmedia-i386-win32-vc8-debug:codec.obj
 0004:000032fc       ?__LINE__Var@?1??pjmedia_codec_mgr_unregister_factory@@9@9 005b22fc     pjmedia-i386-win32-vc8-debug:codec.obj
 0004:00003300       ?__LINE__Var@?1??pjmedia_codec_mgr_enum_codecs@@9@9 005b2300     pjmedia-i386-win32-vc8-debug:codec.obj
 0004:00003304       ?__LINE__Var@?1??pjmedia_codec_mgr_get_codec_info@@9@9 005b2304     pjmedia-i386-win32-vc8-debug:codec.obj
 0004:00003308       ?__LINE__Var@?1??pjmedia_codec_info_to_id@@9@9 005b2308     pjmedia-i386-win32-vc8-debug:codec.obj
 0004:0000330c       ?__LINE__Var@?1??pjmedia_codec_mgr_find_codecs_by_id@@9@9 005b230c     pjmedia-i386-win32-vc8-debug:codec.obj
 0004:00003310       ?__LINE__Var@?1??pjmedia_codec_mgr_set_codec_priority@@9@9 005b2310     pjmedia-i386-win32-vc8-debug:codec.obj
 0004:00003314       ?__LINE__Var@?1??pjmedia_codec_mgr_alloc_codec@@9@9 005b2314     pjmedia-i386-win32-vc8-debug:codec.obj
 0004:00003318       ?__LINE__Var@?1??pjmedia_codec_mgr_get_default_param@@9@9 005b2318     pjmedia-i386-win32-vc8-debug:codec.obj
 0004:0000331c       ?__LINE__Var@?1??pjmedia_codec_mgr_set_default_param@@9@9 005b231c     pjmedia-i386-win32-vc8-debug:codec.obj
 0004:00003320       ?__LINE__Var@?1??pjmedia_codec_mgr_dealloc_codec@@9@9 005b2320     pjmedia-i386-win32-vc8-debug:codec.obj
 0004:00003324       ?__LINE__Var@?1??pjmedia_silence_det_create@@9@9 005b2324     pjmedia-i386-win32-vc8-debug:silencedet.obj
 0004:00003328       ?__LINE__Var@?1??pjmedia_silence_det_set_name@@9@9 005b2328     pjmedia-i386-win32-vc8-debug:silencedet.obj
 0004:0000332c       ?__LINE__Var@?1??pjmedia_silence_det_set_adaptive@@9@9 005b232c     pjmedia-i386-win32-vc8-debug:silencedet.obj
 0004:00003330       ?__LINE__Var@?1??pjmedia_silence_det_set_fixed@@9@9 005b2330     pjmedia-i386-win32-vc8-debug:silencedet.obj
 0004:00003334       ?__LINE__Var@?1??pjmedia_silence_det_set_params@@9@9 005b2334     pjmedia-i386-win32-vc8-debug:silencedet.obj
 0004:00003338       ?__LINE__Var@?1??pjmedia_silence_det_disable@@9@9 005b2338     pjmedia-i386-win32-vc8-debug:silencedet.obj
 0004:0000333c       ?__LINE__Var@?1??pjmedia_silence_det_apply@@9@9 005b233c     pjmedia-i386-win32-vc8-debug:silencedet.obj
 0004:00003350       ?__LINE__Var@?1??pjmedia_plc_create@@9@9 005b2350     pjmedia-i386-win32-vc8-debug:plc_common.obj
 0004:00003354       ?__LINE__Var@?1??pjmedia_plc_save@@9@9 005b2354     pjmedia-i386-win32-vc8-debug:plc_common.obj
 0004:00003358       ?__LINE__Var@?1??pjmedia_plc_generate@@9@9 005b2358     pjmedia-i386-win32-vc8-debug:plc_common.obj
 0004:0000335c       ?__LINE__Var@?1??pjmedia_stream_create@@9@9 005b235c     pjmedia-i386-win32-vc8-debug:stream.obj
 0004:00003360       ?__LINE__Var@?1??get_frame@@9@9@22c56c9e 005b2360     pjmedia-i386-win32-vc8-debug:stream.obj
 0004:00003364       ?__LINE__Var@?1??get_frame_ext@@9@9@22c56c9e 005b2364     pjmedia-i386-win32-vc8-debug:stream.obj
 0004:00003368       ?__LINE__Var@?1??create_rtcp_sdes@@9@9@22c56c9e 005b2368     pjmedia-i386-win32-vc8-debug:stream.obj
 0004:0000336c       ?__LINE__Var@?1??rebuffer@@9@9@22c56c9e 005b236c     pjmedia-i386-win32-vc8-debug:stream.obj
 0004:00003370       ?__LINE__Var@?1??create_channel@@9@9@22c56c9e 005b2370     pjmedia-i386-win32-vc8-debug:stream.obj
 0004:00003374       ?__LINE__Var@?1??pjmedia_stream_destroy@@9@9 005b2374     pjmedia-i386-win32-vc8-debug:stream.obj
 0004:00003378       ?__LINE__Var@?1??create_rtcp_bye@@9@9@22c56c9e 005b2378     pjmedia-i386-win32-vc8-debug:stream.obj
 0004:0000337c       ?__LINE__Var@?1??pjmedia_stream_start@@9@9 005b237c     pjmedia-i386-win32-vc8-debug:stream.obj
 0004:00003380       ?__LINE__Var@?1??pjmedia_stream_get_stat@@9@9 005b2380     pjmedia-i386-win32-vc8-debug:stream.obj
 0004:00003384       ?__LINE__Var@?1??pjmedia_stream_get_stat_jbuf@@9@9 005b2384     pjmedia-i386-win32-vc8-debug:stream.obj
 0004:00003388       ?__LINE__Var@?1??pjmedia_stream_pause@@9@9 005b2388     pjmedia-i386-win32-vc8-debug:stream.obj
 0004:0000338c       ?__LINE__Var@?1??pjmedia_stream_resume@@9@9 005b238c     pjmedia-i386-win32-vc8-debug:stream.obj
 0004:00003390       ?__LINE__Var@?1??pjmedia_stream_dial_dtmf@@9@9 005b2390     pjmedia-i386-win32-vc8-debug:stream.obj
 0004:00003394       ?__LINE__Var@?1??pjmedia_stream_get_dtmf@@9@9 005b2394     pjmedia-i386-win32-vc8-debug:stream.obj
 0004:00003398       ?__LINE__Var@?1??pjmedia_stream_set_dtmf_callback@@9@9 005b2398     pjmedia-i386-win32-vc8-debug:stream.obj
 0004:0000339c       ?__LINE__Var@?1??pjmedia_wsola_create@@9@9 005b239c     pjmedia-i386-win32-vc8-debug:wsola.obj
 0004:000033a0       ?__LINE__Var@?1??pjmedia_wsola_set_max_expand@@9@9 005b23a0     pjmedia-i386-win32-vc8-debug:wsola.obj
 0004:000033a4       ?__LINE__Var@?1??pjmedia_wsola_reset@@9@9 005b23a4     pjmedia-i386-win32-vc8-debug:wsola.obj
 0004:000033a8       ?__LINE__Var@?1??expand@@9@9@18710e2c 005b23a8     pjmedia-i386-win32-vc8-debug:wsola.obj
 0004:000033ac       ?__LINE__Var@?1??pjmedia_wsola_discard@@9@9 005b23ac     pjmedia-i386-win32-vc8-debug:wsola.obj
 0004:000034d4       ?__LINE__Var@?1??pjmedia_srtp_setting_default@@9@9 005b24d4     pjmedia-i386-win32-vc8-debug:transport_srtp.obj
 0004:000034d8       ?__LINE__Var@?1??pjmedia_transport_srtp_create@@9@9 005b24d8     pjmedia-i386-win32-vc8-debug:transport_srtp.obj
 0004:000034dc       ?__LINE__Var@?1??pjmedia_transport_srtp_start@@9@9 005b24dc     pjmedia-i386-win32-vc8-debug:transport_srtp.obj
 0004:000034e0       ?__LINE__Var@?1??pjmedia_transport_srtp_stop@@9@9 005b24e0     pjmedia-i386-win32-vc8-debug:transport_srtp.obj
 0004:000034e4       ?__LINE__Var@?1??pjmedia_transport_srtp_get_member@@9@9 005b24e4     pjmedia-i386-win32-vc8-debug:transport_srtp.obj
 0004:000034e8       ?__LINE__Var@?1??transport_get_info@@9@9@7d909500 005b24e8     pjmedia-i386-win32-vc8-debug:transport_srtp.obj
 0004:000034ec       ?__LINE__Var@?1??transport_attach@@9@9@7d909500 005b24ec     pjmedia-i386-win32-vc8-debug:transport_srtp.obj
 0004:000034f0       ?__LINE__Var@?1??transport_detach@@9@9@7d909500 005b24f0     pjmedia-i386-win32-vc8-debug:transport_srtp.obj
 0004:000034f4       ?__LINE__Var@?1??transport_simulate_lost@@9@9@7d909500 005b24f4     pjmedia-i386-win32-vc8-debug:transport_srtp.obj
 0004:000034f8       ?__LINE__Var@?1??transport_destroy@@9@9@7d909500 005b24f8     pjmedia-i386-win32-vc8-debug:transport_srtp.obj
 0004:000034fc       ?__LINE__Var@?1??srtp_rtp_cb@@9@9@7d909500 005b24fc     pjmedia-i386-win32-vc8-debug:transport_srtp.obj
 0004:00003500       ?__LINE__Var@?1??srtp_rtcp_cb@@9@9@7d909500 005b2500     pjmedia-i386-win32-vc8-debug:transport_srtp.obj
 0004:00003504       ?__LINE__Var@?1??transport_media_create@@9@9@7d909500 005b2504     pjmedia-i386-win32-vc8-debug:transport_srtp.obj
 0004:00003508       ?__LINE__Var@?1??transport_encode_sdp@@9@9@7d909500 005b2508     pjmedia-i386-win32-vc8-debug:transport_srtp.obj
 0004:0000350c       ?__LINE__Var@?1??generate_crypto_attr_value@@9@9@7d909500 005b250c     pjmedia-i386-win32-vc8-debug:transport_srtp.obj
 0004:00003510       ?__LINE__Var@?1??transport_media_start@@9@9@7d909500 005b2510     pjmedia-i386-win32-vc8-debug:transport_srtp.obj
 0004:00003514       ?__LINE__Var@?1??transport_media_stop@@9@9@7d909500 005b2514     pjmedia-i386-win32-vc8-debug:transport_srtp.obj
 0004:00003518       ?__LINE__Var@?1??pjmedia_transport_srtp_decrypt_pkt@@9@9 005b2518     pjmedia-i386-win32-vc8-debug:transport_srtp.obj
 0004:0000351c       ?__LINE__Var@?1??jb_framelist_init@@9@9@693ea809 005b251c     pjmedia-i386-win32-vc8-debug:jbuf.obj
 0004:00003520       ?__LINE__Var@?1??pjmedia_jbuf_set_fixed@@9@9 005b2520     pjmedia-i386-win32-vc8-debug:jbuf.obj
 0004:00003524       ?__LINE__Var@?1??pjmedia_jbuf_set_adaptive@@9@9 005b2524     pjmedia-i386-win32-vc8-debug:jbuf.obj
 0004:00003528       ?__LINE__Var@?1??pjmedia_jbuf_put_frame2@@9@9 005b2528     pjmedia-i386-win32-vc8-debug:jbuf.obj
 0004:0000352c       ?__LINE__Var@?1??jb_framelist_remove_head@@9@9@693ea809 005b252c     pjmedia-i386-win32-vc8-debug:jbuf.obj
 0004:00003530       ?__LINE__Var@?1??jb_framelist_put_at@@9@9@693ea809 005b2530     pjmedia-i386-win32-vc8-debug:jbuf.obj
 0004:00003534       ?__LINE__Var@?1??pjmedia_jbuf_get_state@@9@9 005b2534     pjmedia-i386-win32-vc8-debug:jbuf.obj
 0004:00003538       ?__LINE__Var@?1??pjmedia_port_get_frame@@9@9 005b2538     pjmedia-i386-win32-vc8-debug:port.obj
 0004:0000353c       ?__LINE__Var@?1??pjmedia_port_put_frame@@9@9 005b253c     pjmedia-i386-win32-vc8-debug:port.obj
 0004:00003540       ?__LINE__Var@?1??pjmedia_port_destroy@@9@9 005b2540     pjmedia-i386-win32-vc8-debug:port.obj
 0004:00003544       _pj_optind                 005b2544     pjlib-util-i386-win32-vc8-debug:getopt.obj
 0004:00003548       _pj_optopt                 005b2548     pjlib-util-i386-win32-vc8-debug:getopt.obj
 0004:00003550       ?__LINE__Var@?1??pj_cis_add_range@@9@9 005b2550     pjlib-util-i386-win32-vc8-debug:scanner.obj
 0004:00003554       ?__LINE__Var@?1??pj_scan_init@@9@9 005b2554     pjlib-util-i386-win32-vc8-debug:scanner.obj
 0004:00003558       ?__LINE__Var@?1??pj_scan_fini@@9@9 005b2558     pjlib-util-i386-win32-vc8-debug:scanner.obj
 0004:0000355c       ?__LINE__Var@?1??pj_scan_get@@9@9 005b255c     pjlib-util-i386-win32-vc8-debug:scanner.obj
 0004:00003560       ?__LINE__Var@?1??pj_scan_get_unescape@@9@9 005b2560     pjlib-util-i386-win32-vc8-debug:scanner.obj
 0004:00003564       ?__LINE__Var@?1??pj_scan_get_quotes@@9@9 005b2564     pjlib-util-i386-win32-vc8-debug:scanner.obj
 0004:00003578       ?__LINE__Var@?1??pj_dns_resolver_create@@9@9 005b2578     pjlib-util-i386-win32-vc8-debug:resolver.obj
 0004:0000357c       ?__LINE__Var@?1??pj_dns_resolver_destroy@@9@9 005b257c     pjlib-util-i386-win32-vc8-debug:resolver.obj
 0004:00003580       ?__LINE__Var@?1??pj_dns_resolver_set_ns@@9@9 005b2580     pjlib-util-i386-win32-vc8-debug:resolver.obj
 0004:00003584       ?__LINE__Var@?1??pj_dns_resolver_set_settings@@9@9 005b2584     pjlib-util-i386-win32-vc8-debug:resolver.obj
 0004:00003588       ?__LINE__Var@?1??pj_dns_resolver_get_settings@@9@9 005b2588     pjlib-util-i386-win32-vc8-debug:resolver.obj
 0004:0000358c       ?__LINE__Var@?1??pj_dns_resolver_handle_events@@9@9 005b258c     pjlib-util-i386-win32-vc8-debug:resolver.obj
 0004:00003590       ?__LINE__Var@?1??pj_dns_resolver_start_query@@9@9 005b2590     pjlib-util-i386-win32-vc8-debug:resolver.obj
 0004:00003594       ?__LINE__Var@?1??transmit_query@@9@9@e83462b8 005b2594     pjlib-util-i386-win32-vc8-debug:resolver.obj
 0004:00003598       ?__LINE__Var@?1??pj_dns_resolver_cancel_query@@9@9 005b2598     pjlib-util-i386-win32-vc8-debug:resolver.obj
 0004:0000359c       ?__LINE__Var@?1??pj_dns_parse_a_response@@9@9 005b259c     pjlib-util-i386-win32-vc8-debug:resolver.obj
 0004:000035a0       ?__LINE__Var@?1??select_nameservers@@9@9@e83462b8 005b25a0     pjlib-util-i386-win32-vc8-debug:resolver.obj
 0004:000035a4       ?__LINE__Var@?1??on_read_complete@@9@9@e83462b8 005b25a4     pjlib-util-i386-win32-vc8-debug:resolver.obj
 0004:000035a8       ?__LINE__Var@?1??pj_dns_resolver_add_entry@@9@9 005b25a8     pjlib-util-i386-win32-vc8-debug:resolver.obj
 0004:000035ac       ?__LINE__Var@?1??pj_dns_resolver_get_cached_count@@9@9 005b25ac     pjlib-util-i386-win32-vc8-debug:resolver.obj
 0004:000035b0       ?__LINE__Var@?1??pj_dns_srv_resolve@@9@9 005b25b0     pjlib-util-i386-win32-vc8-debug:srv_resolver.obj
 0004:000035b4       ?__LINE__Var@?1??dns_callback@@9@9@1c8aa667 005b25b4     pjlib-util-i386-win32-vc8-debug:srv_resolver.obj
 0004:000035b8       ?__LINE__Var@?1??build_server_entries@@9@9@1c8aa667 005b25b8     pjlib-util-i386-win32-vc8-debug:srv_resolver.obj
 0004:000035bc       ?__LINE__Var@?1??pj_dns_make_query@@9@9 005b25bc     pjlib-util-i386-win32-vc8-debug:dns.obj
 0004:000035c0       ?__LINE__Var@?1??pj_dns_parse_packet@@9@9 005b25c0     pjlib-util-i386-win32-vc8-debug:dns.obj
 0004:000035c4       ?__LINE__Var@?1??pj_dns_packet_dup@@9@9 005b25c4     pjlib-util-i386-win32-vc8-debug:dns.obj
 0004:000035c8       ?__LINE__Var@?1??pj_base64_encode@@9@9 005b25c8     pjlib-util-i386-win32-vc8-debug:base64.obj
 0004:000035cc       ?__LINE__Var@?1??pj_base64_decode@@9@9 005b25cc     pjlib-util-i386-win32-vc8-debug:base64.obj
 0004:000035d0       ?__LINE__Var@?1??base256_char@@9@9@0920dabd 005b25d0     pjlib-util-i386-win32-vc8-debug:base64.obj
 0004:000035d4       ?__LINE__Var@?1??pj_create_random_string@@9@9 005b25d4     pjlib-i386-win32-vc8-debug:string.obj
 0004:000035d8       ?__LINE__Var@?1??pj_strtoul@@9@9 005b25d8     pjlib-i386-win32-vc8-debug:string.obj
 0004:000035dc       ?__LINE__Var@?1??pj_strtoul2@@9@9 005b25dc     pjlib-i386-win32-vc8-debug:string.obj
 0004:000035e0       ?__LINE__Var@?1??pj_utoa_pad@@9@9 005b25e0     pjlib-i386-win32-vc8-debug:string.obj
 0004:000035e4       ?__LINE__Var@?1??pj_inet_aton@@9@9 005b25e4     pjlib-i386-win32-vc8-debug:sock_bsd.obj
 0004:000035e8       ?__LINE__Var@?1??pj_inet_pton@@9@9 005b25e8     pjlib-i386-win32-vc8-debug:sock_bsd.obj
 0004:000035ec       ?__LINE__Var@?1??pj_inet_ntop@@9@9 005b25ec     pjlib-i386-win32-vc8-debug:sock_bsd.obj
 0004:000035f0       ?__LINE__Var@?1??pj_gethostname@@9@9 005b25f0     pjlib-i386-win32-vc8-debug:sock_bsd.obj
 0004:000035f4       ?__LINE__Var@?1??pj_sock_socket@@9@9 005b25f4     pjlib-i386-win32-vc8-debug:sock_bsd.obj
 0004:000035f8       ?__LINE__Var@?1??pj_sock_bind@@9@9 005b25f8     pjlib-i386-win32-vc8-debug:sock_bsd.obj
 0004:000035fc       ?__LINE__Var@?1??pj_sock_bind_in@@9@9 005b25fc     pjlib-i386-win32-vc8-debug:sock_bsd.obj
 0004:00003600       ?__LINE__Var@?1??pj_sock_close@@9@9 005b2600     pjlib-i386-win32-vc8-debug:sock_bsd.obj
 0004:00003604       ?__LINE__Var@?1??pj_sock_getpeername@@9@9 005b2604     pjlib-i386-win32-vc8-debug:sock_bsd.obj
 0004:00003608       ?__LINE__Var@?1??pj_sock_getsockname@@9@9 005b2608     pjlib-i386-win32-vc8-debug:sock_bsd.obj
 0004:0000360c       ?__LINE__Var@?1??pj_sock_send@@9@9 005b260c     pjlib-i386-win32-vc8-debug:sock_bsd.obj
 0004:00003610       ?__LINE__Var@?1??pj_sock_sendto@@9@9 005b2610     pjlib-i386-win32-vc8-debug:sock_bsd.obj
 0004:00003614       ?__LINE__Var@?1??pj_sock_recv@@9@9 005b2614     pjlib-i386-win32-vc8-debug:sock_bsd.obj
 0004:00003618       ?__LINE__Var@?1??pj_sock_recvfrom@@9@9 005b2618     pjlib-i386-win32-vc8-debug:sock_bsd.obj
 0004:0000361c       ?__LINE__Var@?1??pj_sock_getsockopt@@9@9 005b261c     pjlib-i386-win32-vc8-debug:sock_bsd.obj
 0004:00003620       ?__LINE__Var@?1??pj_sock_setsockopt@@9@9 005b2620     pjlib-i386-win32-vc8-debug:sock_bsd.obj
 0004:00003624       ?__LINE__Var@?1??pj_sock_connect@@9@9 005b2624     pjlib-i386-win32-vc8-debug:sock_bsd.obj
 0004:00003628       ?__LINE__Var@?1??pj_sock_shutdown@@9@9 005b2628     pjlib-i386-win32-vc8-debug:sock_bsd.obj
 0004:0000362c       ?__LINE__Var@?1??pj_sock_listen@@9@9 005b262c     pjlib-i386-win32-vc8-debug:sock_bsd.obj
 0004:00003630       ?__LINE__Var@?1??pj_sock_accept@@9@9 005b2630     pjlib-i386-win32-vc8-debug:sock_bsd.obj
 0004:00003634       ?__LINE__Var@?1??pj_pool_allocate_find@@9@9 005b2634     pjlib-i386-win32-vc8-debug:pool.obj
 0004:00003638       ?__LINE__Var@?1??pj_pool_create_block@@9@9@17398a00 005b2638     pjlib-i386-win32-vc8-debug:pool.obj
 0004:0000363c       ?__LINE__Var@?1??pj_pool_init_int@@9@9 005b263c     pjlib-i386-win32-vc8-debug:pool.obj
 0004:00003640       ?__LINE__Var@?1??pj_pool_create_int@@9@9 005b2640     pjlib-i386-win32-vc8-debug:pool.obj
 0004:00003644       ?__LINE__Var@?1??reset_pool@@9@9@17398a00 005b2644     pjlib-i386-win32-vc8-debug:pool.obj
 0004:000036c4       ?__LINE__Var@?1??pj_log@@9@9 005b26c4     pjlib-i386-win32-vc8-debug:log.obj
 0004:000036c8       ?__LINE__Var@?1??pj_log_write@@9@9 005b26c8     pjlib-i386-win32-vc8-debug:log_writer_stdout.obj
 0004:000036d0       ?__LINE__Var@?1??pj_getpid@@9@9 005b26d0     pjlib-i386-win32-vc8-debug:os_core_win32.obj
 0004:000036d4       ?__LINE__Var@?1??pj_thread_set_prio@@9@9 005b26d4     pjlib-i386-win32-vc8-debug:os_core_win32.obj
 0004:000036d8       ?__LINE__Var@?1??pj_thread_get_os_handle@@9@9 005b26d8     pjlib-i386-win32-vc8-debug:os_core_win32.obj
 0004:000036dc       ?__LINE__Var@?1??pj_thread_register@@9@9 005b26dc     pjlib-i386-win32-vc8-debug:os_core_win32.obj
 0004:000036e0       ?__LINE__Var@?1??pj_thread_create@@9@9 005b26e0     pjlib-i386-win32-vc8-debug:os_core_win32.obj
 0004:000036e4       ?__LINE__Var@?1??thread_main@@9@9@b730e761 005b26e4     pjlib-i386-win32-vc8-debug:os_core_win32.obj
 0004:000036e8       ?__LINE__Var@?1??pj_thread_get_name@@9@9 005b26e8     pjlib-i386-win32-vc8-debug:os_core_win32.obj
 0004:000036ec       ?__LINE__Var@?1??pj_thread_resume@@9@9 005b26ec     pjlib-i386-win32-vc8-debug:os_core_win32.obj
 0004:000036f0       ?__LINE__Var@?1??pj_thread_this@@9@9 005b26f0     pjlib-i386-win32-vc8-debug:os_core_win32.obj
 0004:000036f4       ?__LINE__Var@?1??pj_thread_join@@9@9 005b26f4     pjlib-i386-win32-vc8-debug:os_core_win32.obj
 0004:000036f8       ?__LINE__Var@?1??pj_thread_destroy@@9@9 005b26f8     pjlib-i386-win32-vc8-debug:os_core_win32.obj
 0004:000036fc       ?__LINE__Var@?1??pj_thread_sleep@@9@9 005b26fc     pjlib-i386-win32-vc8-debug:os_core_win32.obj
 0004:00003700       ?__LINE__Var@?1??pj_thread_check_stack@@9@9 005b2700     pjlib-i386-win32-vc8-debug:os_core_win32.obj
 0004:00003704       ?__LINE__Var@?1??pj_thread_get_stack_info@@9@9 005b2704     pjlib-i386-win32-vc8-debug:os_core_win32.obj
 0004:00003708       ?__LINE__Var@?1??pj_atomic_destroy@@9@9 005b2708     pjlib-i386-win32-vc8-debug:os_core_win32.obj
 0004:0000370c       ?__LINE__Var@?1??pj_atomic_set@@9@9 005b270c     pjlib-i386-win32-vc8-debug:os_core_win32.obj
 0004:00003710       ?__LINE__Var@?1??pj_atomic_get@@9@9 005b2710     pjlib-i386-win32-vc8-debug:os_core_win32.obj
 0004:00003714       ?__LINE__Var@?1??pj_atomic_inc_and_get@@9@9 005b2714     pjlib-i386-win32-vc8-debug:os_core_win32.obj
 0004:00003718       ?__LINE__Var@?1??pj_atomic_dec_and_get@@9@9 005b2718     pjlib-i386-win32-vc8-debug:os_core_win32.obj
 0004:0000371c       ?__LINE__Var@?1??pj_thread_local_alloc@@9@9 005b271c     pjlib-i386-win32-vc8-debug:os_core_win32.obj
 0004:00003720       ?__LINE__Var@?1??pj_thread_local_free@@9@9 005b2720     pjlib-i386-win32-vc8-debug:os_core_win32.obj
 0004:00003724       ?__LINE__Var@?1??init_mutex@@9@9@b730e761 005b2724     pjlib-i386-win32-vc8-debug:os_core_win32.obj
 0004:00003728       ?__LINE__Var@?1??pj_mutex_create@@9@9 005b2728     pjlib-i386-win32-vc8-debug:os_core_win32.obj
 0004:0000372c       ?__LINE__Var@?1??pj_mutex_lock@@9@9 005b272c     pjlib-i386-win32-vc8-debug:os_core_win32.obj
 0004:00003730       ?__LINE__Var@?1??pj_mutex_unlock@@9@9 005b2730     pjlib-i386-win32-vc8-debug:os_core_win32.obj
 0004:00003734       ?__LINE__Var@?1??pj_mutex_trylock@@9@9 005b2734     pjlib-i386-win32-vc8-debug:os_core_win32.obj
 0004:00003738       ?__LINE__Var@?1??pj_mutex_destroy@@9@9 005b2738     pjlib-i386-win32-vc8-debug:os_core_win32.obj
 0004:0000373c       ?__LINE__Var@?1??pj_rwmutex_create@@9@9 005b273c     pjlib-i386-win32-vc8-debug:os_core_win32.obj
 0004:00003740       ?__LINE__Var@?1??pj_rwmutex_lock_read@@9@9 005b2740     pjlib-i386-win32-vc8-debug:os_core_win32.obj
 0004:00003744       ?__LINE__Var@?1??pj_rwmutex_lock_write@@9@9 005b2744     pjlib-i386-win32-vc8-debug:os_core_win32.obj
 0004:00003748       ?__LINE__Var@?1??pj_rwmutex_unlock_read@@9@9 005b2748     pjlib-i386-win32-vc8-debug:os_core_win32.obj
 0004:0000374c       ?__LINE__Var@?1??pj_rwmutex_unlock_write@@9@9 005b274c     pjlib-i386-win32-vc8-debug:os_core_win32.obj
 0004:00003750       ?__LINE__Var@?1??pj_rwmutex_destroy@@9@9 005b2750     pjlib-i386-win32-vc8-debug:os_core_win32.obj
 0004:00003754       ?__LINE__Var@?1??pj_sem_create@@9@9 005b2754     pjlib-i386-win32-vc8-debug:os_core_win32.obj
 0004:00003758       ?__LINE__Var@?1??pj_sem_wait@@9@9 005b2758     pjlib-i386-win32-vc8-debug:os_core_win32.obj
 0004:0000375c       ?__LINE__Var@?1??pj_sem_wait_for@@9@9@b730e761 005b275c     pjlib-i386-win32-vc8-debug:os_core_win32.obj
 0004:00003760       ?__LINE__Var@?1??pj_sem_trywait@@9@9 005b2760     pjlib-i386-win32-vc8-debug:os_core_win32.obj
 0004:00003764       ?__LINE__Var@?1??pj_sem_post@@9@9 005b2764     pjlib-i386-win32-vc8-debug:os_core_win32.obj
 0004:00003768       ?__LINE__Var@?1??pj_sem_destroy@@9@9 005b2768     pjlib-i386-win32-vc8-debug:os_core_win32.obj
 0004:0000376c       ?__LINE__Var@?1??pj_event_create@@9@9 005b276c     pjlib-i386-win32-vc8-debug:os_core_win32.obj
 0004:00003770       ?__LINE__Var@?1??pj_event_wait@@9@9 005b2770     pjlib-i386-win32-vc8-debug:os_core_win32.obj
 0004:00003774       ?__LINE__Var@?1??pj_event_wait_for@@9@9@b730e761 005b2774     pjlib-i386-win32-vc8-debug:os_core_win32.obj
 0004:00003778       ?__LINE__Var@?1??pj_event_trywait@@9@9 005b2778     pjlib-i386-win32-vc8-debug:os_core_win32.obj
 0004:0000377c       ?__LINE__Var@?1??pj_event_set@@9@9 005b277c     pjlib-i386-win32-vc8-debug:os_core_win32.obj
 0004:00003780       ?__LINE__Var@?1??pj_event_pulse@@9@9 005b2780     pjlib-i386-win32-vc8-debug:os_core_win32.obj
 0004:00003784       ?__LINE__Var@?1??pj_event_reset@@9@9 005b2784     pjlib-i386-win32-vc8-debug:os_core_win32.obj
 0004:00003788       ?__LINE__Var@?1??pj_event_destroy@@9@9 005b2788     pjlib-i386-win32-vc8-debug:os_core_win32.obj
 0004:0000378c       ?__LINE__Var@?1??pj_term_set_color@@9@9 005b278c     pjlib-i386-win32-vc8-debug:os_core_win32.obj
 0004:00003790       ?__LINE__Var@?1??pj_term_get_color@@9@9 005b2790     pjlib-i386-win32-vc8-debug:os_core_win32.obj
 0004:000037e4       ?__LINE__Var@?1??pj_caching_pool_init@@9@9 005b27e4     pjlib-i386-win32-vc8-debug:pool_caching.obj
 0004:000037e8       ?__LINE__Var@?1??pj_caching_pool_destroy@@9@9 005b27e8     pjlib-i386-win32-vc8-debug:pool_caching.obj
 0004:000037ec       ?__LINE__Var@?1??cpool_create_pool@@9@9@5b1f4ce0 005b27ec     pjlib-i386-win32-vc8-debug:pool_caching.obj
 0004:000037f0       ?__LINE__Var@?1??cpool_release_pool@@9@9@5b1f4ce0 005b27f0     pjlib-i386-win32-vc8-debug:pool_caching.obj
 0004:000037f4       ?__LINE__Var@?1??pj_sockaddr_in_set_str_addr@@9@9 005b27f4     pjlib-i386-win32-vc8-debug:sock_common.obj
 0004:000037f8       ?__LINE__Var@?1??pj_sockaddr_set_str_addr@@9@9 005b27f8     pjlib-i386-win32-vc8-debug:sock_common.obj
 0004:000037fc       ?__LINE__Var@?1??pj_sockaddr_in_init@@9@9 005b27fc     pjlib-i386-win32-vc8-debug:sock_common.obj
 0004:00003800       ?__LINE__Var@?1??pj_sockaddr_init@@9@9 005b2800     pjlib-i386-win32-vc8-debug:sock_common.obj
 0004:00003804       ?__LINE__Var@?1??pj_sockaddr_get_addr@@9@9 005b2804     pjlib-i386-win32-vc8-debug:sock_common.obj
 0004:00003808       ?__LINE__Var@?1??pj_sockaddr_get_port@@9@9 005b2808     pjlib-i386-win32-vc8-debug:sock_common.obj
 0004:0000380c       ?__LINE__Var@?1??pj_sockaddr_get_addr_len@@9@9 005b280c     pjlib-i386-win32-vc8-debug:sock_common.obj
 0004:00003810       ?__LINE__Var@?1??pj_sockaddr_get_len@@9@9 005b2810     pjlib-i386-win32-vc8-debug:sock_common.obj
 0004:00003814       ?__LINE__Var@?1??pj_sockaddr_set_port@@9@9 005b2814     pjlib-i386-win32-vc8-debug:sock_common.obj
 0004:00003818       ?__LINE__Var@?1??pj_sockaddr_parse2@@9@9 005b2818     pjlib-i386-win32-vc8-debug:sock_common.obj
 0004:0000381c       ?__LINE__Var@?1??pj_sockaddr_parse@@9@9 005b281c     pjlib-i386-win32-vc8-debug:sock_common.obj
 0004:00003820       ?__LINE__Var@?1??pj_gethostip@@9@9 005b2820     pjlib-i386-win32-vc8-debug:sock_common.obj
 0004:00003824       _pj_pool_factory_default_policy 005b2824     pjlib-i386-win32-vc8-debug:pool_policy_malloc.obj
 0004:00003838       ?__LINE__Var@?1??default_block_alloc@@9@9@96a09bc9 005b2838     pjlib-i386-win32-vc8-debug:pool_policy_malloc.obj
 0004:0000383c       ?__LINE__Var@?1??default_block_free@@9@9@96a09bc9 005b283c     pjlib-i386-win32-vc8-debug:pool_policy_malloc.obj
 0004:00003840       ?__LINE__Var@?1??default_pool_callback@@9@9@96a09bc9 005b2840     pjlib-i386-win32-vc8-debug:pool_policy_malloc.obj
 0004:00003844       ?__LINE__Var@?1??pj_time_val_normalize@@9@9 005b2844     pjlib-i386-win32-vc8-debug:types.obj
 0004:00003848       ?__LINE__Var@?1??pj_register_strerror@@9@9 005b2848     pjlib-i386-win32-vc8-debug:errno.obj
 0004:0000384c       ?__LINE__Var@?1??pj_strerror@@9@9 005b284c     pjlib-i386-win32-vc8-debug:errno.obj
 0004:00003850       ?__LINE__Var@?1??pj_srand@@9@9 005b2850     pjlib-i386-win32-vc8-debug:rand.obj
 0004:00003854       ?__LINE__Var@?1??pj_rand@@9@9 005b2854     pjlib-i386-win32-vc8-debug:rand.obj
 0004:00003858       ?__LINE__Var@?1??pj_timer_heap_create@@9@9 005b2858     pjlib-i386-win32-vc8-debug:timer.obj
 0004:0000385c       ?__LINE__Var@?1??pj_timer_entry_init@@9@9 005b285c     pjlib-i386-win32-vc8-debug:timer.obj
 0004:00003860       ?__LINE__Var@?1??pj_timer_heap_schedule@@9@9 005b2860     pjlib-i386-win32-vc8-debug:timer.obj
 0004:00003864       ?__LINE__Var@?1??pop_freelist@@9@9@d1033410 005b2864     pjlib-i386-win32-vc8-debug:timer.obj
 0004:00003868       ?__LINE__Var@?1??copy_node@@9@9@d1033410 005b2868     pjlib-i386-win32-vc8-debug:timer.obj
 0004:0000386c       ?__LINE__Var@?1??pj_timer_heap_cancel@@9@9 005b286c     pjlib-i386-win32-vc8-debug:timer.obj
 0004:00003870       ?__LINE__Var@?1??cancel@@9@9@d1033410 005b2870     pjlib-i386-win32-vc8-debug:timer.obj
 0004:00003874       ?__LINE__Var@?1??push_freelist@@9@9@d1033410 005b2874     pjlib-i386-win32-vc8-debug:timer.obj
 0004:00003878       ?__LINE__Var@?1??reheap_down@@9@9@d1033410 005b2878     pjlib-i386-win32-vc8-debug:timer.obj
 0004:0000387c       ?__LINE__Var@?1??pj_timer_heap_poll@@9@9 005b287c     pjlib-i386-win32-vc8-debug:timer.obj
 0004:00003880       ?__LINE__Var@?1??pj_timer_heap_count@@9@9 005b2880     pjlib-i386-win32-vc8-debug:timer.obj
 0004:00003884       ?__LINE__Var@?1??pj_timer_heap_earliest_time@@9@9 005b2884     pjlib-i386-win32-vc8-debug:timer.obj
 0004:0000388c       ?__LINE__Var@?1??pj_throw_exception_@@9@9 005b288c     pjlib-i386-win32-vc8-debug:except.obj
 0004:00003890       ?__LINE__Var@?1??pj_push_exception_handler_@@9@9 005b2890     pjlib-i386-win32-vc8-debug:except.obj
 0004:00003894       ?__LINE__Var@?1??pj_exception_id_free@@9@9 005b2894     pjlib-i386-win32-vc8-debug:except.obj
 0004:00003898       ?__LINE__Var@?1??pj_exception_id_name@@9@9 005b2898     pjlib-i386-win32-vc8-debug:except.obj
 0004:000038b0       ?__LINE__Var@?1??pj_generate_unique_string@@9@9 005b28b0     pjlib-i386-win32-vc8-debug:guid_win32.obj
 0004:000038b4       ?__LINE__Var@?1??pj_hash_calc@@9@9 005b28b4     pjlib-i386-win32-vc8-debug:hash.obj
 0004:000038b8       ?__LINE__Var@?1??find_entry@@9@9@5a4af46c 005b28b8     pjlib-i386-win32-vc8-debug:hash.obj
 0004:000038bc       ?__LINE__Var@?1??pj_hash_this@@9@9 005b28bc     pjlib-i386-win32-vc8-debug:hash.obj
 0004:000038c0       ?__LINE__Var@?1??pj_array_erase@@9@9 005b28c0     pjlib-i386-win32-vc8-debug:array.obj
 0004:000038c4       ?__LINE__Var@?1??pj_ioqueue_set_lock@@9@9 005b28c4     pjlib-i386-win32-vc8-debug:ioqueue_select.obj
 0004:000038c8       ?__LINE__Var@?1??pj_ioqueue_get_user_data@@9@9 005b28c8     pjlib-i386-win32-vc8-debug:ioqueue_select.obj
 0004:000038cc       ?__LINE__Var@?1??pj_ioqueue_set_user_data@@9@9 005b28cc     pjlib-i386-win32-vc8-debug:ioqueue_select.obj
 0004:000038d0       ?__LINE__Var@?1??ioqueue_dispatch_write_event@@9@9 005b28d0     pjlib-i386-win32-vc8-debug:ioqueue_select.obj
 0004:000038d4       ?__LINE__Var@?1??ioqueue_dispatch_read_event@@9@9 005b28d4     pjlib-i386-win32-vc8-debug:ioqueue_select.obj
 0004:000038d8       ?__LINE__Var@?1??pj_ioqueue_recv@@9@9 005b28d8     pjlib-i386-win32-vc8-debug:ioqueue_select.obj
 0004:000038dc       ?__LINE__Var@?1??pj_ioqueue_recvfrom@@9@9 005b28dc     pjlib-i386-win32-vc8-debug:ioqueue_select.obj
 0004:000038e0       ?__LINE__Var@?1??pj_ioqueue_send@@9@9 005b28e0     pjlib-i386-win32-vc8-debug:ioqueue_select.obj
 0004:000038e4       ?__LINE__Var@?1??pj_ioqueue_sendto@@9@9 005b28e4     pjlib-i386-win32-vc8-debug:ioqueue_select.obj
 0004:000038e8       ?__LINE__Var@?1??pj_ioqueue_accept@@9@9 005b28e8     pjlib-i386-win32-vc8-debug:ioqueue_select.obj
 0004:000038ec       ?__LINE__Var@?1??pj_ioqueue_connect@@9@9 005b28ec     pjlib-i386-win32-vc8-debug:ioqueue_select.obj
 0004:000038f0       ?__LINE__Var@?1??pj_ioqueue_set_default_concurrency@@9@9 005b28f0     pjlib-i386-win32-vc8-debug:ioqueue_select.obj
 0004:000038f4       ?__LINE__Var@?1??pj_ioqueue_set_concurrency@@9@9 005b28f4     pjlib-i386-win32-vc8-debug:ioqueue_select.obj
 0004:000038f8       ?__LINE__Var@?1??pj_ioqueue_create@@9@9 005b28f8     pjlib-i386-win32-vc8-debug:ioqueue_select.obj
 0004:000038fc       ?__LINE__Var@?1??pj_ioqueue_destroy@@9@9 005b28fc     pjlib-i386-win32-vc8-debug:ioqueue_select.obj
 0004:00003900       ?__LINE__Var@?1??pj_ioqueue_register_sock@@9@9 005b2900     pjlib-i386-win32-vc8-debug:ioqueue_select.obj
 0004:00003904       ?__LINE__Var@?1??ioqueue_init_key@@9@9@8392aa3e 005b2904     pjlib-i386-win32-vc8-debug:ioqueue_select.obj
 0004:00003908       ?__LINE__Var@?1??pj_ioqueue_unregister@@9@9 005b2908     pjlib-i386-win32-vc8-debug:ioqueue_select.obj
 0004:0000390c       ?__LINE__Var@?1??decrement_counter@@9@9@8392aa3e 005b290c     pjlib-i386-win32-vc8-debug:ioqueue_select.obj
 0004:00003910       ?__LINE__Var@?1??ioqueue_remove_from_set@@9@9@8392aa3e 005b2910     pjlib-i386-win32-vc8-debug:ioqueue_select.obj
 0004:00003914       ?__LINE__Var@?1??ioqueue_add_to_set@@9@9@8392aa3e 005b2914     pjlib-i386-win32-vc8-debug:ioqueue_select.obj
 0004:00003918       ?__LINE__Var@?1??scan_closing_keys@@9@9@8392aa3e 005b2918     pjlib-i386-win32-vc8-debug:ioqueue_select.obj
 0004:0000391c       ?__LINE__Var@?1??pj_ioqueue_poll@@9@9 005b291c     pjlib-i386-win32-vc8-debug:ioqueue_select.obj
 0004:00003968       ?__LINE__Var@?1??create_mutex_lock@@9@9@2cb4e1dd 005b2968     pjlib-i386-win32-vc8-debug:lock.obj
 0004:0000396c       ?__LINE__Var@?1??pj_lock_create_null_mutex@@9@9 005b296c     pjlib-i386-win32-vc8-debug:lock.obj
 0004:00003970       ?__LINE__Var@?1??pj_lock_create_semaphore@@9@9 005b2970     pjlib-i386-win32-vc8-debug:lock.obj
 0004:00003974       ?__LINE__Var@?1??pj_lock_acquire@@9@9 005b2974     pjlib-i386-win32-vc8-debug:lock.obj
 0004:00003978       ?__LINE__Var@?1??pj_lock_tryacquire@@9@9 005b2978     pjlib-i386-win32-vc8-debug:lock.obj
 0004:0000397c       ?__LINE__Var@?1??pj_lock_release@@9@9 005b297c     pjlib-i386-win32-vc8-debug:lock.obj
 0004:00003980       ?__LINE__Var@?1??pj_lock_destroy@@9@9 005b2980     pjlib-i386-win32-vc8-debug:lock.obj
 0004:00003984       ?__LINE__Var@?1??platform_strerror@@9@9 005b2984     pjlib-i386-win32-vc8-debug:os_error_win32.obj
 0004:00003988       ?__LINE__Var@?1??pj_gethostbyname@@9@9 005b2988     pjlib-i386-win32-vc8-debug:addr_resolv_sock.obj
 0004:0000398c       ?__LINE__Var@?1??pj_getaddrinfo@@9@9 005b298c     pjlib-i386-win32-vc8-debug:addr_resolv_sock.obj
 0004:00003994       ?__LINE__Var@?1??pj_pool_create_on_buf@@9@9 005b2994     pjlib-i386-win32-vc8-debug:pool_buf.obj
 0004:00003998       ?__LINE__Var@?1??stack_alloc@@9@9@53ecbf0d 005b2998     pjlib-i386-win32-vc8-debug:pool_buf.obj
 0004:000039a0       _PJ_VERSION                005b29a0     pjlib-i386-win32-vc8-debug:config.obj
 0004:000039a8       ?__LINE__Var@?1??pj_enum_ip_interface@@9@9 005b29a8     pjlib-i386-win32-vc8-debug:ip_helper_win32.obj
 0004:000039ac       ?__LINE__Var@?1??enum_ipv4_interface@@9@9@477ebd5e 005b29ac     pjlib-i386-win32-vc8-debug:ip_helper_win32.obj
 0004:000039b0       ?__LINE__Var@?1??pj_enum_ip_route@@9@9 005b29b0     pjlib-i386-win32-vc8-debug:ip_helper_win32.obj
 0004:000039b4       ?__LINE__Var@?1??PJ_FD_ZERO@@9@9 005b29b4     pjlib-i386-win32-vc8-debug:sock_select.obj
 0004:000039b8       ?__LINE__Var@?1??PJ_FD_SET@@9@9 005b29b8     pjlib-i386-win32-vc8-debug:sock_select.obj
 0004:000039bc       ?__LINE__Var@?1??PJ_FD_CLR@@9@9 005b29bc     pjlib-i386-win32-vc8-debug:sock_select.obj
 0004:000039c0       ?__LINE__Var@?1??PJ_FD_ISSET@@9@9 005b29c0     pjlib-i386-win32-vc8-debug:sock_select.obj
 0004:000039c4       ?__LINE__Var@?1??pj_sock_select@@9@9 005b29c4     pjlib-i386-win32-vc8-debug:sock_select.obj
 0004:000039c8       _mod_srtp                  005b29c8     libsrtp-i386-win32-vc8-debug:srtp.obj
 0004:000039d8       _octet_weight              005b29d8     libsrtp-i386-win32-vc8-debug:datatypes.obj
 0004:00003ea4       _mod_crypto_kernel         005b2ea4     libsrtp-i386-win32-vc8-debug:crypto_kernel.obj
 0004:00003eb0       _mod_alloc                 005b2eb0     libsrtp-i386-win32-vc8-debug:alloc.obj
 0004:00003ebc       _err_level                 005b2ebc     libsrtp-i386-win32-vc8-debug:srtp_err.obj
 0004:00003ec0       _mod_aes_icm               005b2ec0     libsrtp-i386-win32-vc8-debug:aes_icm.obj
 0004:00003ec8       _aes_icm_description       005b2ec8     libsrtp-i386-win32-vc8-debug:aes_icm.obj
 0004:00003ee4       _aes_icm_test_case_0_key   005b2ee4     libsrtp-i386-win32-vc8-debug:aes_icm.obj
 0004:00003f04       _aes_icm_test_case_0_ciphertext 005b2f04     libsrtp-i386-win32-vc8-debug:aes_icm.obj
 0004:00003f24       _aes_icm_test_case_0       005b2f24     libsrtp-i386-win32-vc8-debug:aes_icm.obj
 0004:00003f44       _aes_icm                   005b2f44     libsrtp-i386-win32-vc8-debug:aes_icm.obj
 0004:00003f90       _mod_auth                  005b2f90     libsrtp-i386-win32-vc8-debug:auth.obj
 0004:00003f9c       _mod_cipher                005b2f9c     libsrtp-i386-win32-vc8-debug:cipher.obj
 0004:00003fa8       _mod_hmac                  005b2fa8     libsrtp-i386-win32-vc8-debug:hmac.obj
 0004:00003fb0       _hmac_test_case_0_key      005b2fb0     libsrtp-i386-win32-vc8-debug:hmac.obj
 0004:00003fc4       _hmac_test_case_0_data     005b2fc4     libsrtp-i386-win32-vc8-debug:hmac.obj
 0004:00003fcc       _hmac_test_case_0_tag      005b2fcc     libsrtp-i386-win32-vc8-debug:hmac.obj
 0004:00003fe0       _hmac_test_case_0          005b2fe0     libsrtp-i386-win32-vc8-debug:hmac.obj
 0004:00003ffc       _hmac_description          005b2ffc     libsrtp-i386-win32-vc8-debug:hmac.obj
 0004:00004020       _hmac                      005b3020     libsrtp-i386-win32-vc8-debug:hmac.obj
 0004:00004068       _null_auth_description     005b3068     libsrtp-i386-win32-vc8-debug:null_auth.obj
 0004:00004088       _null_auth                 005b3088     libsrtp-i386-win32-vc8-debug:null_auth.obj
 0004:000040c0       _mod_aes_cbc               005b30c0     libsrtp-i386-win32-vc8-debug:aes_cbc.obj
 0004:000040c8       _aes_cbc_description       005b30c8     libsrtp-i386-win32-vc8-debug:aes_cbc.obj
 0004:000040f0       _aes_cbc_test_case_0_key   005b30f0     libsrtp-i386-win32-vc8-debug:aes_cbc.obj
 0004:00004100       _aes_cbc_test_case_0_plaintext 005b3100     libsrtp-i386-win32-vc8-debug:aes_cbc.obj
 0004:00004140       _aes_cbc_test_case_0_ciphertext 005b3140     libsrtp-i386-win32-vc8-debug:aes_cbc.obj
 0004:00004190       _aes_cbc_test_case_0       005b3190     libsrtp-i386-win32-vc8-debug:aes_cbc.obj
 0004:000041b0       _aes_cbc_test_case_1_key   005b31b0     libsrtp-i386-win32-vc8-debug:aes_cbc.obj
 0004:000041c0       _aes_cbc_test_case_1_plaintext 005b31c0     libsrtp-i386-win32-vc8-debug:aes_cbc.obj
 0004:00004200       _aes_cbc_test_case_1_ciphertext 005b3200     libsrtp-i386-win32-vc8-debug:aes_cbc.obj
 0004:00004250       _aes_cbc_test_case_1_iv    005b3250     libsrtp-i386-win32-vc8-debug:aes_cbc.obj
 0004:00004260       _aes_cbc_test_case_1       005b3260     libsrtp-i386-win32-vc8-debug:aes_cbc.obj
 0004:00004280       _aes_cbc                   005b3280     libsrtp-i386-win32-vc8-debug:aes_cbc.obj
 0004:0000430c       _null_cipher_description   005b330c     libsrtp-i386-win32-vc8-debug:null_cipher.obj
 0004:00004318       _null_cipher               005b3318     libsrtp-i386-win32-vc8-debug:null_cipher.obj
 0004:0000434c       _mod_stat                  005b334c     libsrtp-i386-win32-vc8-debug:stat.obj
 0004:00006c2c       _mod_sha1                  005b5c2c     libsrtp-i386-win32-vc8-debug:sha1.obj
 0004:00006c34       _SHA_K0                    005b5c34     libsrtp-i386-win32-vc8-debug:sha1.obj
 0004:00006c38       _SHA_K1                    005b5c38     libsrtp-i386-win32-vc8-debug:sha1.obj
 0004:00006c3c       _SHA_K2                    005b5c3c     libsrtp-i386-win32-vc8-debug:sha1.obj
 0004:00006c40       _SHA_K3                    005b5c40     libsrtp-i386-win32-vc8-debug:sha1.obj
 0004:00006cb8       ___security_cookie         005b5cb8     LIBCMTD:gs_cookie.obj
 0004:00006cbc       ___security_cookie_complement 005b5cbc     LIBCMTD:gs_cookie.obj
 0004:00006cc0       __fltused                  005b5cc0     LIBCMTD:fpinit.obj
 0004:00006cc4       __ldused                   005b5cc4     LIBCMTD:fpinit.obj
 0004:00006cd0       __iob                      005b5cd0     LIBCMTD:_file.obj
 0004:00006fd0       ___app_type                005b5fd0     LIBCMTD:crt0.obj
 0004:00006fe0       __crtDbgFlag               005b5fe0     LIBCMTD:dbgheap.obj
 0004:00006fe4       ___crtDebugFillThreshold   005b5fe4     LIBCMTD:dbgheap.obj
 0004:00006fec       __crtBreakAlloc            005b5fec     LIBCMTD:dbgheap.obj
 0004:00007010       __aexit_rtn                005b6010     LIBCMTD:crt0dat.obj
 0004:00007014       ___abort_behavior          005b6014     LIBCMTD:abort.obj
 0004:00007058       ___nullstring              005b6058     LIBCMTD:output.obj
 0004:0000705c       ___wnullstring             005b605c     LIBCMTD:output.obj
 0004:00007398       ___badioinfo               005b6398     LIBCMTD:ioinit.obj
 0004:000073dc       __cfltcvt_tab              005b63dc     LIBCMTD:cmiscdat.obj
 0004:00007410       __XcptActTab               005b6410     LIBCMTD:winxfltr.obj
 0004:00007488       __First_FPE_Indx           005b6488     LIBCMTD:winxfltr.obj
 0004:0000748c       __Num_FPE                  005b648c     LIBCMTD:winxfltr.obj
 0004:00007490       __XcptActTabSize           005b6490     LIBCMTD:winxfltr.obj
 0004:00007494       __XcptActTabCount          005b6494     LIBCMTD:winxfltr.obj
 0004:000074b4       ___flsindex                005b64b4     LIBCMTD:tidtable.obj
 0004:000074b8       ___getvalueindex           005b64b8     LIBCMTD:tidtable.obj
 0004:000074c0       __amblksiz                 005b64c0     LIBCMTD:heapinit.obj
 0004:000075a8       ___initialmbcinfo          005b65a8     LIBCMTD:mbctype.obj
 0004:000077c8       __mbctype                  005b67c8     LIBCMTD:mbctype.obj
 0004:000078d0       __mbcasemap                005b68d0     LIBCMTD:mbctype.obj
 0004:000079d0       ___ptmbcinfo               005b69d0     LIBCMTD:mbctype.obj
 0004:00007bd4       ___globallocalestatus      005b6bd4     LIBCMTD:glstatus.obj
 0004:00007bd8       ___clocalestr              005b6bd8     LIBCMTD:nlsdata2.obj
 0004:00007be0       ___initiallocinfo          005b6be0     LIBCMTD:nlsdata2.obj
 0004:00007cb8       ___ptlocinfo               005b6cb8     LIBCMTD:nlsdata2.obj
 0004:00007cbc       ___lc_clike                005b6cbc     LIBCMTD:nlsdata2.obj
 0004:00007cc0       ___initiallocalestructinfo 005b6cc0     LIBCMTD:nlsdata2.obj
 0004:00007cf8       __NLG_Destination          005b6cf8     LIBCMTD:exsup.obj
 0004:00007d20       __pfnAllocHook             005b6d20     LIBCMTD:dbghook.obj
 0004:00007d30       __indefinite               005b6d30     LIBCMTD:87disp.obj
 0004:00007d3a       __piby2                    005b6d3a     LIBCMTD:87disp.obj
 0004:00007d74       __crtAssertBusy            005b6d74     LIBCMTD:dbgrptt.obj
 0004:00007d78       __CrtDbgMode               005b6d78     LIBCMTD:dbgrptt.obj
 0004:00007d84       __CrtDbgFile               005b6d84     LIBCMTD:dbgrptt.obj
 0004:00007da0       __lookuptrailbytes         005b6da0     LIBCMTD:read.obj
 0004:00007ed4       __pctype                   005b6ed4     LIBCMTD:ctype.obj
 0004:00007ed8       __pwctype                  005b6ed8     LIBCMTD:ctype.obj
 0004:00007ee0       ___lc_time_c               005b6ee0     LIBCMTD:strftime.obj
 0004:00007fbc       ___lc_time_curr            005b6fbc     LIBCMTD:strftime.obj
 0004:00007fc0       ___lconv_static_decimal    005b6fc0     LIBCMTD:lconv.obj
 0004:00007fc4       ___lconv_c                 005b6fc4     LIBCMTD:lconv.obj
 0004:00007ff4       ___lconv                   005b6ff4     LIBCMTD:lconv.obj
 0004:00008004       ___mb_cur_max              005b7004     LIBCMTD:nlsdata1.obj
 0004:00008008       ___decimal_point           005b7008     LIBCMTD:nlsdata1.obj
 0004:0000800c       ___decimal_point_length    005b700c     LIBCMTD:nlsdata1.obj
 0004:00008020       ?_RTC_ErrorLevels@@3PAHA   005b7020     LIBCMTD:error.obj
 0004:00008054       __coninpfh                 005b7054     LIBCMTD:initcon.obj
 0004:00008058       __confh                    005b7058     LIBCMTD:initcon.obj
 0004:00008064       ??_R0?AVbad_exception@std@@@8 005b7064     LIBCMTD:frame.obj
 0004:0000808c       ??_R0?AVexception@std@@@8  005b708c     LIBCMTD:frame.obj
 0004:000080f0       __timezone                 005b70f0     LIBCMTD:timeset.obj
 0004:000080f4       __daylight                 005b70f4     LIBCMTD:timeset.obj
 0004:000080f8       __dstbias                  005b70f8     LIBCMTD:timeset.obj
 0004:00008180       __tzname                   005b7180     LIBCMTD:timeset.obj
 0004:000082e0       __matherr_flag             005b72e0     LIBCMTD:matherr.obj
 0004:00008310       ??_R0?AVtype_info@@@8      005b7310     LIBCMTD:typinfo.obj
 0004:00008330       ??_R0?AVbad_cast@std@@@8   005b7330     LIBCMTD:stdexcpt.obj
 0004:00008350       ??_R0?AVbad_typeid@std@@@8 005b7350     LIBCMTD:stdexcpt.obj
 0004:00008374       ??_R0?AV__non_rtti_object@std@@@8 005b7374     LIBCMTD:stdexcpt.obj
 0004:000083a0       __pow10pos                 005b73a0     LIBCMTD:constpow.obj
 0004:00008500       __pow10neg                 005b7500     LIBCMTD:constpow.obj
 0004:000086e8       __lpdays                   005b76e8     LIBCMTD:days.obj
 0004:0000871c       __days                     005b771c     LIBCMTD:days.obj
 0004:00008768       __d_inf                    005b7768     LIBCMTD:util.obj
 0004:00008770       __d_ind                    005b7770     LIBCMTD:util.obj
 0004:00008778       __d_max                    005b7778     LIBCMTD:util.obj
 0004:00008780       __d_min                    005b7780     LIBCMTD:util.obj
 0004:00008788       __d_mzero                  005b7788     LIBCMTD:util.obj
 0004:0000879c       ??_R0?AVDNameNode@@@8      005b779c     LIBCMTD:undname.obj
 0004:000087b8       ??_R0?AVcharNode@@@8       005b77b8     LIBCMTD:undname.obj
 0004:000087d4       ??_R0?AVpcharNode@@@8      005b77d4     LIBCMTD:undname.obj
 0004:000087f0       ??_R0?AVpDNameNode@@@8     005b77f0     LIBCMTD:undname.obj
 0004:00008810       ??_R0?AVDNameStatusNode@@@8 005b7810     LIBCMTD:undname.obj
 0004:000088c0       ?__LINE__Var@?1??pjmedia_aud_dev_get_info@@9@9 005b78c0     pjmedia-audiodev-i386-win32-vc8-debug:audiodev.obj
 0004:000088c4       ?__LINE__Var@?1??make_global_index@@9@9@1b371fd7 005b78c4     pjmedia-audiodev-i386-win32-vc8-debug:audiodev.obj
 0004:000088c8       ?__LINE__Var@?1??pjmedia_aud_dev_lookup@@9@9 005b78c8     pjmedia-audiodev-i386-win32-vc8-debug:audiodev.obj
 0004:000088cc       ?__LINE__Var@?1??pjmedia_aud_dev_default_param@@9@9 005b78cc     pjmedia-audiodev-i386-win32-vc8-debug:audiodev.obj
 0004:000088d0       ?__LINE__Var@?1??pjmedia_aud_stream_create@@9@9 005b78d0     pjmedia-audiodev-i386-win32-vc8-debug:audiodev.obj
 0004:000088d4       ?__LINE__Var@?1??pjmedia_aud_stream_get_param@@9@9 005b78d4     pjmedia-audiodev-i386-win32-vc8-debug:audiodev.obj
 0004:00008914       ?__LINE__Var@?1??factory_get_dev_info@@9@9@fa0a78e3 005b7914     pjmedia-audiodev-i386-win32-vc8-debug:wmme_dev.obj
 0004:00008918       ?__LINE__Var@?1??factory_default_param@@9@9@fa0a78e3 005b7918     pjmedia-audiodev-i386-win32-vc8-debug:wmme_dev.obj
 0004:0000891c       ?__LINE__Var@?1??factory_create_stream@@9@9@fa0a78e3 005b791c     pjmedia-audiodev-i386-win32-vc8-debug:wmme_dev.obj
 0004:00008920       ?__LINE__Var@?1??init_player_stream@@9@9@fa0a78e3 005b7920     pjmedia-audiodev-i386-win32-vc8-debug:wmme_dev.obj
 0004:00008924       ?__LINE__Var@?1??init_capture_stream@@9@9@fa0a78e3 005b7924     pjmedia-audiodev-i386-win32-vc8-debug:wmme_dev.obj
 0004:00008928       ?__LINE__Var@?1??wmme_dev_thread@@9@9@fa0a78e3 005b7928     pjmedia-audiodev-i386-win32-vc8-debug:wmme_dev.obj
 0004:0000892c       ?__LINE__Var@?1??stream_get_param@@9@9@fa0a78e3 005b792c     pjmedia-audiodev-i386-win32-vc8-debug:wmme_dev.obj
 0004:00008930       ?__LINE__Var@?1??stream_get_cap@@9@9@fa0a78e3 005b7930     pjmedia-audiodev-i386-win32-vc8-debug:wmme_dev.obj
 0004:00008934       ?__LINE__Var@?1??stream_set_cap@@9@9@fa0a78e3 005b7934     pjmedia-audiodev-i386-win32-vc8-debug:wmme_dev.obj
 0004:00008938       ?__LINE__Var@?1??stream_stop@@9@9@fa0a78e3 005b7938     pjmedia-audiodev-i386-win32-vc8-debug:wmme_dev.obj
 0004:0000893c       ?__LINE__Var@?1??stream_destroy@@9@9@fa0a78e3 005b793c     pjmedia-audiodev-i386-win32-vc8-debug:wmme_dev.obj
 0004:000fa624       _pjsip_use_compact_form    006a9624     pjsip-core-i386-win32-vc8-debug:sip_msg.obj
 0004:000fde68       _pj_optarg                 006ace68     pjlib-util-i386-win32-vc8-debug:getopt.obj
 0004:000fde6c       ___getopt_initialized      006ace6c     pjlib-util-i386-win32-vc8-debug:getopt.obj
 0004:000fe268       _crypto_kernel             006ad268     libsrtp-i386-win32-vc8-debug:crypto_kernel.obj
 0004:000fe27c       _aes_icm_test_case_0_nonce 006ad27c     libsrtp-i386-win32-vc8-debug:aes_icm.obj
 0004:000fe28c       _aes_icm_test_case_0_plaintext 006ad28c     libsrtp-i386-win32-vc8-debug:aes_icm.obj
 0004:000fe2b8       _null_auth_test_case_0     006ad2b8     libsrtp-i386-win32-vc8-debug:null_auth.obj
 0004:000fe2dc       _aes_cbc_test_case_0_iv    006ad2dc     libsrtp-i386-win32-vc8-debug:aes_cbc.obj
 0004:000fe2f0       _null_cipher_test_0        006ad2f0     libsrtp-i386-win32-vc8-debug:null_cipher.obj
 0004:000fe31c       ___fastflag                006ad31c     LIBCMTD:fpinit.obj
 0004:000fe320       __adjust_fdiv              006ad320     LIBCMTD:fpinit.obj
 0004:000fe328       __cflush                   006ad328     LIBCMTD:_file.obj
 0004:000fe32c       __aenvptr                  006ad32c     LIBCMTD:crt0.obj
 0004:000fe330       __wenvptr                  006ad330     LIBCMTD:crt0.obj
 0004:000fe334       ___error_mode              006ad334     LIBCMTD:crt0.obj
 0004:000fe350       ?_pfnDumpClient@@3P6AXPAXI@ZA 006ad350     LIBCMTD:dbgheap.obj
 0004:000fe358       ___crtDebugCheckCount      006ad358     LIBCMTD:dbgheap.obj
 0004:000fe368       __umaskval                 006ad368     LIBCMTD:crt0dat.obj
 0004:000fe36c       __osplatform               006ad36c     LIBCMTD:crt0dat.obj
 0004:000fe370       __osver                    006ad370     LIBCMTD:crt0dat.obj
 0004:000fe374       __winver                   006ad374     LIBCMTD:crt0dat.obj
 0004:000fe378       __winmajor                 006ad378     LIBCMTD:crt0dat.obj
 0004:000fe37c       __winminor                 006ad37c     LIBCMTD:crt0dat.obj
 0004:000fe380       ___argc                    006ad380     LIBCMTD:crt0dat.obj
 0004:000fe384       ___argv                    006ad384     LIBCMTD:crt0dat.obj
 0004:000fe388       ___wargv                   006ad388     LIBCMTD:crt0dat.obj
 0004:000fe38c       __environ                  006ad38c     LIBCMTD:crt0dat.obj
 0004:000fe390       ___initenv                 006ad390     LIBCMTD:crt0dat.obj
 0004:000fe394       __wenviron                 006ad394     LIBCMTD:crt0dat.obj
 0004:000fe398       ___winitenv                006ad398     LIBCMTD:crt0dat.obj
 0004:000fe39c       __pgmptr                   006ad39c     LIBCMTD:crt0dat.obj
 0004:000fe3a0       __wpgmptr                  006ad3a0     LIBCMTD:crt0dat.obj
 0004:000fe3a4       __exitflag                 006ad3a4     LIBCMTD:crt0dat.obj
 0004:000fe3a8       __C_Termination_Done       006ad3a8     LIBCMTD:crt0dat.obj
 0004:000fe3ac       __C_Exit_Done              006ad3ac     LIBCMTD:crt0dat.obj
 0004:000fe404       ___pInvalidArgHandler      006ad404     LIBCMTD:invarg.obj
 0004:000fe980       __stdbuf                   006ad980     LIBCMTD:_sftbuf.obj
 0004:000fead0       _gpFlsAlloc                006adad0     LIBCMTD:tidtable.obj
 0004:000fead4       _gpFlsGetValue             006adad4     LIBCMTD:tidtable.obj
 0004:000fead8       _gpFlsSetValue             006adad8     LIBCMTD:tidtable.obj
 0004:000feadc       _gpFlsFree                 006adadc     LIBCMTD:tidtable.obj
 0004:000feae4       __crtheap                  006adae4     LIBCMTD:heapinit.obj
 0004:000feea0       ___mbulinfo                006adea0     LIBCMTD:mbctype.obj
 0004:000feeac       ___mbcodepage              006adeac     LIBCMTD:mbctype.obj
 0004:000feeb0       ___ismbcodepage            006adeb0     LIBCMTD:mbctype.obj
 0004:000feeb4       ___mblcid                  006adeb4     LIBCMTD:mbctype.obj
 0004:000feec0       ___locale_changed          006adec0     LIBCMTD:setlocal.obj
 0004:000feec4       ___lc_handle               006adec4     LIBCMTD:nlsdata2.obj
 0004:000feedc       ___lc_codepage             006adedc     LIBCMTD:nlsdata2.obj
 0004:000feee0       ___lc_collate_cp           006adee0     LIBCMTD:nlsdata2.obj
 0004:000feef0       __newmode                  006adef0     LIBCMTD:_newmode.obj
 0004:000feef4       ?_pnhHeap@@3P6AHI@ZA       006adef4     LIBCMTD:handler.obj
 0004:000feef8       ___sbh_pHeaderDefer        006adef8     LIBCMTD:sbheap.obj
 0004:000feefc       ?__pInconsistency@@3P6AXXZA 006adefc     LIBCMTD:hooks.obj
 0004:000fef0c       ___pPurecall               006adf0c     LIBCMTD:inithelp.obj
 0004:000fef30       __commode                  006adf30     LIBCMTD:ncommode.obj
 0004:000fef34       __outputformat             006adf34     LIBCMTD:outputformat.obj
 0004:000fef3c       ___lconv_static_null       006adf3c     LIBCMTD:lconv.obj
 0004:000fef48       ?wsprintffp@@3P6AHPADPBDZZA 006adf48     LIBCMTD:error.obj
 0004:000ff048       __fmode                    006ae048     LIBCMTD:txtmode.obj
 0004:000ff06c       ?pArgList@UnDecorator@@0PAVReplicator@@A 006ae06c     LIBCMTD:undname.obj
 0004:000ff070       ?pZNameList@UnDecorator@@0PAVReplicator@@A 006ae070     LIBCMTD:undname.obj
 0004:000ff074       ?pTemplateArgList@UnDecorator@@0PAVReplicator@@A 006ae074     LIBCMTD:undname.obj
 0004:000ff078       ?gName@UnDecorator@@0PBDB  006ae078     LIBCMTD:undname.obj
 0004:000ff07c       ?name@UnDecorator@@0PBDB   006ae07c     LIBCMTD:undname.obj
 0004:000ff080       ?outputString@UnDecorator@@0PADA 006ae080     LIBCMTD:undname.obj
 0004:000ff084       ?maxStringLength@UnDecorator@@0HA 006ae084     LIBCMTD:undname.obj
 0004:000ff088       ?disableFlags@UnDecorator@@0KA 006ae088     LIBCMTD:undname.obj
 0004:000ff08c       ?m_pGetParameter@UnDecorator@@0P6APADJ@ZA 006ae08c     LIBCMTD:undname.obj
 0004:000ff090       ?fExplicitTemplateParams@UnDecorator@@0_NA 006ae090     LIBCMTD:undname.obj
 0004:000ff091       ?fGetTemplateArgumentList@UnDecorator@@0_NA 006ae091     LIBCMTD:undname.obj
 0004:000ff6e4       _pjsip_dlg_lock_tls_id     006ae6e4     <common>
 0004:000ff700       _stack_based_factory       006ae700     <common>
 0004:000ff734       _PJ_NO_MEMORY_EXCEPTION    006ae734     <common>
 0004:000ff740       _ctr_prng                  006ae740     <common>
 0004:000ff880       _bit_string                006ae880     <common>
 0004:000ffd54       __pfnReportHook            006aed54     <common>
 0004:000ffd64       __pReportHookListW         006aed64     <common>
 0004:000ffd68       __pReportHookList          006aed68     <common>
 0004:000ffd6c       ___sbh_initialized         006aed6c     <common>
 0004:000ffd80       ___sbh_cntHeaderList       006aed80     <common>
 0004:000ffd84       ___sbh_pHeaderList         006aed84     <common>
 0004:000ffd88       ___sbh_threshold           006aed88     <common>
 0004:000ffd8c       ___sbh_pHeaderScan         006aed8c     <common>
 0004:000ffd90       ___sbh_sizeHeaderList      006aed90     <common>
 0004:000ffd94       ___sbh_indGroupDefer       006aed94     <common>
 0004:000ffd98       __debugger_hook_dummy      006aed98     <common>
 0004:000ffda4       ___setlc_active            006aeda4     <common>
 0004:000ffdb4       ___unguarded_readlc_active 006aedb4     <common>
 0004:000ffdb8       ___active_heap             006aedb8     <common>
 0004:000ffdc4       __nhandle                  006aedc4     <common>
 0004:000ffe20       ___pioinfo                 006aee20     <common>
 0004:000fff20       ___use_sse2_mathfcns       006aef20     <common>
 0004:000fff30       ___sse2_available          006aef30     <common>
 0004:000fff34       ___env_initialized         006aef34     <common>
 0004:000fff44       ___onexitend               006aef44     <common>
 0004:000fff48       ___onexitbegin             006aef48     <common>
 0004:000fff4c       ___mbctype_initialized     006aef4c     <common>
 0004:000fff50       ___dyn_tls_init_callback   006aef50     <common>
 0004:000fff54       __setjmpexused             006aef54     <common>
 0004:000fff60       __acmdln                   006aef60     <common>
 0004:000fff6c       ___piob                    006aef6c     <common>
 0004:001002c0       __bufin                    006af2c0     <common>
 0004:001012c0       __nstream                  006b02c0     <common>
 0005:00000000       __IMPORT_DESCRIPTOR_ole32  006b1000     ole32:ole32.dll
 0005:00000014       __IMPORT_DESCRIPTOR_WS2_32 006b1014     ws2_32:WS2_32.dll
 0005:00000028       __IMPORT_DESCRIPTOR_KERNEL32 006b1028     kernel32:KERNEL32.dll
 0005:0000003c       __IMPORT_DESCRIPTOR_WINMM  006b103c     winmm:WINMM.dll
 0005:00000050       __NULL_IMPORT_DESCRIPTOR   006b1050     ole32:ole32.dll
 0005:00000454       __imp__IsBadReadPtr@8      006b1454     kernel32:KERNEL32.dll
 0005:00000458       __imp__GetUserDefaultLCID@0 006b1458     kernel32:KERNEL32.dll
 0005:0000045c       __imp__EnumSystemLocalesA@8 006b145c     kernel32:KERNEL32.dll
 0005:00000460       __imp__IsValidLocale@8     006b1460     kernel32:KERNEL32.dll
 0005:00000464       __imp__GetLocaleInfoA@16   006b1464     kernel32:KERNEL32.dll
 0005:00000468       __imp__GetDateFormatA@24   006b1468     kernel32:KERNEL32.dll
 0005:0000046c       __imp__GetTimeFormatA@24   006b146c     kernel32:KERNEL32.dll
 0005:00000470       __imp__GetStringTypeW@16   006b1470     kernel32:KERNEL32.dll
 0005:00000474       __imp__GetStringTypeA@20   006b1474     kernel32:KERNEL32.dll
 0005:00000478       __imp__ReadFile@20         006b1478     kernel32:KERNEL32.dll
 0005:0000047c       __imp__GetConsoleOutputCP@0 006b147c     kernel32:KERNEL32.dll
 0005:00000480       __imp__WriteConsoleA@20    006b1480     kernel32:KERNEL32.dll
 0005:00000484       __imp__SetStdHandle@8      006b1484     kernel32:KERNEL32.dll
 0005:00000488       __imp__CreateFileA@28      006b1488     kernel32:KERNEL32.dll
 0005:0000048c       __imp__OutputDebugStringW@4 006b148c     kernel32:KERNEL32.dll
 0005:00000490       __imp__OutputDebugStringA@4 006b1490     kernel32:KERNEL32.dll
 0005:00000494       __imp__DebugBreak@0        006b1494     kernel32:KERNEL32.dll
 0005:00000498       __imp__SetFilePointer@16   006b1498     kernel32:KERNEL32.dll
 0005:0000049c       __imp__VirtualAlloc@16     006b149c     kernel32:KERNEL32.dll
 0005:000004a0       __imp__HeapReAlloc@16      006b14a0     kernel32:KERNEL32.dll
 0005:000004a4       __imp__LCMapStringW@24     006b14a4     kernel32:KERNEL32.dll
 0005:000004a8       __imp__LCMapStringA@24     006b14a8     kernel32:KERNEL32.dll
 0005:000004ac       __imp__MultiByteToWideChar@24 006b14ac     kernel32:KERNEL32.dll
 0005:000004b0       __imp__IsValidCodePage@4   006b14b0     kernel32:KERNEL32.dll
 0005:000004b4       __imp__GetCPInfo@8         006b14b4     kernel32:KERNEL32.dll
 0005:000004b8       __imp__WaitForMultipleObjects@16 006b14b8     kernel32:KERNEL32.dll
 0005:000004bc       __imp__SetEnvironmentVariableA@8 006b14bc     kernel32:KERNEL32.dll
 0005:000004c0       __imp__CompareStringW@24   006b14c0     kernel32:KERNEL32.dll
 0005:000004c4       __imp__CompareStringA@24   006b14c4     kernel32:KERNEL32.dll
 0005:000004c8       __imp__VirtualQuery@12     006b14c8     kernel32:KERNEL32.dll
 0005:000004cc       __imp__GetTimeZoneInformation@4 006b14cc     kernel32:KERNEL32.dll
 0005:000004d0       __imp__SetEndOfFile@4      006b14d0     kernel32:KERNEL32.dll
 0005:000004d4       __imp__lstrlenA@4          006b14d4     kernel32:KERNEL32.dll
 0005:000004d8       __imp__RaiseException@16   006b14d8     kernel32:KERNEL32.dll
 0005:000004dc       __imp__SetThreadPriority@8 006b14dc     kernel32:KERNEL32.dll
 0005:000004e0       __imp__GetCurrentThread@0  006b14e0     kernel32:KERNEL32.dll
 0005:000004e4       __imp__SetPriorityClass@8  006b14e4     kernel32:KERNEL32.dll
 0005:000004e8       __imp__GetCurrentProcess@0 006b14e8     kernel32:KERNEL32.dll
 0005:000004ec       __imp__SystemTimeToFileTime@8 006b14ec     kernel32:KERNEL32.dll
 0005:000004f0       __imp__GetLocalTime@4      006b14f0     kernel32:KERNEL32.dll
 0005:000004f4       __imp__FileTimeToSystemTime@8 006b14f4     kernel32:KERNEL32.dll
 0005:000004f8       __imp__GetCurrentProcessId@0 006b14f8     kernel32:KERNEL32.dll
 0005:000004fc       __imp__GetThreadPriority@4 006b14fc     kernel32:KERNEL32.dll
 0005:00000500       __imp__GetLastError@0      006b1500     kernel32:KERNEL32.dll
 0005:00000504       __imp__GetCurrentThreadId@0 006b1504     kernel32:KERNEL32.dll
 0005:00000508       __imp__CreateThread@24     006b1508     kernel32:KERNEL32.dll
 0005:0000050c       __imp__ResumeThread@4      006b150c     kernel32:KERNEL32.dll
 0005:00000510       __imp__WaitForSingleObject@8 006b1510     kernel32:KERNEL32.dll
 0005:00000514       __imp__CloseHandle@4       006b1514     kernel32:KERNEL32.dll
 0005:00000518       __imp__Sleep@4             006b1518     kernel32:KERNEL32.dll
 0005:0000051c       __imp__InterlockedExchange@8 006b151c     kernel32:KERNEL32.dll
 0005:00000520       __imp__InterlockedIncrement@4 006b1520     kernel32:KERNEL32.dll
 0005:00000524       __imp__InterlockedDecrement@4 006b1524     kernel32:KERNEL32.dll
 0005:00000528       __imp__InterlockedExchangeAdd@8 006b1528     kernel32:KERNEL32.dll
 0005:0000052c       __imp__TlsAlloc@0          006b152c     kernel32:KERNEL32.dll
 0005:00000530       __imp__TlsFree@4           006b1530     kernel32:KERNEL32.dll
 0005:00000534       __imp__TlsSetValue@8       006b1534     kernel32:KERNEL32.dll
 0005:00000538       __imp__TlsGetValue@4       006b1538     kernel32:KERNEL32.dll
 0005:0000053c       __imp__InitializeCriticalSection@4 006b153c     kernel32:KERNEL32.dll
 0005:00000540       __imp__EnterCriticalSection@4 006b1540     kernel32:KERNEL32.dll
 0005:00000544       __imp__LeaveCriticalSection@4 006b1544     kernel32:KERNEL32.dll
 0005:00000548       __imp__TryEnterCriticalSection@4 006b1548     kernel32:KERNEL32.dll
 0005:0000054c       __imp__DeleteCriticalSection@4 006b154c     kernel32:KERNEL32.dll
 0005:00000550       __imp__CreateSemaphoreA@16 006b1550     kernel32:KERNEL32.dll
 0005:00000554       __imp__ReleaseSemaphore@12 006b1554     kernel32:KERNEL32.dll
 0005:00000558       __imp__CreateEventA@16     006b1558     kernel32:KERNEL32.dll
 0005:0000055c       __imp__SetEvent@4          006b155c     kernel32:KERNEL32.dll
 0005:00000560       __imp__PulseEvent@4        006b1560     kernel32:KERNEL32.dll
 0005:00000564       __imp__ResetEvent@4        006b1564     kernel32:KERNEL32.dll
 0005:00000568       __imp__SetConsoleTextAttribute@8 006b1568     kernel32:KERNEL32.dll
 0005:0000056c       __imp__GetStdHandle@4      006b156c     kernel32:KERNEL32.dll
 0005:00000570       __imp__GetConsoleScreenBufferInfo@8 006b1570     kernel32:KERNEL32.dll
 0005:00000574       __imp__QueryPerformanceCounter@4 006b1574     kernel32:KERNEL32.dll
 0005:00000578       __imp__QueryPerformanceFrequency@4 006b1578     kernel32:KERNEL32.dll
 0005:0000057c       __imp__SetLastError@4      006b157c     kernel32:KERNEL32.dll
 0005:00000580       __imp__FormatMessageA@28   006b1580     kernel32:KERNEL32.dll
 0005:00000584       __imp__GetProcAddress@8    006b1584     kernel32:KERNEL32.dll
 0005:00000588       __imp__LoadLibraryA@4      006b1588     kernel32:KERNEL32.dll
 0005:0000058c       __imp__FreeLibrary@4       006b158c     kernel32:KERNEL32.dll
 0005:00000590       __imp__GetModuleFileNameW@12 006b1590     kernel32:KERNEL32.dll
 0005:00000594       __imp__WriteConsoleW@20    006b1594     kernel32:KERNEL32.dll
 0005:00000598       __imp__GetFileType@4       006b1598     kernel32:KERNEL32.dll
 0005:0000059c       __imp__GetCommandLineA@0   006b159c     kernel32:KERNEL32.dll
 0005:000005a0       __imp__HeapFree@12         006b15a0     kernel32:KERNEL32.dll
 0005:000005a4       __imp__GetVersionExA@4     006b15a4     kernel32:KERNEL32.dll
 0005:000005a8       __imp__HeapAlloc@12        006b15a8     kernel32:KERNEL32.dll
 0005:000005ac       __imp__GetProcessHeap@0    006b15ac     kernel32:KERNEL32.dll
 0005:000005b0       __imp__HeapValidate@12     006b15b0     kernel32:KERNEL32.dll
 0005:000005b4       __imp__GetOEMCP@0          006b15b4     kernel32:KERNEL32.dll
 0005:000005b8       __imp__RtlUnwind@16        006b15b8     kernel32:KERNEL32.dll
 0005:000005bc       __imp__GetModuleHandleA@4  006b15bc     kernel32:KERNEL32.dll
 0005:000005c0       __imp__ExitProcess@4       006b15c0     kernel32:KERNEL32.dll
 0005:000005c4       __imp__GetSystemTimeAsFileTime@4 006b15c4     kernel32:KERNEL32.dll
 0005:000005c8       __imp__SetConsoleCtrlHandler@8 006b15c8     kernel32:KERNEL32.dll
 0005:000005cc       __imp__LoadLibraryW@4      006b15cc     kernel32:KERNEL32.dll
 0005:000005d0       __imp__UnhandledExceptionFilter@4 006b15d0     kernel32:KERNEL32.dll
 0005:000005d4       __imp__SetUnhandledExceptionFilter@4 006b15d4     kernel32:KERNEL32.dll
 0005:000005d8       __imp__GetModuleFileNameA@12 006b15d8     kernel32:KERNEL32.dll
 0005:000005dc       __imp__WideCharToMultiByte@32 006b15dc     kernel32:KERNEL32.dll
 0005:000005e0       __imp__TerminateProcess@8  006b15e0     kernel32:KERNEL32.dll
 0005:000005e4       __imp__IsDebuggerPresent@0 006b15e4     kernel32:KERNEL32.dll
 0005:000005e8       __imp__FlushFileBuffers@4  006b15e8     kernel32:KERNEL32.dll
 0005:000005ec       __imp__WriteFile@20        006b15ec     kernel32:KERNEL32.dll
 0005:000005f0       __imp__GetConsoleCP@0      006b15f0     kernel32:KERNEL32.dll
 0005:000005f4       __imp__GetConsoleMode@8    006b15f4     kernel32:KERNEL32.dll
 0005:000005f8       __imp__FatalAppExitA@8     006b15f8     kernel32:KERNEL32.dll
 0005:000005fc       __imp__SetHandleCount@4    006b15fc     kernel32:KERNEL32.dll
 0005:00000600       __imp__GetStartupInfoA@4   006b1600     kernel32:KERNEL32.dll
 0005:00000604       __imp__GetTickCount@0      006b1604     kernel32:KERNEL32.dll
 0005:00000608       __imp__FreeEnvironmentStringsA@4 006b1608     kernel32:KERNEL32.dll
 0005:0000060c       __imp__GetEnvironmentStrings@0 006b160c     kernel32:KERNEL32.dll
 0005:00000610       __imp__FreeEnvironmentStringsW@4 006b1610     kernel32:KERNEL32.dll
 0005:00000614       __imp__GetEnvironmentStringsW@0 006b1614     kernel32:KERNEL32.dll
 0005:00000618       __imp__HeapDestroy@4       006b1618     kernel32:KERNEL32.dll
 0005:0000061c       __imp__HeapCreate@12       006b161c     kernel32:KERNEL32.dll
 0005:00000620       __imp__VirtualFree@12      006b1620     kernel32:KERNEL32.dll
 0005:00000624       __imp__GetACP@0            006b1624     kernel32:KERNEL32.dll
 0005:00000628       __imp__GetLocaleInfoW@16   006b1628     kernel32:KERNEL32.dll
 0005:0000062c       \177KERNEL32_NULL_THUNK_DATA 006b162c     kernel32:KERNEL32.dll
 0005:000006b4       __imp__waveOutGetDevCapsA@12 006b16b4     winmm:WINMM.dll
 0005:000006b8       __imp__waveInGetDevCapsA@12 006b16b8     winmm:WINMM.dll
 0005:000006bc       __imp__waveOutGetNumDevs@0 006b16bc     winmm:WINMM.dll
 0005:000006c0       __imp__waveInGetNumDevs@0  006b16c0     winmm:WINMM.dll
 0005:000006c4       __imp__waveOutWrite@12     006b16c4     winmm:WINMM.dll
 0005:000006c8       __imp__waveOutPrepareHeader@12 006b16c8     winmm:WINMM.dll
 0005:000006cc       __imp__waveOutPause@4      006b16cc     winmm:WINMM.dll
 0005:000006d0       __imp__waveOutOpen@24      006b16d0     winmm:WINMM.dll
 0005:000006d4       __imp__waveInAddBuffer@12  006b16d4     winmm:WINMM.dll
 0005:000006d8       __imp__waveInPrepareHeader@12 006b16d8     winmm:WINMM.dll
 0005:000006dc       __imp__waveInOpen@24       006b16dc     winmm:WINMM.dll
 0005:000006e0       __imp__waveOutGetVolume@8  006b16e0     winmm:WINMM.dll
 0005:000006e4       __imp__waveOutSetVolume@8  006b16e4     winmm:WINMM.dll
 0005:000006e8       __imp__waveInStart@4       006b16e8     winmm:WINMM.dll
 0005:000006ec       __imp__waveOutRestart@4    006b16ec     winmm:WINMM.dll
 0005:000006f0       __imp__waveInStop@4        006b16f0     winmm:WINMM.dll
 0005:000006f4       __imp__waveInClose@4       006b16f4     winmm:WINMM.dll
 0005:000006f8       __imp__waveInUnprepareHeader@12 006b16f8     winmm:WINMM.dll
 0005:000006fc       __imp__waveInReset@4       006b16fc     winmm:WINMM.dll
 0005:00000700       __imp__waveOutClose@4      006b1700     winmm:WINMM.dll
 0005:00000704       __imp__waveOutUnprepareHeader@12 006b1704     winmm:WINMM.dll
 0005:00000708       __imp__waveOutReset@4      006b1708     winmm:WINMM.dll
 0005:0000070c       __imp__waveOutGetErrorTextA@12 006b170c     winmm:WINMM.dll
 0005:00000710       __imp__waveInGetErrorTextA@12 006b1710     winmm:WINMM.dll
 0005:00000714       \177WINMM_NULL_THUNK_DATA  006b1714     winmm:WINMM.dll
 0005:00000750       __imp__select@20           006b1750     ws2_32:WS2_32.dll
 0005:00000754       __imp____WSAFDIsSet@8      006b1754     ws2_32:WS2_32.dll
 0005:00000758       __imp__gethostbyname@4     006b1758     ws2_32:WS2_32.dll
 0005:0000075c       __imp__WSASetLastError@4   006b175c     ws2_32:WS2_32.dll
 0005:00000760       __imp__ioctlsocket@12      006b1760     ws2_32:WS2_32.dll
 0005:00000764       __imp__WSACleanup@0        006b1764     ws2_32:WS2_32.dll
 0005:00000768       __imp__WSAStartup@8        006b1768     ws2_32:WS2_32.dll
 0005:0000076c       __imp__accept@12           006b176c     ws2_32:WS2_32.dll
 0005:00000770       __imp__listen@8            006b1770     ws2_32:WS2_32.dll
 0005:00000774       __imp__shutdown@8          006b1774     ws2_32:WS2_32.dll
 0005:00000778       __imp__connect@12          006b1778     ws2_32:WS2_32.dll
 0005:0000077c       __imp__setsockopt@20       006b177c     ws2_32:WS2_32.dll
 0005:00000780       __imp__getsockopt@20       006b1780     ws2_32:WS2_32.dll
 0005:00000784       __imp__recvfrom@24         006b1784     ws2_32:WS2_32.dll
 0005:00000788       __imp__recv@16             006b1788     ws2_32:WS2_32.dll
 0005:0000078c       __imp__sendto@24           006b178c     ws2_32:WS2_32.dll
 0005:00000790       __imp__send@16             006b1790     ws2_32:WS2_32.dll
 0005:00000794       __imp__getsockname@12      006b1794     ws2_32:WS2_32.dll
 0005:00000798       __imp__getpeername@12      006b1798     ws2_32:WS2_32.dll
 0005:0000079c       __imp__closesocket@4       006b179c     ws2_32:WS2_32.dll
 0005:000007a0       __imp__bind@12             006b17a0     ws2_32:WS2_32.dll
 0005:000007a4       __imp__WSASocketA@24       006b17a4     ws2_32:WS2_32.dll
 0005:000007a8       __imp__WSAGetLastError@0   006b17a8     ws2_32:WS2_32.dll
 0005:000007ac       __imp__gethostname@8       006b17ac     ws2_32:WS2_32.dll
 0005:000007b0       __imp__WSAAddressToStringA@20 006b17b0     ws2_32:WS2_32.dll
 0005:000007b4       __imp__WSAStringToAddressA@20 006b17b4     ws2_32:WS2_32.dll
 0005:000007b8       __imp__inet_addr@4         006b17b8     ws2_32:WS2_32.dll
 0005:000007bc       __imp__inet_ntoa@4         006b17bc     ws2_32:WS2_32.dll
 0005:000007c0       __imp__htonl@4             006b17c0     ws2_32:WS2_32.dll
 0005:000007c4       __imp__ntohl@4             006b17c4     ws2_32:WS2_32.dll
 0005:000007c8       __imp__htons@4             006b17c8     ws2_32:WS2_32.dll
 0005:000007cc       __imp__ntohs@4             006b17cc     ws2_32:WS2_32.dll
 0005:000007d0       \177WS2_32_NULL_THUNK_DATA 006b17d0     ws2_32:WS2_32.dll
 0005:00000814       __imp__CoCreateGuid@4      006b1814     ole32:ole32.dll
 0005:00000818       \177ole32_NULL_THUNK_DATA  006b1818     ole32:ole32.dll

 entry point at        0002:00000b7c

